
bin/avx2:     file format elf64-x86-64


Disassembly of section .init:

0000000000400858 <_init>:
  400858:	48 83 ec 08          	sub    $0x8,%rsp
  40085c:	48 8b 05 7d 47 20 00 	mov    0x20477d(%rip),%rax        # 604fe0 <_DYNAMIC+0x200>
  400863:	48 85 c0             	test   %rax,%rax
  400866:	74 05                	je     40086d <_init+0x15>
  400868:	e8 33 01 00 00       	callq  4009a0 <__vsprintf_chk@plt+0x10>
  40086d:	48 83 c4 08          	add    $0x8,%rsp
  400871:	c3                   	retq   

Disassembly of section .plt:

0000000000400880 <getenv@plt-0x10>:
  400880:	ff 35 82 47 20 00    	pushq  0x204782(%rip)        # 605008 <_GLOBAL_OFFSET_TABLE_+0x8>
  400886:	ff 25 84 47 20 00    	jmpq   *0x204784(%rip)        # 605010 <_GLOBAL_OFFSET_TABLE_+0x10>
  40088c:	0f 1f 40 00          	nopl   0x0(%rax)

0000000000400890 <getenv@plt>:
  400890:	ff 25 82 47 20 00    	jmpq   *0x204782(%rip)        # 605018 <_GLOBAL_OFFSET_TABLE_+0x18>
  400896:	68 00 00 00 00       	pushq  $0x0
  40089b:	e9 e0 ff ff ff       	jmpq   400880 <_init+0x28>

00000000004008a0 <strncpy@plt>:
  4008a0:	ff 25 7a 47 20 00    	jmpq   *0x20477a(%rip)        # 605020 <_GLOBAL_OFFSET_TABLE_+0x20>
  4008a6:	68 01 00 00 00       	pushq  $0x1
  4008ab:	e9 d0 ff ff ff       	jmpq   400880 <_init+0x28>

00000000004008b0 <setenv@plt>:
  4008b0:	ff 25 72 47 20 00    	jmpq   *0x204772(%rip)        # 605028 <_GLOBAL_OFFSET_TABLE_+0x28>
  4008b6:	68 02 00 00 00       	pushq  $0x2
  4008bb:	e9 c0 ff ff ff       	jmpq   400880 <_init+0x28>

00000000004008c0 <strlen@plt>:
  4008c0:	ff 25 6a 47 20 00    	jmpq   *0x20476a(%rip)        # 605030 <_GLOBAL_OFFSET_TABLE_+0x30>
  4008c6:	68 03 00 00 00       	pushq  $0x3
  4008cb:	e9 b0 ff ff ff       	jmpq   400880 <_init+0x28>

00000000004008d0 <__stack_chk_fail@plt>:
  4008d0:	ff 25 62 47 20 00    	jmpq   *0x204762(%rip)        # 605038 <_GLOBAL_OFFSET_TABLE_+0x38>
  4008d6:	68 04 00 00 00       	pushq  $0x4
  4008db:	e9 a0 ff ff ff       	jmpq   400880 <_init+0x28>

00000000004008e0 <strchr@plt>:
  4008e0:	ff 25 5a 47 20 00    	jmpq   *0x20475a(%rip)        # 605040 <_GLOBAL_OFFSET_TABLE_+0x40>
  4008e6:	68 05 00 00 00       	pushq  $0x5
  4008eb:	e9 90 ff ff ff       	jmpq   400880 <_init+0x28>

00000000004008f0 <printf@plt>:
  4008f0:	ff 25 52 47 20 00    	jmpq   *0x204752(%rip)        # 605048 <_GLOBAL_OFFSET_TABLE_+0x48>
  4008f6:	68 06 00 00 00       	pushq  $0x6
  4008fb:	e9 80 ff ff ff       	jmpq   400880 <_init+0x28>

0000000000400900 <__libc_start_main@plt>:
  400900:	ff 25 4a 47 20 00    	jmpq   *0x20474a(%rip)        # 605050 <_GLOBAL_OFFSET_TABLE_+0x50>
  400906:	68 07 00 00 00       	pushq  $0x7
  40090b:	e9 70 ff ff ff       	jmpq   400880 <_init+0x28>

0000000000400910 <catopen@plt>:
  400910:	ff 25 42 47 20 00    	jmpq   *0x204742(%rip)        # 605058 <_GLOBAL_OFFSET_TABLE_+0x58>
  400916:	68 08 00 00 00       	pushq  $0x8
  40091b:	e9 60 ff ff ff       	jmpq   400880 <_init+0x28>

0000000000400920 <__printf_chk@plt>:
  400920:	ff 25 3a 47 20 00    	jmpq   *0x20473a(%rip)        # 605060 <_GLOBAL_OFFSET_TABLE_+0x60>
  400926:	68 09 00 00 00       	pushq  $0x9
  40092b:	e9 50 ff ff ff       	jmpq   400880 <_init+0x28>

0000000000400930 <fopen@plt>:
  400930:	ff 25 32 47 20 00    	jmpq   *0x204732(%rip)        # 605068 <_GLOBAL_OFFSET_TABLE_+0x68>
  400936:	68 0a 00 00 00       	pushq  $0xa
  40093b:	e9 40 ff ff ff       	jmpq   400880 <_init+0x28>

0000000000400940 <catgets@plt>:
  400940:	ff 25 2a 47 20 00    	jmpq   *0x20472a(%rip)        # 605070 <_GLOBAL_OFFSET_TABLE_+0x70>
  400946:	68 0b 00 00 00       	pushq  $0xb
  40094b:	e9 30 ff ff ff       	jmpq   400880 <_init+0x28>

0000000000400950 <exit@plt>:
  400950:	ff 25 22 47 20 00    	jmpq   *0x204722(%rip)        # 605078 <_GLOBAL_OFFSET_TABLE_+0x78>
  400956:	68 0c 00 00 00       	pushq  $0xc
  40095b:	e9 20 ff ff ff       	jmpq   400880 <_init+0x28>

0000000000400960 <fwrite@plt>:
  400960:	ff 25 1a 47 20 00    	jmpq   *0x20471a(%rip)        # 605080 <_GLOBAL_OFFSET_TABLE_+0x80>
  400966:	68 0d 00 00 00       	pushq  $0xd
  40096b:	e9 10 ff ff ff       	jmpq   400880 <_init+0x28>

0000000000400970 <__fprintf_chk@plt>:
  400970:	ff 25 12 47 20 00    	jmpq   *0x204712(%rip)        # 605088 <_GLOBAL_OFFSET_TABLE_+0x88>
  400976:	68 0e 00 00 00       	pushq  $0xe
  40097b:	e9 00 ff ff ff       	jmpq   400880 <_init+0x28>

0000000000400980 <__strncat_chk@plt>:
  400980:	ff 25 0a 47 20 00    	jmpq   *0x20470a(%rip)        # 605090 <_GLOBAL_OFFSET_TABLE_+0x90>
  400986:	68 0f 00 00 00       	pushq  $0xf
  40098b:	e9 f0 fe ff ff       	jmpq   400880 <_init+0x28>

0000000000400990 <__vsprintf_chk@plt>:
  400990:	ff 25 02 47 20 00    	jmpq   *0x204702(%rip)        # 605098 <_GLOBAL_OFFSET_TABLE_+0x98>
  400996:	68 10 00 00 00       	pushq  $0x10
  40099b:	e9 e0 fe ff ff       	jmpq   400880 <_init+0x28>

Disassembly of section .plt.got:

00000000004009a0 <.plt.got>:
  4009a0:	ff 25 3a 46 20 00    	jmpq   *0x20463a(%rip)        # 604fe0 <_DYNAMIC+0x200>
  4009a6:	66 90                	xchg   %ax,%ax

Disassembly of section .text:

00000000004009b0 <_start>:
  4009b0:	31 ed                	xor    %ebp,%ebp
  4009b2:	49 89 d1             	mov    %rdx,%r9
  4009b5:	5e                   	pop    %rsi
  4009b6:	48 89 e2             	mov    %rsp,%rdx
  4009b9:	48 83 e4 f0          	and    $0xfffffffffffffff0,%rsp
  4009bd:	50                   	push   %rax
  4009be:	54                   	push   %rsp
  4009bf:	49 c7 c0 60 29 40 00 	mov    $0x402960,%r8
  4009c6:	48 c7 c1 f0 28 40 00 	mov    $0x4028f0,%rcx
  4009cd:	48 c7 c7 a0 0a 40 00 	mov    $0x400aa0,%rdi
  4009d4:	e8 27 ff ff ff       	callq  400900 <__libc_start_main@plt>
  4009d9:	f4                   	hlt    
  4009da:	66 0f 1f 44 00 00    	nopw   0x0(%rax,%rax,1)

00000000004009e0 <deregister_tm_clones>:
  4009e0:	b8 c7 50 60 00       	mov    $0x6050c7,%eax
  4009e5:	55                   	push   %rbp
  4009e6:	48 2d c0 50 60 00    	sub    $0x6050c0,%rax
  4009ec:	48 83 f8 0e          	cmp    $0xe,%rax
  4009f0:	48 89 e5             	mov    %rsp,%rbp
  4009f3:	77 02                	ja     4009f7 <deregister_tm_clones+0x17>
  4009f5:	5d                   	pop    %rbp
  4009f6:	c3                   	retq   
  4009f7:	b8 00 00 00 00       	mov    $0x0,%eax
  4009fc:	48 85 c0             	test   %rax,%rax
  4009ff:	74 f4                	je     4009f5 <deregister_tm_clones+0x15>
  400a01:	5d                   	pop    %rbp
  400a02:	bf c0 50 60 00       	mov    $0x6050c0,%edi
  400a07:	ff e0                	jmpq   *%rax
  400a09:	0f 1f 80 00 00 00 00 	nopl   0x0(%rax)

0000000000400a10 <register_tm_clones>:
  400a10:	b8 c0 50 60 00       	mov    $0x6050c0,%eax
  400a15:	55                   	push   %rbp
  400a16:	48 2d c0 50 60 00    	sub    $0x6050c0,%rax
  400a1c:	48 c1 f8 03          	sar    $0x3,%rax
  400a20:	48 89 e5             	mov    %rsp,%rbp
  400a23:	48 89 c2             	mov    %rax,%rdx
  400a26:	48 c1 ea 3f          	shr    $0x3f,%rdx
  400a2a:	48 01 d0             	add    %rdx,%rax
  400a2d:	48 d1 f8             	sar    %rax
  400a30:	75 02                	jne    400a34 <register_tm_clones+0x24>
  400a32:	5d                   	pop    %rbp
  400a33:	c3                   	retq   
  400a34:	ba 00 00 00 00       	mov    $0x0,%edx
  400a39:	48 85 d2             	test   %rdx,%rdx
  400a3c:	74 f4                	je     400a32 <register_tm_clones+0x22>
  400a3e:	5d                   	pop    %rbp
  400a3f:	48 89 c6             	mov    %rax,%rsi
  400a42:	bf c0 50 60 00       	mov    $0x6050c0,%edi
  400a47:	ff e2                	jmpq   *%rdx
  400a49:	0f 1f 80 00 00 00 00 	nopl   0x0(%rax)

0000000000400a50 <__do_global_dtors_aux>:
  400a50:	80 3d 69 46 20 00 00 	cmpb   $0x0,0x204669(%rip)        # 6050c0 <__TMC_END__>
  400a57:	75 11                	jne    400a6a <__do_global_dtors_aux+0x1a>
  400a59:	55                   	push   %rbp
  400a5a:	48 89 e5             	mov    %rsp,%rbp
  400a5d:	e8 7e ff ff ff       	callq  4009e0 <deregister_tm_clones>
  400a62:	5d                   	pop    %rbp
  400a63:	c6 05 56 46 20 00 01 	movb   $0x1,0x204656(%rip)        # 6050c0 <__TMC_END__>
  400a6a:	f3 c3                	repz retq 
  400a6c:	0f 1f 40 00          	nopl   0x0(%rax)

0000000000400a70 <frame_dummy>:
  400a70:	48 83 3d c0 3d 20 00 	cmpq   $0x0,0x203dc0(%rip)        # 604838 <__JCR_END__>
  400a77:	00 
  400a78:	74 1e                	je     400a98 <frame_dummy+0x28>
  400a7a:	b8 00 00 00 00       	mov    $0x0,%eax
  400a7f:	48 85 c0             	test   %rax,%rax
  400a82:	74 14                	je     400a98 <frame_dummy+0x28>
  400a84:	55                   	push   %rbp
  400a85:	bf 38 48 60 00       	mov    $0x604838,%edi
  400a8a:	48 89 e5             	mov    %rsp,%rbp
  400a8d:	ff d0                	callq  *%rax
  400a8f:	5d                   	pop    %rbp
  400a90:	e9 7b ff ff ff       	jmpq   400a10 <register_tm_clones>
  400a95:	0f 1f 00             	nopl   (%rax)
  400a98:	e9 73 ff ff ff       	jmpq   400a10 <register_tm_clones>
  400a9d:	0f 1f 00             	nopl   (%rax)

0000000000400aa0 <main>:
  400aa0:	55                   	push   %rbp
  400aa1:	48 89 e5             	mov    %rsp,%rbp
  400aa4:	48 83 e4 80          	and    $0xffffffffffffff80,%rsp
  400aa8:	41 57                	push   %r15
  400aaa:	53                   	push   %rbx
  400aab:	48 81 ec 70 10 00 00 	sub    $0x1070,%rsp
  400ab2:	be fe 9f 9d 00       	mov    $0x9d9ffe,%esi
  400ab7:	bf 03 00 00 00       	mov    $0x3,%edi
  400abc:	e8 0f 10 00 00       	callq  401ad0 <__intel_new_feature_proc_init>
  400ac1:	c5 f8 ae 1c 24       	vstmxcsr (%rsp)
  400ac6:	81 0c 24 40 80 00 00 	orl    $0x8040,(%rsp)
  400acd:	c5 f8 ae 14 24       	vldmxcsr (%rsp)
  400ad2:	c5 f8 10 05 b6 1e 00 	vmovups 0x1eb6(%rip),%xmm0        # 402990 <key.425.0.0.1>
  400ad9:	00 
  400ada:	c5 f8 11 84 24 00 10 	vmovups %xmm0,0x1000(%rsp)
  400ae1:	00 00 
  400ae3:	c5 f8 10 05 b5 1e 00 	vmovups 0x1eb5(%rip),%xmm0        # 4029a0 <iv.425.0.0.1>
  400aea:	00 
  400aeb:	c5 f8 11 84 24 10 10 	vmovups %xmm0,0x1010(%rsp)
  400af2:	00 00 
  400af4:	33 c0                	xor    %eax,%eax
  400af6:	89 c3                	mov    %eax,%ebx
  400af8:	be 00 10 00 00       	mov    $0x1000,%esi
  400afd:	48 8d 3c 24          	lea    (%rsp),%rdi
  400b01:	48 8d 94 24 10 10 00 	lea    0x1010(%rsp),%rdx
  400b08:	00 
  400b09:	48 8d 8c 24 00 10 00 	lea    0x1000(%rsp),%rcx
  400b10:	00 
  400b11:	e8 9a 0a 00 00       	callq  4015b0 <crypto_stream>
  400b16:	ff c3                	inc    %ebx
  400b18:	81 fb 10 27 00 00    	cmp    $0x2710,%ebx
  400b1e:	7c d8                	jl     400af8 <main+0x58>
  400b20:	0f 31                	rdtsc  
  400b22:	48 c1 e2 20          	shl    $0x20,%rdx
  400b26:	48 0b c2             	or     %rdx,%rax
  400b29:	48 89 c1             	mov    %rax,%rcx
  400b2c:	33 c0                	xor    %eax,%eax
  400b2e:	49 89 cf             	mov    %rcx,%r15
  400b31:	89 c3                	mov    %eax,%ebx
  400b33:	be 00 10 00 00       	mov    $0x1000,%esi
  400b38:	48 8d 3c 24          	lea    (%rsp),%rdi
  400b3c:	48 8d 94 24 10 10 00 	lea    0x1010(%rsp),%rdx
  400b43:	00 
  400b44:	48 8d 8c 24 00 10 00 	lea    0x1000(%rsp),%rcx
  400b4b:	00 
  400b4c:	e8 5f 0a 00 00       	callq  4015b0 <crypto_stream>
  400b51:	ff c3                	inc    %ebx
  400b53:	81 fb 80 1a 06 00    	cmp    $0x61a80,%ebx
  400b59:	7c d8                	jl     400b33 <main+0x93>
  400b5b:	4c 89 f9             	mov    %r15,%rcx
  400b5e:	0f 31                	rdtsc  
  400b60:	48 c1 e2 20          	shl    $0x20,%rdx
  400b64:	48 0b c2             	or     %rdx,%rax
  400b67:	c5 f9 57 c0          	vxorpd %xmm0,%xmm0,%xmm0
  400b6b:	48 2b c1             	sub    %rcx,%rax
  400b6e:	c4 e1 fb 2a c0       	vcvtsi2sd %rax,%xmm0,%xmm0
  400b73:	79 1a                	jns    400b8f <main+0xef>
  400b75:	48 89 c2             	mov    %rax,%rdx
  400b78:	c5 f9 57 c0          	vxorpd %xmm0,%xmm0,%xmm0
  400b7c:	48 d1 e8             	shr    %rax
  400b7f:	48 83 e2 01          	and    $0x1,%rdx
  400b83:	48 0b d0             	or     %rax,%rdx
  400b86:	c4 e1 fb 2a c2       	vcvtsi2sd %rdx,%xmm0,%xmm0
  400b8b:	c5 fb 58 c0          	vaddsd %xmm0,%xmm0,%xmm0
  400b8f:	c5 fb 5e 05 21 1e 00 	vdivsd 0x1e21(%rip),%xmm0,%xmm0        # 4029b8 <iv.425.0.0.1+0x18>
  400b96:	00 
  400b97:	c5 fb 59 05 11 1e 00 	vmulsd 0x1e11(%rip),%xmm0,%xmm0        # 4029b0 <iv.425.0.0.1+0x10>
  400b9e:	00 
  400b9f:	bf c0 29 40 00       	mov    $0x4029c0,%edi
  400ba4:	b8 01 00 00 00       	mov    $0x1,%eax
  400ba9:	e8 42 fd ff ff       	callq  4008f0 <printf@plt>
  400bae:	bf d4 29 40 00       	mov    $0x4029d4,%edi
  400bb3:	be e0 29 40 00       	mov    $0x4029e0,%esi
  400bb8:	e8 73 fd ff ff       	callq  400930 <fopen@plt>
  400bbd:	be 00 10 00 00       	mov    $0x1000,%esi
  400bc2:	48 8d 3c 24          	lea    (%rsp),%rdi
  400bc6:	ba 01 00 00 00       	mov    $0x1,%edx
  400bcb:	48 89 c1             	mov    %rax,%rcx
  400bce:	e8 8d fd ff ff       	callq  400960 <fwrite@plt>
  400bd3:	33 c0                	xor    %eax,%eax
  400bd5:	48 81 c4 70 10 00 00 	add    $0x1070,%rsp
  400bdc:	5b                   	pop    %rbx
  400bdd:	41 5f                	pop    %r15
  400bdf:	48 89 ec             	mov    %rbp,%rsp
  400be2:	5d                   	pop    %rbp
  400be3:	c3                   	retq   
  400be4:	0f 1f 44 00 00       	nopl   0x0(%rax,%rax,1)
  400be9:	0f 1f 80 00 00 00 00 	nopl   0x0(%rax)

0000000000400bf0 <Chacha20__>:
  400bf0:	55                   	push   %rbp
  400bf1:	48 89 e5             	mov    %rsp,%rbp
  400bf4:	48 83 e4 e0          	and    $0xffffffffffffffe0,%rsp
  400bf8:	48 81 ec 60 02 00 00 	sub    $0x260,%rsp
  400bff:	32 c0                	xor    %al,%al
  400c01:	c5 fe 6f bf 40 01 00 	vmovdqu 0x140(%rdi),%ymm7
  400c08:	00 
  400c09:	c5 7e 6f bf 60 01 00 	vmovdqu 0x160(%rdi),%ymm15
  400c10:	00 
  400c11:	c5 fe 6f b7 e0 01 00 	vmovdqu 0x1e0(%rdi),%ymm6
  400c18:	00 
  400c19:	c5 fe 6f 9f a0 01 00 	vmovdqu 0x1a0(%rdi),%ymm3
  400c20:	00 
  400c21:	c5 fe 6f 97 80 01 00 	vmovdqu 0x180(%rdi),%ymm2
  400c28:	00 
  400c29:	c5 7e 6f 97 c0 01 00 	vmovdqu 0x1c0(%rdi),%ymm10
  400c30:	00 
  400c31:	c5 fe 6f 2f          	vmovdqu (%rdi),%ymm5
  400c35:	c5 fe 6f 47 20       	vmovdqu 0x20(%rdi),%ymm0
  400c3a:	c5 7e 6f 67 40       	vmovdqu 0x40(%rdi),%ymm12
  400c3f:	c5 fe 6f 8f 80 00 00 	vmovdqu 0x80(%rdi),%ymm1
  400c46:	00 
  400c47:	c5 7e 6f b7 a0 00 00 	vmovdqu 0xa0(%rdi),%ymm14
  400c4e:	00 
  400c4f:	c5 7e 6f 9f c0 00 00 	vmovdqu 0xc0(%rdi),%ymm11
  400c56:	00 
  400c57:	c5 7e 6f 87 00 01 00 	vmovdqu 0x100(%rdi),%ymm8
  400c5e:	00 
  400c5f:	c5 7e 6f af 20 01 00 	vmovdqu 0x120(%rdi),%ymm13
  400c66:	00 
  400c67:	c5 fe 6f a7 e0 00 00 	vmovdqu 0xe0(%rdi),%ymm4
  400c6e:	00 
  400c6f:	c5 7e 6f 4f 60       	vmovdqu 0x60(%rdi),%ymm9
  400c74:	c5 7e 7f bc 24 40 02 	vmovdqu %ymm15,0x240(%rsp)
  400c7b:	00 00 
  400c7d:	c5 fe 7f b4 24 00 02 	vmovdqu %ymm6,0x200(%rsp)
  400c84:	00 00 
  400c86:	c5 fe 7f bc 24 20 02 	vmovdqu %ymm7,0x220(%rsp)
  400c8d:	00 00 
  400c8f:	c5 d5 fe e9          	vpaddd %ymm1,%ymm5,%ymm5
  400c93:	fe c0                	inc    %al
  400c95:	c5 fe 6f 35 63 1d 00 	vmovdqu 0x1d63(%rip),%ymm6        # 402a00 <iv.425.0.0.1+0x60>
  400c9c:	00 
  400c9d:	c5 ed ef d5          	vpxor  %ymm5,%ymm2,%ymm2
  400ca1:	c4 e2 6d 00 fe       	vpshufb %ymm6,%ymm2,%ymm7
  400ca6:	c5 3d fe c7          	vpaddd %ymm7,%ymm8,%ymm8
  400caa:	c4 c1 75 ef d0       	vpxor  %ymm8,%ymm1,%ymm2
  400caf:	c4 c1 7d fe ce       	vpaddd %ymm14,%ymm0,%ymm1
  400cb4:	c5 85 72 f2 0c       	vpslld $0xc,%ymm2,%ymm15
  400cb9:	c5 e5 ef c1          	vpxor  %ymm1,%ymm3,%ymm0
  400cbd:	c5 ed 72 d2 14       	vpsrld $0x14,%ymm2,%ymm2
  400cc2:	c4 e2 7d 00 c6       	vpshufb %ymm6,%ymm0,%ymm0
  400cc7:	c5 05 eb fa          	vpor   %ymm2,%ymm15,%ymm15
  400ccb:	c5 15 fe e8          	vpaddd %ymm0,%ymm13,%ymm13
  400ccf:	c4 c1 55 fe d7       	vpaddd %ymm15,%ymm5,%ymm2
  400cd4:	c4 c1 0d ef dd       	vpxor  %ymm13,%ymm14,%ymm3
  400cd9:	c4 41 1d fe f3       	vpaddd %ymm11,%ymm12,%ymm14
  400cde:	c5 c5 ef ea          	vpxor  %ymm2,%ymm7,%ymm5
  400ce2:	c4 41 2d ef d6       	vpxor  %ymm14,%ymm10,%ymm10
  400ce7:	c4 62 2d 00 d6       	vpshufb %ymm6,%ymm10,%ymm10
  400cec:	c5 2d fe a4 24 20 02 	vpaddd 0x220(%rsp),%ymm10,%ymm12
  400cf3:	00 00 
  400cf5:	c5 7e 7f 24 24       	vmovdqu %ymm12,(%rsp)
  400cfa:	c4 41 25 ef e4       	vpxor  %ymm12,%ymm11,%ymm12
  400cff:	c5 35 fe dc          	vpaddd %ymm4,%ymm9,%ymm11
  400d03:	c5 25 ef 8c 24 00 02 	vpxor  0x200(%rsp),%ymm11,%ymm9
  400d0a:	00 00 
  400d0c:	c4 e2 35 00 f6       	vpshufb %ymm6,%ymm9,%ymm6
  400d11:	c5 4d fe 8c 24 40 02 	vpaddd 0x240(%rsp),%ymm6,%ymm9
  400d18:	00 00 
  400d1a:	c5 fe 7f 74 24 20    	vmovdqu %ymm6,0x20(%rsp)
  400d20:	c5 cd 72 f3 0c       	vpslld $0xc,%ymm3,%ymm6
  400d25:	c4 c1 5d ef e1       	vpxor  %ymm9,%ymm4,%ymm4
  400d2a:	c5 e5 72 d3 14       	vpsrld $0x14,%ymm3,%ymm3
  400d2f:	c5 7e 7f 4c 24 40    	vmovdqu %ymm9,0x40(%rsp)
  400d35:	c4 62 55 00 0d e2 1c 	vpshufb 0x1ce2(%rip),%ymm5,%ymm9        # 402a20 <iv.425.0.0.1+0x80>
  400d3c:	00 00 
  400d3e:	c5 cd eb db          	vpor   %ymm3,%ymm6,%ymm3
  400d42:	c4 c1 3d fe e9       	vpaddd %ymm9,%ymm8,%ymm5
  400d47:	c5 05 ef c5          	vpxor  %ymm5,%ymm15,%ymm8
  400d4b:	c5 fe 7f 6c 24 60    	vmovdqu %ymm5,0x60(%rsp)
  400d51:	c4 c1 05 72 f0 07    	vpslld $0x7,%ymm8,%ymm15
  400d57:	c4 c1 45 72 d0 19    	vpsrld $0x19,%ymm8,%ymm7
  400d5d:	c5 75 fe c3          	vpaddd %ymm3,%ymm1,%ymm8
  400d61:	c5 85 eb ef          	vpor   %ymm7,%ymm15,%ymm5
  400d65:	c4 c1 7d ef c8       	vpxor  %ymm8,%ymm0,%ymm1
  400d6a:	c4 e2 75 00 05 ad 1c 	vpshufb 0x1cad(%rip),%ymm1,%ymm0        # 402a20 <iv.425.0.0.1+0x80>
  400d71:	00 00 
  400d73:	c5 95 fe c8          	vpaddd %ymm0,%ymm13,%ymm1
  400d77:	c5 fe 7f 84 24 80 00 	vmovdqu %ymm0,0x80(%rsp)
  400d7e:	00 00 
  400d80:	c5 65 ef e9          	vpxor  %ymm1,%ymm3,%ymm13
  400d84:	c4 c1 7d 72 f5 07    	vpslld $0x7,%ymm13,%ymm0
  400d8a:	c4 c1 65 72 d5 19    	vpsrld $0x19,%ymm13,%ymm3
  400d90:	c5 7d eb fb          	vpor   %ymm3,%ymm0,%ymm15
  400d94:	c4 41 6d fe ef       	vpaddd %ymm15,%ymm2,%ymm13
  400d99:	c4 c1 6d 72 f4 0c    	vpslld $0xc,%ymm12,%ymm2
  400d9f:	c4 c1 1d 72 d4 14    	vpsrld $0x14,%ymm12,%ymm12
  400da5:	c4 c1 6d eb f4       	vpor   %ymm12,%ymm2,%ymm6
  400daa:	c5 0d fe f6          	vpaddd %ymm6,%ymm14,%ymm14
  400dae:	c4 41 2d ef d6       	vpxor  %ymm14,%ymm10,%ymm10
  400db3:	c4 62 2d 00 25 64 1c 	vpshufb 0x1c64(%rip),%ymm10,%ymm12        # 402a20 <iv.425.0.0.1+0x80>
  400dba:	00 00 
  400dbc:	c5 ad 72 f4 0c       	vpslld $0xc,%ymm4,%ymm10
  400dc1:	c5 dd 72 d4 14       	vpsrld $0x14,%ymm4,%ymm4
  400dc6:	c5 9d fe 3c 24       	vpaddd (%rsp),%ymm12,%ymm7
  400dcb:	c5 cd ef c7          	vpxor  %ymm7,%ymm6,%ymm0
  400dcf:	c5 ed 72 f0 07       	vpslld $0x7,%ymm0,%ymm2
  400dd4:	c5 e5 72 d0 19       	vpsrld $0x19,%ymm0,%ymm3
  400dd9:	c5 ed eb c3          	vpor   %ymm3,%ymm2,%ymm0
  400ddd:	c5 3d fe c0          	vpaddd %ymm0,%ymm8,%ymm8
  400de1:	c5 7e 7f 84 24 a0 00 	vmovdqu %ymm8,0xa0(%rsp)
  400de8:	00 00 
  400dea:	c4 41 35 ef c8       	vpxor  %ymm8,%ymm9,%ymm9
  400def:	c5 2d eb c4          	vpor   %ymm4,%ymm10,%ymm8
  400df3:	c4 e2 35 00 15 04 1c 	vpshufb 0x1c04(%rip),%ymm9,%ymm2        # 402a00 <iv.425.0.0.1+0x60>
  400dfa:	00 00 
  400dfc:	c4 c1 25 fe e0       	vpaddd %ymm8,%ymm11,%ymm4
  400e01:	c5 5d ef 5c 24 20    	vpxor  0x20(%rsp),%ymm4,%ymm11
  400e07:	c5 dd fe e5          	vpaddd %ymm5,%ymm4,%ymm4
  400e0b:	c4 62 25 00 0d 0c 1c 	vpshufb 0x1c0c(%rip),%ymm11,%ymm9        # 402a20 <iv.425.0.0.1+0x80>
  400e12:	00 00 
  400e14:	c5 1d ef e4          	vpxor  %ymm4,%ymm12,%ymm12
  400e18:	c5 fe 7f a4 24 c0 00 	vmovdqu %ymm4,0xc0(%rsp)
  400e1f:	00 00 
  400e21:	c4 41 35 ef d5       	vpxor  %ymm13,%ymm9,%ymm10
  400e26:	c5 35 fe 5c 24 40    	vpaddd 0x40(%rsp),%ymm9,%ymm11
  400e2c:	c4 62 2d 00 15 cb 1b 	vpshufb 0x1bcb(%rip),%ymm10,%ymm10        # 402a00 <iv.425.0.0.1+0x60>
  400e33:	00 00 
  400e35:	c4 c1 3d ef db       	vpxor  %ymm11,%ymm8,%ymm3
  400e3a:	c5 25 fe da          	vpaddd %ymm2,%ymm11,%ymm11
  400e3e:	c4 c1 45 fe fa       	vpaddd %ymm10,%ymm7,%ymm7
  400e43:	c4 c1 7d ef c3       	vpxor  %ymm11,%ymm0,%ymm0
  400e48:	c5 85 ef f7          	vpxor  %ymm7,%ymm15,%ymm6
  400e4c:	c4 62 1d 00 3d ab 1b 	vpshufb 0x1bab(%rip),%ymm12,%ymm15        # 402a00 <iv.425.0.0.1+0x60>
  400e53:	00 00 
  400e55:	c5 9d 72 d3 19       	vpsrld $0x19,%ymm3,%ymm12
  400e5a:	c4 c1 75 fe cf       	vpaddd %ymm15,%ymm1,%ymm1
  400e5f:	c5 55 ef c9          	vpxor  %ymm1,%ymm5,%ymm9
  400e63:	c5 d5 72 f3 07       	vpslld $0x7,%ymm3,%ymm5
  400e68:	c5 fe 7f 8c 24 e0 00 	vmovdqu %ymm1,0xe0(%rsp)
  400e6f:	00 00 
  400e71:	c5 f5 72 d6 14       	vpsrld $0x14,%ymm6,%ymm1
  400e76:	c4 c1 55 eb ec       	vpor   %ymm12,%ymm5,%ymm5
  400e7b:	c5 0d fe e5          	vpaddd %ymm5,%ymm14,%ymm12
  400e7f:	c5 1d ef b4 24 80 00 	vpxor  0x80(%rsp),%ymm12,%ymm14
  400e86:	00 00 
  400e88:	c4 62 0d 00 05 6f 1b 	vpshufb 0x1b6f(%rip),%ymm14,%ymm8        # 402a00 <iv.425.0.0.1+0x60>
  400e8f:	00 00 
  400e91:	c5 8d 72 f6 0c       	vpslld $0xc,%ymm6,%ymm14
  400e96:	c5 bd fe 64 24 60    	vpaddd 0x60(%rsp),%ymm8,%ymm4
  400e9c:	c5 0d eb f1          	vpor   %ymm1,%ymm14,%ymm14
  400ea0:	c5 f5 72 f0 0c       	vpslld $0xc,%ymm0,%ymm1
  400ea5:	c5 d5 ef dc          	vpxor  %ymm4,%ymm5,%ymm3
  400ea9:	c5 fd 72 d0 14       	vpsrld $0x14,%ymm0,%ymm0
  400eae:	c4 c1 15 fe ee       	vpaddd %ymm14,%ymm13,%ymm5
  400eb3:	c5 f5 eb f0          	vpor   %ymm0,%ymm1,%ymm6
  400eb7:	c5 2d ef ed          	vpxor  %ymm5,%ymm10,%ymm13
  400ebb:	c5 cd fe 84 24 a0 00 	vpaddd 0xa0(%rsp),%ymm6,%ymm0
  400ec2:	00 00 
  400ec4:	c4 62 15 00 15 53 1b 	vpshufb 0x1b53(%rip),%ymm13,%ymm10        # 402a20 <iv.425.0.0.1+0x80>
  400ecb:	00 00 
  400ecd:	c5 ed ef d0          	vpxor  %ymm0,%ymm2,%ymm2
  400ed1:	c4 c1 45 fe fa       	vpaddd %ymm10,%ymm7,%ymm7
  400ed6:	c5 7e 7f 94 24 00 02 	vmovdqu %ymm10,0x200(%rsp)
  400edd:	00 00 
  400edf:	c4 e2 6d 00 15 38 1b 	vpshufb 0x1b38(%rip),%ymm2,%ymm2        # 402a20 <iv.425.0.0.1+0x80>
  400ee6:	00 00 
  400ee8:	c5 0d ef f7          	vpxor  %ymm7,%ymm14,%ymm14
  400eec:	c5 fe 7f bc 24 20 02 	vmovdqu %ymm7,0x220(%rsp)
  400ef3:	00 00 
  400ef5:	c5 25 fe da          	vpaddd %ymm2,%ymm11,%ymm11
  400ef9:	c4 c1 2d 72 f6 07    	vpslld $0x7,%ymm14,%ymm10
  400eff:	c4 c1 15 72 d6 19    	vpsrld $0x19,%ymm14,%ymm13
  400f05:	c4 c1 4d ef fb       	vpxor  %ymm11,%ymm6,%ymm7
  400f0a:	c4 c1 4d 72 f1 0c    	vpslld $0xc,%ymm9,%ymm6
  400f10:	c4 41 2d eb f5       	vpor   %ymm13,%ymm10,%ymm14
  400f15:	c5 95 72 f3 0c       	vpslld $0xc,%ymm3,%ymm13
  400f1a:	c5 e5 72 d3 14       	vpsrld $0x14,%ymm3,%ymm3
  400f1f:	c4 c1 35 72 d1 14    	vpsrld $0x14,%ymm9,%ymm9
  400f25:	c5 ad 72 d7 19       	vpsrld $0x19,%ymm7,%ymm10
  400f2a:	c5 7e 7f 9c 24 40 02 	vmovdqu %ymm11,0x240(%rsp)
  400f31:	00 00 
  400f33:	c5 95 eb cb          	vpor   %ymm3,%ymm13,%ymm1
  400f37:	c5 a5 72 f7 07       	vpslld $0x7,%ymm7,%ymm11
  400f3c:	c4 c1 4d eb f9       	vpor   %ymm9,%ymm6,%ymm7
  400f41:	c5 1d fe e1          	vpaddd %ymm1,%ymm12,%ymm12
  400f45:	c4 41 25 eb da       	vpor   %ymm10,%ymm11,%ymm11
  400f4a:	c5 45 fe 8c 24 c0 00 	vpaddd 0xc0(%rsp),%ymm7,%ymm9
  400f51:	00 00 
  400f53:	c4 41 3d ef c4       	vpxor  %ymm12,%ymm8,%ymm8
  400f58:	c4 41 05 ef f9       	vpxor  %ymm9,%ymm15,%ymm15
  400f5d:	c4 e2 3d 00 1d ba 1a 	vpshufb 0x1aba(%rip),%ymm8,%ymm3        # 402a20 <iv.425.0.0.1+0x80>
  400f64:	00 00 
  400f66:	c5 5d fe c3          	vpaddd %ymm3,%ymm4,%ymm8
  400f6a:	c4 c1 75 ef e0       	vpxor  %ymm8,%ymm1,%ymm4
  400f6f:	c5 ad 72 f4 07       	vpslld $0x7,%ymm4,%ymm10
  400f74:	c5 dd 72 d4 19       	vpsrld $0x19,%ymm4,%ymm4
  400f79:	c5 ad eb e4          	vpor   %ymm4,%ymm10,%ymm4
  400f7d:	c4 62 05 00 15 9a 1a 	vpshufb 0x1a9a(%rip),%ymm15,%ymm10        # 402a20 <iv.425.0.0.1+0x80>
  400f84:	00 00 
  400f86:	c5 2d fe ac 24 e0 00 	vpaddd 0xe0(%rsp),%ymm10,%ymm13
  400f8d:	00 00 
  400f8f:	c4 c1 45 ef cd       	vpxor  %ymm13,%ymm7,%ymm1
  400f94:	c5 cd 72 f1 07       	vpslld $0x7,%ymm1,%ymm6
  400f99:	c5 85 72 d1 19       	vpsrld $0x19,%ymm1,%ymm15
  400f9e:	c4 c1 4d eb cf       	vpor   %ymm15,%ymm6,%ymm1
  400fa3:	3c 0a                	cmp    $0xa,%al
  400fa5:	0f 82 e4 fc ff ff    	jb     400c8f <Chacha20__+0x9f>
  400fab:	c5 7e 6f bc 24 40 02 	vmovdqu 0x240(%rsp),%ymm15
  400fb2:	00 00 
  400fb4:	b8 00 02 00 00       	mov    $0x200,%eax
  400fb9:	c5 fe 6f b4 24 00 02 	vmovdqu 0x200(%rsp),%ymm6
  400fc0:	00 00 
  400fc2:	c5 fe 6f bc 24 20 02 	vmovdqu 0x220(%rsp),%ymm7
  400fc9:	00 00 
  400fcb:	c5 fe 7f 2c 24       	vmovdqu %ymm5,(%rsp)
  400fd0:	c5 7e 7f b4 24 a0 00 	vmovdqu %ymm14,0xa0(%rsp)
  400fd7:	00 00 
  400fd9:	c5 fe 7f 44 24 20    	vmovdqu %ymm0,0x20(%rsp)
  400fdf:	c5 fe 7f b4 24 e0 01 	vmovdqu %ymm6,0x1e0(%rsp)
  400fe6:	00 00 
  400fe8:	c5 fe 7f bc 24 40 01 	vmovdqu %ymm7,0x140(%rsp)
  400fef:	00 00 
  400ff1:	c5 fe 7f 94 24 80 01 	vmovdqu %ymm2,0x180(%rsp)
  400ff8:	00 00 
  400ffa:	c5 7e 7f bc 24 60 01 	vmovdqu %ymm15,0x160(%rsp)
  401001:	00 00 
  401003:	c5 7e 7f 9c 24 c0 00 	vmovdqu %ymm11,0xc0(%rsp)
  40100a:	00 00 
  40100c:	c5 7e 7f 64 24 40    	vmovdqu %ymm12,0x40(%rsp)
  401012:	c5 fe 7f 9c 24 a0 01 	vmovdqu %ymm3,0x1a0(%rsp)
  401019:	00 00 
  40101b:	c5 7e 7f 84 24 00 01 	vmovdqu %ymm8,0x100(%rsp)
  401022:	00 00 
  401024:	c5 fe 7f a4 24 e0 00 	vmovdqu %ymm4,0xe0(%rsp)
  40102b:	00 00 
  40102d:	c5 7e 7f 4c 24 60    	vmovdqu %ymm9,0x60(%rsp)
  401033:	c5 7e 7f 94 24 c0 01 	vmovdqu %ymm10,0x1c0(%rsp)
  40103a:	00 00 
  40103c:	c5 7e 7f ac 24 20 01 	vmovdqu %ymm13,0x120(%rsp)
  401043:	00 00 
  401045:	c5 fe 7f 8c 24 80 00 	vmovdqu %ymm1,0x80(%rsp)
  40104c:	00 00 
  40104e:	c5 fc 10 44 04 e0    	vmovups -0x20(%rsp,%rax,1),%ymm0
  401054:	c5 fc 11 44 06 e0    	vmovups %ymm0,-0x20(%rsi,%rax,1)
  40105a:	c5 fc 10 4c 04 c0    	vmovups -0x40(%rsp,%rax,1),%ymm1
  401060:	c5 fc 11 4c 06 c0    	vmovups %ymm1,-0x40(%rsi,%rax,1)
  401066:	c5 fc 10 54 04 a0    	vmovups -0x60(%rsp,%rax,1),%ymm2
  40106c:	c5 fc 11 54 06 a0    	vmovups %ymm2,-0x60(%rsi,%rax,1)
  401072:	c5 fc 10 5c 04 80    	vmovups -0x80(%rsp,%rax,1),%ymm3
  401078:	c5 fc 11 5c 06 80    	vmovups %ymm3,-0x80(%rsi,%rax,1)
  40107e:	48 2d 80 00 00 00    	sub    $0x80,%rax
  401084:	75 c8                	jne    40104e <Chacha20__+0x45e>
  401086:	c5 f8 77             	vzeroupper 
  401089:	48 89 ec             	mov    %rbp,%rsp
  40108c:	5d                   	pop    %rbp
  40108d:	c3                   	retq   
  40108e:	66 90                	xchg   %ax,%ax

0000000000401090 <crypto_stream_xor>:
  401090:	55                   	push   %rbp
  401091:	48 89 e5             	mov    %rsp,%rbp
  401094:	48 83 e4 e0          	and    $0xffffffffffffffe0,%rsp
  401098:	48 81 ec 60 03 00 00 	sub    $0x360,%rsp
  40109f:	48 89 d6             	mov    %rdx,%rsi
  4010a2:	33 c0                	xor    %eax,%eax
  4010a4:	48 89 fa             	mov    %rdi,%rdx
  4010a7:	33 c9                	xor    %ecx,%ecx
  4010a9:	48 85 f6             	test   %rsi,%rsi
  4010ac:	0f 8e f3 04 00 00    	jle    4015a5 <crypto_stream_xor+0x515>
  4010b2:	4c 8d 86 ff 01 00 00 	lea    0x1ff(%rsi),%r8
  4010b9:	49 c1 f8 08          	sar    $0x8,%r8
  4010bd:	49 c1 e8 37          	shr    $0x37,%r8
  4010c1:	4a 8d b4 06 ff 01 00 	lea    0x1ff(%rsi,%r8,1),%rsi
  4010c8:	00 
  4010c9:	48 c1 fe 09          	sar    $0x9,%rsi
  4010cd:	c5 fe 6f bc 39 40 01 	vmovdqu 0x140(%rcx,%rdi,1),%ymm7
  4010d4:	00 00 
  4010d6:	45 32 c0             	xor    %r8b,%r8b
  4010d9:	c5 7e 6f bc 39 60 01 	vmovdqu 0x160(%rcx,%rdi,1),%ymm15
  4010e0:	00 00 
  4010e2:	c5 fe 6f b4 39 e0 01 	vmovdqu 0x1e0(%rcx,%rdi,1),%ymm6
  4010e9:	00 00 
  4010eb:	c5 fe 6f 9c 39 a0 01 	vmovdqu 0x1a0(%rcx,%rdi,1),%ymm3
  4010f2:	00 00 
  4010f4:	c5 fe 6f 94 39 80 01 	vmovdqu 0x180(%rcx,%rdi,1),%ymm2
  4010fb:	00 00 
  4010fd:	c5 7e 6f 94 39 c0 01 	vmovdqu 0x1c0(%rcx,%rdi,1),%ymm10
  401104:	00 00 
  401106:	c5 fe 6f 2a          	vmovdqu (%rdx),%ymm5
  40110a:	c5 fe 6f 8c 39 80 00 	vmovdqu 0x80(%rcx,%rdi,1),%ymm1
  401111:	00 00 
  401113:	c5 7e 6f b4 39 a0 00 	vmovdqu 0xa0(%rcx,%rdi,1),%ymm14
  40111a:	00 00 
  40111c:	c5 7e 6f 9c 39 c0 00 	vmovdqu 0xc0(%rcx,%rdi,1),%ymm11
  401123:	00 00 
  401125:	c5 7e 6f 84 39 00 01 	vmovdqu 0x100(%rcx,%rdi,1),%ymm8
  40112c:	00 00 
  40112e:	c5 7e 6f ac 39 20 01 	vmovdqu 0x120(%rcx,%rdi,1),%ymm13
  401135:	00 00 
  401137:	c5 fe 6f a4 39 e0 00 	vmovdqu 0xe0(%rcx,%rdi,1),%ymm4
  40113e:	00 00 
  401140:	c5 fe 6f 44 39 20    	vmovdqu 0x20(%rcx,%rdi,1),%ymm0
  401146:	c5 7e 6f 64 39 40    	vmovdqu 0x40(%rcx,%rdi,1),%ymm12
  40114c:	c5 7e 6f 4c 39 60    	vmovdqu 0x60(%rcx,%rdi,1),%ymm9
  401152:	c5 7e 7f bc 24 20 02 	vmovdqu %ymm15,0x220(%rsp)
  401159:	00 00 
  40115b:	c5 fe 7f b4 24 00 02 	vmovdqu %ymm6,0x200(%rsp)
  401162:	00 00 
  401164:	c5 fe 7f bc 24 40 02 	vmovdqu %ymm7,0x240(%rsp)
  40116b:	00 00 
  40116d:	c5 d5 fe e9          	vpaddd %ymm1,%ymm5,%ymm5
  401171:	41 fe c0             	inc    %r8b
  401174:	c5 fe 6f 35 84 18 00 	vmovdqu 0x1884(%rip),%ymm6        # 402a00 <iv.425.0.0.1+0x60>
  40117b:	00 
  40117c:	c5 ed ef d5          	vpxor  %ymm5,%ymm2,%ymm2
  401180:	c4 e2 6d 00 fe       	vpshufb %ymm6,%ymm2,%ymm7
  401185:	c5 3d fe c7          	vpaddd %ymm7,%ymm8,%ymm8
  401189:	c4 c1 75 ef d0       	vpxor  %ymm8,%ymm1,%ymm2
  40118e:	c4 c1 7d fe ce       	vpaddd %ymm14,%ymm0,%ymm1
  401193:	c5 85 72 f2 0c       	vpslld $0xc,%ymm2,%ymm15
  401198:	c5 e5 ef c1          	vpxor  %ymm1,%ymm3,%ymm0
  40119c:	c5 ed 72 d2 14       	vpsrld $0x14,%ymm2,%ymm2
  4011a1:	c4 e2 7d 00 c6       	vpshufb %ymm6,%ymm0,%ymm0
  4011a6:	c5 05 eb fa          	vpor   %ymm2,%ymm15,%ymm15
  4011aa:	c5 15 fe e8          	vpaddd %ymm0,%ymm13,%ymm13
  4011ae:	c4 c1 55 fe d7       	vpaddd %ymm15,%ymm5,%ymm2
  4011b3:	c4 c1 0d ef dd       	vpxor  %ymm13,%ymm14,%ymm3
  4011b8:	c4 41 1d fe f3       	vpaddd %ymm11,%ymm12,%ymm14
  4011bd:	c5 c5 ef ea          	vpxor  %ymm2,%ymm7,%ymm5
  4011c1:	c4 41 2d ef d6       	vpxor  %ymm14,%ymm10,%ymm10
  4011c6:	c4 62 2d 00 d6       	vpshufb %ymm6,%ymm10,%ymm10
  4011cb:	c5 2d fe a4 24 40 02 	vpaddd 0x240(%rsp),%ymm10,%ymm12
  4011d2:	00 00 
  4011d4:	c5 7e 7f a4 24 60 02 	vmovdqu %ymm12,0x260(%rsp)
  4011db:	00 00 
  4011dd:	c4 41 25 ef e4       	vpxor  %ymm12,%ymm11,%ymm12
  4011e2:	c5 35 fe dc          	vpaddd %ymm4,%ymm9,%ymm11
  4011e6:	c5 25 ef 8c 24 00 02 	vpxor  0x200(%rsp),%ymm11,%ymm9
  4011ed:	00 00 
  4011ef:	c4 e2 35 00 f6       	vpshufb %ymm6,%ymm9,%ymm6
  4011f4:	c5 4d fe 8c 24 20 02 	vpaddd 0x220(%rsp),%ymm6,%ymm9
  4011fb:	00 00 
  4011fd:	c5 fe 7f b4 24 80 02 	vmovdqu %ymm6,0x280(%rsp)
  401204:	00 00 
  401206:	c5 cd 72 f3 0c       	vpslld $0xc,%ymm3,%ymm6
  40120b:	c4 c1 5d ef e1       	vpxor  %ymm9,%ymm4,%ymm4
  401210:	c5 e5 72 d3 14       	vpsrld $0x14,%ymm3,%ymm3
  401215:	c5 7e 7f 8c 24 a0 02 	vmovdqu %ymm9,0x2a0(%rsp)
  40121c:	00 00 
  40121e:	c4 62 55 00 0d f9 17 	vpshufb 0x17f9(%rip),%ymm5,%ymm9        # 402a20 <iv.425.0.0.1+0x80>
  401225:	00 00 
  401227:	c5 cd eb db          	vpor   %ymm3,%ymm6,%ymm3
  40122b:	c4 c1 3d fe e9       	vpaddd %ymm9,%ymm8,%ymm5
  401230:	c5 05 ef c5          	vpxor  %ymm5,%ymm15,%ymm8
  401234:	c5 fe 7f ac 24 c0 02 	vmovdqu %ymm5,0x2c0(%rsp)
  40123b:	00 00 
  40123d:	c4 c1 05 72 f0 07    	vpslld $0x7,%ymm8,%ymm15
  401243:	c4 c1 45 72 d0 19    	vpsrld $0x19,%ymm8,%ymm7
  401249:	c5 75 fe c3          	vpaddd %ymm3,%ymm1,%ymm8
  40124d:	c5 85 eb ef          	vpor   %ymm7,%ymm15,%ymm5
  401251:	c4 c1 7d ef c8       	vpxor  %ymm8,%ymm0,%ymm1
  401256:	c4 e2 75 00 05 c1 17 	vpshufb 0x17c1(%rip),%ymm1,%ymm0        # 402a20 <iv.425.0.0.1+0x80>
  40125d:	00 00 
  40125f:	c5 95 fe c8          	vpaddd %ymm0,%ymm13,%ymm1
  401263:	c5 fe 7f 84 24 e0 02 	vmovdqu %ymm0,0x2e0(%rsp)
  40126a:	00 00 
  40126c:	c5 65 ef e9          	vpxor  %ymm1,%ymm3,%ymm13
  401270:	c4 c1 7d 72 f5 07    	vpslld $0x7,%ymm13,%ymm0
  401276:	c4 c1 65 72 d5 19    	vpsrld $0x19,%ymm13,%ymm3
  40127c:	c5 7d eb fb          	vpor   %ymm3,%ymm0,%ymm15
  401280:	c4 41 6d fe ef       	vpaddd %ymm15,%ymm2,%ymm13
  401285:	c4 c1 6d 72 f4 0c    	vpslld $0xc,%ymm12,%ymm2
  40128b:	c4 c1 1d 72 d4 14    	vpsrld $0x14,%ymm12,%ymm12
  401291:	c4 c1 6d eb f4       	vpor   %ymm12,%ymm2,%ymm6
  401296:	c5 0d fe f6          	vpaddd %ymm6,%ymm14,%ymm14
  40129a:	c4 41 2d ef d6       	vpxor  %ymm14,%ymm10,%ymm10
  40129f:	c4 62 2d 00 25 78 17 	vpshufb 0x1778(%rip),%ymm10,%ymm12        # 402a20 <iv.425.0.0.1+0x80>
  4012a6:	00 00 
  4012a8:	c5 ad 72 f4 0c       	vpslld $0xc,%ymm4,%ymm10
  4012ad:	c5 dd 72 d4 14       	vpsrld $0x14,%ymm4,%ymm4
  4012b2:	c5 9d fe bc 24 60 02 	vpaddd 0x260(%rsp),%ymm12,%ymm7
  4012b9:	00 00 
  4012bb:	c5 cd ef c7          	vpxor  %ymm7,%ymm6,%ymm0
  4012bf:	c5 ed 72 f0 07       	vpslld $0x7,%ymm0,%ymm2
  4012c4:	c5 e5 72 d0 19       	vpsrld $0x19,%ymm0,%ymm3
  4012c9:	c5 ed eb c3          	vpor   %ymm3,%ymm2,%ymm0
  4012cd:	c5 3d fe c0          	vpaddd %ymm0,%ymm8,%ymm8
  4012d1:	c5 7e 7f 84 24 00 03 	vmovdqu %ymm8,0x300(%rsp)
  4012d8:	00 00 
  4012da:	c4 41 35 ef c8       	vpxor  %ymm8,%ymm9,%ymm9
  4012df:	c5 2d eb c4          	vpor   %ymm4,%ymm10,%ymm8
  4012e3:	c4 e2 35 00 15 14 17 	vpshufb 0x1714(%rip),%ymm9,%ymm2        # 402a00 <iv.425.0.0.1+0x60>
  4012ea:	00 00 
  4012ec:	c4 c1 25 fe e0       	vpaddd %ymm8,%ymm11,%ymm4
  4012f1:	c5 5d ef 9c 24 80 02 	vpxor  0x280(%rsp),%ymm4,%ymm11
  4012f8:	00 00 
  4012fa:	c5 dd fe e5          	vpaddd %ymm5,%ymm4,%ymm4
  4012fe:	c4 62 25 00 0d 19 17 	vpshufb 0x1719(%rip),%ymm11,%ymm9        # 402a20 <iv.425.0.0.1+0x80>
  401305:	00 00 
  401307:	c5 1d ef e4          	vpxor  %ymm4,%ymm12,%ymm12
  40130b:	c5 fe 7f a4 24 20 03 	vmovdqu %ymm4,0x320(%rsp)
  401312:	00 00 
  401314:	c4 41 35 ef d5       	vpxor  %ymm13,%ymm9,%ymm10
  401319:	c5 35 fe 9c 24 a0 02 	vpaddd 0x2a0(%rsp),%ymm9,%ymm11
  401320:	00 00 
  401322:	c4 62 2d 00 15 d5 16 	vpshufb 0x16d5(%rip),%ymm10,%ymm10        # 402a00 <iv.425.0.0.1+0x60>
  401329:	00 00 
  40132b:	c4 c1 3d ef db       	vpxor  %ymm11,%ymm8,%ymm3
  401330:	c5 25 fe da          	vpaddd %ymm2,%ymm11,%ymm11
  401334:	c4 c1 45 fe fa       	vpaddd %ymm10,%ymm7,%ymm7
  401339:	c4 c1 7d ef c3       	vpxor  %ymm11,%ymm0,%ymm0
  40133e:	c5 85 ef f7          	vpxor  %ymm7,%ymm15,%ymm6
  401342:	c4 62 1d 00 3d b5 16 	vpshufb 0x16b5(%rip),%ymm12,%ymm15        # 402a00 <iv.425.0.0.1+0x60>
  401349:	00 00 
  40134b:	c5 9d 72 d3 19       	vpsrld $0x19,%ymm3,%ymm12
  401350:	c4 c1 75 fe cf       	vpaddd %ymm15,%ymm1,%ymm1
  401355:	c5 55 ef c9          	vpxor  %ymm1,%ymm5,%ymm9
  401359:	c5 d5 72 f3 07       	vpslld $0x7,%ymm3,%ymm5
  40135e:	c5 fe 7f 8c 24 40 03 	vmovdqu %ymm1,0x340(%rsp)
  401365:	00 00 
  401367:	c5 f5 72 d6 14       	vpsrld $0x14,%ymm6,%ymm1
  40136c:	c4 c1 55 eb ec       	vpor   %ymm12,%ymm5,%ymm5
  401371:	c5 0d fe e5          	vpaddd %ymm5,%ymm14,%ymm12
  401375:	c5 1d ef b4 24 e0 02 	vpxor  0x2e0(%rsp),%ymm12,%ymm14
  40137c:	00 00 
  40137e:	c4 62 0d 00 05 79 16 	vpshufb 0x1679(%rip),%ymm14,%ymm8        # 402a00 <iv.425.0.0.1+0x60>
  401385:	00 00 
  401387:	c5 8d 72 f6 0c       	vpslld $0xc,%ymm6,%ymm14
  40138c:	c5 bd fe a4 24 c0 02 	vpaddd 0x2c0(%rsp),%ymm8,%ymm4
  401393:	00 00 
  401395:	c5 0d eb f1          	vpor   %ymm1,%ymm14,%ymm14
  401399:	c5 f5 72 f0 0c       	vpslld $0xc,%ymm0,%ymm1
  40139e:	c5 d5 ef dc          	vpxor  %ymm4,%ymm5,%ymm3
  4013a2:	c5 fd 72 d0 14       	vpsrld $0x14,%ymm0,%ymm0
  4013a7:	c4 c1 15 fe ee       	vpaddd %ymm14,%ymm13,%ymm5
  4013ac:	c5 f5 eb f0          	vpor   %ymm0,%ymm1,%ymm6
  4013b0:	c5 2d ef ed          	vpxor  %ymm5,%ymm10,%ymm13
  4013b4:	c5 cd fe 84 24 00 03 	vpaddd 0x300(%rsp),%ymm6,%ymm0
  4013bb:	00 00 
  4013bd:	c4 62 15 00 15 5a 16 	vpshufb 0x165a(%rip),%ymm13,%ymm10        # 402a20 <iv.425.0.0.1+0x80>
  4013c4:	00 00 
  4013c6:	c5 ed ef d0          	vpxor  %ymm0,%ymm2,%ymm2
  4013ca:	c4 c1 45 fe fa       	vpaddd %ymm10,%ymm7,%ymm7
  4013cf:	c5 7e 7f 94 24 00 02 	vmovdqu %ymm10,0x200(%rsp)
  4013d6:	00 00 
  4013d8:	c4 e2 6d 00 15 3f 16 	vpshufb 0x163f(%rip),%ymm2,%ymm2        # 402a20 <iv.425.0.0.1+0x80>
  4013df:	00 00 
  4013e1:	c5 0d ef f7          	vpxor  %ymm7,%ymm14,%ymm14
  4013e5:	c5 fe 7f bc 24 40 02 	vmovdqu %ymm7,0x240(%rsp)
  4013ec:	00 00 
  4013ee:	c5 25 fe da          	vpaddd %ymm2,%ymm11,%ymm11
  4013f2:	c4 c1 2d 72 f6 07    	vpslld $0x7,%ymm14,%ymm10
  4013f8:	c4 c1 15 72 d6 19    	vpsrld $0x19,%ymm14,%ymm13
  4013fe:	c4 c1 4d ef fb       	vpxor  %ymm11,%ymm6,%ymm7
  401403:	c4 c1 4d 72 f1 0c    	vpslld $0xc,%ymm9,%ymm6
  401409:	c4 41 2d eb f5       	vpor   %ymm13,%ymm10,%ymm14
  40140e:	c5 95 72 f3 0c       	vpslld $0xc,%ymm3,%ymm13
  401413:	c5 e5 72 d3 14       	vpsrld $0x14,%ymm3,%ymm3
  401418:	c4 c1 35 72 d1 14    	vpsrld $0x14,%ymm9,%ymm9
  40141e:	c5 ad 72 d7 19       	vpsrld $0x19,%ymm7,%ymm10
  401423:	c5 7e 7f 9c 24 20 02 	vmovdqu %ymm11,0x220(%rsp)
  40142a:	00 00 
  40142c:	c5 95 eb cb          	vpor   %ymm3,%ymm13,%ymm1
  401430:	c5 a5 72 f7 07       	vpslld $0x7,%ymm7,%ymm11
  401435:	c4 c1 4d eb f9       	vpor   %ymm9,%ymm6,%ymm7
  40143a:	c5 1d fe e1          	vpaddd %ymm1,%ymm12,%ymm12
  40143e:	c4 41 25 eb da       	vpor   %ymm10,%ymm11,%ymm11
  401443:	c5 45 fe 8c 24 20 03 	vpaddd 0x320(%rsp),%ymm7,%ymm9
  40144a:	00 00 
  40144c:	c4 41 3d ef c4       	vpxor  %ymm12,%ymm8,%ymm8
  401451:	c4 41 05 ef f9       	vpxor  %ymm9,%ymm15,%ymm15
  401456:	c4 e2 3d 00 1d c1 15 	vpshufb 0x15c1(%rip),%ymm8,%ymm3        # 402a20 <iv.425.0.0.1+0x80>
  40145d:	00 00 
  40145f:	c5 5d fe c3          	vpaddd %ymm3,%ymm4,%ymm8
  401463:	c4 c1 75 ef e0       	vpxor  %ymm8,%ymm1,%ymm4
  401468:	c5 ad 72 f4 07       	vpslld $0x7,%ymm4,%ymm10
  40146d:	c5 dd 72 d4 19       	vpsrld $0x19,%ymm4,%ymm4
  401472:	c5 ad eb e4          	vpor   %ymm4,%ymm10,%ymm4
  401476:	c4 62 05 00 15 a1 15 	vpshufb 0x15a1(%rip),%ymm15,%ymm10        # 402a20 <iv.425.0.0.1+0x80>
  40147d:	00 00 
  40147f:	c5 2d fe ac 24 40 03 	vpaddd 0x340(%rsp),%ymm10,%ymm13
  401486:	00 00 
  401488:	c4 c1 45 ef cd       	vpxor  %ymm13,%ymm7,%ymm1
  40148d:	c5 cd 72 f1 07       	vpslld $0x7,%ymm1,%ymm6
  401492:	c5 85 72 d1 19       	vpsrld $0x19,%ymm1,%ymm15
  401497:	c4 c1 4d eb cf       	vpor   %ymm15,%ymm6,%ymm1
  40149c:	41 80 f8 0a          	cmp    $0xa,%r8b
  4014a0:	0f 82 c7 fc ff ff    	jb     40116d <crypto_stream_xor+0xdd>
  4014a6:	c5 7e 6f bc 24 20 02 	vmovdqu 0x220(%rsp),%ymm15
  4014ad:	00 00 
  4014af:	41 b9 00 02 00 00    	mov    $0x200,%r9d
  4014b5:	c5 fe 6f b4 24 00 02 	vmovdqu 0x200(%rsp),%ymm6
  4014bc:	00 00 
  4014be:	c5 fe 6f bc 24 40 02 	vmovdqu 0x240(%rsp),%ymm7
  4014c5:	00 00 
  4014c7:	c5 fe 7f 2c 24       	vmovdqu %ymm5,(%rsp)
  4014cc:	c5 7e 7f b4 24 a0 00 	vmovdqu %ymm14,0xa0(%rsp)
  4014d3:	00 00 
  4014d5:	c5 fe 7f 44 24 20    	vmovdqu %ymm0,0x20(%rsp)
  4014db:	c5 fe 7f b4 24 e0 01 	vmovdqu %ymm6,0x1e0(%rsp)
  4014e2:	00 00 
  4014e4:	c5 fe 7f bc 24 40 01 	vmovdqu %ymm7,0x140(%rsp)
  4014eb:	00 00 
  4014ed:	c5 fe 7f 94 24 80 01 	vmovdqu %ymm2,0x180(%rsp)
  4014f4:	00 00 
  4014f6:	c5 7e 7f bc 24 60 01 	vmovdqu %ymm15,0x160(%rsp)
  4014fd:	00 00 
  4014ff:	c5 7e 7f 9c 24 c0 00 	vmovdqu %ymm11,0xc0(%rsp)
  401506:	00 00 
  401508:	c5 7e 7f 64 24 40    	vmovdqu %ymm12,0x40(%rsp)
  40150e:	c5 fe 7f 9c 24 a0 01 	vmovdqu %ymm3,0x1a0(%rsp)
  401515:	00 00 
  401517:	c5 7e 7f 84 24 00 01 	vmovdqu %ymm8,0x100(%rsp)
  40151e:	00 00 
  401520:	c5 fe 7f a4 24 e0 00 	vmovdqu %ymm4,0xe0(%rsp)
  401527:	00 00 
  401529:	c5 7e 7f 4c 24 60    	vmovdqu %ymm9,0x60(%rsp)
  40152f:	c5 7e 7f 94 24 c0 01 	vmovdqu %ymm10,0x1c0(%rsp)
  401536:	00 00 
  401538:	c5 7e 7f ac 24 20 01 	vmovdqu %ymm13,0x120(%rsp)
  40153f:	00 00 
  401541:	c5 fe 7f 8c 24 80 00 	vmovdqu %ymm1,0x80(%rsp)
  401548:	00 00 
  40154a:	c4 a1 7c 10 44 0c e0 	vmovups -0x20(%rsp,%r9,1),%ymm0
  401551:	4e 8d 04 0a          	lea    (%rdx,%r9,1),%r8
  401555:	c4 c1 7c 11 40 e0    	vmovups %ymm0,-0x20(%r8)
  40155b:	c4 a1 7c 10 4c 0c c0 	vmovups -0x40(%rsp,%r9,1),%ymm1
  401562:	c4 c1 7c 11 48 c0    	vmovups %ymm1,-0x40(%r8)
  401568:	c4 a1 7c 10 54 0c a0 	vmovups -0x60(%rsp,%r9,1),%ymm2
  40156f:	c4 c1 7c 11 50 a0    	vmovups %ymm2,-0x60(%r8)
  401575:	c4 a1 7c 10 5c 0c 80 	vmovups -0x80(%rsp,%r9,1),%ymm3
  40157c:	49 81 e9 80 00 00 00 	sub    $0x80,%r9
  401583:	c4 c1 7c 11 58 80    	vmovups %ymm3,-0x80(%r8)
  401589:	75 bf                	jne    40154a <crypto_stream_xor+0x4ba>
  40158b:	48 ff c0             	inc    %rax
  40158e:	48 81 c2 00 02 00 00 	add    $0x200,%rdx
  401595:	48 81 c1 00 02 00 00 	add    $0x200,%rcx
  40159c:	48 3b c6             	cmp    %rsi,%rax
  40159f:	0f 82 28 fb ff ff    	jb     4010cd <crypto_stream_xor+0x3d>
  4015a5:	c5 f8 77             	vzeroupper 
  4015a8:	33 c0                	xor    %eax,%eax
  4015aa:	48 89 ec             	mov    %rbp,%rsp
  4015ad:	5d                   	pop    %rbp
  4015ae:	c3                   	retq   
  4015af:	90                   	nop

00000000004015b0 <crypto_stream>:
  4015b0:	55                   	push   %rbp
  4015b1:	48 89 e5             	mov    %rsp,%rbp
  4015b4:	48 83 e4 e0          	and    $0xffffffffffffffe0,%rsp
  4015b8:	48 81 ec 60 03 00 00 	sub    $0x360,%rsp
  4015bf:	33 c0                	xor    %eax,%eax
  4015c1:	48 89 fa             	mov    %rdi,%rdx
  4015c4:	33 c9                	xor    %ecx,%ecx
  4015c6:	48 85 f6             	test   %rsi,%rsi
  4015c9:	0f 8e f3 04 00 00    	jle    401ac2 <crypto_stream+0x512>
  4015cf:	4c 8d 86 ff 01 00 00 	lea    0x1ff(%rsi),%r8
  4015d6:	49 c1 f8 08          	sar    $0x8,%r8
  4015da:	49 c1 e8 37          	shr    $0x37,%r8
  4015de:	4a 8d b4 06 ff 01 00 	lea    0x1ff(%rsi,%r8,1),%rsi
  4015e5:	00 
  4015e6:	48 c1 fe 09          	sar    $0x9,%rsi
  4015ea:	c5 fe 6f bc 39 40 01 	vmovdqu 0x140(%rcx,%rdi,1),%ymm7
  4015f1:	00 00 
  4015f3:	45 32 c0             	xor    %r8b,%r8b
  4015f6:	c5 7e 6f bc 39 60 01 	vmovdqu 0x160(%rcx,%rdi,1),%ymm15
  4015fd:	00 00 
  4015ff:	c5 fe 6f b4 39 e0 01 	vmovdqu 0x1e0(%rcx,%rdi,1),%ymm6
  401606:	00 00 
  401608:	c5 fe 6f 9c 39 a0 01 	vmovdqu 0x1a0(%rcx,%rdi,1),%ymm3
  40160f:	00 00 
  401611:	c5 fe 6f 94 39 80 01 	vmovdqu 0x180(%rcx,%rdi,1),%ymm2
  401618:	00 00 
  40161a:	c5 7e 6f 94 39 c0 01 	vmovdqu 0x1c0(%rcx,%rdi,1),%ymm10
  401621:	00 00 
  401623:	c5 fe 6f 2a          	vmovdqu (%rdx),%ymm5
  401627:	c5 fe 6f 8c 39 80 00 	vmovdqu 0x80(%rcx,%rdi,1),%ymm1
  40162e:	00 00 
  401630:	c5 7e 6f b4 39 a0 00 	vmovdqu 0xa0(%rcx,%rdi,1),%ymm14
  401637:	00 00 
  401639:	c5 7e 6f 9c 39 c0 00 	vmovdqu 0xc0(%rcx,%rdi,1),%ymm11
  401640:	00 00 
  401642:	c5 7e 6f 84 39 00 01 	vmovdqu 0x100(%rcx,%rdi,1),%ymm8
  401649:	00 00 
  40164b:	c5 7e 6f ac 39 20 01 	vmovdqu 0x120(%rcx,%rdi,1),%ymm13
  401652:	00 00 
  401654:	c5 fe 6f a4 39 e0 00 	vmovdqu 0xe0(%rcx,%rdi,1),%ymm4
  40165b:	00 00 
  40165d:	c5 fe 6f 44 39 20    	vmovdqu 0x20(%rcx,%rdi,1),%ymm0
  401663:	c5 7e 6f 64 39 40    	vmovdqu 0x40(%rcx,%rdi,1),%ymm12
  401669:	c5 7e 6f 4c 39 60    	vmovdqu 0x60(%rcx,%rdi,1),%ymm9
  40166f:	c5 7e 7f bc 24 20 02 	vmovdqu %ymm15,0x220(%rsp)
  401676:	00 00 
  401678:	c5 fe 7f b4 24 00 02 	vmovdqu %ymm6,0x200(%rsp)
  40167f:	00 00 
  401681:	c5 fe 7f bc 24 40 02 	vmovdqu %ymm7,0x240(%rsp)
  401688:	00 00 
  40168a:	c5 d5 fe e9          	vpaddd %ymm1,%ymm5,%ymm5
  40168e:	41 fe c0             	inc    %r8b
  401691:	c5 fe 6f 35 67 13 00 	vmovdqu 0x1367(%rip),%ymm6        # 402a00 <iv.425.0.0.1+0x60>
  401698:	00 
  401699:	c5 ed ef d5          	vpxor  %ymm5,%ymm2,%ymm2
  40169d:	c4 e2 6d 00 fe       	vpshufb %ymm6,%ymm2,%ymm7
  4016a2:	c5 3d fe c7          	vpaddd %ymm7,%ymm8,%ymm8
  4016a6:	c4 c1 75 ef d0       	vpxor  %ymm8,%ymm1,%ymm2
  4016ab:	c4 c1 7d fe ce       	vpaddd %ymm14,%ymm0,%ymm1
  4016b0:	c5 85 72 f2 0c       	vpslld $0xc,%ymm2,%ymm15
  4016b5:	c5 e5 ef c1          	vpxor  %ymm1,%ymm3,%ymm0
  4016b9:	c5 ed 72 d2 14       	vpsrld $0x14,%ymm2,%ymm2
  4016be:	c4 e2 7d 00 c6       	vpshufb %ymm6,%ymm0,%ymm0
  4016c3:	c5 05 eb fa          	vpor   %ymm2,%ymm15,%ymm15
  4016c7:	c5 15 fe e8          	vpaddd %ymm0,%ymm13,%ymm13
  4016cb:	c4 c1 55 fe d7       	vpaddd %ymm15,%ymm5,%ymm2
  4016d0:	c4 c1 0d ef dd       	vpxor  %ymm13,%ymm14,%ymm3
  4016d5:	c4 41 1d fe f3       	vpaddd %ymm11,%ymm12,%ymm14
  4016da:	c5 c5 ef ea          	vpxor  %ymm2,%ymm7,%ymm5
  4016de:	c4 41 2d ef d6       	vpxor  %ymm14,%ymm10,%ymm10
  4016e3:	c4 62 2d 00 d6       	vpshufb %ymm6,%ymm10,%ymm10
  4016e8:	c5 2d fe a4 24 40 02 	vpaddd 0x240(%rsp),%ymm10,%ymm12
  4016ef:	00 00 
  4016f1:	c5 7e 7f a4 24 60 02 	vmovdqu %ymm12,0x260(%rsp)
  4016f8:	00 00 
  4016fa:	c4 41 25 ef e4       	vpxor  %ymm12,%ymm11,%ymm12
  4016ff:	c5 35 fe dc          	vpaddd %ymm4,%ymm9,%ymm11
  401703:	c5 25 ef 8c 24 00 02 	vpxor  0x200(%rsp),%ymm11,%ymm9
  40170a:	00 00 
  40170c:	c4 e2 35 00 f6       	vpshufb %ymm6,%ymm9,%ymm6
  401711:	c5 4d fe 8c 24 20 02 	vpaddd 0x220(%rsp),%ymm6,%ymm9
  401718:	00 00 
  40171a:	c5 fe 7f b4 24 80 02 	vmovdqu %ymm6,0x280(%rsp)
  401721:	00 00 
  401723:	c5 cd 72 f3 0c       	vpslld $0xc,%ymm3,%ymm6
  401728:	c4 c1 5d ef e1       	vpxor  %ymm9,%ymm4,%ymm4
  40172d:	c5 e5 72 d3 14       	vpsrld $0x14,%ymm3,%ymm3
  401732:	c5 7e 7f 8c 24 a0 02 	vmovdqu %ymm9,0x2a0(%rsp)
  401739:	00 00 
  40173b:	c4 62 55 00 0d dc 12 	vpshufb 0x12dc(%rip),%ymm5,%ymm9        # 402a20 <iv.425.0.0.1+0x80>
  401742:	00 00 
  401744:	c5 cd eb db          	vpor   %ymm3,%ymm6,%ymm3
  401748:	c4 c1 3d fe e9       	vpaddd %ymm9,%ymm8,%ymm5
  40174d:	c5 05 ef c5          	vpxor  %ymm5,%ymm15,%ymm8
  401751:	c5 fe 7f ac 24 c0 02 	vmovdqu %ymm5,0x2c0(%rsp)
  401758:	00 00 
  40175a:	c4 c1 05 72 f0 07    	vpslld $0x7,%ymm8,%ymm15
  401760:	c4 c1 45 72 d0 19    	vpsrld $0x19,%ymm8,%ymm7
  401766:	c5 75 fe c3          	vpaddd %ymm3,%ymm1,%ymm8
  40176a:	c5 85 eb ef          	vpor   %ymm7,%ymm15,%ymm5
  40176e:	c4 c1 7d ef c8       	vpxor  %ymm8,%ymm0,%ymm1
  401773:	c4 e2 75 00 05 a4 12 	vpshufb 0x12a4(%rip),%ymm1,%ymm0        # 402a20 <iv.425.0.0.1+0x80>
  40177a:	00 00 
  40177c:	c5 95 fe c8          	vpaddd %ymm0,%ymm13,%ymm1
  401780:	c5 fe 7f 84 24 e0 02 	vmovdqu %ymm0,0x2e0(%rsp)
  401787:	00 00 
  401789:	c5 65 ef e9          	vpxor  %ymm1,%ymm3,%ymm13
  40178d:	c4 c1 7d 72 f5 07    	vpslld $0x7,%ymm13,%ymm0
  401793:	c4 c1 65 72 d5 19    	vpsrld $0x19,%ymm13,%ymm3
  401799:	c5 7d eb fb          	vpor   %ymm3,%ymm0,%ymm15
  40179d:	c4 41 6d fe ef       	vpaddd %ymm15,%ymm2,%ymm13
  4017a2:	c4 c1 6d 72 f4 0c    	vpslld $0xc,%ymm12,%ymm2
  4017a8:	c4 c1 1d 72 d4 14    	vpsrld $0x14,%ymm12,%ymm12
  4017ae:	c4 c1 6d eb f4       	vpor   %ymm12,%ymm2,%ymm6
  4017b3:	c5 0d fe f6          	vpaddd %ymm6,%ymm14,%ymm14
  4017b7:	c4 41 2d ef d6       	vpxor  %ymm14,%ymm10,%ymm10
  4017bc:	c4 62 2d 00 25 5b 12 	vpshufb 0x125b(%rip),%ymm10,%ymm12        # 402a20 <iv.425.0.0.1+0x80>
  4017c3:	00 00 
  4017c5:	c5 ad 72 f4 0c       	vpslld $0xc,%ymm4,%ymm10
  4017ca:	c5 dd 72 d4 14       	vpsrld $0x14,%ymm4,%ymm4
  4017cf:	c5 9d fe bc 24 60 02 	vpaddd 0x260(%rsp),%ymm12,%ymm7
  4017d6:	00 00 
  4017d8:	c5 cd ef c7          	vpxor  %ymm7,%ymm6,%ymm0
  4017dc:	c5 ed 72 f0 07       	vpslld $0x7,%ymm0,%ymm2
  4017e1:	c5 e5 72 d0 19       	vpsrld $0x19,%ymm0,%ymm3
  4017e6:	c5 ed eb c3          	vpor   %ymm3,%ymm2,%ymm0
  4017ea:	c5 3d fe c0          	vpaddd %ymm0,%ymm8,%ymm8
  4017ee:	c5 7e 7f 84 24 00 03 	vmovdqu %ymm8,0x300(%rsp)
  4017f5:	00 00 
  4017f7:	c4 41 35 ef c8       	vpxor  %ymm8,%ymm9,%ymm9
  4017fc:	c5 2d eb c4          	vpor   %ymm4,%ymm10,%ymm8
  401800:	c4 e2 35 00 15 f7 11 	vpshufb 0x11f7(%rip),%ymm9,%ymm2        # 402a00 <iv.425.0.0.1+0x60>
  401807:	00 00 
  401809:	c4 c1 25 fe e0       	vpaddd %ymm8,%ymm11,%ymm4
  40180e:	c5 5d ef 9c 24 80 02 	vpxor  0x280(%rsp),%ymm4,%ymm11
  401815:	00 00 
  401817:	c5 dd fe e5          	vpaddd %ymm5,%ymm4,%ymm4
  40181b:	c4 62 25 00 0d fc 11 	vpshufb 0x11fc(%rip),%ymm11,%ymm9        # 402a20 <iv.425.0.0.1+0x80>
  401822:	00 00 
  401824:	c5 1d ef e4          	vpxor  %ymm4,%ymm12,%ymm12
  401828:	c5 fe 7f a4 24 20 03 	vmovdqu %ymm4,0x320(%rsp)
  40182f:	00 00 
  401831:	c4 41 35 ef d5       	vpxor  %ymm13,%ymm9,%ymm10
  401836:	c5 35 fe 9c 24 a0 02 	vpaddd 0x2a0(%rsp),%ymm9,%ymm11
  40183d:	00 00 
  40183f:	c4 62 2d 00 15 b8 11 	vpshufb 0x11b8(%rip),%ymm10,%ymm10        # 402a00 <iv.425.0.0.1+0x60>
  401846:	00 00 
  401848:	c4 c1 3d ef db       	vpxor  %ymm11,%ymm8,%ymm3
  40184d:	c5 25 fe da          	vpaddd %ymm2,%ymm11,%ymm11
  401851:	c4 c1 45 fe fa       	vpaddd %ymm10,%ymm7,%ymm7
  401856:	c4 c1 7d ef c3       	vpxor  %ymm11,%ymm0,%ymm0
  40185b:	c5 85 ef f7          	vpxor  %ymm7,%ymm15,%ymm6
  40185f:	c4 62 1d 00 3d 98 11 	vpshufb 0x1198(%rip),%ymm12,%ymm15        # 402a00 <iv.425.0.0.1+0x60>
  401866:	00 00 
  401868:	c5 9d 72 d3 19       	vpsrld $0x19,%ymm3,%ymm12
  40186d:	c4 c1 75 fe cf       	vpaddd %ymm15,%ymm1,%ymm1
  401872:	c5 55 ef c9          	vpxor  %ymm1,%ymm5,%ymm9
  401876:	c5 d5 72 f3 07       	vpslld $0x7,%ymm3,%ymm5
  40187b:	c5 fe 7f 8c 24 40 03 	vmovdqu %ymm1,0x340(%rsp)
  401882:	00 00 
  401884:	c5 f5 72 d6 14       	vpsrld $0x14,%ymm6,%ymm1
  401889:	c4 c1 55 eb ec       	vpor   %ymm12,%ymm5,%ymm5
  40188e:	c5 0d fe e5          	vpaddd %ymm5,%ymm14,%ymm12
  401892:	c5 1d ef b4 24 e0 02 	vpxor  0x2e0(%rsp),%ymm12,%ymm14
  401899:	00 00 
  40189b:	c4 62 0d 00 05 5c 11 	vpshufb 0x115c(%rip),%ymm14,%ymm8        # 402a00 <iv.425.0.0.1+0x60>
  4018a2:	00 00 
  4018a4:	c5 8d 72 f6 0c       	vpslld $0xc,%ymm6,%ymm14
  4018a9:	c5 bd fe a4 24 c0 02 	vpaddd 0x2c0(%rsp),%ymm8,%ymm4
  4018b0:	00 00 
  4018b2:	c5 0d eb f1          	vpor   %ymm1,%ymm14,%ymm14
  4018b6:	c5 f5 72 f0 0c       	vpslld $0xc,%ymm0,%ymm1
  4018bb:	c5 d5 ef dc          	vpxor  %ymm4,%ymm5,%ymm3
  4018bf:	c5 fd 72 d0 14       	vpsrld $0x14,%ymm0,%ymm0
  4018c4:	c4 c1 15 fe ee       	vpaddd %ymm14,%ymm13,%ymm5
  4018c9:	c5 f5 eb f0          	vpor   %ymm0,%ymm1,%ymm6
  4018cd:	c5 2d ef ed          	vpxor  %ymm5,%ymm10,%ymm13
  4018d1:	c5 cd fe 84 24 00 03 	vpaddd 0x300(%rsp),%ymm6,%ymm0
  4018d8:	00 00 
  4018da:	c4 62 15 00 15 3d 11 	vpshufb 0x113d(%rip),%ymm13,%ymm10        # 402a20 <iv.425.0.0.1+0x80>
  4018e1:	00 00 
  4018e3:	c5 ed ef d0          	vpxor  %ymm0,%ymm2,%ymm2
  4018e7:	c4 c1 45 fe fa       	vpaddd %ymm10,%ymm7,%ymm7
  4018ec:	c5 7e 7f 94 24 00 02 	vmovdqu %ymm10,0x200(%rsp)
  4018f3:	00 00 
  4018f5:	c4 e2 6d 00 15 22 11 	vpshufb 0x1122(%rip),%ymm2,%ymm2        # 402a20 <iv.425.0.0.1+0x80>
  4018fc:	00 00 
  4018fe:	c5 0d ef f7          	vpxor  %ymm7,%ymm14,%ymm14
  401902:	c5 fe 7f bc 24 40 02 	vmovdqu %ymm7,0x240(%rsp)
  401909:	00 00 
  40190b:	c5 25 fe da          	vpaddd %ymm2,%ymm11,%ymm11
  40190f:	c4 c1 2d 72 f6 07    	vpslld $0x7,%ymm14,%ymm10
  401915:	c4 c1 15 72 d6 19    	vpsrld $0x19,%ymm14,%ymm13
  40191b:	c4 c1 4d ef fb       	vpxor  %ymm11,%ymm6,%ymm7
  401920:	c4 c1 4d 72 f1 0c    	vpslld $0xc,%ymm9,%ymm6
  401926:	c4 41 2d eb f5       	vpor   %ymm13,%ymm10,%ymm14
  40192b:	c5 95 72 f3 0c       	vpslld $0xc,%ymm3,%ymm13
  401930:	c5 e5 72 d3 14       	vpsrld $0x14,%ymm3,%ymm3
  401935:	c4 c1 35 72 d1 14    	vpsrld $0x14,%ymm9,%ymm9
  40193b:	c5 ad 72 d7 19       	vpsrld $0x19,%ymm7,%ymm10
  401940:	c5 7e 7f 9c 24 20 02 	vmovdqu %ymm11,0x220(%rsp)
  401947:	00 00 
  401949:	c5 95 eb cb          	vpor   %ymm3,%ymm13,%ymm1
  40194d:	c5 a5 72 f7 07       	vpslld $0x7,%ymm7,%ymm11
  401952:	c4 c1 4d eb f9       	vpor   %ymm9,%ymm6,%ymm7
  401957:	c5 1d fe e1          	vpaddd %ymm1,%ymm12,%ymm12
  40195b:	c4 41 25 eb da       	vpor   %ymm10,%ymm11,%ymm11
  401960:	c5 45 fe 8c 24 20 03 	vpaddd 0x320(%rsp),%ymm7,%ymm9
  401967:	00 00 
  401969:	c4 41 3d ef c4       	vpxor  %ymm12,%ymm8,%ymm8
  40196e:	c4 41 05 ef f9       	vpxor  %ymm9,%ymm15,%ymm15
  401973:	c4 e2 3d 00 1d a4 10 	vpshufb 0x10a4(%rip),%ymm8,%ymm3        # 402a20 <iv.425.0.0.1+0x80>
  40197a:	00 00 
  40197c:	c5 5d fe c3          	vpaddd %ymm3,%ymm4,%ymm8
  401980:	c4 c1 75 ef e0       	vpxor  %ymm8,%ymm1,%ymm4
  401985:	c5 ad 72 f4 07       	vpslld $0x7,%ymm4,%ymm10
  40198a:	c5 dd 72 d4 19       	vpsrld $0x19,%ymm4,%ymm4
  40198f:	c5 ad eb e4          	vpor   %ymm4,%ymm10,%ymm4
  401993:	c4 62 05 00 15 84 10 	vpshufb 0x1084(%rip),%ymm15,%ymm10        # 402a20 <iv.425.0.0.1+0x80>
  40199a:	00 00 
  40199c:	c5 2d fe ac 24 40 03 	vpaddd 0x340(%rsp),%ymm10,%ymm13
  4019a3:	00 00 
  4019a5:	c4 c1 45 ef cd       	vpxor  %ymm13,%ymm7,%ymm1
  4019aa:	c5 cd 72 f1 07       	vpslld $0x7,%ymm1,%ymm6
  4019af:	c5 85 72 d1 19       	vpsrld $0x19,%ymm1,%ymm15
  4019b4:	c4 c1 4d eb cf       	vpor   %ymm15,%ymm6,%ymm1
  4019b9:	41 80 f8 0a          	cmp    $0xa,%r8b
  4019bd:	0f 82 c7 fc ff ff    	jb     40168a <crypto_stream+0xda>
  4019c3:	c5 7e 6f bc 24 20 02 	vmovdqu 0x220(%rsp),%ymm15
  4019ca:	00 00 
  4019cc:	41 b9 00 02 00 00    	mov    $0x200,%r9d
  4019d2:	c5 fe 6f b4 24 00 02 	vmovdqu 0x200(%rsp),%ymm6
  4019d9:	00 00 
  4019db:	c5 fe 6f bc 24 40 02 	vmovdqu 0x240(%rsp),%ymm7
  4019e2:	00 00 
  4019e4:	c5 fe 7f 2c 24       	vmovdqu %ymm5,(%rsp)
  4019e9:	c5 7e 7f b4 24 a0 00 	vmovdqu %ymm14,0xa0(%rsp)
  4019f0:	00 00 
  4019f2:	c5 fe 7f 44 24 20    	vmovdqu %ymm0,0x20(%rsp)
  4019f8:	c5 fe 7f b4 24 e0 01 	vmovdqu %ymm6,0x1e0(%rsp)
  4019ff:	00 00 
  401a01:	c5 fe 7f bc 24 40 01 	vmovdqu %ymm7,0x140(%rsp)
  401a08:	00 00 
  401a0a:	c5 fe 7f 94 24 80 01 	vmovdqu %ymm2,0x180(%rsp)
  401a11:	00 00 
  401a13:	c5 7e 7f bc 24 60 01 	vmovdqu %ymm15,0x160(%rsp)
  401a1a:	00 00 
  401a1c:	c5 7e 7f 9c 24 c0 00 	vmovdqu %ymm11,0xc0(%rsp)
  401a23:	00 00 
  401a25:	c5 7e 7f 64 24 40    	vmovdqu %ymm12,0x40(%rsp)
  401a2b:	c5 fe 7f 9c 24 a0 01 	vmovdqu %ymm3,0x1a0(%rsp)
  401a32:	00 00 
  401a34:	c5 7e 7f 84 24 00 01 	vmovdqu %ymm8,0x100(%rsp)
  401a3b:	00 00 
  401a3d:	c5 fe 7f a4 24 e0 00 	vmovdqu %ymm4,0xe0(%rsp)
  401a44:	00 00 
  401a46:	c5 7e 7f 4c 24 60    	vmovdqu %ymm9,0x60(%rsp)
  401a4c:	c5 7e 7f 94 24 c0 01 	vmovdqu %ymm10,0x1c0(%rsp)
  401a53:	00 00 
  401a55:	c5 7e 7f ac 24 20 01 	vmovdqu %ymm13,0x120(%rsp)
  401a5c:	00 00 
  401a5e:	c5 fe 7f 8c 24 80 00 	vmovdqu %ymm1,0x80(%rsp)
  401a65:	00 00 
  401a67:	c4 a1 7c 10 44 0c e0 	vmovups -0x20(%rsp,%r9,1),%ymm0
  401a6e:	4e 8d 04 0a          	lea    (%rdx,%r9,1),%r8
  401a72:	c4 c1 7c 11 40 e0    	vmovups %ymm0,-0x20(%r8)
  401a78:	c4 a1 7c 10 4c 0c c0 	vmovups -0x40(%rsp,%r9,1),%ymm1
  401a7f:	c4 c1 7c 11 48 c0    	vmovups %ymm1,-0x40(%r8)
  401a85:	c4 a1 7c 10 54 0c a0 	vmovups -0x60(%rsp,%r9,1),%ymm2
  401a8c:	c4 c1 7c 11 50 a0    	vmovups %ymm2,-0x60(%r8)
  401a92:	c4 a1 7c 10 5c 0c 80 	vmovups -0x80(%rsp,%r9,1),%ymm3
  401a99:	49 81 e9 80 00 00 00 	sub    $0x80,%r9
  401aa0:	c4 c1 7c 11 58 80    	vmovups %ymm3,-0x80(%r8)
  401aa6:	75 bf                	jne    401a67 <crypto_stream+0x4b7>
  401aa8:	48 ff c0             	inc    %rax
  401aab:	48 81 c2 00 02 00 00 	add    $0x200,%rdx
  401ab2:	48 81 c1 00 02 00 00 	add    $0x200,%rcx
  401ab9:	48 3b c6             	cmp    %rsi,%rax
  401abc:	0f 82 28 fb ff ff    	jb     4015ea <crypto_stream+0x3a>
  401ac2:	c5 f8 77             	vzeroupper 
  401ac5:	33 c0                	xor    %eax,%eax
  401ac7:	48 89 ec             	mov    %rbp,%rsp
  401aca:	5d                   	pop    %rbp
  401acb:	c3                   	retq   
  401acc:	0f 1f 40 00          	nopl   0x0(%rax)

0000000000401ad0 <__intel_new_feature_proc_init>:
  401ad0:	41 54                	push   %r12
  401ad2:	41 55                	push   %r13
  401ad4:	41 56                	push   %r14
  401ad6:	41 57                	push   %r15
  401ad8:	48 81 ec 38 04 00 00 	sub    $0x438,%rsp
  401adf:	49 89 f6             	mov    %rsi,%r14
  401ae2:	4c 8d 3d 17 3a 20 00 	lea    0x203a17(%rip),%r15        # 605500 <__intel_cpu_feature_indicator>
  401ae9:	41 89 fd             	mov    %edi,%r13d
  401aec:	64 48 8b 04 25 28 00 	mov    %fs:0x28,%rax
  401af3:	00 00 
  401af5:	48 33 c4             	xor    %rsp,%rax
  401af8:	4d 8b 27             	mov    (%r15),%r12
  401afb:	48 89 84 24 28 04 00 	mov    %rax,0x428(%rsp)
  401b02:	00 
  401b03:	4d 85 e4             	test   %r12,%r12
  401b06:	0f 84 f8 02 00 00    	je     401e04 <__intel_new_feature_proc_init+0x334>
  401b0c:	4c 89 e0             	mov    %r12,%rax
  401b0f:	49 23 c6             	and    %r14,%rax
  401b12:	49 3b c6             	cmp    %r14,%rax
  401b15:	0f 84 4c 02 00 00    	je     401d67 <__intel_new_feature_proc_init+0x297>
  401b1b:	49 f7 c6 01 00 00 00 	test   $0x1,%r14
  401b22:	0f 85 b3 02 00 00    	jne    401ddb <__intel_new_feature_proc_init+0x30b>
  401b28:	45 33 ff             	xor    %r15d,%r15d
  401b2b:	49 f7 d4             	not    %r12
  401b2e:	bf 39 00 00 00       	mov    $0x39,%edi
  401b33:	33 f6                	xor    %esi,%esi
  401b35:	33 c0                	xor    %eax,%eax
  401b37:	4d 23 e6             	and    %r14,%r12
  401b3a:	45 33 f6             	xor    %r14d,%r14d
  401b3d:	e8 fe 02 00 00       	callq  401e40 <__libirc_get_msg>
  401b42:	c6 44 24 28 00       	movb   $0x0,0x28(%rsp)
  401b47:	4c 89 f2             	mov    %r14,%rdx
  401b4a:	48 89 44 24 20       	mov    %rax,0x20(%rsp)
  401b4f:	41 bd 01 00 00 00    	mov    $0x1,%r13d
  401b55:	48 89 5c 24 18       	mov    %rbx,0x18(%rsp)
  401b5a:	48 89 6c 24 10       	mov    %rbp,0x10(%rsp)
  401b5f:	4c 89 f5             	mov    %r14,%rbp
  401b62:	b8 01 00 00 00       	mov    $0x1,%eax
  401b67:	41 8d 4d 3f          	lea    0x3f(%r13),%ecx
  401b6b:	48 d3 e0             	shl    %cl,%rax
  401b6e:	41 83 fd 2b          	cmp    $0x2b,%r13d
  401b72:	48 0f 47 c5          	cmova  %rbp,%rax
  401b76:	4c 85 e0             	test   %r12,%rax
  401b79:	0f 84 ff 00 00 00    	je     401c7e <__intel_new_feature_proc_init+0x1ae>
  401b7f:	48 8d 05 ba 2c 20 00 	lea    0x202cba(%rip),%rax        # 604840 <c_feature_names>
  401b86:	4a 8b 1c e8          	mov    (%rax,%r13,8),%rbx
  401b8a:	48 85 db             	test   %rbx,%rbx
  401b8d:	0f 84 39 02 00 00    	je     401dcc <__intel_new_feature_proc_init+0x2fc>
  401b93:	80 3b 00             	cmpb   $0x0,(%rbx)
  401b96:	0f 84 30 02 00 00    	je     401dcc <__intel_new_feature_proc_init+0x2fc>
  401b9c:	80 7c 24 28 00       	cmpb   $0x0,0x28(%rsp)
  401ba1:	0f 84 ab 00 00 00    	je     401c52 <__intel_new_feature_proc_init+0x182>
  401ba7:	4d 85 ff             	test   %r15,%r15
  401baa:	0f 84 9d 00 00 00    	je     401c4d <__intel_new_feature_proc_init+0x17d>
  401bb0:	4c 89 ff             	mov    %r15,%rdi
  401bb3:	e8 08 ed ff ff       	callq  4008c0 <strlen@plt>
  401bb8:	48 8b 7c 24 20       	mov    0x20(%rsp),%rdi
  401bbd:	48 89 44 24 08       	mov    %rax,0x8(%rsp)
  401bc2:	e8 f9 ec ff ff       	callq  4008c0 <strlen@plt>
  401bc7:	48 89 df             	mov    %rbx,%rdi
  401bca:	48 89 04 24          	mov    %rax,(%rsp)
  401bce:	e8 ed ec ff ff       	callq  4008c0 <strlen@plt>
  401bd3:	48 89 c1             	mov    %rax,%rcx
  401bd6:	48 8b 44 24 08       	mov    0x8(%rsp),%rax
  401bdb:	49 03 c6             	add    %r14,%rax
  401bde:	48 03 04 24          	add    (%rsp),%rax
  401be2:	4c 8d 44 08 02       	lea    0x2(%rax,%rcx,1),%r8
  401be7:	49 81 f8 00 04 00 00 	cmp    $0x400,%r8
  401bee:	0f 83 a6 01 00 00    	jae    401d9a <__intel_new_feature_proc_init+0x2ca>
  401bf4:	49 f7 de             	neg    %r14
  401bf7:	48 8d 7c 24 28       	lea    0x28(%rsp),%rdi
  401bfc:	49 81 c6 ff 03 00 00 	add    $0x3ff,%r14
  401c03:	48 8d 35 b2 0f 00 00 	lea    0xfb2(%rip),%rsi        # 402bbc <iv.425.0.0.1+0x21c>
  401c0a:	4c 89 f2             	mov    %r14,%rdx
  401c0d:	b9 00 04 00 00       	mov    $0x400,%ecx
  401c12:	e8 69 ed ff ff       	callq  400980 <__strncat_chk@plt>
  401c17:	48 8d 7c 24 28       	lea    0x28(%rsp),%rdi
  401c1c:	e8 9f ec ff ff       	callq  4008c0 <strlen@plt>
  401c21:	48 63 d0             	movslq %eax,%rdx
  401c24:	48 8d 7c 24 28       	lea    0x28(%rsp),%rdi
  401c29:	48 f7 da             	neg    %rdx
  401c2c:	4c 89 fe             	mov    %r15,%rsi
  401c2f:	48 81 c2 ff 03 00 00 	add    $0x3ff,%rdx
  401c36:	b9 00 04 00 00       	mov    $0x400,%ecx
  401c3b:	e8 40 ed ff ff       	callq  400980 <__strncat_chk@plt>
  401c40:	48 8d 7c 24 28       	lea    0x28(%rsp),%rdi
  401c45:	e8 76 ec ff ff       	callq  4008c0 <strlen@plt>
  401c4a:	4c 63 f0             	movslq %eax,%r14
  401c4d:	49 89 df             	mov    %rbx,%r15
  401c50:	eb 2c                	jmp    401c7e <__intel_new_feature_proc_init+0x1ae>
  401c52:	49 f7 de             	neg    %r14
  401c55:	48 8d 7c 24 28       	lea    0x28(%rsp),%rdi
  401c5a:	49 81 c6 ff 03 00 00 	add    $0x3ff,%r14
  401c61:	48 89 de             	mov    %rbx,%rsi
  401c64:	4c 89 f2             	mov    %r14,%rdx
  401c67:	b9 00 04 00 00       	mov    $0x400,%ecx
  401c6c:	e8 0f ed ff ff       	callq  400980 <__strncat_chk@plt>
  401c71:	48 8d 7c 24 28       	lea    0x28(%rsp),%rdi
  401c76:	e8 45 ec ff ff       	callq  4008c0 <strlen@plt>
  401c7b:	4c 63 f0             	movslq %eax,%r14
  401c7e:	41 ff c5             	inc    %r13d
  401c81:	41 83 fd 2b          	cmp    $0x2b,%r13d
  401c85:	0f 8e d7 fe ff ff    	jle    401b62 <__intel_new_feature_proc_init+0x92>
  401c8b:	48 8b 44 24 20       	mov    0x20(%rsp),%rax
  401c90:	4c 89 f2             	mov    %r14,%rdx
  401c93:	48 8b 5c 24 18       	mov    0x18(%rsp),%rbx
  401c98:	48 8b 6c 24 10       	mov    0x10(%rsp),%rbp
  401c9d:	4d 85 ff             	test   %r15,%r15
  401ca0:	74 45                	je     401ce7 <__intel_new_feature_proc_init+0x217>
  401ca2:	48 f7 da             	neg    %rdx
  401ca5:	48 8d 7c 24 28       	lea    0x28(%rsp),%rdi
  401caa:	48 81 c2 ff 03 00 00 	add    $0x3ff,%rdx
  401cb1:	48 89 c6             	mov    %rax,%rsi
  401cb4:	b9 00 04 00 00       	mov    $0x400,%ecx
  401cb9:	e8 c2 ec ff ff       	callq  400980 <__strncat_chk@plt>
  401cbe:	48 8d 7c 24 28       	lea    0x28(%rsp),%rdi
  401cc3:	e8 f8 eb ff ff       	callq  4008c0 <strlen@plt>
  401cc8:	48 63 d0             	movslq %eax,%rdx
  401ccb:	48 8d 7c 24 28       	lea    0x28(%rsp),%rdi
  401cd0:	48 f7 da             	neg    %rdx
  401cd3:	4c 89 fe             	mov    %r15,%rsi
  401cd6:	48 81 c2 ff 03 00 00 	add    $0x3ff,%rdx
  401cdd:	b9 00 04 00 00       	mov    $0x400,%ecx
  401ce2:	e8 99 ec ff ff       	callq  400980 <__strncat_chk@plt>
  401ce7:	80 7c 24 28 00       	cmpb   $0x0,0x28(%rsp)
  401cec:	75 3d                	jne    401d2b <__intel_new_feature_proc_init+0x25b>
  401cee:	33 f6                	xor    %esi,%esi
  401cf0:	bf 01 00 00 00       	mov    $0x1,%edi
  401cf5:	33 d2                	xor    %edx,%edx
  401cf7:	33 c0                	xor    %eax,%eax
  401cf9:	e8 c2 03 00 00       	callq  4020c0 <__libirc_print>
  401cfe:	bf 01 00 00 00       	mov    $0x1,%edi
  401d03:	be 3a 00 00 00       	mov    $0x3a,%esi
  401d08:	33 d2                	xor    %edx,%edx
  401d0a:	33 c0                	xor    %eax,%eax
  401d0c:	e8 af 03 00 00       	callq  4020c0 <__libirc_print>
  401d11:	33 f6                	xor    %esi,%esi
  401d13:	bf 01 00 00 00       	mov    $0x1,%edi
  401d18:	33 d2                	xor    %edx,%edx
  401d1a:	33 c0                	xor    %eax,%eax
  401d1c:	e8 9f 03 00 00       	callq  4020c0 <__libirc_print>
  401d21:	bf 01 00 00 00       	mov    $0x1,%edi
  401d26:	e8 25 ec ff ff       	callq  400950 <exit@plt>
  401d2b:	33 f6                	xor    %esi,%esi
  401d2d:	bf 01 00 00 00       	mov    $0x1,%edi
  401d32:	33 d2                	xor    %edx,%edx
  401d34:	33 c0                	xor    %eax,%eax
  401d36:	e8 85 03 00 00       	callq  4020c0 <__libirc_print>
  401d3b:	bf 01 00 00 00       	mov    $0x1,%edi
  401d40:	be 38 00 00 00       	mov    $0x38,%esi
  401d45:	89 fa                	mov    %edi,%edx
  401d47:	48 8d 4c 24 28       	lea    0x28(%rsp),%rcx
  401d4c:	33 c0                	xor    %eax,%eax
  401d4e:	e8 6d 03 00 00       	callq  4020c0 <__libirc_print>
  401d53:	eb bc                	jmp    401d11 <__intel_new_feature_proc_init+0x241>
  401d55:	33 f6                	xor    %esi,%esi
  401d57:	bf 01 00 00 00       	mov    $0x1,%edi
  401d5c:	33 d2                	xor    %edx,%edx
  401d5e:	33 c0                	xor    %eax,%eax
  401d60:	e8 5b 03 00 00       	callq  4020c0 <__libirc_print>
  401d65:	eb 97                	jmp    401cfe <__intel_new_feature_proc_init+0x22e>
  401d67:	49 f7 c4 20 00 00 00 	test   $0x20,%r12
  401d6e:	0f 85 81 00 00 00    	jne    401df5 <__intel_new_feature_proc_init+0x325>
  401d74:	48 8b 84 24 28 04 00 	mov    0x428(%rsp),%rax
  401d7b:	00 
  401d7c:	48 33 c4             	xor    %rsp,%rax
  401d7f:	64 48 3b 04 25 28 00 	cmp    %fs:0x28,%rax
  401d86:	00 00 
  401d88:	75 66                	jne    401df0 <__intel_new_feature_proc_init+0x320>
  401d8a:	48 81 c4 38 04 00 00 	add    $0x438,%rsp
  401d91:	41 5f                	pop    %r15
  401d93:	41 5e                	pop    %r14
  401d95:	41 5d                	pop    %r13
  401d97:	41 5c                	pop    %r12
  401d99:	c3                   	retq   
  401d9a:	4c 89 f2             	mov    %r14,%rdx
  401d9d:	48 8d 7c 24 28       	lea    0x28(%rsp),%rdi
  401da2:	48 f7 da             	neg    %rdx
  401da5:	b9 00 04 00 00       	mov    $0x400,%ecx
  401daa:	48 8b 47 f8          	mov    -0x8(%rdi),%rax
  401dae:	48 81 c2 ff 03 00 00 	add    $0x3ff,%rdx
  401db5:	48 89 c6             	mov    %rax,%rsi
  401db8:	48 8b 5c 24 18       	mov    0x18(%rsp),%rbx
  401dbd:	48 8b 6c 24 10       	mov    0x10(%rsp),%rbp
  401dc2:	e8 b9 eb ff ff       	callq  400980 <__strncat_chk@plt>
  401dc7:	e9 f2 fe ff ff       	jmpq   401cbe <__intel_new_feature_proc_init+0x1ee>
  401dcc:	48 8b 5c 24 18       	mov    0x18(%rsp),%rbx
  401dd1:	48 8b 6c 24 10       	mov    0x10(%rsp),%rbp
  401dd6:	e9 7a ff ff ff       	jmpq   401d55 <__intel_new_feature_proc_init+0x285>
  401ddb:	33 f6                	xor    %esi,%esi
  401ddd:	bf 01 00 00 00       	mov    $0x1,%edi
  401de2:	33 d2                	xor    %edx,%edx
  401de4:	33 c0                	xor    %eax,%eax
  401de6:	e8 d5 02 00 00       	callq  4020c0 <__libirc_print>
  401deb:	e9 0e ff ff ff       	jmpq   401cfe <__intel_new_feature_proc_init+0x22e>
  401df0:	e8 db ea ff ff       	callq  4008d0 <__stack_chk_fail@plt>
  401df5:	33 ff                	xor    %edi,%edi
  401df7:	44 89 ee             	mov    %r13d,%esi
  401dfa:	e8 01 0a 00 00       	callq  402800 <__intel_proc_init_ftzdazule>
  401dff:	e9 70 ff ff ff       	jmpq   401d74 <__intel_new_feature_proc_init+0x2a4>
  401e04:	33 c0                	xor    %eax,%eax
  401e06:	e8 c5 05 00 00       	callq  4023d0 <__intel_cpu_features_init>
  401e0b:	4d 8b 27             	mov    (%r15),%r12
  401e0e:	4d 85 e4             	test   %r12,%r12
  401e11:	0f 85 f5 fc ff ff    	jne    401b0c <__intel_new_feature_proc_init+0x3c>
  401e17:	33 f6                	xor    %esi,%esi
  401e19:	bf 01 00 00 00       	mov    $0x1,%edi
  401e1e:	33 d2                	xor    %edx,%edx
  401e20:	33 c0                	xor    %eax,%eax
  401e22:	e8 99 02 00 00       	callq  4020c0 <__libirc_print>
  401e27:	bf 01 00 00 00       	mov    $0x1,%edi
  401e2c:	be 3b 00 00 00       	mov    $0x3b,%esi
  401e31:	33 d2                	xor    %edx,%edx
  401e33:	33 c0                	xor    %eax,%eax
  401e35:	e8 86 02 00 00       	callq  4020c0 <__libirc_print>
  401e3a:	e9 d2 fe ff ff       	jmpq   401d11 <__intel_new_feature_proc_init+0x241>
  401e3f:	90                   	nop

0000000000401e40 <__libirc_get_msg>:
  401e40:	41 54                	push   %r12
  401e42:	41 55                	push   %r13
  401e44:	41 56                	push   %r14
  401e46:	48 81 ec 50 01 00 00 	sub    $0x150,%rsp
  401e4d:	48 89 54 24 10       	mov    %rdx,0x10(%rsp)
  401e52:	48 89 4c 24 18       	mov    %rcx,0x18(%rsp)
  401e57:	4c 89 44 24 20       	mov    %r8,0x20(%rsp)
  401e5c:	4c 89 4c 24 28       	mov    %r9,0x28(%rsp)
  401e61:	44 0f b6 d8          	movzbl %al,%r11d
  401e65:	4a 8d 04 9d 00 00 00 	lea    0x0(,%r11,4),%rax
  401e6c:	00 
  401e6d:	4c 8d 1d 2e 00 00 00 	lea    0x2e(%rip),%r11        # 401ea2 <__libirc_get_msg+0x62>
  401e74:	4c 2b d8             	sub    %rax,%r11
  401e77:	48 8d 84 24 af 00 00 	lea    0xaf(%rsp),%rax
  401e7e:	00 
  401e7f:	41 ff e3             	jmpq   *%r11
  401e82:	0f 29 78 f1          	movaps %xmm7,-0xf(%rax)
  401e86:	0f 29 70 e1          	movaps %xmm6,-0x1f(%rax)
  401e8a:	0f 29 68 d1          	movaps %xmm5,-0x2f(%rax)
  401e8e:	0f 29 60 c1          	movaps %xmm4,-0x3f(%rax)
  401e92:	0f 29 58 b1          	movaps %xmm3,-0x4f(%rax)
  401e96:	0f 29 50 a1          	movaps %xmm2,-0x5f(%rax)
  401e9a:	0f 29 48 91          	movaps %xmm1,-0x6f(%rax)
  401e9e:	0f 29 40 81          	movaps %xmm0,-0x7f(%rax)
  401ea2:	41 89 fd             	mov    %edi,%r13d
  401ea5:	64 48 8b 04 25 28 00 	mov    %fs:0x28,%rax
  401eac:	00 00 
  401eae:	41 89 f6             	mov    %esi,%r14d
  401eb1:	48 33 c4             	xor    %rsp,%rax
  401eb4:	48 89 84 24 48 01 00 	mov    %rax,0x148(%rsp)
  401ebb:	00 
  401ebc:	45 85 ed             	test   %r13d,%r13d
  401ebf:	0f 84 87 00 00 00    	je     401f4c <__libirc_get_msg+0x10c>
  401ec5:	83 3d e8 31 20 00 00 	cmpl   $0x0,0x2031e8(%rip)        # 6050b4 <first_msg>
  401ecc:	74 5b                	je     401f29 <__libirc_get_msg+0xe9>
  401ece:	48 8d 3d eb 0c 00 00 	lea    0xceb(%rip),%rdi        # 402bc0 <iv.425.0.0.1+0x220>
  401ed5:	33 f6                	xor    %esi,%esi
  401ed7:	c7 05 d3 31 20 00 00 	movl   $0x0,0x2031d3(%rip)        # 6050b4 <first_msg>
  401ede:	00 00 00 
  401ee1:	e8 2a ea ff ff       	callq  400910 <catopen@plt>
  401ee6:	48 89 05 f3 35 20 00 	mov    %rax,0x2035f3(%rip)        # 6054e0 <message_catalog>
  401eed:	48 83 f8 ff          	cmp    $0xffffffffffffffff,%rax
  401ef1:	0f 84 0d 01 00 00    	je     402004 <__libirc_get_msg+0x1c4>
  401ef7:	48 8b 3d e2 35 20 00 	mov    0x2035e2(%rip),%rdi        # 6054e0 <message_catalog>
  401efe:	c7 05 b0 31 20 00 00 	movl   $0x0,0x2031b0(%rip)        # 6050b8 <use_internal_msg>
  401f05:	00 00 00 
  401f08:	49 63 c5             	movslq %r13d,%rax
  401f0b:	4c 8d 05 f6 2a 20 00 	lea    0x202af6(%rip),%r8        # 604a08 <irc_msgtab+0x8>
  401f12:	48 c1 e0 04          	shl    $0x4,%rax
  401f16:	be 01 00 00 00       	mov    $0x1,%esi
  401f1b:	44 89 ea             	mov    %r13d,%edx
  401f1e:	4a 8b 0c 00          	mov    (%rax,%r8,1),%rcx
  401f22:	e8 19 ea ff ff       	callq  400940 <catgets@plt>
  401f27:	eb 2a                	jmp    401f53 <__libirc_get_msg+0x113>
  401f29:	8b 05 89 31 20 00    	mov    0x203189(%rip),%eax        # 6050b8 <use_internal_msg>
  401f2f:	85 c0                	test   %eax,%eax
  401f31:	0f 84 7d 01 00 00    	je     4020b4 <__libirc_get_msg+0x274>
  401f37:	4d 63 ed             	movslq %r13d,%r13
  401f3a:	48 8d 05 c7 2a 20 00 	lea    0x202ac7(%rip),%rax        # 604a08 <irc_msgtab+0x8>
  401f41:	49 c1 e5 04          	shl    $0x4,%r13
  401f45:	49 8b 44 05 00       	mov    0x0(%r13,%rax,1),%rax
  401f4a:	eb 07                	jmp    401f53 <__libirc_get_msg+0x113>
  401f4c:	48 8d 05 7d 0a 00 00 	lea    0xa7d(%rip),%rax        # 4029d0 <iv.425.0.0.1+0x30>
  401f53:	45 85 f6             	test   %r14d,%r14d
  401f56:	0f 8e 80 00 00 00    	jle    401fdc <__libirc_get_msg+0x19c>
  401f5c:	c7 84 24 b0 00 00 00 	movl   $0x10,0xb0(%rsp)
  401f63:	10 00 00 00 
  401f67:	48 8d 94 24 70 01 00 	lea    0x170(%rsp),%rdx
  401f6e:	00 
  401f6f:	c7 84 24 b4 00 00 00 	movl   $0x30,0xb4(%rsp)
  401f76:	30 00 00 00 
  401f7a:	48 8d 34 24          	lea    (%rsp),%rsi
  401f7e:	48 89 96 b8 00 00 00 	mov    %rdx,0xb8(%rsi)
  401f85:	48 89 b6 c0 00 00 00 	mov    %rsi,0xc0(%rsi)
  401f8c:	48 8d 3d 4d 31 20 00 	lea    0x20314d(%rip),%rdi        # 6050e0 <get_msg_buf>
  401f93:	be 01 00 00 00       	mov    $0x1,%esi
  401f98:	ba 00 02 00 00       	mov    $0x200,%edx
  401f9d:	48 89 c1             	mov    %rax,%rcx
  401fa0:	4c 8d 84 24 b0 00 00 	lea    0xb0(%rsp),%r8
  401fa7:	00 
  401fa8:	e8 e3 e9 ff ff       	callq  400990 <__vsprintf_chk@plt>
  401fad:	48 8b 84 24 48 01 00 	mov    0x148(%rsp),%rax
  401fb4:	00 
  401fb5:	48 33 c4             	xor    %rsp,%rax
  401fb8:	64 48 3b 04 25 28 00 	cmp    %fs:0x28,%rax
  401fbf:	00 00 
  401fc1:	0f 85 e8 00 00 00    	jne    4020af <__libirc_get_msg+0x26f>
  401fc7:	48 8d 05 12 31 20 00 	lea    0x203112(%rip),%rax        # 6050e0 <get_msg_buf>
  401fce:	48 81 c4 50 01 00 00 	add    $0x150,%rsp
  401fd5:	41 5e                	pop    %r14
  401fd7:	41 5d                	pop    %r13
  401fd9:	41 5c                	pop    %r12
  401fdb:	c3                   	retq   
  401fdc:	48 8b 94 24 48 01 00 	mov    0x148(%rsp),%rdx
  401fe3:	00 
  401fe4:	48 33 d4             	xor    %rsp,%rdx
  401fe7:	64 48 3b 14 25 28 00 	cmp    %fs:0x28,%rdx
  401fee:	00 00 
  401ff0:	0f 85 b9 00 00 00    	jne    4020af <__libirc_get_msg+0x26f>
  401ff6:	48 81 c4 50 01 00 00 	add    $0x150,%rsp
  401ffd:	41 5e                	pop    %r14
  401fff:	41 5d                	pop    %r13
  402001:	41 5c                	pop    %r12
  402003:	c3                   	retq   
  402004:	48 8d 3d 59 11 00 00 	lea    0x1159(%rip),%rdi        # 403164 <iv.425.0.0.1+0x7c4>
  40200b:	e8 80 e8 ff ff       	callq  400890 <getenv@plt>
  402010:	48 85 c0             	test   %rax,%rax
  402013:	0f 84 80 00 00 00    	je     402099 <__libirc_get_msg+0x259>
  402019:	48 89 c6             	mov    %rax,%rsi
  40201c:	48 8d bc 24 c8 00 00 	lea    0xc8(%rsp),%rdi
  402023:	00 
  402024:	ba 80 00 00 00       	mov    $0x80,%edx
  402029:	e8 72 e8 ff ff       	callq  4008a0 <strncpy@plt>
  40202e:	be 2e 00 00 00       	mov    $0x2e,%esi
  402033:	48 8d bc 24 c8 00 00 	lea    0xc8(%rsp),%rdi
  40203a:	00 
  40203b:	e8 a0 e8 ff ff       	callq  4008e0 <strchr@plt>
  402040:	49 89 c4             	mov    %rax,%r12
  402043:	4d 85 e4             	test   %r12,%r12
  402046:	74 51                	je     402099 <__libirc_get_msg+0x259>
  402048:	48 8d 3d 15 11 00 00 	lea    0x1115(%rip),%rdi        # 403164 <iv.425.0.0.1+0x7c4>
  40204f:	48 8d b4 24 c8 00 00 	lea    0xc8(%rsp),%rsi
  402056:	00 
  402057:	ba 01 00 00 00       	mov    $0x1,%edx
  40205c:	41 c6 04 24 00       	movb   $0x0,(%r12)
  402061:	e8 4a e8 ff ff       	callq  4008b0 <setenv@plt>
  402066:	48 8d 3d 53 0b 00 00 	lea    0xb53(%rip),%rdi        # 402bc0 <iv.425.0.0.1+0x220>
  40206d:	33 f6                	xor    %esi,%esi
  40206f:	e8 9c e8 ff ff       	callq  400910 <catopen@plt>
  402074:	48 8d 3d e9 10 00 00 	lea    0x10e9(%rip),%rdi        # 403164 <iv.425.0.0.1+0x7c4>
  40207b:	48 8d b4 24 c8 00 00 	lea    0xc8(%rsp),%rsi
  402082:	00 
  402083:	ba 01 00 00 00       	mov    $0x1,%edx
  402088:	48 89 05 51 34 20 00 	mov    %rax,0x203451(%rip)        # 6054e0 <message_catalog>
  40208f:	41 c6 04 24 2e       	movb   $0x2e,(%r12)
  402094:	e8 17 e8 ff ff       	callq  4008b0 <setenv@plt>
  402099:	48 8b 3d 40 34 20 00 	mov    0x203440(%rip),%rdi        # 6054e0 <message_catalog>
  4020a0:	48 83 ff ff          	cmp    $0xffffffffffffffff,%rdi
  4020a4:	0f 85 54 fe ff ff    	jne    401efe <__libirc_get_msg+0xbe>
  4020aa:	e9 7a fe ff ff       	jmpq   401f29 <__libirc_get_msg+0xe9>
  4020af:	e8 1c e8 ff ff       	callq  4008d0 <__stack_chk_fail@plt>
  4020b4:	48 8b 3d 25 34 20 00 	mov    0x203425(%rip),%rdi        # 6054e0 <message_catalog>
  4020bb:	e9 48 fe ff ff       	jmpq   401f08 <__libirc_get_msg+0xc8>

00000000004020c0 <__libirc_print>:
  4020c0:	41 56                	push   %r14
  4020c2:	41 57                	push   %r15
  4020c4:	53                   	push   %rbx
  4020c5:	55                   	push   %rbp
  4020c6:	48 81 ec 58 01 00 00 	sub    $0x158,%rsp
  4020cd:	48 89 4c 24 18       	mov    %rcx,0x18(%rsp)
  4020d2:	4c 89 44 24 20       	mov    %r8,0x20(%rsp)
  4020d7:	4c 89 4c 24 28       	mov    %r9,0x28(%rsp)
  4020dc:	44 0f b6 d8          	movzbl %al,%r11d
  4020e0:	4a 8d 04 9d 00 00 00 	lea    0x0(,%r11,4),%rax
  4020e7:	00 
  4020e8:	4c 8d 1d 2e 00 00 00 	lea    0x2e(%rip),%r11        # 40211d <__libirc_print+0x5d>
  4020ef:	4c 2b d8             	sub    %rax,%r11
  4020f2:	48 8d 84 24 af 00 00 	lea    0xaf(%rsp),%rax
  4020f9:	00 
  4020fa:	41 ff e3             	jmpq   *%r11
  4020fd:	0f 29 78 f1          	movaps %xmm7,-0xf(%rax)
  402101:	0f 29 70 e1          	movaps %xmm6,-0x1f(%rax)
  402105:	0f 29 68 d1          	movaps %xmm5,-0x2f(%rax)
  402109:	0f 29 60 c1          	movaps %xmm4,-0x3f(%rax)
  40210d:	0f 29 58 b1          	movaps %xmm3,-0x4f(%rax)
  402111:	0f 29 50 a1          	movaps %xmm2,-0x5f(%rax)
  402115:	0f 29 48 91          	movaps %xmm1,-0x6f(%rax)
  402119:	0f 29 40 81          	movaps %xmm0,-0x7f(%rax)
  40211d:	41 89 f6             	mov    %esi,%r14d
  402120:	64 48 8b 04 25 28 00 	mov    %fs:0x28,%rax
  402127:	00 00 
  402129:	41 89 d7             	mov    %edx,%r15d
  40212c:	48 33 c4             	xor    %rsp,%rax
  40212f:	89 fd                	mov    %edi,%ebp
  402131:	48 89 84 24 48 01 00 	mov    %rax,0x148(%rsp)
  402138:	00 
  402139:	45 85 f6             	test   %r14d,%r14d
  40213c:	75 44                	jne    402182 <__libirc_print+0xc2>
  40213e:	83 fd 01             	cmp    $0x1,%ebp
  402141:	0f 84 72 01 00 00    	je     4022b9 <__libirc_print+0x1f9>
  402147:	bf 01 00 00 00       	mov    $0x1,%edi
  40214c:	48 8d 35 79 0a 00 00 	lea    0xa79(%rip),%rsi        # 402bcc <iv.425.0.0.1+0x22c>
  402153:	33 c0                	xor    %eax,%eax
  402155:	e8 c6 e7 ff ff       	callq  400920 <__printf_chk@plt>
  40215a:	48 8b 84 24 48 01 00 	mov    0x148(%rsp),%rax
  402161:	00 
  402162:	48 33 c4             	xor    %rsp,%rax
  402165:	64 48 3b 04 25 28 00 	cmp    %fs:0x28,%rax
  40216c:	00 00 
  40216e:	0f 85 40 01 00 00    	jne    4022b4 <__libirc_print+0x1f4>
  402174:	48 81 c4 58 01 00 00 	add    $0x158,%rsp
  40217b:	5d                   	pop    %rbp
  40217c:	5b                   	pop    %rbx
  40217d:	41 5f                	pop    %r15
  40217f:	41 5e                	pop    %r14
  402181:	c3                   	retq   
  402182:	83 3d 2b 2f 20 00 00 	cmpl   $0x0,0x202f2b(%rip)        # 6050b4 <first_msg>
  402189:	74 3c                	je     4021c7 <__libirc_print+0x107>
  40218b:	48 8d 3d 2e 0a 00 00 	lea    0xa2e(%rip),%rdi        # 402bc0 <iv.425.0.0.1+0x220>
  402192:	33 f6                	xor    %esi,%esi
  402194:	c7 05 16 2f 20 00 00 	movl   $0x0,0x202f16(%rip)        # 6050b4 <first_msg>
  40219b:	00 00 00 
  40219e:	e8 6d e7 ff ff       	callq  400910 <catopen@plt>
  4021a3:	48 89 05 36 33 20 00 	mov    %rax,0x203336(%rip)        # 6054e0 <message_catalog>
  4021aa:	48 83 f8 ff          	cmp    $0xffffffffffffffff,%rax
  4021ae:	0f 84 27 01 00 00    	je     4022db <__libirc_print+0x21b>
  4021b4:	48 8b 3d 25 33 20 00 	mov    0x203325(%rip),%rdi        # 6054e0 <message_catalog>
  4021bb:	c7 05 f3 2e 20 00 00 	movl   $0x0,0x202ef3(%rip)        # 6050b8 <use_internal_msg>
  4021c2:	00 00 00 
  4021c5:	eb 22                	jmp    4021e9 <__libirc_print+0x129>
  4021c7:	8b 05 eb 2e 20 00    	mov    0x202eeb(%rip),%eax        # 6050b8 <use_internal_msg>
  4021cd:	85 c0                	test   %eax,%eax
  4021cf:	0f 84 dd 01 00 00    	je     4023b2 <__libirc_print+0x2f2>
  4021d5:	4d 63 f6             	movslq %r14d,%r14
  4021d8:	48 8d 05 29 28 20 00 	lea    0x202829(%rip),%rax        # 604a08 <irc_msgtab+0x8>
  4021df:	49 c1 e6 04          	shl    $0x4,%r14
  4021e3:	49 8b 0c 06          	mov    (%r14,%rax,1),%rcx
  4021e7:	eb 22                	jmp    40220b <__libirc_print+0x14b>
  4021e9:	49 63 c6             	movslq %r14d,%rax
  4021ec:	48 8d 1d 15 28 20 00 	lea    0x202815(%rip),%rbx        # 604a08 <irc_msgtab+0x8>
  4021f3:	48 c1 e0 04          	shl    $0x4,%rax
  4021f7:	be 01 00 00 00       	mov    $0x1,%esi
  4021fc:	44 89 f2             	mov    %r14d,%edx
  4021ff:	48 8b 0c 18          	mov    (%rax,%rbx,1),%rcx
  402203:	e8 38 e7 ff ff       	callq  400940 <catgets@plt>
  402208:	48 89 c1             	mov    %rax,%rcx
  40220b:	45 85 ff             	test   %r15d,%r15d
  40220e:	7e 55                	jle    402265 <__libirc_print+0x1a5>
  402210:	c7 84 24 b0 00 00 00 	movl   $0x18,0xb0(%rsp)
  402217:	18 00 00 00 
  40221b:	48 8d 84 24 80 01 00 	lea    0x180(%rsp),%rax
  402222:	00 
  402223:	c7 84 24 b4 00 00 00 	movl   $0x30,0xb4(%rsp)
  40222a:	30 00 00 00 
  40222e:	48 8d 1c 24          	lea    (%rsp),%rbx
  402232:	48 89 83 b8 00 00 00 	mov    %rax,0xb8(%rbx)
  402239:	48 89 9b c0 00 00 00 	mov    %rbx,0xc0(%rbx)
  402240:	48 8d 3d 99 30 20 00 	lea    0x203099(%rip),%rdi        # 6052e0 <print_buf>
  402247:	be 01 00 00 00       	mov    $0x1,%esi
  40224c:	ba 00 02 00 00       	mov    $0x200,%edx
  402251:	4c 8d 84 24 b0 00 00 	lea    0xb0(%rsp),%r8
  402258:	00 
  402259:	e8 32 e7 ff ff       	callq  400990 <__vsprintf_chk@plt>
  40225e:	48 8d 0d 7b 30 20 00 	lea    0x20307b(%rip),%rcx        # 6052e0 <print_buf>
  402265:	83 fd 01             	cmp    $0x1,%ebp
  402268:	0f 84 10 01 00 00    	je     40237e <__libirc_print+0x2be>
  40226e:	bf 01 00 00 00       	mov    $0x1,%edi
  402273:	48 89 ce             	mov    %rcx,%rsi
  402276:	33 c0                	xor    %eax,%eax
  402278:	e8 a3 e6 ff ff       	callq  400920 <__printf_chk@plt>
  40227d:	bf 01 00 00 00       	mov    $0x1,%edi
  402282:	48 8d 35 43 09 00 00 	lea    0x943(%rip),%rsi        # 402bcc <iv.425.0.0.1+0x22c>
  402289:	33 c0                	xor    %eax,%eax
  40228b:	e8 90 e6 ff ff       	callq  400920 <__printf_chk@plt>
  402290:	48 8b 84 24 48 01 00 	mov    0x148(%rsp),%rax
  402297:	00 
  402298:	48 33 c4             	xor    %rsp,%rax
  40229b:	64 48 3b 04 25 28 00 	cmp    %fs:0x28,%rax
  4022a2:	00 00 
  4022a4:	75 0e                	jne    4022b4 <__libirc_print+0x1f4>
  4022a6:	48 81 c4 58 01 00 00 	add    $0x158,%rsp
  4022ad:	5d                   	pop    %rbp
  4022ae:	5b                   	pop    %rbx
  4022af:	41 5f                	pop    %r15
  4022b1:	41 5e                	pop    %r14
  4022b3:	c3                   	retq   
  4022b4:	e8 17 e6 ff ff       	callq  4008d0 <__stack_chk_fail@plt>
  4022b9:	48 8b 05 28 2d 20 00 	mov    0x202d28(%rip),%rax        # 604fe8 <_DYNAMIC+0x208>
  4022c0:	be 01 00 00 00       	mov    $0x1,%esi
  4022c5:	48 8d 15 00 09 00 00 	lea    0x900(%rip),%rdx        # 402bcc <iv.425.0.0.1+0x22c>
  4022cc:	48 8b 38             	mov    (%rax),%rdi
  4022cf:	33 c0                	xor    %eax,%eax
  4022d1:	e8 9a e6 ff ff       	callq  400970 <__fprintf_chk@plt>
  4022d6:	e9 7f fe ff ff       	jmpq   40215a <__libirc_print+0x9a>
  4022db:	48 8d 3d 82 0e 00 00 	lea    0xe82(%rip),%rdi        # 403164 <iv.425.0.0.1+0x7c4>
  4022e2:	e8 a9 e5 ff ff       	callq  400890 <getenv@plt>
  4022e7:	48 85 c0             	test   %rax,%rax
  4022ea:	74 7c                	je     402368 <__libirc_print+0x2a8>
  4022ec:	48 89 c6             	mov    %rax,%rsi
  4022ef:	48 8d bc 24 c8 00 00 	lea    0xc8(%rsp),%rdi
  4022f6:	00 
  4022f7:	ba 80 00 00 00       	mov    $0x80,%edx
  4022fc:	e8 9f e5 ff ff       	callq  4008a0 <strncpy@plt>
  402301:	be 2e 00 00 00       	mov    $0x2e,%esi
  402306:	48 8d bc 24 c8 00 00 	lea    0xc8(%rsp),%rdi
  40230d:	00 
  40230e:	e8 cd e5 ff ff       	callq  4008e0 <strchr@plt>
  402313:	48 89 c3             	mov    %rax,%rbx
  402316:	48 85 db             	test   %rbx,%rbx
  402319:	74 4d                	je     402368 <__libirc_print+0x2a8>
  40231b:	48 8d 3d 42 0e 00 00 	lea    0xe42(%rip),%rdi        # 403164 <iv.425.0.0.1+0x7c4>
  402322:	48 8d b4 24 c8 00 00 	lea    0xc8(%rsp),%rsi
  402329:	00 
  40232a:	ba 01 00 00 00       	mov    $0x1,%edx
  40232f:	c6 03 00             	movb   $0x0,(%rbx)
  402332:	e8 79 e5 ff ff       	callq  4008b0 <setenv@plt>
  402337:	48 8d 3d 82 08 00 00 	lea    0x882(%rip),%rdi        # 402bc0 <iv.425.0.0.1+0x220>
  40233e:	33 f6                	xor    %esi,%esi
  402340:	e8 cb e5 ff ff       	callq  400910 <catopen@plt>
  402345:	48 8d 3d 18 0e 00 00 	lea    0xe18(%rip),%rdi        # 403164 <iv.425.0.0.1+0x7c4>
  40234c:	48 8d b4 24 c8 00 00 	lea    0xc8(%rsp),%rsi
  402353:	00 
  402354:	ba 01 00 00 00       	mov    $0x1,%edx
  402359:	48 89 05 80 31 20 00 	mov    %rax,0x203180(%rip)        # 6054e0 <message_catalog>
  402360:	c6 03 2e             	movb   $0x2e,(%rbx)
  402363:	e8 48 e5 ff ff       	callq  4008b0 <setenv@plt>
  402368:	48 8b 3d 71 31 20 00 	mov    0x203171(%rip),%rdi        # 6054e0 <message_catalog>
  40236f:	48 83 ff ff          	cmp    $0xffffffffffffffff,%rdi
  402373:	0f 85 42 fe ff ff    	jne    4021bb <__libirc_print+0xfb>
  402379:	e9 49 fe ff ff       	jmpq   4021c7 <__libirc_print+0x107>
  40237e:	48 8b 1d 63 2c 20 00 	mov    0x202c63(%rip),%rbx        # 604fe8 <_DYNAMIC+0x208>
  402385:	be 01 00 00 00       	mov    $0x1,%esi
  40238a:	48 89 ca             	mov    %rcx,%rdx
  40238d:	33 c0                	xor    %eax,%eax
  40238f:	48 8b 3b             	mov    (%rbx),%rdi
  402392:	e8 d9 e5 ff ff       	callq  400970 <__fprintf_chk@plt>
  402397:	be 01 00 00 00       	mov    $0x1,%esi
  40239c:	48 8d 15 29 08 00 00 	lea    0x829(%rip),%rdx        # 402bcc <iv.425.0.0.1+0x22c>
  4023a3:	33 c0                	xor    %eax,%eax
  4023a5:	48 8b 3b             	mov    (%rbx),%rdi
  4023a8:	e8 c3 e5 ff ff       	callq  400970 <__fprintf_chk@plt>
  4023ad:	e9 de fe ff ff       	jmpq   402290 <__libirc_print+0x1d0>
  4023b2:	48 8b 3d 27 31 20 00 	mov    0x203127(%rip),%rdi        # 6054e0 <message_catalog>
  4023b9:	e9 2b fe ff ff       	jmpq   4021e9 <__libirc_print+0x129>
  4023be:	66 90                	xchg   %ax,%ax

00000000004023c0 <__intel_cpu_features_init_x>:
  4023c0:	50                   	push   %rax
  4023c1:	33 c0                	xor    %eax,%eax
  4023c3:	e8 18 00 00 00       	callq  4023e0 <__intel_cpu_features_init_body>
  4023c8:	58                   	pop    %rax
  4023c9:	c3                   	retq   
  4023ca:	66 0f 1f 44 00 00    	nopw   0x0(%rax,%rax,1)

00000000004023d0 <__intel_cpu_features_init>:
  4023d0:	50                   	push   %rax
  4023d1:	b8 01 00 00 00       	mov    $0x1,%eax
  4023d6:	e8 05 00 00 00       	callq  4023e0 <__intel_cpu_features_init_body>
  4023db:	58                   	pop    %rax
  4023dc:	c3                   	retq   
  4023dd:	0f 1f 00             	nopl   (%rax)

00000000004023e0 <__intel_cpu_features_init_body>:
  4023e0:	52                   	push   %rdx
  4023e1:	51                   	push   %rcx
  4023e2:	53                   	push   %rbx
  4023e3:	56                   	push   %rsi
  4023e4:	57                   	push   %rdi
  4023e5:	41 50                	push   %r8
  4023e7:	41 56                	push   %r14
  4023e9:	41 57                	push   %r15
  4023eb:	55                   	push   %rbp
  4023ec:	41 89 c7             	mov    %eax,%r15d
  4023ef:	33 c0                	xor    %eax,%eax
  4023f1:	0f a2                	cpuid  
  4023f3:	89 44 24 f0          	mov    %eax,-0x10(%rsp)
  4023f7:	89 5c 24 f4          	mov    %ebx,-0xc(%rsp)
  4023fb:	89 4c 24 f8          	mov    %ecx,-0x8(%rsp)
  4023ff:	89 54 24 fc          	mov    %edx,-0x4(%rsp)
  402403:	83 7c 24 f0 00       	cmpl   $0x0,-0x10(%rsp)
  402408:	0f 84 b2 03 00 00    	je     4027c0 <__intel_cpu_features_init_body+0x3e0>
  40240e:	41 83 ff 01          	cmp    $0x1,%r15d
  402412:	0f 84 c0 03 00 00    	je     4027d8 <__intel_cpu_features_init_body+0x3f8>
  402418:	b8 01 00 00 00       	mov    $0x1,%eax
  40241d:	0f a2                	cpuid  
  40241f:	89 d5                	mov    %edx,%ebp
  402421:	89 d7                	mov    %edx,%edi
  402423:	81 e5 00 80 00 00    	and    $0x8000,%ebp
  402429:	83 e7 01             	and    $0x1,%edi
  40242c:	89 ce                	mov    %ecx,%esi
  40242e:	41 89 c6             	mov    %eax,%r14d
  402431:	48 c1 ed 0d          	shr    $0xd,%rbp
  402435:	f7 c2 00 00 80 00    	test   $0x800000,%edx
  40243b:	48 8d 7c 7d 01       	lea    0x1(%rbp,%rdi,2),%rdi
  402440:	4c 8d 47 08          	lea    0x8(%rdi),%r8
  402444:	49 0f 45 f8          	cmovne %r8,%rdi
  402448:	f7 c2 00 00 00 01    	test   $0x1000000,%edx
  40244e:	75 28                	jne    402478 <__intel_cpu_features_init_body+0x98>
  402450:	41 89 f0             	mov    %esi,%r8d
  402453:	41 81 e0 00 00 00 40 	and    $0x40000000,%r8d
  40245a:	b8 07 00 00 00       	mov    $0x7,%eax
  40245f:	33 c9                	xor    %ecx,%ecx
  402461:	0f a2                	cpuid  
  402463:	49 c1 e8 0d          	shr    $0xd,%r8
  402467:	41 89 d3             	mov    %edx,%r11d
  40246a:	49 03 f8             	add    %r8,%rdi
  40246d:	41 89 ca             	mov    %ecx,%r10d
  402470:	41 89 d8             	mov    %ebx,%r8d
  402473:	e9 e6 00 00 00       	jmpq   40255e <__intel_cpu_features_init_body+0x17e>
  402478:	41 89 f2             	mov    %esi,%r10d
  40247b:	48 8d 6f 10          	lea    0x10(%rdi),%rbp
  40247f:	48 83 c7 30          	add    $0x30,%rdi
  402483:	f7 c2 00 00 00 02    	test   $0x2000000,%edx
  402489:	89 f0                	mov    %esi,%eax
  40248b:	48 0f 45 ef          	cmovne %rdi,%rbp
  40248f:	81 e2 00 00 00 04    	and    $0x4000000,%edx
  402495:	41 81 e2 00 02 00 00 	and    $0x200,%r10d
  40249c:	89 f7                	mov    %esi,%edi
  40249e:	48 c1 ea 14          	shr    $0x14,%rdx
  4024a2:	81 e7 00 00 08 00    	and    $0x80000,%edi
  4024a8:	48 0b ea             	or     %rdx,%rbp
  4024ab:	25 00 00 00 02       	and    $0x2000000,%eax
  4024b0:	49 89 e8             	mov    %rbp,%r8
  4024b3:	49 81 c8 80 00 00 00 	or     $0x80,%r8
  4024ba:	f7 c6 01 00 00 00    	test   $0x1,%esi
  4024c0:	49 0f 45 e8          	cmovne %r8,%rbp
  4024c4:	49 d1 ea             	shr    %r10
  4024c7:	49 0b ea             	or     %r10,%rbp
  4024ca:	41 89 f2             	mov    %esi,%r10d
  4024cd:	49 89 eb             	mov    %rbp,%r11
  4024d0:	41 81 e2 00 00 80 00 	and    $0x800000,%r10d
  4024d7:	49 81 cb 00 08 00 00 	or     $0x800,%r11
  4024de:	f7 c6 00 00 40 00    	test   $0x400000,%esi
  4024e4:	49 0f 45 eb          	cmovne %r11,%rbp
  4024e8:	48 c1 ef 0a          	shr    $0xa,%rdi
  4024ec:	48 0b ef             	or     %rdi,%rbp
  4024ef:	89 f7                	mov    %esi,%edi
  4024f1:	49 89 e8             	mov    %rbp,%r8
  4024f4:	81 e7 00 00 00 40    	and    $0x40000000,%edi
  4024fa:	49 81 c8 00 04 00 00 	or     $0x400,%r8
  402501:	f7 c6 00 00 10 00    	test   $0x100000,%esi
  402507:	49 0f 45 e8          	cmovne %r8,%rbp
  40250b:	49 c1 ea 0b          	shr    $0xb,%r10
  40250f:	49 0b ea             	or     %r10,%rbp
  402512:	49 89 eb             	mov    %rbp,%r11
  402515:	49 81 cb 00 20 00 00 	or     $0x2000,%r11
  40251c:	f7 c6 02 00 00 00    	test   $0x2,%esi
  402522:	49 0f 45 eb          	cmovne %r11,%rbp
  402526:	48 c1 e8 0b          	shr    $0xb,%rax
  40252a:	48 0b e8             	or     %rax,%rbp
  40252d:	b8 07 00 00 00       	mov    $0x7,%eax
  402532:	33 c9                	xor    %ecx,%ecx
  402534:	0f a2                	cpuid  
  402536:	41 89 d3             	mov    %edx,%r11d
  402539:	41 89 d8             	mov    %ebx,%r8d
  40253c:	48 ba 00 00 00 00 08 	movabs $0x800000000,%rdx
  402543:	00 00 00 
  402546:	41 89 ca             	mov    %ecx,%r10d
  402549:	48 0b d5             	or     %rbp,%rdx
  40254c:	41 f7 c0 00 00 00 20 	test   $0x20000000,%r8d
  402553:	48 0f 45 ea          	cmovne %rdx,%rbp
  402557:	48 c1 ef 0d          	shr    $0xd,%rdi
  40255b:	48 0b fd             	or     %rbp,%rdi
  40255e:	44 89 c5             	mov    %r8d,%ebp
  402561:	48 89 f8             	mov    %rdi,%rax
  402564:	81 e5 08 01 00 00    	and    $0x108,%ebp
  40256a:	48 0d 00 00 08 00    	or     $0x80000,%rax
  402570:	81 fd 08 01 00 00    	cmp    $0x108,%ebp
  402576:	44 89 c5             	mov    %r8d,%ebp
  402579:	48 0f 44 f8          	cmove  %rax,%rdi
  40257d:	81 e5 00 00 04 00    	and    $0x40000,%ebp
  402583:	b8 01 00 00 80       	mov    $0x80000001,%eax
  402588:	0f a2                	cpuid  
  40258a:	48 c1 e5 0b          	shl    $0xb,%rbp
  40258e:	83 e1 20             	and    $0x20,%ecx
  402591:	44 89 c2             	mov    %r8d,%edx
  402594:	81 e2 00 08 00 00    	and    $0x800,%edx
  40259a:	48 c1 e1 0f          	shl    $0xf,%rcx
  40259e:	48 0b f9             	or     %rcx,%rdi
  4025a1:	48 89 f8             	mov    %rdi,%rax
  4025a4:	48 0d 00 00 20 00    	or     $0x200000,%rax
  4025aa:	41 f7 c0 10 00 00 00 	test   $0x10,%r8d
  4025b1:	48 0f 45 f8          	cmovne %rax,%rdi
  4025b5:	48 c1 e2 0b          	shl    $0xb,%rdx
  4025b9:	48 0b fa             	or     %rdx,%rdi
  4025bc:	48 89 fb             	mov    %rdi,%rbx
  4025bf:	48 81 cb 00 00 00 10 	or     $0x10000000,%rbx
  4025c6:	41 f7 c0 00 00 08 00 	test   $0x80000,%r8d
  4025cd:	48 0f 45 fb          	cmovne %rbx,%rdi
  4025d1:	48 0b fd             	or     %rbp,%rdi
  4025d4:	f7 c6 00 00 00 08    	test   $0x8000000,%esi
  4025da:	0f 84 81 01 00 00    	je     402761 <__intel_cpu_features_init_body+0x381>
  4025e0:	33 c9                	xor    %ecx,%ecx
  4025e2:	0f 01 d0             	xgetbv 
  4025e5:	48 83 cf 01          	or     $0x1,%rdi
  4025e9:	89 c2                	mov    %eax,%edx
  4025eb:	83 e2 06             	and    $0x6,%edx
  4025ee:	83 fa 06             	cmp    $0x6,%edx
  4025f1:	0f 85 6a 01 00 00    	jne    402761 <__intel_cpu_features_init_body+0x381>
  4025f7:	48 89 fa             	mov    %rdi,%rdx
  4025fa:	89 f1                	mov    %esi,%ecx
  4025fc:	48 81 ca 00 00 01 00 	or     $0x10000,%rdx
  402603:	f7 c6 00 00 00 10    	test   $0x10000000,%esi
  402609:	89 c5                	mov    %eax,%ebp
  40260b:	48 0f 45 fa          	cmovne %rdx,%rdi
  40260f:	81 e1 00 00 00 20    	and    $0x20000000,%ecx
  402615:	81 e6 00 10 00 00    	and    $0x1000,%esi
  40261b:	83 e5 18             	and    $0x18,%ebp
  40261e:	48 c1 e9 0e          	shr    $0xe,%rcx
  402622:	48 0b f9             	or     %rcx,%rdi
  402625:	48 89 fb             	mov    %rdi,%rbx
  402628:	48 81 cb 00 00 80 00 	or     $0x800000,%rbx
  40262f:	41 f7 c0 20 00 00 00 	test   $0x20,%r8d
  402636:	48 0f 45 fb          	cmovne %rbx,%rdi
  40263a:	48 c1 e6 06          	shl    $0x6,%rsi
  40263e:	48 0b fe             	or     %rsi,%rdi
  402641:	83 fd 18             	cmp    $0x18,%ebp
  402644:	75 1c                	jne    402662 <__intel_cpu_features_init_body+0x282>
  402646:	48 83 cf 01          	or     $0x1,%rdi
  40264a:	48 ba 00 00 00 00 10 	movabs $0x1000000000,%rdx
  402651:	00 00 00 
  402654:	48 0b d7             	or     %rdi,%rdx
  402657:	41 f7 c0 00 40 00 00 	test   $0x4000,%r8d
  40265e:	48 0f 45 fa          	cmovne %rdx,%rdi
  402662:	25 e0 00 00 00       	and    $0xe0,%eax
  402667:	3d e0 00 00 00       	cmp    $0xe0,%eax
  40266c:	0f 85 ef 00 00 00    	jne    402761 <__intel_cpu_features_init_body+0x381>
  402672:	48 83 cf 01          	or     $0x1,%rdi
  402676:	44 89 c2             	mov    %r8d,%edx
  402679:	48 89 f8             	mov    %rdi,%rax
  40267c:	81 e2 00 00 00 10    	and    $0x10000000,%edx
  402682:	48 0d 00 00 00 08    	or     $0x8000000,%rax
  402688:	41 f7 c0 00 00 01 00 	test   $0x10000,%r8d
  40268f:	44 89 c1             	mov    %r8d,%ecx
  402692:	44 89 c5             	mov    %r8d,%ebp
  402695:	48 0f 45 f8          	cmovne %rax,%rdi
  402699:	81 e1 00 00 00 04    	and    $0x4000000,%ecx
  40269f:	48 c1 e2 06          	shl    $0x6,%rdx
  4026a3:	81 e5 00 00 00 40    	and    $0x40000000,%ebp
  4026a9:	48 0b d7             	or     %rdi,%rdx
  4026ac:	48 bf 00 00 00 00 01 	movabs $0x100000000,%rdi
  4026b3:	00 00 00 
  4026b6:	48 0b fa             	or     %rdx,%rdi
  4026b9:	41 f7 c0 00 00 00 08 	test   $0x8000000,%r8d
  4026c0:	44 89 c6             	mov    %r8d,%esi
  4026c3:	48 0f 45 d7          	cmovne %rdi,%rdx
  4026c7:	48 bf 00 00 00 00 40 	movabs $0x4000000000,%rdi
  4026ce:	00 00 00 
  4026d1:	48 c1 e1 07          	shl    $0x7,%rcx
  4026d5:	81 e6 00 00 00 80    	and    $0x80000000,%esi
  4026db:	48 0b ca             	or     %rdx,%rcx
  4026de:	48 89 cb             	mov    %rcx,%rbx
  4026e1:	48 81 cb 00 00 00 01 	or     $0x1000000,%rbx
  4026e8:	41 f7 c0 00 00 02 00 	test   $0x20000,%r8d
  4026ef:	48 0f 45 cb          	cmovne %rbx,%rcx
  4026f3:	41 81 e0 00 00 20 00 	and    $0x200000,%r8d
  4026fa:	48 c1 e5 07          	shl    $0x7,%rbp
  4026fe:	48 0b e9             	or     %rcx,%rbp
  402701:	48 0b fd             	or     %rbp,%rdi
  402704:	81 fe 00 00 00 80    	cmp    $0x80000000,%esi
  40270a:	48 0f 44 ef          	cmove  %rdi,%rbp
  40270e:	48 bf 00 00 00 00 80 	movabs $0x8000000000,%rdi
  402715:	00 00 00 
  402718:	49 c1 e0 09          	shl    $0x9,%r8
  40271c:	49 0b e8             	or     %r8,%rbp
  40271f:	48 0b fd             	or     %rbp,%rdi
  402722:	41 f7 c2 02 00 00 00 	test   $0x2,%r10d
  402729:	48 0f 45 ef          	cmovne %rdi,%rbp
  40272d:	41 81 e2 00 40 00 00 	and    $0x4000,%r10d
  402734:	49 c1 e2 1c          	shl    $0x1c,%r10
  402738:	4c 0b d5             	or     %rbp,%r10
  40273b:	48 bd 00 00 00 00 00 	movabs $0x20000000000,%rbp
  402742:	02 00 00 
  402745:	49 0b ea             	or     %r10,%rbp
  402748:	41 f7 c3 04 00 00 00 	test   $0x4,%r11d
  40274f:	4c 0f 45 d5          	cmovne %rbp,%r10
  402753:	41 83 e3 08          	and    $0x8,%r11d
  402757:	44 89 df             	mov    %r11d,%edi
  40275a:	48 c1 e7 25          	shl    $0x25,%rdi
  40275e:	49 0b fa             	or     %r10,%rdi
  402761:	44 89 f0             	mov    %r14d,%eax
  402764:	c1 e8 0c             	shr    $0xc,%eax
  402767:	41 c1 ee 04          	shr    $0x4,%r14d
  40276b:	25 f0 00 00 00       	and    $0xf0,%eax
  402770:	41 83 e6 0f          	and    $0xf,%r14d
  402774:	41 03 c6             	add    %r14d,%eax
  402777:	83 f8 1c             	cmp    $0x1c,%eax
  40277a:	74 0a                	je     402786 <__intel_cpu_features_init_body+0x3a6>
  40277c:	83 f8 26             	cmp    $0x26,%eax
  40277f:	74 05                	je     402786 <__intel_cpu_features_init_body+0x3a6>
  402781:	83 f8 27             	cmp    $0x27,%eax
  402784:	75 05                	jne    40278b <__intel_cpu_features_init_body+0x3ab>
  402786:	48 0f ba ef 1f       	bts    $0x1f,%rdi
  40278b:	41 83 ff 01          	cmp    $0x1,%r15d
  40278f:	74 14                	je     4027a5 <__intel_cpu_features_init_body+0x3c5>
  402791:	48 89 3d 70 2d 20 00 	mov    %rdi,0x202d70(%rip)        # 605508 <__intel_cpu_feature_indicator_x>
  402798:	5d                   	pop    %rbp
  402799:	41 5f                	pop    %r15
  40279b:	41 5e                	pop    %r14
  40279d:	41 58                	pop    %r8
  40279f:	5f                   	pop    %rdi
  4027a0:	5e                   	pop    %rsi
  4027a1:	5b                   	pop    %rbx
  4027a2:	59                   	pop    %rcx
  4027a3:	5a                   	pop    %rdx
  4027a4:	c3                   	retq   
  4027a5:	48 89 3d 54 2d 20 00 	mov    %rdi,0x202d54(%rip)        # 605500 <__intel_cpu_feature_indicator>
  4027ac:	48 89 3d 55 2d 20 00 	mov    %rdi,0x202d55(%rip)        # 605508 <__intel_cpu_feature_indicator_x>
  4027b3:	5d                   	pop    %rbp
  4027b4:	41 5f                	pop    %r15
  4027b6:	41 5e                	pop    %r14
  4027b8:	41 58                	pop    %r8
  4027ba:	5f                   	pop    %rdi
  4027bb:	5e                   	pop    %rsi
  4027bc:	5b                   	pop    %rbx
  4027bd:	59                   	pop    %rcx
  4027be:	5a                   	pop    %rdx
  4027bf:	c3                   	retq   
  4027c0:	48 c7 05 35 2d 20 00 	movq   $0x1,0x202d35(%rip)        # 605500 <__intel_cpu_feature_indicator>
  4027c7:	01 00 00 00 
  4027cb:	5d                   	pop    %rbp
  4027cc:	41 5f                	pop    %r15
  4027ce:	41 5e                	pop    %r14
  4027d0:	41 58                	pop    %r8
  4027d2:	5f                   	pop    %rdi
  4027d3:	5e                   	pop    %rsi
  4027d4:	5b                   	pop    %rbx
  4027d5:	59                   	pop    %rcx
  4027d6:	5a                   	pop    %rdx
  4027d7:	c3                   	retq   
  4027d8:	81 7c 24 f4 47 65 6e 	cmpl   $0x756e6547,-0xc(%rsp)
  4027df:	75 
  4027e0:	75 de                	jne    4027c0 <__intel_cpu_features_init_body+0x3e0>
  4027e2:	81 7c 24 fc 69 6e 65 	cmpl   $0x49656e69,-0x4(%rsp)
  4027e9:	49 
  4027ea:	75 d4                	jne    4027c0 <__intel_cpu_features_init_body+0x3e0>
  4027ec:	81 7c 24 f8 6e 74 65 	cmpl   $0x6c65746e,-0x8(%rsp)
  4027f3:	6c 
  4027f4:	75 ca                	jne    4027c0 <__intel_cpu_features_init_body+0x3e0>
  4027f6:	e9 1d fc ff ff       	jmpq   402418 <__intel_cpu_features_init_body+0x38>
  4027fb:	0f 1f 44 00 00       	nopl   0x0(%rax,%rax,1)

0000000000402800 <__intel_proc_init_ftzdazule>:
  402800:	48 81 ec 08 02 00 00 	sub    $0x208,%rsp
  402807:	89 f2                	mov    %esi,%edx
  402809:	89 f1                	mov    %esi,%ecx
  40280b:	83 e2 04             	and    $0x4,%edx
  40280e:	83 e1 02             	and    $0x2,%ecx
  402811:	74 22                	je     402835 <__intel_proc_init_ftzdazule+0x35>
  402813:	f7 c7 02 00 00 00    	test   $0x2,%edi
  402819:	74 38                	je     402853 <__intel_proc_init_ftzdazule+0x53>
  40281b:	85 d2                	test   %edx,%edx
  40281d:	74 08                	je     402827 <__intel_proc_init_ftzdazule+0x27>
  40281f:	f7 c7 04 00 00 00    	test   $0x4,%edi
  402825:	74 2c                	je     402853 <__intel_proc_init_ftzdazule+0x53>
  402827:	f7 c6 01 00 00 00    	test   $0x1,%esi
  40282d:	0f 85 a6 00 00 00    	jne    4028d9 <__intel_proc_init_ftzdazule+0xd9>
  402833:	eb 64                	jmp    402899 <__intel_proc_init_ftzdazule+0x99>
  402835:	85 d2                	test   %edx,%edx
  402837:	0f 84 8c 00 00 00    	je     4028c9 <__intel_proc_init_ftzdazule+0xc9>
  40283d:	f7 c7 04 00 00 00    	test   $0x4,%edi
  402843:	74 0e                	je     402853 <__intel_proc_init_ftzdazule+0x53>
  402845:	f7 c6 01 00 00 00    	test   $0x1,%esi
  40284b:	0f 85 88 00 00 00    	jne    4028d9 <__intel_proc_init_ftzdazule+0xd9>
  402851:	eb 5b                	jmp    4028ae <__intel_proc_init_ftzdazule+0xae>
  402853:	b8 00 02 00 00       	mov    $0x200,%eax
  402858:	66 0f ef c0          	pxor   %xmm0,%xmm0
  40285c:	0f 11 44 04 f0       	movups %xmm0,-0x10(%rsp,%rax,1)
  402861:	0f 11 44 04 e0       	movups %xmm0,-0x20(%rsp,%rax,1)
  402866:	0f 11 44 04 d0       	movups %xmm0,-0x30(%rsp,%rax,1)
  40286b:	0f 11 44 04 c0       	movups %xmm0,-0x40(%rsp,%rax,1)
  402870:	48 83 e8 40          	sub    $0x40,%rax
  402874:	75 e6                	jne    40285c <__intel_proc_init_ftzdazule+0x5c>
  402876:	0f ae 04 24          	fxsave (%rsp)
  40287a:	33 ff                	xor    %edi,%edi
  40287c:	8b 44 24 1c          	mov    0x1c(%rsp),%eax
  402880:	a8 40                	test   $0x40,%al
  402882:	0f 44 cf             	cmove  %edi,%ecx
  402885:	a9 00 00 02 00       	test   $0x20000,%eax
  40288a:	0f 44 d7             	cmove  %edi,%edx
  40288d:	f7 c6 01 00 00 00    	test   $0x1,%esi
  402893:	75 44                	jne    4028d9 <__intel_proc_init_ftzdazule+0xd9>
  402895:	85 c9                	test   %ecx,%ecx
  402897:	74 11                	je     4028aa <__intel_proc_init_ftzdazule+0xaa>
  402899:	0f ae 1c 24          	stmxcsr (%rsp)
  40289d:	8b 04 24             	mov    (%rsp),%eax
  4028a0:	83 c8 40             	or     $0x40,%eax
  4028a3:	89 04 24             	mov    %eax,(%rsp)
  4028a6:	0f ae 14 24          	ldmxcsr (%rsp)
  4028aa:	85 d2                	test   %edx,%edx
  4028ac:	74 23                	je     4028d1 <__intel_proc_init_ftzdazule+0xd1>
  4028ae:	0f ae 1c 24          	stmxcsr (%rsp)
  4028b2:	8b 04 24             	mov    (%rsp),%eax
  4028b5:	0d 00 00 02 00       	or     $0x20000,%eax
  4028ba:	89 04 24             	mov    %eax,(%rsp)
  4028bd:	0f ae 14 24          	ldmxcsr (%rsp)
  4028c1:	48 81 c4 08 02 00 00 	add    $0x208,%rsp
  4028c8:	c3                   	retq   
  4028c9:	f7 c6 01 00 00 00    	test   $0x1,%esi
  4028cf:	75 08                	jne    4028d9 <__intel_proc_init_ftzdazule+0xd9>
  4028d1:	48 81 c4 08 02 00 00 	add    $0x208,%rsp
  4028d8:	c3                   	retq   
  4028d9:	0f ae 1c 24          	stmxcsr (%rsp)
  4028dd:	8b 04 24             	mov    (%rsp),%eax
  4028e0:	0d 00 80 00 00       	or     $0x8000,%eax
  4028e5:	89 04 24             	mov    %eax,(%rsp)
  4028e8:	0f ae 14 24          	ldmxcsr (%rsp)
  4028ec:	eb a7                	jmp    402895 <__intel_proc_init_ftzdazule+0x95>
  4028ee:	66 90                	xchg   %ax,%ax

00000000004028f0 <__libc_csu_init>:
  4028f0:	41 57                	push   %r15
  4028f2:	41 89 ff             	mov    %edi,%r15d
  4028f5:	41 56                	push   %r14
  4028f7:	49 89 f6             	mov    %rsi,%r14
  4028fa:	41 55                	push   %r13
  4028fc:	49 89 d5             	mov    %rdx,%r13
  4028ff:	41 54                	push   %r12
  402901:	4c 8d 25 20 1f 20 00 	lea    0x201f20(%rip),%r12        # 604828 <__frame_dummy_init_array_entry>
  402908:	55                   	push   %rbp
  402909:	48 8d 2d 20 1f 20 00 	lea    0x201f20(%rip),%rbp        # 604830 <__init_array_end>
  402910:	53                   	push   %rbx
  402911:	4c 29 e5             	sub    %r12,%rbp
  402914:	31 db                	xor    %ebx,%ebx
  402916:	48 c1 fd 03          	sar    $0x3,%rbp
  40291a:	48 83 ec 08          	sub    $0x8,%rsp
  40291e:	e8 35 df ff ff       	callq  400858 <_init>
  402923:	48 85 ed             	test   %rbp,%rbp
  402926:	74 1e                	je     402946 <__libc_csu_init+0x56>
  402928:	0f 1f 84 00 00 00 00 	nopl   0x0(%rax,%rax,1)
  40292f:	00 
  402930:	4c 89 ea             	mov    %r13,%rdx
  402933:	4c 89 f6             	mov    %r14,%rsi
  402936:	44 89 ff             	mov    %r15d,%edi
  402939:	41 ff 14 dc          	callq  *(%r12,%rbx,8)
  40293d:	48 83 c3 01          	add    $0x1,%rbx
  402941:	48 39 eb             	cmp    %rbp,%rbx
  402944:	75 ea                	jne    402930 <__libc_csu_init+0x40>
  402946:	48 83 c4 08          	add    $0x8,%rsp
  40294a:	5b                   	pop    %rbx
  40294b:	5d                   	pop    %rbp
  40294c:	41 5c                	pop    %r12
  40294e:	41 5d                	pop    %r13
  402950:	41 5e                	pop    %r14
  402952:	41 5f                	pop    %r15
  402954:	c3                   	retq   
  402955:	90                   	nop
  402956:	66 2e 0f 1f 84 00 00 	nopw   %cs:0x0(%rax,%rax,1)
  40295d:	00 00 00 

0000000000402960 <__libc_csu_fini>:
  402960:	f3 c3                	repz retq 

Disassembly of section .fini:

0000000000402964 <_fini>:
  402964:	48 83 ec 08          	sub    $0x8,%rsp
  402968:	48 83 c4 08          	add    $0x8,%rsp
  40296c:	c3                   	retq   
