	.file	"kwan_des.c"
	.section	.text.unlikely,"ax",@progbits
.LCOLDB0:
	.text
.LHOTB0:
	.p2align 4,,15
	.globl	deseval
	.type	deseval, @function
deseval:
.LFB8:
	.cfi_startproc
	pushq	%r15
	.cfi_def_cfa_offset 16
	.cfi_offset 15, -16
	pushq	%r14
	.cfi_def_cfa_offset 24
	.cfi_offset 14, -24
	movq	%rdx, %rax
	pushq	%r13
	.cfi_def_cfa_offset 32
	.cfi_offset 13, -32
	pushq	%r12
	.cfi_def_cfa_offset 40
	.cfi_offset 12, -40
	pushq	%rbp
	.cfi_def_cfa_offset 48
	.cfi_offset 6, -48
	pushq	%rbx
	.cfi_def_cfa_offset 56
	.cfi_offset 3, -56
	subq	$1056, %rsp
	.cfi_def_cfa_offset 1112
	movq	56(%rdi), %rbx
	movq	440(%rdi), %rdx
	movq	%rsi, 1048(%rsp)
	movq	104(%rdi), %r14
	movq	168(%rdi), %r15
	movq	424(%rdi), %r10
	movq	%rbx, %r9
	movq	120(%rdi), %rbx
	movq	%rdx, 440(%rsp)
	movq	40(%rdi), %rdx
	movq	%r14, 448(%rsp)
	movq	%r15, 640(%rsp)
	movq	%rbx, %rbp
	movq	184(%rdi), %rbx
	movq	%rdx, -24(%rsp)
	movq	296(%rdi), %rdx
	movq	%rbx, %rsi
	movq	248(%rdi), %rbx
	movq	%rdx, 128(%rsp)
	movq	360(%rdi), %rdx
	movq	%rbx, %r12
	movq	312(%rdi), %rbx
	movq	%rdx, 456(%rsp)
	movq	%rbx, %r8
	movq	376(%rdi), %rbx
	movq	%rbx, 432(%rsp)
	movq	504(%rdi), %rbx
	movq	%rbx, 280(%rsp)
	movq	232(%rdi), %rbx
	movq	%rbx, 328(%rsp)
	movq	%r10, 648(%rsp)
	movq	88(%rdi), %rcx
	movq	24(%rdi), %r15
	movq	152(%rdi), %r11
	movq	280(%rdi), %r10
	movq	344(%rdi), %r13
	movq	488(%rdi), %r14
	movq	%rcx, 464(%rsp)
	movq	408(%rdi), %rcx
	movq	%r15, 120(%rsp)
	movq	8(%rdi), %r15
	movq	472(%rdi), %rbx
	movq	%r11, 656(%rsp)
	movq	%rcx, 472(%rsp)
	movq	328(%rdi), %rcx
	movq	72(%rdi), %r11
	movq	216(%rdi), %rdx
	movq	%r10, 344(%rsp)
	movq	%r13, 664(%rsp)
	movq	264(%rdi), %r10
	movq	136(%rdi), %r13
	movq	%r15, 360(%rsp)
	movq	%rcx, 504(%rsp)
	movq	200(%rdi), %r15
	movq	392(%rdi), %rcx
	movq	%r14, 288(%rsp)
	movq	%rbx, 352(%rsp)
	movq	%r11, 488(%rsp)
	movq	%r13, 672(%rsp)
	movq	%r8, %r13
	movq	%r15, 368(%rsp)
	movq	%r10, 376(%rsp)
	movq	%rcx, 480(%rsp)
	movq	%rdx, 336(%rsp)
	movq	%rbp, %rcx
	movq	456(%rdi), %rdx
	movq	104(%rax), %r15
	movq	24(%rax), %r11
	movq	376(%rax), %r14
	movq	%r12, 424(%rsp)
	movq	%rbp, 520(%rsp)
	movq	%rdx, %r10
	movq	328(%rax), %rdx
	xorq	%r15, %r12
	movq	%r15, 136(%rsp)
	movq	%r12, %r15
	movq	208(%rax), %r12
	movq	%r10, 680(%rsp)
	xorq	%r14, %r10
	movq	%r11, -112(%rsp)
	xorq	%rdx, %r13
	movq	%rdx, -16(%rsp)
	movq	%rsi, 688(%rsp)
	movq	%r13, -96(%rsp)
	movq	%rsi, %r13
	xorq	%r12, %rcx
	xorq	%r11, %r13
	movq	%r10, %r11
	movq	88(%rax), %rdx
	movq	%r13, %rbp
	notq	%r11
	movq	%r13, %rsi
	notq	%rbp
	movq	-96(%rsp), %r13
	xorq	%rcx, %rsi
	movq	%r8, 576(%rsp)
	movq	%rbp, %r8
	movq	%r11, %rbp
	movq	%rcx, %rbx
	xorq	%rsi, %rbp
	orq	%r11, %rcx
	movq	%r9, 416(%rsp)
	movq	%rdx, -8(%rsp)
	xorq	%rdx, %r9
	movq	%r10, -80(%rsp)
	movq	%rbp, %rdx
	movq	%r13, %r10
	movq	%rcx, %rbp
	andq	%r8, %rcx
	movq	%rax, -120(%rsp)
	orq	%rcx, %r10
	movq	%r11, %rax
	movq	%rdx, -88(%rsp)
	movq	%r10, %r11
	movq	%rdx, %r10
	orq	%r8, %rax
	xorq	%r11, %r10
	movq	%r12, -104(%rsp)
	movq	%r11, %r12
	movq	%r10, %rdx
	movq	%r13, %r10
	movq	%r14, 144(%rsp)
	andq	%rax, %r10
	movq	%rcx, %r14
	movq	%rbp, -72(%rsp)
	xorq	%r10, %r12
	movq	%r12, -64(%rsp)
	orq	%r9, %r12
	movq	%r12, %rcx
	xorq	%rdx, %rcx
	xorq	%rcx, %rax
	movq	%rcx, %r12
	andn	%rsi, %rax, %rsi
	movq	%r12, -56(%rsp)
	orq	%r9, %rsi
	movq	%rsi, %rcx
	movq	%r13, %rsi
	movq	%r15, %r13
	orq	%rax, %rsi
	xorq	%r8, %rsi
	xorq	%rcx, %rsi
	movq	%r12, %rcx
	xorq	384(%rdi), %rcx
	orq	%rsi, %r13
	movq	%r13, %r11
	movq	%rbx, %r13
	orq	-88(%rsp), %r13
	xorq	%rcx, %r11
	movq	%r11, 920(%rsp)
	movq	%rbp, %r11
	movq	%r13, %rcx
	movq	%r14, %r13
	andq	%rax, %r11
	notq	%rcx
	orq	-96(%rsp), %rcx
	xorq	%rdx, %r11
	xorq	%rcx, %r13
	movq	%r13, %r12
	movq	%r8, %r13
	andq	%rdx, %r13
	movq	%r12, %rbp
	xorq	32(%rdi), %rbp
	orq	%r9, %r13
	orq	%rdx, %r8
	andq	%rbx, %r10
	xorq	%r8, %r14
	orq	%rbx, %r12
	xorq	%rax, %r12
	xorq	%rbp, %r13
	movq	%r9, %rbp
	andq	%r11, %rbp
	andq	%rbx, %r11
	xorq	%rbp, %r14
	xorq	%r11, %rcx
	orq	%r15, %r14
	orq	%r9, %rcx
	movq	%r14, %r8
	xorq	%r13, %r8
	movq	%r8, 400(%rsp)
	movq	-88(%rsp), %r14
	xorq	-64(%rsp), %rbx
	andq	-72(%rsp), %rbx
	movq	%r14, %rbp
	orq	%r10, %rbp
	movq	%rbp, %r8
	xorq	16(%rdi), %r8
	orq	%r9, %rbx
	xorq	%rdx, %rbx
	xorq	%rbx, %r11
	xorq	%r8, %rcx
	movq	-80(%rsp), %r8
	movq	%r11, %rbp
	xorq	400(%rdi), %rbp
	orq	%rdx, %r8
	xorq	%r8, %rsi
	movq	440(%rsp), %r8
	orq	%r9, %rsi
	movq	%rbp, %rax
	movq	%r14, %rbp
	orq	-96(%rsp), %rbp
	xorq	%rsi, %r12
	andq	%r15, %r12
	movq	%r12, %r13
	xorq	%rcx, %r13
	movq	576(%rsp), %rcx
	xorq	%rbp, %r10
	andq	-56(%rsp), %r9
	movq	%r13, 408(%rsp)
	movq	424(%rsp), %r13
	andq	%r9, %r11
	movq	432(%rsp), %r9
	xorq	%r11, %r10
	andq	%r15, %r10
	movq	%r10, %rbp
	xorq	%rax, %rbp
	movq	-120(%rsp), %rax
	movq	%rbp, 928(%rsp)
	movq	-24(%rsp), %rbp
	movq	%rax, %rdx
	movq	152(%rax), %rbx
	movq	312(%rax), %rax
	movq	%rax, %r15
	movq	280(%rsp), %rax
	xorq	%rbx, %rbp
	movq	%r15, 152(%rsp)
	movq	%rbx, 296(%rsp)
	movq	%rbp, %rbx
	movq	%rbx, %r12
	xorq	%r15, %rax
	movq	384(%rdx), %r15
	xorq	%rax, %r12
	xorq	%r15, %r8
	movq	%r15, (%rsp)
	movq	%r8, %r14
	movq	432(%rdx), %r8
	xorq	%r8, %r9
	movq	%r8, -96(%rsp)
	movq	%r9, %rsi
	movq	48(%rdx), %r9
	xorq	%r9, %rcx
	movq	%r9, -88(%rsp)
	movq	%rax, %r9
	movq	%rcx, %r11
	movq	216(%rdx), %rcx
	notq	%r9
	orq	%rbx, %r9
	movq	%r11, %r8
	xorq	%rcx, %r13
	movq	%rcx, 160(%rsp)
	movq	%rsi, %rcx
	movq	%r13, %rbp
	notq	%rbp
	movq	%rbp, %rdx
	xorq	%r12, %rbp
	movq	%rdx, %r10
	movq	%rbp, -80(%rsp)
	xorq	%r11, %rbp
	orq	%r9, %r10
	xorq	%rax, %r9
	movq	%rbp, -72(%rsp)
	andq	%r11, %r10
	orq	%r9, %rcx
	xorq	%rbx, %r10
	andq	%r10, %r8
	andq	%rsi, %r10
	xorq	%rcx, %r8
	xorq	%rbp, %r10
	movq	%r8, %rcx
	movq	%rcx, %r8
	movq	%rcx, -64(%rsp)
	andq	%r14, %r8
	xorq	%r8, %r10
	movq	%r10, %rbp
	xorq	192(%rdi), %rbp
	movq	%r10, %rcx
	movq	%rax, %r10
	orq	%r13, %r10
	movq	%r10, -56(%rsp)
	orq	%rbx, %r10
	movq	%rbp, 384(%rsp)
	movq	%r11, %rbp
	xorq	%r10, %rbp
	movq	%rbp, %r8
	movq	%rbx, %rbp
	xorq	%r9, %r8
	orq	%rdx, %rbp
	orq	-80(%rsp), %rbx
	movq	%rbp, %r15
	andq	%rdx, %rax
	movq	%r11, %rbp
	xorq	%r10, %rdx
	orq	%rax, %rbp
	xorq	%r12, %rax
	andq	%r11, %rdx
	movq	%r15, %r12
	movq	%r15, -48(%rsp)
	andq	%rcx, %rbx
	movq	-64(%rsp), %rcx
	xorq	%rdx, %rax
	xorq	%rbp, %r12
	andq	%r8, %rdx
	orq	%rsi, %rbx
	movq	%r12, %r15
	movq	%rsi, %r12
	orq	%r13, %rcx
	movq	-72(%rsp), %r13
	xorq	288(%rdi), %r13
	xorq	%r9, %rcx
	movq	%rsi, %r9
	andq	%rax, %r12
	orq	%rcx, %r9
	orq	%rbp, %rcx
	xorq	%r15, %r12
	andq	%r14, %rcx
	movq	%r8, %r15
	xorq	112(%rdi), %r15
	xorq	%r13, %rdx
	movq	%rcx, %r13
	orq	%r14, %r12
	xorq	%r9, %rdx
	andq	%r11, %rax
	xorq	%rdx, %r13
	xorq	%r8, %rax
	andq	%r10, %r8
	movq	%r13, 392(%rsp)
	movq	-48(%rsp), %r13
	xorq	%r15, %r12
	xorq	80(%rdi), %r13
	xorq	%r12, %rbx
	movq	-120(%rsp), %rdx
	movq	448(%rsp), %r12
	movq	%rbx, 904(%rsp)
	movq	40(%rdx), %r10
	xorq	%r8, %r13
	andq	%rax, %rsi
	andq	-56(%rsp), %rbp
	xorq	%rsi, %r13
	movq	-24(%rsp), %r8
	movq	%r10, 304(%rsp)
	andq	%rax, %rbp
	orq	%r14, %rbp
	movq	%rbp, %rax
	movq	640(%rsp), %rbp
	xorq	%r13, %rax
	movq	328(%rsp), %r13
	movq	%rax, 912(%rsp)
	movq	128(%rsp), %rax
	xorq	%r10, %rax
	movq	264(%rdx), %r10
	movq	%rax, %r14
	movq	136(%rdx), %rax
	xorq	%r10, %r12
	movq	%r10, 168(%rsp)
	movq	200(%rdx), %r10
	xorq	%rax, %r13
	movq	%rax, -80(%rsp)
	movq	272(%rdx), %rax
	movq	%r13, %rbx
	movq	424(%rdx), %r13
	movq	%rbx, %rsi
	movq	%r10, 16(%rsp)
	xorq	%r10, %r8
	xorq	%rax, %rbp
	movq	%rax, 8(%rsp)
	notq	%rsi
	movq	%rbp, %rcx
	movq	280(%rsp), %rbp
	movq	%rsi, %rdx
	movq	%rbx, %rsi
	movq	%r13, 312(%rsp)
	movq	%r8, %r10
	andq	%r12, %rsi
	movq	%r14, %r8
	xorq	%r13, %rbp
	movq	%rsi, %r13
	movq	%rcx, %rsi
	xorq	%r14, %r13
	andq	%rdx, %rsi
	notq	%r8
	movq	%rsi, %r11
	movq	%r13, %rsi
	movq	%rbp, %r15
	xorq	%r11, %rsi
	movq	%r8, %rbp
	andq	%r12, %rdx
	movq	%rbp, -72(%rsp)
	movq	%rsi, -64(%rsp)
	xorq	%rbx, %rbp
	movq	%rsi, %r8
	movq	%rcx, %rsi
	orq	%rbp, %rsi
	xorq	%r10, %r8
	movq	%rsi, %rax
	movq	%r8, %rsi
	xorq	%rdx, %rax
	xorq	%rax, %rbx
	andq	%rax, %rsi
	movq	%rbx, -48(%rsp)
	orq	%r8, %rbx
	movq	%rsi, -56(%rsp)
	movq	%rbx, %r9
	xorq	368(%rdi), %r8
	movq	-72(%rsp), %rbx
	andq	%rcx, %r9
	xorq	%r9, %rsi
	andq	%r10, %rsi
	orq	%r13, %rbx
	xorq	%rax, %rsi
	andq	%r15, %rsi
	xorq	%r8, %rsi
	movq	%r14, %r8
	movq	%rsi, 856(%rsp)
	movq	%rcx, %rsi
	xorq	%rbx, %r8
	xorq	%r12, %rsi
	xorq	%rbx, %rdx
	xorq	%r12, %r9
	orq	%r10, %rdx
	xorq	%rbp, %rsi
	xorq	%r12, %rbp
	xorq	%rdx, %rsi
	movq	%r10, %rdx
	movq	%r8, -40(%rsp)
	orq	%r11, %rdx
	orq	%rbp, %r11
	xorq	320(%rdi), %r11
	orq	%r9, %rdx
	orq	%r13, %r9
	movq	%r10, %rbp
	xorq	%rcx, %r9
	orq	%rcx, %r8
	andq	%r14, %rax
	orq	%r9, %rbp
	xorq	%r8, %rdx
	movq	-48(%rsp), %rcx
	xorq	%rbp, %r11
	movq	%r9, %rbp
	orq	%r15, %rdx
	xorq	%rax, %rbp
	orq	-64(%rsp), %rax
	xorq	%rsi, %rdx
	movq	%rdx, %rsi
	xorq	%rbp, %rdx
	xorq	480(%rdi), %rcx
	andq	%r10, %rdx
	xorq	-40(%rsp), %r8
	xorq	464(%rdi), %rsi
	movq	288(%rsp), %rbp
	xorq	%rdx, %rax
	movq	-120(%rsp), %rdx
	orq	%r15, %rax
	xorq	%r11, %rax
	orq	%r10, %r8
	movq	%rsi, 624(%rsp)
	movq	%rax, 864(%rsp)
	movq	%rcx, %rax
	movq	320(%rdx), %r12
	xorq	%r8, %rax
	andq	-56(%rsp), %rbx
	orq	-72(%rsp), %r9
	movq	160(%rdx), %r10
	movq	256(%rdx), %rcx
	xorq	%r12, %rbp
	movq	%r12, -64(%rsp)
	movq	%rbp, %r12
	movq	192(%rdx), %rbp
	andq	%rbx, %r8
	movq	648(%rsp), %rbx
	movq	%r10, -72(%rsp)
	orq	%r15, %r8
	movq	%rcx, 24(%rsp)
	xorq	%rax, %r8
	xorq	%r8, %r9
	xorq	%rcx, %rbx
	movq	120(%rsp), %r8
	movq	%r9, 632(%rsp)
	movq	456(%rsp), %r11
	movq	440(%rdx), %rcx
	movq	128(%rsp), %r9
	movq	32(%rdx), %r13
	xorq	%r10, %r8
	movq	%rbp, 176(%rsp)
	xorq	%rbp, %r11
	xorq	%rcx, %r9
	movq	%rcx, 32(%rsp)
	movq	328(%rsp), %rcx
	movq	%r11, %rsi
	movq	%r11, %r10
	movq	%r13, 184(%rsp)
	notq	%rsi
	xorq	%r13, %rcx
	movq	%rcx, %rax
	movq	%rsi, %rcx
	movq	%r11, %rsi
	movq	%rax, %r11
	orq	%rax, %rsi
	andq	%r12, %rax
	notq	%r11
	movq	%rsi, %rbp
	movq	%r12, %rsi
	movq	%r11, %rdx
	movq	%rax, %r11
	movq	%r9, %rax
	xorq	%rbp, %r11
	andq	%rbp, %rsi
	andq	%r11, %rax
	xorq	%rsi, %rdx
	xorq	%rcx, %rsi
	movq	%rax, %r14
	movq	%r12, %rax
	xorq	%r12, %rcx
	xorq	%r14, %rax
	orq	%r9, %rcx
	movq	%rax, %rbp
	movq	%r10, %rax
	orq	%r9, %rax
	movq	%rax, %r13
	movq	%rbx, %rax
	xorq	%rdx, %r13
	andq	%rsi, %rdx
	andq	%r9, %rsi
	movq	%rdx, %r12
	xorq	%r11, %rsi
	andq	%rbp, %rax
	xorq	%rcx, %r12
	xorq	%r13, %rax
	movq	%r12, %r11
	movq	%r8, %r12
	orq	%rbx, %r11
	xorq	%rsi, %r11
	xorq	%r14, %rcx
	andq	%r9, %rbp
	andq	%r11, %r12
	xorq	%r10, %rcx
	xorq	%rbp, %rdx
	andq	%rbx, %rcx
	movq	%r12, %r15
	orq	%r8, %r11
	xorq	%rax, %r15
	xorq	%rcx, %rdx
	notq	%rax
	movq	%rax, %rsi
	xorq	%rdx, %rax
	xorq	64(%rdi), %rsi
	andq	%rax, %r9
	orq	%rbx, %rax
	movq	%r15, %r12
	xorq	%r15, %r9
	xorq	208(%rdi), %r12
	xorq	%r9, %rax
	andq	%rax, %r8
	xorq	%r11, %rsi
	xorq	96(%rdi), %r11
	xorq	%r8, %rdx
	movq	%rsi, 888(%rsp)
	movq	656(%rsp), %r8
	movq	%rdx, %rbx
	xorq	48(%rdi), %rbx
	movq	%r12, 608(%rsp)
	xorq	%r11, %rax
	movq	%rbx, 616(%rsp)
	movq	%rax, %rbx
	xorq	%rdx, %rbx
	movq	-120(%rsp), %rdx
	movq	%rbx, 896(%rsp)
	movq	344(%rsp), %rbx
	movq	416(%rdx), %r11
	movq	184(%rdx), %rax
	movq	168(%rdx), %rcx
	movq	248(%rdx), %rbp
	xorq	%r11, %rbx
	movq	%rax, -56(%rsp)
	movq	%r11, 40(%rsp)
	movq	%rbx, %rsi
	movq	336(%rsp), %rbx
	movq	%rcx, 200(%rsp)
	movq	%rbp, 208(%rsp)
	xorq	%rax, %rbx
	movq	%rbx, %r10
	movq	64(%rdx), %rbx
	xorq	%rbx, %r8
	movq	%rbx, 192(%rsp)
	movq	120(%rsp), %rbx
	movq	%r8, %rax
	movq	464(%rsp), %r8
	xorq	%rbp, %rbx
	xorq	%rcx, %r8
	movq	%rbx, %rcx
	movq	288(%rdx), %rbx
	movq	%r8, %r12
	movq	288(%rsp), %r14
	movq	%r8, %r15
	notq	%r12
	movq	%r12, %r13
	movq	%rsi, %r12
	movq	%rbx, 48(%rsp)
	notq	%r12
	xorq	%rbx, %r14
	movq	%r12, %rdx
	movq	%rax, %r12
	movq	%r14, %r9
	orq	%r13, %rdx
	movq	%r9, %r11
	xorq	%rdx, %r12
	andq	%r14, %rdx
	movq	%rsi, %r14
	orq	%rax, %r14
	orq	%r9, %r8
	xorq	%r14, %r15
	orq	%r14, %r8
	movq	%r15, %rbp
	movq	%r15, %rbx
	xorq	%r8, %rbp
	movq	%rbp, %r15
	movq	%r12, %rbp
	notq	%rbp
	movq	%r15, -32(%rsp)
	movq	%rbp, 56(%rsp)
	andq	%rsi, %rbp
	orq	%rbp, %r11
	xorq	%r11, %rbx
	orq	%r10, %rbx
	xorq	%r8, %rbx
	movq	%r12, %r8
	xorq	%rdx, %r8
	xorq	(%rdi), %r8
	movq	%rbx, -48(%rsp)
	movq	%r15, %rbx
	andq	%r10, %rbx
	xorq	%rbx, %r8
	movq	-48(%rsp), %rbx
	orq	%rcx, %rbx
	xorq	%r8, %rbx
	movq	%r13, %r8
	orq	%rbp, %r8
	movq	%rbx, 592(%rsp)
	movq	%rax, %rbx
	xorq	%r8, %rbx
	xorq	%r8, %rsi
	movq	%rbx, -40(%rsp)
	movq	%r15, %rbx
	movq	-40(%rsp), %r15
	xorq	%r9, %rbx
	andq	%rbx, %r8
	orq	%rbx, %rax
	andq	%r9, %r15
	orq	%r10, %r8
	notq	%rax
	xorq	%r15, %rsi
	orq	%rcx, %rax
	movq	%r10, %r15
	xorq	%r8, %rsi
	xorq	%rsi, %rax
	movq	%rax, %r8
	xorq	352(%rdi), %r8
	movq	%r8, 824(%rsp)
	movq	%r13, %r8
	xorq	%rdx, %r8
	andq	%r11, %r8
	andq	%r12, %r15
	xorq	%r13, %rbp
	andq	%r9, %rbp
	movq	56(%rsp), %r9
	andq	%r15, %rbx
	xorq	%r8, %rbx
	xorq	%rdx, %r14
	xorq	%r12, %r11
	orq	%rcx, %rbx
	andq	%r10, %r11
	xorq	%r9, %rbp
	andq	%rsi, %r11
	xorq	-32(%rsp), %rsi
	xorq	%rbp, %rbx
	movq	%r14, %rbp
	andq	%rax, %rbp
	orq	%r10, %rbp
	xorq	%rbp, %rbx
	movq	352(%rsp), %rbp
	movq	%rbx, %r8
	xorq	496(%rdi), %r8
	andq	-40(%rsp), %rbx
	movq	%r8, 600(%rsp)
	movq	%r9, %r8
	xorq	-48(%rsp), %r8
	movq	%rbx, %r14
	xorq	%rdx, %r14
	movq	-120(%rsp), %rdx
	orq	%r14, %rsi
	movq	%r8, %rbx
	andq	%r10, %rsi
	xorq	%rax, %rbx
	movq	240(%rdx), %r8
	xorq	%r11, %rbx
	movq	%rbx, %r12
	movq	408(%rdx), %rbx
	orq	%rcx, %r12
	movq	%r8, 216(%rsp)
	movq	%r12, %r11
	xorq	176(%rdi), %r11
	movq	72(%rdx), %r12
	movq	%r12, -48(%rsp)
	xorq	%r14, %r11
	xorq	%r11, %rsi
	movq	%rsi, 840(%rsp)
	movq	360(%rsp), %rsi
	xorq	%r8, %rsi
	movq	%rsi, %rcx
	movq	280(%rdx), %rsi
	xorq	%rsi, %rbp
	movq	%rsi, 224(%rsp)
	movq	472(%rsp), %rsi
	movq	664(%rsp), %r14
	movq	232(%rdx), %r8
	movq	%rbp, %r11
	movq	344(%rsp), %rax
	movq	336(%rsp), %r9
	notq	%r11
	xorq	%r12, %rsi
	movq	%rbp, %r13
	movq	%rbx, 56(%rsp)
	xorq	%rbx, %r14
	movq	%r8, 64(%rsp)
	xorq	%r8, %rax
	movq	112(%rdx), %r8
	movq	%r11, %rdx
	movq	%rax, %r12
	movq	%rcx, %r11
	xorq	%r12, %r11
	xorq	%r8, %r9
	movq	%r11, %r10
	movq	%rcx, %r11
	movq	%r9, %rax
	movq	%r12, %r9
	andq	%rbp, %r11
	xorq	%rax, %r10
	notq	%r9
	movq	%r11, %rbx
	xorq	%rdx, %r10
	movq	%r9, -32(%rsp)
	orq	%r11, %r9
	andq	%r10, %r13
	movq	%r9, %r11
	movq	%rcx, %r9
	movq	%r13, 72(%rsp)
	andq	%r12, %r9
	andq	%rax, %r13
	xorq	%r13, %r11
	movq	%r9, %r13
	movq	%rax, %r15
	xorq	%rbp, %r13
	movq	%r9, 80(%rsp)
	movq	%r8, -40(%rsp)
	andq	%r13, %r15
	movq	%r13, %r8
	movq	%rsi, %r13
	xorq	%r15, %rdx
	movq	%r15, %r9
	movq	%r10, %r15
	xorq	256(%rdi), %r15
	andq	%r11, %r13
	xorq	%rcx, %r11
	andq	%rax, %r11
	xorq	%r12, %r9
	movq	%r14, %r12
	xorq	%r15, %r13
	movq	%rsi, %r15
	orq	%rdx, %r15
	xorq	%rcx, %rdx
	xorq	%r15, %r11
	movq	%rbx, %r15
	andq	%rdx, %rax
	andq	%r14, %r11
	orq	%r9, %r15
	notq	%r9
	xorq	%r13, %r11
	movq	%r11, 544(%rsp)
	movq	%r15, %r11
	movq	%rbx, %r15
	andq	%rsi, %r11
	xorq	%rax, %r11
	xorq	%rbp, %r11
	orq	%r11, %rcx
	andn	%rsi, %rcx, %r13
	xorq	%r9, %r13
	xorq	144(%rdi), %r11
	xorq	240(%rdi), %r15
	andq	%rbp, %rdx
	movq	%r10, %rbp
	andq	%r13, %r12
	xorq	%rdx, %rbp
	orq	%rax, %r8
	xorq	-32(%rsp), %r8
	orq	%rsi, %rbp
	xorq	160(%rdi), %rbx
	orq	%r10, %rdx
	xorq	%r11, %r12
	movq	%r15, %r11
	xorq	%rbp, %r11
	movq	%r12, 808(%rsp)
	xorq	%r13, %r11
	movq	80(%rsp), %r13
	andq	%r8, %r9
	orq	%r14, %r9
	xorq	%rbx, %rdx
	xorq	%r9, %rdx
	xorq	%rax, %r13
	movq	-120(%rsp), %rax
	xorq	%rcx, %r13
	andq	72(%rsp), %rcx
	orq	%rsi, %r13
	xorq	%r8, %r13
	movq	(%rax), %rbp
	orq	%r14, %r13
	orq	%rsi, %rcx
	movq	304(%rax), %rsi
	xorq	%r11, %r13
	movq	%rcx, %r14
	movq	336(%rax), %rcx
	movq	%r13, 584(%rsp)
	xorq	%rdx, %r14
	movq	%rbp, 88(%rsp)
	movq	%r14, 848(%rsp)
	movq	376(%rsp), %r14
	movq	%rsi, 72(%rsp)
	movq	%rcx, 80(%rsp)
	xorq	%rsi, %r14
	movq	%r14, %rsi
	movq	368(%rsp), %r14
	xorq	%rcx, %r14
	movq	%r14, %rdx
	movq	672(%rsp), %r14
	movq	%rdx, %r11
	notq	%r11
	xorq	%rbp, %r14
	movq	%r14, %rbx
	movq	176(%rax), %r14
	movq	296(%rax), %r8
	movq	360(%rsp), %r13
	movq	16(%rax), %r12
	movq	%r11, %rax
	movq	488(%rsp), %r9
	movq	%rbx, %r11
	movq	%rbx, %rbp
	movq	%r14, 232(%rsp)
	movq	%r8, 96(%rsp)
	xorq	%r8, %r13
	movq	%r12, 240(%rsp)
	movq	%r13, %r15
	movq	352(%rsp), %r13
	xorq	%r14, %r9
	movq	%r9, %r14
	movq	%r15, %r9
	notq	%r9
	xorq	%r12, %r13
	andq	%r15, %r11
	movq	%r9, -32(%rsp)
	movq	%r11, %rcx
	movq	%r13, %r12
	andq	%rax, %rbp
	xorq	%rdx, %rcx
	movq	%r14, %rdx
	movq	%r15, %r9
	xorq	%rcx, %rdx
	andq	%rbx, %rcx
	orq	%rbp, %r9
	movq	%rdx, %r10
	movq	%r15, %rdx
	movq	%r13, %r8
	xorq	%rcx, %rdx
	movq	%r9, %r13
	movq	%r8, 104(%rsp)
	movq	%rdx, 112(%rsp)
	andq	%r14, %rdx
	xorq	%rdx, %r12
	movq	%rdx, 248(%rsp)
	movq	%rax, %rdx
	movq	%r12, %r11
	orq	%r15, %rdx
	movq	%r9, %r12
	orq	%rsi, %r11
	movq	%rcx, %r9
	andq	%r14, %rdx
	xorq	%r10, %r11
	xorq	%rdx, %r12
	xorq	%rcx, %r10
	xorq	%r11, %r9
	orq	%r10, %rbp
	orq	%rsi, %r9
	xorq	%r12, %r9
	andq	%r9, %r8
	xorq	%r11, %r8
	movq	%r8, %rax
	xorq	448(%rdi), %rax
	orq	%r15, %r8
	movq	%r8, %r15
	movq	%rbp, %r8
	movq	%rsi, %rbp
	xorq	%rcx, %r15
	orq	%r8, %rbp
	andq	%rsi, %r8
	xorq	432(%rdi), %rbp
	andq	%r15, %r8
	movq	%rax, 528(%rsp)
	movq	%rdx, %rax
	xorq	%r15, %rax
	movq	-32(%rsp), %r15
	xorq	%rax, %rbp
	andq	%r9, %r15
	xorq	%r15, %r8
	movq	104(%rsp), %r15
	orq	112(%rsp), %r14
	andq	%rbx, %r13
	andq	%rbx, %r12
	xorq	%rcx, %rdx
	orq	%rsi, %rdx
	xorq	248(%rsp), %rdx
	xorq	%rbx, %r10
	orq	%r15, %r8
	xorq	336(%rdi), %rdx
	andq	%rsi, %r10
	xorq	%rbp, %r8
	movq	-32(%rsp), %rbp
	xorq	%r14, %r13
	movq	416(%rsp), %rbx
	movq	%r8, 800(%rsp)
	movq	%rbp, %r14
	orq	%rbp, %r12
	orq	%rsi, %r14
	andq	%rsi, %r12
	orq	%r14, %rax
	xorq	%r12, %r11
	movq	%r15, %r12
	xorq	%rax, %r13
	movq	-120(%rsp), %rax
	orq	%r13, %r12
	xorq	%r13, %rdx
	xorq	%r9, %r13
	xorq	%r12, %r11
	movq	224(%rax), %rcx
	movq	%r11, %r14
	andq	%r10, %r11
	xorq	224(%rdi), %r14
	xorq	%r13, %r11
	orq	%r15, %r11
	xorq	%rdx, %r11
	xorq	%rcx, %rbx
	movq	%rcx, -32(%rsp)
	movq	%r11, 832(%rsp)
	movq	%rbx, 272(%rsp)
	movq	%r14, 560(%rsp)
	movq	56(%rax), %rbx
	movq	680(%rsp), %rbp
	movq	8(%rax), %rsi
	movq	480(%rsp), %rdx
	movq	352(%rax), %rcx
	movq	344(%rax), %r9
	movq	%rbx, 248(%rsp)
	xorq	%rbx, %rbp
	movq	368(%rsp), %r11
	movq	%rsi, 104(%rsp)
	xorq	%rsi, %rdx
	movq	%rcx, 112(%rsp)
	movq	%rbp, %rsi
	movq	%rdx, %r10
	movq	504(%rsp), %rdx
	movq	%r9, 256(%rsp)
	movq	%r10, 320(%rsp)
	notq	%r10
	movq	%rbp, %r14
	movq	%rbp, %r13
	xorq	%rcx, %rdx
	movq	128(%rax), %rcx
	movq	%r10, %rax
	movq	%rdx, %rbx
	movq	376(%rsp), %rdx
	movq	%rax, %r15
	movq	%rbx, %r10
	movq	%rax, %r12
	movq	%rcx, 264(%rsp)
	xorq	%r9, %rdx
	xorq	%rcx, %r11
	movq	%rdx, %r8
	movq	%r11, %rdx
	notq	%rdx
	xorq	%rdx, %r10
	movq	%rdx, %r9
	movq	%rbx, %rdx
	orq	%r9, %rdx
	xorq	%rdx, %r15
	andq	%rbp, %rdx
	movq	%r15, %rcx
	orq	%r15, %r14
	movq	%r10, %r15
	orq	%rcx, %r9
	xorq	%r14, %r15
	xorq	%r9, %r12
	movq	%r15, 496(%rsp)
	andq	%r9, %r13
	andq	%r12, %rsi
	andn	%r9, %rbx, %rbx
	movq	%rsi, 512(%rsp)
	xorq	%r9, %rsi
	xorq	%rdx, %rbx
	andq	%r8, %rsi
	orq	%r8, %rbx
	xorq	%r15, %rsi
	movq	%r10, %r15
	orq	%rbp, %r10
	andq	%r12, %r15
	xorq	%r14, %r12
	andq	%r10, %rax
	xorq	%r13, %r15
	movq	272(%rsp), %r13
	xorq	%rax, %rbx
	orq	%r8, %r15
	xorq	%r12, %r15
	movq	%rsi, %r12
	xorq	304(%rdi), %r12
	orq	%r15, %r13
	xorq	%r12, %r13
	movq	272(%rsp), %r12
	movq	%r13, 552(%rsp)
	movq	496(%rsp), %r13
	movq	%r12, %rbp
	andq	%rbx, %rbp
	movq	%rbp, %rdx
	movq	%r12, %rbp
	xorq	%rsi, %rdx
	xorq	272(%rdi), %rdx
	xorq	%r10, %rcx
	xorq	%r11, %rax
	xorq	%rcx, %r14
	orq	320(%rsp), %rsi
	andq	%r13, %rax
	xorq	%rbx, %r15
	andq	%r8, %rax
	movq	%rdx, 568(%rsp)
	movq	%r11, %rdx
	xorq	128(%rdi), %r11
	andq	%r14, %rdx
	xorq	416(%rdi), %r14
	andq	%r8, %rsi
	xorq	%r9, %rdx
	andn	%r9, %r13, %r9
	movq	(%rsp), %r13
	xorq	%rdx, %rax
	orq	%rdx, %r15
	orq	%r8, %r9
	xorq	%r11, %r10
	xorq	512(%rsp), %r10
	orq	%r12, %rax
	andq	%rbp, %r15
	xorq	%rax, %r14
	movq	%rsi, %r12
	movq	%r15, %rdi
	xorq	%r14, %r12
	xorq	552(%rsp), %r13
	movq	%r12, 784(%rsp)
	xorq	%r9, %r10
	xorq	%r10, %rdi
	movq	%rdi, 816(%rsp)
	movq	-72(%rsp), %rcx
	movq	%r13, %rdx
	movq	-120(%rsp), %rax
	xorq	584(%rsp), %rcx
	movq	%r13, %r14
	movq	80(%rax), %rdi
	movq	%rcx, %rbp
	movq	%rdi, 320(%rsp)
	xorq	840(%rsp), %rdi
	movq	%rdi, %rcx
	movq	168(%rsp), %rdi
	xorq	904(%rsp), %rdi
	movq	%rcx, %r10
	notq	%r10
	movq	%rdi, %rbx
	movq	144(%rax), %rdi
	xorq	%rbx, %rcx
	movq	%rdi, 272(%rsp)
	xorq	616(%rsp), %rdi
	movq	%rdi, %r8
	movq	-96(%rsp), %rdi
	xorq	528(%rsp), %rdi
	movq	%rdi, %r9
	movq	%r10, %rdi
	movq	%r9, 536(%rsp)
	notq	%r9
	movq	%r9, %r10
	movq	%r9, %rax
	xorq	%rcx, %r10
	movq	%r10, %r12
	movq	%rbx, %r10
	orq	%r9, %r10
	orq	%rdi, %rax
	movq	%r10, 496(%rsp)
	andq	%rdi, %r10
	movq	%r10, %r15
	orq	%r10, %rdx
	movq	%r13, %r10
	movq	%rdx, %r11
	andq	%rax, %r10
	movq	%r12, %rdx
	movq	%r10, %r9
	movq	%r11, %r10
	xorq	%r11, %rdx
	xorq	%r9, %r10
	movq	%rbp, %r11
	movq	%r10, 696(%rsp)
	orq	%r8, %r10
	xorq	%rdx, %r10
	xorq	%r10, %rax
	andn	%rcx, %rax, %rcx
	orq	%rax, %r14
	movq	%rcx, %rsi
	movq	%r14, %rcx
	movq	480(%rsp), %r14
	orq	%r8, %rsi
	xorq	%rdi, %rcx
	movq	%rbp, 480(%rsp)
	xorq	%rsi, %rcx
	movq	496(%rsp), %rbp
	xorq	%r10, %r14
	orq	%rcx, %r11
	movq	%r14, %rsi
	movq	%r11, %r14
	xorq	%rsi, %r14
	movq	%rbx, %rsi
	andq	%rax, %rbp
	orq	%r12, %rsi
	movq	%rbp, %r11
	movq	%rdi, %rbp
	notq	%rsi
	orq	%rdx, %rdi
	xorq	%rdx, %r11
	orq	%r13, %rsi
	movq	%r14, 768(%rsp)
	andq	%rdx, %rbp
	xorq	%r15, %rdi
	movq	%r15, %r14
	movq	%r8, %r15
	xorq	%rsi, %r14
	andq	%r11, %r15
	orq	%r8, %rbp
	xorq	%r14, %rbp
	xorq	%r15, %rdi
	xorq	-24(%rsp), %rbp
	movq	480(%rsp), %r15
	orq	%r15, %rdi
	xorq	%rbp, %rdi
	andq	%rbx, %r9
	movq	%r12, %rbp
	orq	%r9, %rbp
	movq	%rdi, 512(%rsp)
	andq	%rbx, %r11
	movq	%rbp, %rdi
	xorq	120(%rsp), %rdi
	xorq	%r11, %rsi
	orq	%r8, %rsi
	orq	%rbx, %r14
	xorq	696(%rsp), %rbx
	xorq	%rax, %r14
	andq	496(%rsp), %rbx
	movq	%r15, %rbp
	orq	%r13, %r12
	xorq	%rdi, %rsi
	movq	536(%rsp), %rdi
	xorq	%r12, %r9
	orq	%r8, %rbx
	orq	%rdx, %rdi
	xorq	%rdx, %rbx
	xorq	%rdi, %rcx
	xorq	%rbx, %r11
	orq	%r8, %rcx
	andq	%r10, %r8
	xorq	%rcx, %r14
	andq	%r15, %r14
	movq	%r14, %r15
	xorq	%rsi, %r15
	movq	-104(%rsp), %rsi
	xorq	400(%rsp), %rsi
	movq	%r15, 536(%rsp)
	movq	472(%rsp), %r15
	xorq	%r11, %r15
	andq	%r8, %r11
	movq	%rsi, %rbx
	xorq	%r11, %r9
	andq	%rbp, %r9
	movq	%r9, %r10
	xorq	%r15, %r10
	movq	%r10, 792(%rsp)
	movq	-120(%rsp), %rax
	movq	32(%rsp), %r14
	movq	184(%rsp), %rbp
	xorq	800(%rsp), %r14
	movq	8(%rsp), %r15
	movq	368(%rax), %r10
	movq	136(%rsp), %r8
	movq	%r10, %rsi
	xorq	600(%rsp), %rsi
	xorq	856(%rsp), %rbp
	xorq	584(%rsp), %r15
	xorq	552(%rsp), %r8
	movq	%r10, 120(%rsp)
	movq	%rsi, %rax
	movq	%rbp, %rsi
	movq	%r15, %rdx
	movq	%rax, %rdi
	movq	%r8, %r10
	notq	%rdx
	notq	%rdi
	movq	%rdx, %rcx
	movq	%rbx, %rdx
	xorq	%rax, %rdx
	movq	%rdx, %r11
	movq	%rcx, %rdx
	xorq	%r11, %rdx
	movq	%rdx, -24(%rsp)
	xorq	%r8, %rdx
	movq	%rdi, %r8
	orq	%rbx, %r8
	movq	%rcx, %rdi
	movq	%rdx, %r13
	orq	%r8, %rdi
	xorq	%rax, %r8
	movq	%r13, 472(%rsp)
	movq	%rdi, %r9
	orq	%r8, %rbp
	movq	%r10, %rdi
	andq	%r10, %r9
	movq	%rbp, %rdx
	xorq	%rbx, %r9
	andq	%r9, %rdi
	andq	%rsi, %r9
	xorq	%rdi, %rdx
	xorq	%r13, %r9
	movq	%r14, %rdi
	andq	%rdx, %rdi
	movq	368(%rsp), %r13
	movq	%r9, %rbp
	xorq	%rdi, %rbp
	movq	%rax, %rdi
	andq	%rcx, %rax
	orq	%r15, %rdi
	movq	%rbp, 368(%rsp)
	xorq	%rbp, %r13
	movq	%rdi, 480(%rsp)
	movq	%r10, %rbp
	orq	%rbx, %rdi
	movq	%r13, 496(%rsp)
	movq	%rbx, %r13
	xorq	%rdi, %rbp
	movq	%rdi, %r9
	orq	%rcx, %r13
	movq	%rbp, %rdi
	movq	%r10, %rbp
	xorq	%r9, %rcx
	orq	%rax, %rbp
	xorq	%r11, %rax
	movq	%r13, %r11
	andq	%r10, %rcx
	xorq	%rbp, %r11
	xorq	%r8, %rdi
	xorq	%rcx, %rax
	movq	%r11, %r12
	movq	%rsi, %r11
	andq	%rax, %r11
	xorq	%r11, %r12
	orq	%r15, %rdx
	movq	128(%rsp), %r15
	xorq	472(%rsp), %r15
	andq	%rdi, %rcx
	orq	-24(%rsp), %rbx
	xorq	%r8, %rdx
	andq	368(%rsp), %rbx
	andq	%r10, %rax
	xorq	%rdi, %rax
	movq	520(%rsp), %r11
	xorq	464(%rsp), %r13
	orq	%r14, %r12
	xorq	%r15, %rcx
	movq	%rsi, %r15
	orq	%rdx, %r15
	orq	%rbp, %rdx
	andq	480(%rsp), %rbp
	orq	%rsi, %rbx
	andq	%rax, %rsi
	xorq	%rdi, %r11
	andq	%r9, %rdi
	xorq	%r12, %r11
	xorq	%r15, %rcx
	xorq	%rdi, %r13
	andq	%r14, %rdx
	xorq	%r11, %rbx
	andq	%rax, %rbp
	movq	-120(%rsp), %rax
	xorq	%rsi, %r13
	orq	%r14, %rbp
	xorq	%rcx, %rdx
	movq	%rbx, 752(%rsp)
	movq	%rbp, %r15
	movq	%rdx, 520(%rsp)
	movq	96(%rax), %rdi
	xorq	%r13, %r15
	movq	%r15, 776(%rsp)
	movq	%rdi, -24(%rsp)
	movq	%rdi, %r14
	xorq	392(%rsp), %r14
	movq	176(%rsp), %r8
	xorq	560(%rsp), %r8
	movq	-64(%rsp), %rbp
	movq	24(%rsp), %rdx
	movq	-112(%rsp), %r11
	movq	%r14, %r10
	movq	%r8, %r13
	movq	-16(%rsp), %r8
	xorq	848(%rsp), %r8
	xorq	896(%rsp), %rbp
	movq	%r13, %rax
	xorq	400(%rsp), %rdx
	movq	%r13, %rdi
	notq	%r10
	xorq	600(%rsp), %r11
	movq	%r10, %r15
	notq	%rdi
	movq	%r8, %r10
	movq	%r15, 128(%rsp)
	xorq	%r13, %r15
	andq	%rbp, %rax
	andq	%rdi, %r10
	andq	%rbp, %rdi
	movq	%rax, %r12
	movq	%r8, %rax
	movq	%r8, %rsi
	xorq	%r14, %r12
	orq	%r15, %rax
	movq	%r15, %rbx
	movq	%r12, %r9
	xorq	%rdi, %rax
	xorq	%r10, %r9
	xorq	%rax, %r13
	movq	%r9, 368(%rsp)
	xorq	%rdx, %r9
	movq	%r13, 464(%rsp)
	movq	%r9, %r8
	orq	%r9, %r13
	xorq	432(%rsp), %r9
	andq	%rax, %r8
	movq	%r8, %r15
	movq	%r13, %r8
	andq	%rsi, %r8
	movq	%r15, %r13
	movq	%r15, 432(%rsp)
	xorq	%r8, %r13
	xorq	%rbp, %r8
	movq	%r13, %rcx
	movq	%rsi, %r13
	andq	%rdx, %rcx
	xorq	%rax, %rcx
	andq	%r11, %rcx
	movq	%rcx, %r15
	movq	%rsi, %rcx
	xorq	%r9, %r15
	xorq	%rbp, %rcx
	movq	%r15, 736(%rsp)
	movq	128(%rsp), %r15
	xorq	%rbx, %rcx
	orq	%r12, %r15
	movq	%r15, %r9
	movq	%r14, %r15
	xorq	%r9, %rdi
	xorq	%r9, %r15
	orq	%rdx, %rdi
	orq	%r15, %r13
	xorq	%rcx, %rdi
	movq	%rdx, %rcx
	orq	%r10, %rcx
	orq	%r8, %rcx
	xorq	%rbp, %rbx
	orq	%r12, %r8
	orq	%rbx, %r10
	xorq	504(%rsp), %r10
	xorq	%rsi, %r8
	andq	%r14, %rax
	xorq	%r13, %rcx
	movq	%rdx, %r14
	orq	%r8, %r14
	orq	%r11, %rcx
	andq	432(%rsp), %r9
	xorq	%rdi, %rcx
	movq	352(%rsp), %rdi
	xorq	%r15, %r13
	xorq	%r14, %r10
	movq	%r8, %r14
	orq	128(%rsp), %r8
	xorq	%rax, %r14
	orq	368(%rsp), %rax
	movq	144(%rsp), %r12
	xorq	%rcx, %rdi
	xorq	%r14, %rcx
	movq	%r13, %r14
	orq	%rdx, %r14
	andq	%rdx, %rcx
	xorq	632(%rsp), %r12
	andq	%r14, %r9
	movq	%rdi, 480(%rsp)
	xorq	%rcx, %rax
	orq	%r11, %r9
	orq	%r11, %rax
	movq	288(%rsp), %r11
	xorq	464(%rsp), %r11
	xorq	%r10, %rax
	movq	160(%rsp), %r10
	xorq	408(%rsp), %r10
	movq	%rax, 760(%rsp)
	movq	%r12, %rdx
	movq	%r11, %r13
	xorq	%r14, %r13
	movq	%r8, %r14
	movq	152(%rsp), %r8
	xorq	%r9, %r13
	xorq	%r13, %r14
	movq	%r14, 504(%rsp)
	xorq	784(%rsp), %r8
	movq	-88(%rsp), %rbp
	xorq	824(%rsp), %rbp
	movq	-8(%rsp), %rcx
	xorq	560(%rsp), %rcx
	movq	304(%rsp), %r14
	xorq	392(%rsp), %r14
	movq	%r8, %rbx
	movq	336(%rsp), %r15
	movq	%rbp, %r9
	notq	%r9
	movq	%rcx, %rax
	movq	%r9, %rcx
	movq	%rbp, %r9
	movq	%r14, %rdi
	orq	%rax, %r9
	andq	%r9, %rdx
	movq	%rdx, %rsi
	movq	%rax, %rdx
	notq	%rdx
	movq	%rdx, %r8
	movq	%rax, %rdx
	andq	%r12, %rdx
	xorq	%rsi, %r8
	xorq	%rcx, %rsi
	movq	%rdx, %r11
	movq	%r12, %rdx
	xorq	%r12, %rcx
	xorq	%r9, %r11
	movq	%r14, %r9
	movq	%rbp, %r14
	andq	%r11, %r9
	orq	%rdi, %r14
	orq	%rdi, %rcx
	xorq	%r9, %rdx
	movq	%r14, %r13
	movq	%rbx, %r14
	xorq	%r8, %r13
	andq	%rdx, %r14
	andq	%rsi, %r8
	movq	%r14, %rax
	movq	%r8, %r14
	andq	%rdi, %rsi
	xorq	%rcx, %r14
	xorq	%rsi, %r11
	xorq	%r13, %rax
	movq	%r14, %rsi
	movq	%r10, %r14
	xorq	%rbp, %rcx
	orq	%rbx, %rsi
	xorq	%r9, %rcx
	movq	416(%rsp), %r9
	xorq	%rsi, %r11
	andq	%r11, %r14
	orq	%r10, %r11
	xorq	%rax, %r14
	notq	%rax
	xorq	%r14, %r15
	movq	%r15, 464(%rsp)
	movq	488(%rsp), %r15
	xorq	%rax, %r15
	xorq	%r11, %r15
	andq	%rbx, %rcx
	andq	%rdi, %rdx
	xorq	%rcx, %rdx
	xorq	448(%rsp), %r11
	movq	%r15, 720(%rsp)
	xorq	%rdx, %r8
	movq	216(%rsp), %rdx
	xorq	608(%rsp), %rdx
	xorq	%r8, %rax
	andq	%rax, %rdi
	orq	%rbx, %rax
	xorq	%r14, %rdi
	xorq	%rax, %rdi
	movq	-120(%rsp), %rax
	andq	%rdi, %r10
	xorq	%r11, %rdi
	xorq	%r10, %r8
	movq	120(%rax), %r15
	xorq	%r8, %r9
	movq	%r9, 488(%rsp)
	movq	%rdi, %r9
	xorq	%r8, %r9
	movq	%r9, 744(%rsp)
	movq	%r15, %r14
	movq	88(%rsp), %r9
	xorq	808(%rsp), %r14
	xorq	568(%rsp), %r9
	movq	%r15, 128(%rsp)
	movq	72(%rsp), %r15
	xorq	408(%rsp), %r15
	movq	%r9, %rsi
	movq	%r14, %rax
	movq	%rdx, %r9
	movq	-32(%rsp), %r14
	movq	256(%rsp), %rdx
	movq	%rsi, %rbx
	xorq	912(%rsp), %r14
	xorq	632(%rsp), %rdx
	movq	%r15, %rcx
	movq	%rdx, %r8
	movq	%r14, %r10
	movq	%rsi, %rdx
	notq	%r10
	notq	%rdx
	movq	%r14, %rdi
	movq	%r10, %r12
	orq	%r10, %rdx
	movq	%rax, %r10
	xorq	%rdx, %r10
	movq	%rsi, %r14
	andq	%r8, %rdx
	movq	%r10, %rbp
	orq	%rax, %r14
	movq	%rdi, %r10
	orq	%r8, %rdi
	xorq	%r14, %r10
	orq	%r14, %rdi
	movq	%r10, %r11
	xorq	%rdi, %r10
	movq	%r10, %r15
	movq	%rbp, %r10
	notq	%r10
	andq	%r10, %rbx
	movq	%r10, %r13
	movq	%r8, %r10
	orq	%rbx, %r10
	xorq	%r10, %r11
	orq	%r9, %r11
	xorq	%rdx, %r14
	xorq	%rdi, %r11
	movq	%r11, 288(%rsp)
	movq	360(%rsp), %r11
	xorq	%rdx, %r11
	movq	%r11, %rdi
	movq	%r15, %r11
	andq	%r9, %r11
	xorq	%rbp, %rdi
	xorq	%r11, %rdi
	movq	288(%rsp), %r11
	orq	%rcx, %r11
	xorq	%rdi, %r11
	movq	%r12, %rdi
	movq	%r11, 448(%rsp)
	orq	%rbx, %rdi
	movq	%rax, %r11
	xorq	%rdi, %r11
	movq	%r15, 352(%rsp)
	xorq	%rdi, %rsi
	movq	%r11, 336(%rsp)
	movq	%r15, %r11
	movq	336(%rsp), %r15
	xorq	%r8, %r11
	xorq	%r12, %rbx
	andq	%r11, %rdi
	orq	%r11, %rax
	andq	%r8, %rbx
	andq	%r8, %r15
	orq	%r9, %rdi
	notq	%rax
	xorq	%r15, %rsi
	orq	%rcx, %rax
	movq	%r9, %r15
	xorq	%rdi, %rsi
	movq	456(%rsp), %rdi
	andq	%rbp, %r15
	xorq	%rsi, %rax
	andq	%r15, %r11
	xorq	%r13, %rbx
	movq	280(%rsp), %r15
	xorq	%rax, %rdi
	movq	%rdi, 704(%rsp)
	movq	%r12, %rdi
	xorq	%rdx, %rdi
	andq	%r10, %rdi
	xorq	%rdi, %r11
	orq	%rcx, %r11
	xorq	%rbx, %r11
	movq	%r14, %rbx
	andq	%rax, %rbx
	xorq	%rbp, %r10
	orq	%r9, %rbx
	andq	%r9, %r10
	xorq	%rbx, %r11
	andq	%rsi, %r10
	xorq	352(%rsp), %rsi
	xorq	%r11, %r15
	andq	336(%rsp), %r11
	movq	%r15, 472(%rsp)
	movq	96(%rsp), %r15
	xorq	592(%rsp), %r15
	movq	%r11, %r14
	xorq	%rdx, %r14
	movq	288(%rsp), %rdx
	orq	%r14, %rsi
	andq	%r9, %rsi
	xorq	%r13, %rdx
	movq	%rsi, %r9
	movq	%rdx, %r11
	xorq	%rax, %r11
	xorq	%r10, %r11
	movq	%r11, %r10
	orq	%rcx, %r10
	xorq	688(%rsp), %r10
	movq	%r15, %rcx
	movq	48(%rsp), %r15
	xorq	568(%rsp), %r15
	xorq	%r14, %r10
	movq	%rcx, %r14
	xorq	%r10, %r9
	movq	%r15, %r13
	movq	%r9, 728(%rsp)
	movq	80(%rsp), %r9
	xorq	624(%rsp), %r9
	movq	%r9, %r12
	movq	264(%rsp), %r9
	xorq	928(%rsp), %r9
	movq	%r12, %r11
	movq	%r12, %rdi
	notq	%r11
	movq	%r11, %rdx
	movq	%r9, %rsi
	movq	208(%rsp), %r9
	xorq	832(%rsp), %r9
	movq	%r9, %rbx
	movq	200(%rsp), %r9
	xorq	608(%rsp), %r9
	movq	%r9, %rax
	movq	%r15, %r9
	notq	%r9
	movq	%r9, %r10
	movq	%rcx, %r9
	xorq	%r15, %r9
	movq	%r10, 280(%rsp)
	xorq	%rax, %r9
	xorq	%r11, %r9
	movq	%rcx, %r11
	andq	%r12, %r11
	andq	%r9, %rdi
	movq	%rdi, 288(%rsp)
	orq	%r11, %r10
	andq	%rax, %rdi
	xorq	%rdi, %r10
	movq	%r11, %rbp
	andq	%r15, %r14
	movq	%r12, %r11
	xorq	%r14, %r11
	movq	%r11, %rdi
	movq	%rax, %r11
	andq	%rdi, %r11
	xorq	%r11, %rdx
	movq	%r11, %r8
	movq	%rsi, %r11
	andq	%r10, %r11
	xorq	%rcx, %r10
	xorq	%r13, %r8
	movq	%r11, %r15
	movq	376(%rsp), %r11
	andq	%rax, %r10
	movq	%rbx, %r13
	xorq	%r9, %r11
	xorq	%r15, %r11
	movq	%rsi, %r15
	orq	%rdx, %r15
	xorq	%rcx, %rdx
	xorq	%r15, %r10
	andq	%rdx, %rax
	andq	%r12, %rdx
	andq	%rbx, %r10
	orq	%rax, %rdi
	xorq	280(%rsp), %rdi
	xorq	%r11, %r10
	movq	%rbp, %r11
	orq	%r8, %r11
	movq	%r10, 432(%rsp)
	notq	%r8
	movq	%r11, %r10
	andq	%rsi, %r10
	xorq	%rax, %r10
	xorq	%r12, %r10
	movq	%r9, %r12
	orq	%r10, %rcx
	xorq	656(%rsp), %r10
	xorq	%rdx, %r12
	andn	%rsi, %rcx, %r11
	orq	%rsi, %r12
	xorq	%r8, %r11
	andq	%r11, %r13
	xorq	%r10, %r13
	movq	%r13, 688(%rsp)
	movq	424(%rsp), %r13
	xorq	%rbp, %r13
	orq	%r9, %rdx
	andq	%rdi, %r8
	movq	%r13, %r10
	orq	%rbx, %r8
	xorq	%r12, %r10
	movq	%r14, %r12
	xorq	%rax, %r12
	xorq	%r11, %r10
	movq	%r8, %r11
	xorq	%rcx, %r12
	orq	%rsi, %r12
	xorq	%rdi, %r12
	orq	%rbx, %r12
	movq	%r12, %r13
	xorq	%r10, %r13
	movq	%r13, 456(%rsp)
	xorq	640(%rsp), %rbp
	andq	288(%rsp), %rcx
	movq	-120(%rsp), %rax
	movq	248(%rsp), %rbx
	xorq	816(%rsp), %rbx
	movq	112(%rsp), %r15
	xorq	592(%rsp), %r15
	movq	392(%rax), %r14
	xorq	%rbp, %rdx
	movq	64(%rsp), %r10
	orq	%rsi, %rcx
	xorq	888(%rsp), %r10
	movq	360(%rax), %rsi
	xorq	%rcx, %rdx
	movq	-48(%rsp), %r9
	xorq	624(%rsp), %r9
	xorq	%rdx, %r11
	movq	%r14, %rdx
	xorq	384(%rsp), %rdx
	movq	%r11, 712(%rsp)
	movq	%r15, %r11
	movq	%r14, 288(%rsp)
	notq	%r11
	movq	%r10, %r14
	movq	%rsi, 280(%rsp)
	movq	%r11, 336(%rsp)
	movq	%r15, %r11
	xorq	544(%rsp), %rsi
	movq	%rdx, %r12
	movq	%r15, %r13
	movq	%r9, %r8
	notq	%r12
	movq	%r12, %rax
	movq	%rbx, %r12
	andq	%r15, %r12
	movq	%r12, %rcx
	movq	%r10, %r12
	xorq	%rdx, %rcx
	xorq	%rcx, %r12
	andq	%rbx, %rcx
	xorq	%rcx, %r11
	movq	%r12, %r10
	movq	%rcx, %rdi
	movq	%r11, 352(%rsp)
	andq	%r14, %r11
	movq	%r11, %r12
	movq	%r11, 360(%rsp)
	xorq	%r9, %r12
	movq	%r12, %r11
	movq	%rbx, %r12
	orq	%rsi, %r11
	xorq	%r10, %r11
	andq	%rax, %r12
	xorq	%rcx, %r10
	orq	%r12, %r13
	movq	%r12, %rbp
	movq	%rax, %r12
	orq	%r15, %r12
	xorq	%r11, %rdi
	movq	680(%rsp), %rax
	movq	%r12, %rdx
	movq	%rdi, %r9
	movq	%r13, %r12
	andq	%r14, %rdx
	orq	%rsi, %r9
	movq	%r8, %rdi
	xorq	%rdx, %r12
	orq	352(%rsp), %r14
	andq	%rbx, %r13
	xorq	%r12, %r9
	andq	%r9, %rdi
	xorq	%r11, %rdi
	xorq	%rdi, %rax
	orq	%r15, %rdi
	xorq	%r14, %r13
	xorq	%rcx, %rdi
	movq	%rax, 416(%rsp)
	movq	%rdi, %r15
	movq	%rdx, %rdi
	xorq	%r15, %rdi
	movq	%rdi, %rax
	movq	%rbp, %rdi
	movq	%rsi, %rbp
	orq	%r10, %rdi
	orq	%rdi, %rbp
	andq	%rsi, %rdi
	xorq	440(%rsp), %rbp
	andq	%r15, %rdi
	movq	336(%rsp), %r15
	andq	%r9, %r15
	xorq	%rax, %rbp
	xorq	%r15, %rdi
	orq	%r8, %rdi
	xorq	%rbp, %rdi
	movq	%rdi, 696(%rsp)
	movq	336(%rsp), %rdi
	movq	%rdi, %rbp
	orq	%rsi, %rbp
	orq	%rbp, %rax
	xorq	%rax, %r13
	andq	%rbx, %r12
	xorq	%rcx, %rdx
	orq	%rdi, %r12
	orq	%rsi, %rdx
	xorq	360(%rsp), %rdx
	andq	%rsi, %r12
	xorq	664(%rsp), %rdx
	xorq	%rbx, %r10
	xorq	%r12, %r11
	movq	%r8, %r12
	andq	%rsi, %r10
	orq	%r13, %r12
	xorq	%r12, %r11
	movq	328(%rsp), %r12
	xorq	%r13, %rdx
	xorq	%r9, %r13
	xorq	%r11, %r12
	andq	%r10, %r11
	xorq	%r13, %r11
	movq	%r12, 440(%rsp)
	orq	%r8, %r11
	movq	%r11, %r12
	xorq	%rdx, %r12
	movq	%r12, 880(%rsp)
	movq	-120(%rsp), %rax
	movq	224(%rsp), %r11
	xorq	616(%rsp), %r11
	movq	192(%rsp), %rbp
	movq	56(%rsp), %rbx
	movq	400(%rax), %r8
	xorq	920(%rsp), %rbp
	xorq	864(%rsp), %rbx
	movq	-40(%rsp), %r15
	movq	%r11, %r13
	movq	-56(%rsp), %r11
	xorq	384(%rsp), %r11
	movq	%r8, %r9
	xorq	544(%rsp), %r9
	movq	%r8, -120(%rsp)
	movq	%rbp, %r10
	xorq	528(%rsp), %r15
	movq	%rbx, %rbp
	movq	%r10, %rax
	movq	%r10, 328(%rsp)
	movq	%r11, %rbx
	notq	%rax
	notq	%rbx
	movq	%r9, %rdi
	movq	%rax, %rsi
	movq	%rbx, %r9
	movq	%rbp, %rbx
	xorq	%r9, %rbx
	movq	%rbx, %r8
	movq	%rbp, %rbx
	orq	%r9, %rbx
	movq	%r8, %r12
	movq	%rbx, %rdx
	movq	%rax, %rbx
	xorq	%rdx, %rbx
	movq	%rbx, %rcx
	movq	%r15, %rbx
	orq	%rcx, %r9
	orq	%rcx, %rbx
	xorq	%r9, %rsi
	movq	%rbx, %r14
	movq	%r8, %rbx
	movq	%rsi, %r10
	movq	%r15, %rsi
	xorq	%r14, %rbx
	andq	%r10, %rsi
	andq	%r10, %r12
	xorq	%r14, %r10
	movq	%r12, 352(%rsp)
	movq	%r15, %r12
	movq	%rsi, 336(%rsp)
	andq	%r9, %r12
	xorq	352(%rsp), %r12
	xorq	%r9, %rsi
	andq	%rdi, %rsi
	andq	%r15, %rdx
	andn	%r9, %rbp, %rbp
	xorq	%rbx, %rsi
	orq	%r15, %r8
	xorq	%rdx, %rbp
	andq	%r8, %rax
	xorq	%r8, %rcx
	orq	%rdi, %rbp
	orq	%rdi, %r12
	xorq	%rax, %rbp
	xorq	%rcx, %r14
	xorq	%r12, %r10
	movq	576(%rsp), %r12
	xorq	%r11, %rax
	andq	%rbx, %rax
	movq	%r13, %rdx
	andq	%rdi, %rax
	andq	%rbp, %rdx
	xorq	%rsi, %r12
	xorq	%rsi, %rdx
	xorq	344(%rsp), %rdx
	movq	%r12, 352(%rsp)
	movq	%r13, %r12
	orq	%r10, %r12
	movq	%r12, 360(%rsp)
	movq	352(%rsp), %r12
	xorq	360(%rsp), %r12
	movq	%rdx, 576(%rsp)
	movq	%r12, 424(%rsp)
	movq	%r11, %r12
	andq	%r14, %r12
	xorq	%r9, %r12
	xorq	%r12, %rax
	orq	%r13, %rax
	xorq	648(%rsp), %r14
	xorq	672(%rsp), %r11
	orq	328(%rsp), %rsi
	xorq	%rbp, %r10
	andn	%r9, %rbx, %r9
	orq	%r12, %r10
	orq	%rdi, %r9
	andq	%r13, %r10
	xorq	%r11, %r8
	xorq	336(%rsp), %r8
	xorq	%rax, %r14
	andq	%rdi, %rsi
	movq	%r10, %rbx
	movq	%rsi, %rax
	xorq	%r14, %rax
	xorq	%r9, %r8
	movq	%rax, 680(%rsp)
	xorq	%r8, %rbx
	movq	%rbx, 872(%rsp)
	movq	304(%rsp), %rax
	xorq	424(%rsp), %rax
	movq	-8(%rsp), %r12
	xorq	416(%rsp), %r12
	movq	8(%rsp), %rbx
	movq	144(%rsp), %rbp
	xorq	456(%rsp), %rbx
	xorq	752(%rsp), %rbp
	movq	24(%rsp), %r10
	movq	%rax, %r8
	movq	176(%rsp), %rax
	xorq	728(%rsp), %rax
	movq	%r12, %rdx
	xorq	488(%rsp), %r10
	movq	%r12, 336(%rsp)
	movq	%rbx, %r14
	notq	%rdx
	movq	%r8, %rsi
	movq	%rbp, %rbx
	movq	%rdx, %r12
	movq	%r14, 328(%rsp)
	movq	%rax, %rcx
	orq	%rdx, %rbx
	movq	%rax, %r9
	notq	%rcx
	xorq	%rbp, %r9
	movq	%rbx, %r15
	andq	%rcx, %rbx
	xorq	%r9, %r12
	movq	%r10, %r11
	orq	%rbx, %rsi
	orq	%rcx, %rdx
	movq	%rbx, %r13
	movq	%rsi, %r10
	movq	%r12, %rsi
	movq	%r15, 344(%rsp)
	xorq	%r10, %rsi
	movq	%rsi, %rdi
	movq	%r8, %rsi
	andq	%rdx, %rsi
	xorq	%rsi, %r10
	movq	%r10, %rbx
	movq	%r10, 352(%rsp)
	movq	%r14, %r10
	orq	%r11, %rbx
	movq	%rbp, %r14
	xorq	%rdi, %rbx
	xorq	%rbx, %rdx
	orq	%r12, %r14
	andq	%rbp, %rsi
	andn	%r9, %rdx, %r9
	orq	%r11, %r9
	movq	%r9, %rax
	movq	%r8, %r9
	orq	%rdx, %r9
	xorq	%rcx, %r9
	xorq	%rax, %r9
	movq	920(%rsp), %rax
	orq	%r9, %r10
	xorq	%rbx, %rax
	xorq	%rax, %r10
	movq	%r14, %rax
	movq	%r13, %r14
	movq	%r10, 656(%rsp)
	movq	%r15, %r10
	notq	%rax
	andq	%rdx, %r10
	movq	%rcx, %r15
	orq	%rdi, %rcx
	orq	%r8, %rax
	xorq	%rdi, %r10
	andq	%rdi, %r15
	xorq	%r13, %rcx
	movq	%r11, %r13
	xorq	%rax, %r14
	andq	%r10, %r13
	orq	%r11, %r15
	andq	%rbp, %r10
	xorq	%r14, %r15
	xorq	%r13, %rcx
	xorq	400(%rsp), %r15
	movq	328(%rsp), %r13
	xorq	%r10, %rax
	orq	%r11, %rax
	orq	%r13, %rcx
	xorq	%r15, %rcx
	movq	%rcx, 400(%rsp)
	movq	%r12, %rcx
	orq	%rsi, %rcx
	xorq	408(%rsp), %rcx
	xorq	%rcx, %rax
	movq	336(%rsp), %rcx
	orq	%rdi, %rcx
	xorq	%rcx, %r9
	orq	%rbp, %r14
	xorq	352(%rsp), %rbp
	andq	344(%rsp), %rbp
	orq	%r11, %r9
	orq	%r8, %r12
	xorq	%rdx, %r14
	xorq	%r12, %rsi
	xorq	%r9, %r14
	andq	%r13, %r14
	orq	%r11, %rbp
	andq	%rbx, %r11
	movq	%r14, %r9
	xorq	%rdi, %rbp
	movq	-64(%rsp), %r14
	xorq	512(%rsp), %r14
	xorq	%rbp, %r10
	movq	928(%rsp), %rbp
	xorq	%rax, %r9
	movq	%r9, 408(%rsp)
	xorq	%r10, %rbp
	andq	%r11, %r10
	xorq	%r10, %rsi
	movq	%rbp, %rax
	andq	%r13, %rsi
	movq	%r14, %r13
	movq	%rsi, %rbp
	movq	%r13, %r12
	xorq	%rax, %rbp
	movq	%rbp, 664(%rsp)
	movq	-112(%rsp), %rbp
	xorq	472(%rsp), %rbp
	movq	-24(%rsp), %r8
	movq	(%rsp), %r14
	xorq	456(%rsp), %r14
	xorq	696(%rsp), %r8
	movq	160(%rsp), %rdx
	xorq	424(%rsp), %rdx
	movq	272(%rsp), %rdi
	movq	%rbp, %rax
	xorq	736(%rsp), %rdi
	movq	384(%rsp), %r11
	movq	%r14, %r15
	movq	%r14, %rcx
	movq	%rax, %r14
	notq	%r14
	notq	%rcx
	movq	%r8, %rsi
	movq	%r14, %r9
	movq	%rcx, %r14
	xorq	%rax, %r12
	orq	%r13, %r9
	movq	%rcx, %rbx
	movq	%rdx, %rbp
	orq	%r9, %r14
	xorq	%r12, %rbx
	movq	%r15, 328(%rsp)
	movq	%r14, %r8
	movq	%rbx, 336(%rsp)
	movq	%rdx, %r14
	andq	%rdx, %r8
	xorq	%rdx, %rbx
	xorq	%r13, %r8
	xorq	%rax, %r9
	movq	%rbx, 344(%rsp)
	andq	%r8, %r14
	andq	%rdi, %r8
	movq	%r14, %r10
	movq	%rdi, %r14
	xorq	%rbx, %r8
	orq	%r9, %r14
	movq	%rbp, %rbx
	movq	%r14, %rdx
	movq	%rsi, %r14
	xorq	%r10, %rdx
	movq	%r15, %r10
	orq	%rax, %r10
	andq	%rdx, %r14
	andq	%rcx, %rax
	xorq	%r14, %r8
	movq	%r10, %r14
	movq	%r10, 352(%rsp)
	orq	%r13, %r14
	xorq	%r8, %r11
	movq	%r13, %r10
	xorq	%r14, %rbx
	orq	%rcx, %r10
	movq	%r11, 384(%rsp)
	movq	%rbx, %r11
	movq	%rbp, %rbx
	xorq	%r14, %rcx
	orq	%rax, %rbx
	xorq	%r12, %rax
	movq	%r10, %r12
	andq	%rbp, %rcx
	xorq	%rbx, %r12
	orq	336(%rsp), %r13
	xorq	%rcx, %rax
	movq	%r12, %r15
	movq	%rdi, %r12
	andq	%rax, %r12
	xorq	%r9, %r11
	orq	328(%rsp), %rdx
	xorq	%r12, %r15
	movq	904(%rsp), %r12
	orq	%rsi, %r15
	andq	%r8, %r13
	orq	%rdi, %r13
	xorq	%r11, %r12
	xorq	%r15, %r12
	movq	-104(%rsp), %r15
	xorq	%r12, %r13
	xorq	%r9, %rdx
	movq	344(%rsp), %r9
	movq	%r13, 640(%rsp)
	movq	%rdi, %r13
	xorq	392(%rsp), %r9
	orq	%rdx, %r13
	orq	%rbx, %rdx
	andq	352(%rsp), %rbx
	xorq	912(%rsp), %r10
	xorq	520(%rsp), %r15
	andq	%rbp, %rax
	xorq	%r11, %rax
	andq	%r11, %rcx
	andq	%rsi, %rdx
	andq	%r14, %r11
	xorq	%r9, %rcx
	andq	%rax, %rdi
	andq	%rax, %rbx
	xorq	%r13, %rcx
	movq	%rdx, %r13
	orq	%rsi, %rbx
	xorq	%r11, %r10
	movq	%r15, %rbp
	xorq	%rcx, %r13
	xorq	%rdi, %r10
	movq	136(%rsp), %r15
	movq	%rbx, %rcx
	xorq	440(%rsp), %r15
	movq	%r13, 392(%rsp)
	xorq	%r10, %rcx
	movq	32(%rsp), %r10
	xorq	712(%rsp), %r10
	movq	%rcx, 648(%rsp)
	movq	-96(%rsp), %rcx
	xorq	744(%rsp), %rcx
	movq	120(%rsp), %r13
	xorq	512(%rsp), %r13
	movq	%r15, %rax
	movq	-80(%rsp), %r14
	notq	%rax
	xorq	472(%rsp), %r14
	movq	%r10, %rdx
	movq	%r15, %r9
	movq	%rcx, %rsi
	movq	%r13, %rdi
	movq	%rax, %r13
	movq	%r15, %rax
	andq	%rcx, %rax
	movq	%r14, %rbx
	movq	%rbp, %r14
	movq	%rax, %r11
	movq	%r10, %rax
	notq	%r14
	xorq	%rbp, %r11
	andq	%r13, %rax
	andq	%rcx, %r13
	movq	%rax, %r12
	movq	%r11, %rax
	movq	%r15, %rcx
	xorq	%r12, %rax
	movq	%rax, 328(%rsp)
	xorq	%rdi, %rax
	xorq	%r14, %rcx
	orq	%rcx, %rdx
	movq	%rax, %r8
	xorq	%rsi, %rcx
	movq	%rdx, %rax
	movq	%r8, %rdx
	xorq	%r13, %rax
	xorq	%rax, %r9
	andq	%rax, %rdx
	movq	%rdx, %r15
	movq	%r9, %rdx
	movq	%r9, 344(%rsp)
	orq	%r8, %rdx
	movq	%r15, %r9
	xorq	856(%rsp), %r8
	andq	%r10, %rdx
	movq	%r15, 336(%rsp)
	movq	%rbp, %r15
	xorq	%rdx, %r9
	xorq	%rdx, %rsi
	movq	%r10, %rdx
	andq	%rdi, %r9
	xorq	%rcx, %rdx
	andq	%rax, %rbp
	xorq	%rax, %r9
	movq	864(%rsp), %rax
	orq	%r12, %rcx
	andq	%rbx, %r9
	xorq	%r8, %r9
	movq	%r14, %r8
	orq	%r11, %r8
	movq	%r9, 856(%rsp)
	movq	%r10, %r9
	xorq	%r8, %r13
	xorq	%r8, %r15
	orq	%rdi, %r13
	orq	%r15, %r9
	xorq	%rdx, %r13
	movq	%rdi, %rdx
	orq	%r12, %rdx
	orq	%rsi, %rdx
	orq	%r11, %rsi
	xorq	%r9, %rdx
	xorq	%r10, %rsi
	movq	296(%rsp), %r10
	orq	%rbx, %rdx
	xorq	%r13, %rdx
	movq	624(%rsp), %r13
	xorq	%rdx, %r13
	xorq	%rcx, %rax
	movq	%rdi, %rcx
	orq	%rsi, %rcx
	movq	%rax, %r11
	andq	336(%rsp), %r8
	xorq	%rcx, %r11
	movq	%rsi, %rcx
	movq	344(%rsp), %rax
	xorq	%rbp, %rcx
	orq	328(%rsp), %rbp
	xorq	632(%rsp), %rax
	xorq	%rcx, %rdx
	xorq	%r15, %r9
	movq	184(%rsp), %r15
	andq	%rdi, %rdx
	orq	%r14, %rsi
	xorq	520(%rsp), %r10
	movq	%r13, 368(%rsp)
	movq	-16(%rsp), %r13
	xorq	%rdx, %rbp
	movq	%r9, %rdx
	movq	%rax, %r9
	orq	%rbx, %rbp
	orq	%rdi, %rdx
	movq	%rsi, %rax
	xorq	%r11, %rbp
	movq	504(%rsp), %r11
	andq	%rdx, %r8
	orq	%r8, %rbx
	xorq	%rdx, %r9
	movq	312(%rsp), %rdx
	xorq	680(%rsp), %rdx
	xorq	%rbx, %r9
	movq	16(%rsp), %rbx
	xorq	%r11, %r15
	xorq	440(%rsp), %rbx
	xorq	%r9, %rax
	movq	%r15, %r8
	movq	-72(%rsp), %r15
	xorq	704(%rsp), %r15
	movq	%rax, 376(%rsp)
	movq	%rbp, 864(%rsp)
	movq	%rdx, %r14
	xorq	536(%rsp), %r13
	movq	%rbx, %rcx
	movq	%r15, %rdx
	movq	%r15, %rax
	andq	%r8, %rcx
	notq	%rdx
	orq	%rbx, %rax
	movq	%rcx, %rbp
	movq	%rdx, %rsi
	movq	%r8, %rdx
	xorq	%rax, %rbp
	andq	%rax, %rdx
	movq	%r15, %rax
	movq	%r14, %rcx
	movq	%rdx, %r9
	movq	%rbx, %rdx
	notq	%rdx
	movq	%rdx, %rbx
	movq	%r10, %rdx
	andq	%rbp, %rdx
	xorq	%r9, %rbx
	movq	%rdx, %r12
	movq	%r8, %rdx
	xorq	%r12, %rdx
	xorq	%rsi, %r9
	orq	%r10, %rax
	xorq	%rbx, %rax
	xorq	%rsi, %r8
	andq	%r9, %rbx
	orq	%r10, %r8
	andq	%rdx, %rcx
	movq	%rdx, %rdi
	movq	%rbx, %rdx
	andq	%r10, %r9
	xorq	%rax, %rcx
	xorq	%r8, %rdx
	xorq	%r9, %rbp
	xorq	%r15, %r8
	movq	%rdx, %r9
	movq	%r13, %rdx
	xorq	%r12, %r8
	orq	%r14, %r9
	andq	%r14, %r8
	andq	%r10, %rdi
	xorq	%r9, %rbp
	xorq	%r8, %rdi
	andq	%rbp, %rdx
	xorq	%rdi, %rbx
	orq	%r13, %rbp
	movq	%rdx, %r9
	movq	608(%rsp), %rdx
	xorq	%rcx, %r9
	notq	%rcx
	xorq	%r9, %rdx
	movq	%rdx, 352(%rsp)
	movq	888(%rsp), %rax
	movq	616(%rsp), %r12
	movq	-40(%rsp), %rdx
	xorq	%rcx, %rax
	xorq	%rbx, %rcx
	andq	%rcx, %r10
	orq	%r14, %rcx
	xorq	%rbp, %rax
	xorq	%r9, %r10
	movq	%rax, 608(%rsp)
	xorq	%rcx, %r10
	andq	%r10, %r13
	xorq	%r13, %rbx
	xorq	896(%rsp), %rbp
	movq	112(%rsp), %r13
	xorq	464(%rsp), %r13
	xorq	%rbx, %r12
	xorq	576(%rsp), %rdx
	movq	%r12, 360(%rsp)
	movq	40(%rsp), %r12
	xorq	536(%rsp), %r12
	xorq	%rbp, %r10
	xorq	%rbx, %r10
	movq	%r13, %r9
	movq	64(%rsp), %r13
	movq	%r10, 616(%rsp)
	movq	80(%rsp), %r10
	movq	%rdx, %rdi
	xorq	776(%rsp), %r10
	xorq	688(%rsp), %r13
	movq	%r12, %rcx
	notq	%rdx
	movq	%rdi, %rbx
	movq	%r10, %rsi
	movq	240(%rsp), %r10
	movq	%r13, %rbp
	movq	%rsi, %r12
	movq	%r13, %rax
	notq	%r12
	xorq	%r11, %r10
	orq	%r12, %rdx
	movq	%r10, %r8
	xorq	%rdx, %rbp
	andq	%r10, %rdx
	movq	%rdi, %r10
	orq	%r13, %r10
	movq	%rbp, %r13
	notq	%r13
	movq	%r10, %r11
	movq	%r10, 328(%rsp)
	andq	%r13, %rbx
	xorq	%rsi, %r11
	orq	%r10, %rsi
	movq	%r8, %r10
	movq	%r11, %r14
	orq	%r8, %rsi
	orq	%rbx, %r10
	xorq	%rsi, %r14
	xorq	%r10, %r11
	orq	%r9, %r11
	xorq	%rsi, %r11
	movq	%r11, %r15
	movq	592(%rsp), %r11
	movq	%r15, 592(%rsp)
	xorq	%rbp, %r11
	movq	%r11, %rsi
	movq	%r9, %r11
	andq	%r14, %r11
	xorq	%rdx, %rsi
	xorq	%r11, %rsi
	movq	%r15, %r11
	orq	%rcx, %r11
	xorq	%rsi, %r11
	movq	%r12, %rsi
	orq	%rbx, %rsi
	movq	%r11, 336(%rsp)
	movq	%rax, %r11
	xorq	%rsi, %r11
	movq	%r11, %r15
	movq	%r8, %r11
	xorq	%r14, %r11
	movq	%r15, 624(%rsp)
	xorq	%rsi, %rdi
	andq	%r8, %r15
	andq	%r11, %rsi
	orq	%r11, %rax
	orq	%r9, %rsi
	xorq	%r15, %rdi
	notq	%rax
	xorq	%rsi, %rdi
	movq	824(%rsp), %rsi
	orq	%rcx, %rax
	xorq	%rdi, %rax
	movq	%r9, %r15
	xorq	%r12, %rbx
	andq	%rbp, %r15
	andq	%r8, %rbx
	xorq	%rax, %rsi
	andq	%r15, %r11
	xorq	%r13, %rbx
	movq	%rsi, 824(%rsp)
	movq	%r12, %rsi
	movq	328(%rsp), %r12
	xorq	%rdx, %rsi
	xorq	592(%rsp), %r13
	andq	%r10, %rsi
	xorq	%rbp, %r10
	xorq	%rsi, %r11
	xorq	%rdx, %r12
	andq	%r9, %r10
	orq	%rcx, %r11
	andq	%rdi, %r10
	xorq	%rbx, %r11
	movq	%r12, %rbx
	movq	600(%rsp), %r12
	andq	%rax, %rbx
	orq	%r9, %rbx
	xorq	%rbx, %r11
	xorq	%r11, %r12
	andq	624(%rsp), %r11
	movq	%r12, 344(%rsp)
	xorq	%rdx, %r11
	xorq	%rax, %r13
	xorq	%r14, %rdi
	xorq	%r10, %r13
	movq	56(%rsp), %rdx
	orq	%rcx, %r13
	xorq	840(%rsp), %r13
	xorq	%r11, %r13
	orq	%rdi, %r11
	andq	%r9, %r11
	movq	%r11, %r10
	xorq	%r13, %r10
	movq	%r10, 840(%rsp)
	xorq	448(%rsp), %rdx
	movq	216(%rsp), %rcx
	xorq	792(%rsp), %rcx
	movq	280(%rsp), %r10
	xorq	880(%rsp), %r10
	movq	104(%rsp), %r11
	xorq	480(%rsp), %r11
	movq	%rdx, %rdi
	movq	224(%rsp), %rax
	xorq	464(%rsp), %rax
	movq	%rcx, %r8
	movq	-120(%rsp), %rcx
	xorq	576(%rsp), %rcx
	movq	%r10, %r14
	movq	%r8, %r13
	movq	%r11, %rdx
	movq	%r11, %rbp
	movq	%r11, %rbx
	notq	%rdx
	movq	%rcx, %rsi
	notq	%rsi
	movq	%rsi, %r10
	movq	%rdi, %rsi
	xorq	%rcx, %rsi
	movq	%r10, 592(%rsp)
	movq	%rsi, %r9
	movq	%rdi, %rsi
	xorq	%rax, %r9
	andq	%r11, %rsi
	xorq	%rdx, %r9
	orq	%rsi, %r10
	andq	%r9, %rbp
	movq	%r10, %r11
	movq	%rbp, %r12
	movq	%rbp, 600(%rsp)
	movq	%rdi, %rbp
	andq	%rax, %r12
	andq	%rcx, %rbp
	movq	%r12, %r10
	movq	%rbp, %r15
	movq	%rbx, %rbp
	xorq	%r11, %r10
	movq	544(%rsp), %r11
	xorq	%r15, %rbp
	movq	%rax, %r12
	andq	%r10, %r13
	xorq	%rdi, %r10
	andq	%rbp, %r12
	andq	%rax, %r10
	xorq	%r9, %r11
	xorq	%r12, %rdx
	xorq	%r13, %r11
	movq	%r8, %r13
	orq	%rdx, %r13
	xorq	%rcx, %r12
	xorq	%rdi, %rdx
	xorq	%r13, %r10
	andq	%rdx, %rax
	movq	%r14, %r13
	andq	%r14, %r10
	andq	%rbx, %rdx
	orq	%rax, %rbp
	xorq	%r11, %r10
	movq	%rsi, %r11
	xorq	592(%rsp), %rbp
	orq	%r12, %r11
	movq	%r10, 328(%rsp)
	notq	%r12
	andq	%r8, %r11
	xorq	%rax, %r11
	xorq	%rbx, %r11
	orq	%r11, %rdi
	xorq	808(%rsp), %r11
	andn	%r8, %rdi, %r10
	xorq	%r12, %r10
	andq	%r10, %r13
	xorq	%r11, %r13
	movq	%r9, %r11
	xorq	%rdx, %r11
	movq	%r13, 808(%rsp)
	movq	%r11, %r13
	movq	584(%rsp), %r11
	orq	%r8, %r13
	xorq	%rsi, %r11
	xorq	848(%rsp), %rsi
	xorq	%r13, %r11
	movq	%r15, %r13
	xorq	%rax, %r13
	xorq	%r10, %r11
	movq	88(%rsp), %r10
	xorq	%rdi, %r13
	orq	%r8, %r13
	xorq	%rbp, %r13
	orq	%r14, %r13
	xorq	%r11, %r13
	orq	%r9, %rdx
	andq	600(%rsp), %rdi
	movq	192(%rsp), %r11
	xorq	496(%rsp), %r11
	andq	%rbp, %r12
	movq	256(%rsp), %rbp
	xorq	720(%rsp), %rbp
	orq	%r14, %r12
	xorq	%rsi, %rdx
	xorq	432(%rsp), %r10
	movq	%r13, 544(%rsp)
	orq	%r8, %rdi
	xorq	%r12, %rdx
	movq	%rdi, %r8
	xorq	%rdx, %r8
	movq	%r11, %rdx
	movq	200(%rsp), %r11
	xorq	872(%rsp), %r11
	movq	%rbp, %r15
	movq	%r8, 848(%rsp)
	movq	208(%rsp), %rbp
	xorq	448(%rsp), %rbp
	movq	%rdx, %r8
	notq	%r8
	movq	%r10, %rdi
	movq	-56(%rsp), %r10
	movq	%r8, %rax
	xorq	480(%rsp), %r10
	movq	%r11, %r8
	movq	%r11, %r12
	andq	%rbp, %r8
	movq	%rbp, %r9
	movq	%r8, %rcx
	movq	%rbp, %r8
	notq	%r9
	xorq	%rdx, %rcx
	movq	%r15, %rdx
	movq	%r9, 584(%rsp)
	xorq	%rcx, %rdx
	andq	%r11, %rcx
	movq	%r10, %rsi
	xorq	%rcx, %r8
	movq	%rdx, %rbx
	movq	%r8, 592(%rsp)
	andq	%r15, %r8
	movq	%r8, %r9
	movq	%r8, 600(%rsp)
	xorq	%r10, %r9
	orq	%rdi, %r9
	xorq	%rdx, %r9
	movq	%r11, %rdx
	andq	%rax, %rdx
	movq	%rdx, %r8
	movq	%rbp, %rdx
	orq	%r8, %rdx
	movq	%rdx, %r14
	movq	%rax, %rdx
	movq	528(%rsp), %rax
	orq	%rbp, %rdx
	movq	%r14, %r11
	andq	%r15, %rdx
	xorq	%rdx, %r11
	movq	%r11, %r13
	movq	%rcx, %r11
	xorq	%r9, %r11
	orq	%rdi, %r11
	xorq	%r13, %r11
	andq	%r11, %rsi
	xorq	%r9, %rsi
	xorq	%rcx, %rbx
	orq	592(%rsp), %r15
	xorq	%rsi, %rax
	orq	%rbp, %rsi
	andq	%r12, %r14
	xorq	%rcx, %rsi
	movq	%rax, 528(%rsp)
	andq	%r12, %r13
	movq	%rsi, %rbp
	movq	%rdx, %rsi
	xorq	%rcx, %rdx
	xorq	%rbp, %rsi
	xorq	%r15, %r14
	orq	%rdi, %rdx
	movq	%rsi, %rax
	movq	%r8, %rsi
	movq	%rdi, %r8
	orq	%rbx, %rsi
	xorq	600(%rsp), %rdx
	movq	232(%rsp), %rcx
	orq	%rsi, %r8
	andq	%rdi, %rsi
	xorq	800(%rsp), %r8
	andq	%rbp, %rsi
	movq	584(%rsp), %rbp
	andq	%r11, %rbp
	xorq	%rax, %r8
	xorq	%rbp, %rsi
	movq	584(%rsp), %rbp
	orq	%r10, %rsi
	xorq	%r8, %rsi
	movq	%rbp, %r8
	orq	%rbp, %r13
	movq	%rsi, 800(%rsp)
	orq	%rdi, %r8
	andq	%rdi, %r13
	orq	%r8, %rax
	movq	%r10, %r8
	xorq	%r13, %r9
	xorq	%rax, %r14
	movq	288(%rsp), %r13
	orq	%r14, %r8
	xorq	%r8, %r9
	movq	560(%rsp), %r8
	xorq	%r9, %r8
	xorq	832(%rsp), %rdx
	xorq	%r12, %rbx
	andq	%rdi, %rbx
	xorq	768(%rsp), %rcx
	movq	%r8, 560(%rsp)
	andq	%rbx, %r9
	movq	96(%rsp), %r8
	xorq	496(%rsp), %r8
	xorq	488(%rsp), %r13
	xorq	%r14, %rdx
	xorq	%r11, %r14
	movq	-32(%rsp), %r11
	xorq	%r14, %r9
	movq	%rcx, %r12
	movq	72(%rsp), %rcx
	orq	%r10, %r9
	xorq	760(%rsp), %rcx
	xorq	416(%rsp), %r11
	movq	%r9, %rbp
	movq	%r12, 584(%rsp)
	notq	%r12
	xorq	%rdx, %rbp
	movq	-48(%rsp), %rdx
	xorq	432(%rsp), %rdx
	movq	%rbp, 832(%rsp)
	movq	%r12, %r14
	movq	%r12, %rdi
	movq	%rcx, %rsi
	movq	%r11, %r15
	movq	%r12, %rax
	movq	%rdx, %rbx
	movq	%r8, %rdx
	notq	%rdx
	movq	%rdx, %rbp
	movq	%rcx, %rdx
	xorq	%rbp, %rdx
	movq	%rdx, %rcx
	movq	%rsi, %rdx
	orq	%rbp, %rdx
	movq	%rcx, %r12
	xorq	%rdx, %r14
	movq	%r14, %r11
	movq	%r15, %r14
	orq	%r11, %rbp
	orq	%r11, %r14
	xorq	%rbp, %rdi
	movq	%r14, %r9
	movq	%rcx, %r14
	movq	%rdi, %r10
	movq	%r15, %rdi
	xorq	%r9, %r14
	andq	%r10, %rdi
	andq	%r10, %r12
	xorq	%r9, %r10
	movq	%rdi, 592(%rsp)
	movq	%r12, 600(%rsp)
	movq	%r15, %r12
	andq	%rbp, %r12
	xorq	600(%rsp), %r12
	xorq	%rbp, %rdi
	andq	%rbx, %rdi
	xorq	%r14, %rdi
	orq	%rbx, %r12
	xorq	%r12, %r10
	movq	552(%rsp), %r12
	xorq	%rdi, %r12
	andq	%r15, %rdx
	andn	%rbp, %rsi, %rsi
	orq	%r15, %rcx
	xorq	%rdx, %rsi
	movq	%r13, %rdx
	andq	%rcx, %rax
	orq	%rbx, %rsi
	movq	%r12, 552(%rsp)
	xorq	%rax, %rsi
	movq	%r13, %r12
	xorq	%rcx, %r11
	andq	%rsi, %rdx
	orq	%r10, %r12
	xorq	%r11, %r9
	xorq	%rdi, %rdx
	xorq	568(%rsp), %rdx
	movq	%r12, 600(%rsp)
	movq	552(%rsp), %r12
	xorq	600(%rsp), %r12
	orq	584(%rsp), %rdi
	movq	120(%rsp), %r11
	movq	%rdx, 568(%rsp)
	movq	%r8, %rdx
	andq	%r9, %rdx
	movq	%r12, 552(%rsp)
	xorq	784(%rsp), %r9
	movq	%rdx, %r12
	movq	%rax, %rdx
	andq	%rbx, %rdi
	xorq	%r8, %rdx
	xorq	816(%rsp), %r8
	xorq	%rbp, %r12
	andq	%r14, %rdx
	andn	%rbp, %r14, %rbp
	movq	(%rsp), %rax
	andq	%rbx, %rdx
	orq	%rbx, %rbp
	xorq	%r12, %rdx
	xorq	%r8, %rcx
	xorq	592(%rsp), %rcx
	orq	%r13, %rdx
	xorq	%rdx, %r9
	movq	%rdi, %rdx
	xorq	%r9, %rdx
	movq	%rdx, 784(%rsp)
	movq	136(%rsp), %rdx
	xorq	%rbp, %rcx
	xorq	%rsi, %r10
	xorq	840(%rsp), %rdx
	orq	%r12, %r10
	xorq	360(%rsp), %r11
	xorq	544(%rsp), %rax
	andq	%r13, %r10
	movq	184(%rsp), %r13
	xorq	640(%rsp), %r13
	movq	%r10, %r14
	xorq	%rcx, %r14
	movq	%rdx, %r9
	movq	%r14, 816(%rsp)
	movq	296(%rsp), %r14
	movq	%r9, %rdi
	movq	%r13, %r12
	movq	16(%rsp), %r13
	xorq	528(%rsp), %r13
	xorq	552(%rsp), %r14
	notq	%rdi
	movq	%r12, %rbx
	movq	%rdi, %rcx
	xorq	%r12, %r9
	movq	%rax, %rbp
	movq	%rbp, 592(%rsp)
	movq	%r13, %rdx
	movq	%r13, 600(%rsp)
	notq	%rdx
	movq	%r14, %r15
	movq	%r14, %rsi
	orq	%rdx, %rbx
	movq	%rdx, %rdi
	orq	%rcx, %rdx
	xorq	%r9, %rdi
	movq	%rbx, 584(%rsp)
	andq	%rcx, %rbx
	movq	%rdi, %r13
	orq	%rbx, %r15
	andq	%rdx, %rsi
	movq	%r15, %r10
	movq	%r13, %r15
	movq	%rbx, %rdi
	xorq	%r10, %r15
	movq	%r15, %r8
	movq	%r10, %r15
	xorq	%rsi, %r15
	movq	%r15, %rbx
	movq	%r15, 624(%rsp)
	orq	%r11, %rbx
	xorq	%r8, %rbx
	xorq	%rbx, %rdx
	andn	%r9, %rdx, %r9
	movq	%r9, %r15
	orq	%r11, %r15
	movq	%r15, %rax
	movq	%r14, %r15
	orq	%rdx, %r15
	movq	%r15, %r9
	movq	768(%rsp), %r15
	xorq	%rcx, %r9
	xorq	%rax, %r9
	xorq	%rbx, %r15
	orq	%r9, %rbp
	movq	%r15, %rax
	movq	%rbp, %r15
	movq	%rcx, %rbp
	xorq	%rax, %r15
	movq	%r15, 768(%rsp)
	movq	%r12, %r15
	movq	584(%rsp), %r10
	orq	%r13, %r15
	movq	%r15, %rax
	movq	%rdi, %r15
	notq	%rax
	orq	%r14, %rax
	andq	%rdx, %r10
	orq	%r8, %rcx
	xorq	%r8, %r10
	andq	%r8, %rbp
	xorq	%rdi, %rcx
	movq	%r11, %rdi
	xorq	%rax, %r15
	orq	%r11, %rbp
	andq	%r10, %rdi
	xorq	%r15, %rbp
	xorq	512(%rsp), %rbp
	xorq	%rdi, %rcx
	movq	592(%rsp), %rdi
	andq	%r12, %r10
	orq	%r12, %r15
	xorq	%r10, %rax
	xorq	%rdx, %r15
	orq	%r11, %rax
	movq	-16(%rsp), %rdx
	orq	%rdi, %rcx
	xorq	%rbp, %rcx
	movq	%rsi, %rbp
	movq	%r13, %rsi
	movq	%rcx, 512(%rsp)
	movq	600(%rsp), %rcx
	andq	%r12, %rbp
	xorq	624(%rsp), %r12
	orq	%rbp, %rsi
	xorq	536(%rsp), %rsi
	andq	584(%rsp), %r12
	orq	%r8, %rcx
	xorq	%rcx, %r9
	movq	24(%rsp), %rcx
	orq	%r11, %r9
	xorq	%rsi, %rax
	xorq	%r9, %r15
	orq	%r11, %r12
	movq	792(%rsp), %r9
	andq	%rdi, %r15
	movq	%r15, %rsi
	xorq	%rax, %rsi
	xorq	%r8, %r12
	andq	%rbx, %r11
	xorq	%r12, %r10
	orq	%r14, %r13
	movq	304(%rsp), %r8
	xorq	%r10, %r9
	xorq	%rbp, %r13
	andq	%r11, %r10
	xorq	544(%rsp), %r8
	xorq	%r10, %r13
	xorq	856(%rsp), %rcx
	andq	%rdi, %r13
	movq	-80(%rsp), %r12
	xorq	344(%rsp), %r12
	movq	%r13, %rbp
	movq	-96(%rsp), %r13
	xorq	400(%rsp), %r13
	xorq	552(%rsp), %rdx
	movq	%rsi, 536(%rsp)
	xorq	%r9, %rbp
	movq	%r8, %r15
	movq	%rcx, %r10
	movq	%r8, %rsi
	notq	%r15
	movq	%r12, %rax
	movq	-104(%rsp), %r12
	movq	%r15, %rcx
	movq	%r13, %r15
	xorq	800(%rsp), %r12
	xorq	%rax, %r15
	movq	%rcx, %rbx
	movq	%rcx, %rdi
	xorq	%r15, %rbx
	movq	%r15, %r11
	movq	%rax, %r15
	notq	%r15
	movq	%rbx, %r9
	movq	%rbx, 584(%rsp)
	movq	%r15, %r8
	movq	%rdx, %r15
	xorq	%rdx, %r9
	orq	%r13, %r8
	movq	%r9, %rbx
	movq	%rbp, 792(%rsp)
	orq	%r8, %rdi
	xorq	%rax, %r8
	movq	%rdx, %rbp
	andq	%rdx, %rdi
	movq	%rbx, 592(%rsp)
	movq	%r12, %r14
	xorq	%r13, %rdi
	andq	%rdi, %r15
	andq	%r10, %rdi
	movq	%r15, %r9
	movq	%r10, %r15
	xorq	%rbx, %rdi
	orq	%r8, %r15
	movq	%r13, %rbx
	movq	%r15, %rdx
	movq	%r12, %r15
	xorq	%r9, %rdx
	movq	496(%rsp), %r9
	andq	%rdx, %r15
	xorq	%r15, %rdi
	movq	%rbp, %r15
	xorq	%rdi, %r9
	movq	%r9, 496(%rsp)
	movq	%rax, %r9
	orq	%rsi, %r9
	orq	%rcx, %rbx
	xorq	%r8, %r15
	movq	%r9, 600(%rsp)
	orq	%r13, %r9
	andq	%rcx, %rax
	xorq	%r9, %r15
	movq	%r9, %r12
	movq	%rbx, %r9
	movq	%rbp, %rbx
	xorq	%r12, %rcx
	orq	584(%rsp), %r13
	orq	%rax, %rbx
	xorq	%r11, %rax
	movq	%r9, %r11
	andq	%rbp, %rcx
	xorq	%rbx, %r11
	movq	%r12, 624(%rsp)
	xorq	%rcx, %rax
	movq	%r11, %r12
	movq	%r10, %r11
	andq	%rax, %r11
	andq	%rdi, %r13
	orq	%rsi, %rdx
	xorq	%r11, %r12
	movq	752(%rsp), %r11
	orq	%r10, %r13
	orq	%r14, %r12
	movq	%r13, %rdi
	xorq	%r8, %rdx
	movq	%rdx, %rsi
	movq	%r10, %rdx
	andq	%rbp, %rax
	xorq	%r15, %r11
	orq	%rsi, %rdx
	xorq	%r12, %r11
	xorq	%r11, %rdi
	movq	%rdi, 752(%rsp)
	movq	%rcx, %rdi
	movq	592(%rsp), %rcx
	xorq	520(%rsp), %rcx
	andq	%r15, %rdi
	movq	160(%rsp), %rbp
	movq	-112(%rsp), %r12
	movq	-88(%rsp), %r13
	xorq	%rdi, %rcx
	movq	%rdx, %rdi
	movq	%rsi, %rdx
	orq	%rbx, %rdx
	xorq	%rcx, %rdi
	andq	%r14, %rdx
	xorq	%rdi, %rdx
	xorq	%r15, %rax
	andq	624(%rsp), %r15
	xorq	776(%rsp), %r9
	movq	%rdx, 520(%rsp)
	andq	%rax, %r10
	movq	-64(%rsp), %rdx
	xorq	392(%rsp), %rdx
	xorq	560(%rsp), %rbp
	xorq	400(%rsp), %r12
	andq	600(%rsp), %rbx
	movq	-24(%rsp), %rdi
	xorq	%r15, %r9
	xorq	848(%rsp), %rdi
	xorq	344(%rsp), %r13
	movq	%rdx, %r15
	movq	-8(%rsp), %rdx
	xorq	616(%rsp), %rdx
	movq	%r15, %r8
	movq	%rbp, %r11
	xorq	%r10, %r9
	notq	%r8
	andq	%rax, %rbx
	movq	%r11, %rcx
	orq	%r14, %rbx
	notq	%rcx
	movq	%rdx, %rbp
	movq	%r12, %rdx
	movq	%r8, %r12
	movq	%r11, %r8
	xorq	%r9, %rbx
	andq	%rbp, %r8
	movq	%rbx, 776(%rsp)
	movq	%r8, %r14
	movq	%rdi, %r8
	xorq	%r15, %r14
	andq	%rcx, %r8
	andq	%rbp, %rcx
	movq	%r14, %rbx
	movq	%r8, %r10
	xorq	%r8, %rbx
	movq	%r11, %r8
	xorq	%r12, %r8
	movq	%rbx, 592(%rsp)
	movq	%rbx, %r9
	movq	%r8, %rbx
	movq	%rdi, %r8
	xorq	%rdx, %r9
	orq	%rbx, %r8
	movq	%r9, %rsi
	movq	%r8, %rax
	xorq	%rcx, %rax
	andq	%rax, %rsi
	movq	%rsi, 584(%rsp)
	movq	%r11, %rsi
	xorq	%rax, %rsi
	movq	%rsi, 600(%rsp)
	movq	%rsi, %r8
	movq	584(%rsp), %rsi
	orq	%r9, %r8
	xorq	736(%rsp), %r9
	andq	%rdi, %r8
	xorq	%r8, %rsi
	andq	%rdx, %rsi
	xorq	%rax, %rsi
	xorq	%rbp, %r8
	andq	%r15, %rax
	andq	%r13, %rsi
	movq	%rsi, %r11
	movq	%rdi, %rsi
	xorq	%r9, %r11
	xorq	%rbp, %rsi
	movq	%r11, 736(%rsp)
	movq	%r12, %r11
	xorq	%rbx, %rsi
	orq	%r14, %r11
	xorq	%rbp, %rbx
	movq	%r11, %r9
	movq	%r15, %r11
	movq	%rdx, %r15
	xorq	%r9, %rcx
	xorq	%r9, %r11
	orq	%rdx, %rcx
	movq	%r11, 624(%rsp)
	orq	%rdi, %r11
	xorq	%rcx, %rsi
	movq	%rdx, %rcx
	orq	%r10, %rcx
	orq	%rbx, %r10
	xorq	760(%rsp), %r10
	orq	%r8, %rcx
	orq	%r14, %r8
	xorq	%rdi, %r8
	xorq	%r11, %rcx
	orq	%r8, %r15
	orq	%r13, %rcx
	xorq	%rsi, %rcx
	xorq	%r15, %r10
	movq	480(%rsp), %rsi
	movq	%r8, %r15
	xorq	%rax, %r15
	orq	592(%rsp), %rax
	xorq	%rcx, %rsi
	xorq	%r15, %rcx
	andq	%rdx, %rcx
	movq	%rsi, 480(%rsp)
	xorq	%rcx, %rax
	orq	%r13, %rax
	xorq	%r10, %rax
	xorq	624(%rsp), %r11
	orq	%r12, %r8
	movq	%rax, 760(%rsp)
	andq	584(%rsp), %r9
	movq	600(%rsp), %rbp
	xorq	504(%rsp), %rbp
	movq	8(%rsp), %r14
	xorq	824(%rsp), %r14
	orq	%rdx, %r11
	movq	272(%rsp), %rdx
	xorq	376(%rsp), %rdx
	andq	%r11, %r9
	orq	%r13, %r9
	xorq	%rbp, %r11
	movq	%r8, %rbp
	xorq	%r9, %r11
	movq	152(%rsp), %r8
	xorq	560(%rsp), %r8
	xorq	%r11, %rbp
	movq	408(%rsp), %r11
	movq	%r14, %rbx
	movq	%rbp, 504(%rsp)
	movq	32(%rsp), %rbp
	notq	%rbx
	movq	%rdx, %r10
	movq	%rbx, %rdx
	movq	%r14, %rbx
	orq	%r8, %rbx
	movq	%r10, %rcx
	movq	%r8, %rsi
	xorq	%r11, %rbp
	andq	%rbx, %rcx
	movq	%rbx, %rdi
	movq	%rbp, %r13
	movq	320(%rsp), %rbp
	xorq	784(%rsp), %rbp
	movq	%r8, %rbx
	movq	%r10, %r9
	notq	%rsi
	andq	%r10, %rbx
	xorq	%rcx, %rsi
	xorq	%rdx, %rcx
	xorq	%rdi, %rbx
	xorq	%r10, %rdx
	movq	%rbp, %r15
	movq	168(%rsp), %rbp
	xorq	392(%rsp), %rbp
	movq	%rbp, %r8
	orq	%rbp, %rdx
	andq	%rbx, %r8
	xorq	%r8, %r9
	movq	%r8, %r12
	movq	%r14, %r8
	orq	%rbp, %r8
	movq	%r8, %rdi
	movq	%r15, %r8
	andq	%r9, %r8
	xorq	%rsi, %rdi
	andq	%rcx, %rsi
	movq	%r8, %rax
	movq	720(%rsp), %r8
	xorq	%rdi, %rax
	andq	%rbp, %rcx
	andq	%rbp, %r9
	xorq	%rcx, %rbx
	movq	%rsi, %rcx
	movq	464(%rsp), %rdi
	xorq	%rdx, %rcx
	xorq	%r14, %rdx
	orq	%r15, %rcx
	xorq	%r12, %rdx
	xorq	%rcx, %rbx
	movq	%r13, %rcx
	andq	%r15, %rdx
	andq	%rbx, %rcx
	xorq	%rdx, %r9
	orq	%r13, %rbx
	xorq	%rax, %rcx
	notq	%rax
	xorq	%r9, %rsi
	xorq	%rax, %r8
	xorq	%rsi, %rax
	movq	-32(%rsp), %r9
	xorq	%rbx, %r8
	xorq	744(%rsp), %rbx
	andq	%rax, %rbp
	xorq	568(%rsp), %r9
	orq	%r15, %rax
	xorq	%rcx, %rbp
	xorq	%rax, %rbp
	movq	488(%rsp), %rax
	xorq	%rcx, %rdi
	andq	%rbp, %r13
	movq	%rdi, 464(%rsp)
	movq	208(%rsp), %rcx
	xorq	%rbx, %rbp
	xorq	%r13, %rsi
	xorq	352(%rsp), %rcx
	movq	%rbp, %r15
	movq	%r9, %rdi
	xorq	%rsi, %rax
	xorq	%rsi, %r15
	movq	104(%rsp), %r9
	xorq	648(%rsp), %r9
	movq	%rax, 488(%rsp)
	movq	%r15, 744(%rsp)
	movq	%rdi, %r15
	movq	256(%rsp), %rbx
	movq	%r8, 720(%rsp)
	movq	%rcx, %r10
	xorq	808(%rsp), %rbx
	movq	248(%rsp), %r8
	movq	%r9, %rsi
	notq	%r9
	movq	%r9, %r12
	movq	%rdi, %r9
	xorq	%r11, %r8
	notq	%r9
	movq	%r8, %rcx
	movq	264(%rsp), %r8
	xorq	376(%rsp), %r8
	orq	%rbx, %r15
	movq	%r9, %rdx
	movq	%rbx, %r9
	orq	%r12, %rdx
	movq	%r15, %r11
	movq	%rbx, %rax
	xorq	%rdx, %r9
	xorq	%rsi, %r11
	movq	%rdi, %rbx
	orq	%r8, %rsi
	movq	%r9, %rbp
	movq	%r11, %r9
	orq	%r15, %rsi
	andq	%r8, %rdx
	movq	%r15, 584(%rsp)
	xorq	%rsi, %r9
	movq	%r9, %r14
	movq	%rbp, %r9
	notq	%r9
	andq	%r9, %rbx
	movq	%r9, %r13
	movq	%r8, %r9
	orq	%rbx, %r9
	xorq	%r9, %r11
	orq	%r10, %r11
	xorq	%rsi, %r11
	movq	%rbp, %rsi
	xorq	%rdx, %rsi
	movq	%r11, %r15
	movq	%rsi, %r11
	xorq	448(%rsp), %r11
	movq	%r10, %rsi
	andq	%r14, %rsi
	movq	%r15, 592(%rsp)
	xorq	%rsi, %r11
	movq	%r15, %rsi
	orq	%rcx, %rsi
	xorq	%r11, %rsi
	movq	%rax, %r11
	movq	%rsi, 448(%rsp)
	movq	%r12, %rsi
	orq	%rbx, %rsi
	xorq	%rsi, %r11
	xorq	%rsi, %rdi
	movq	%r11, %r15
	movq	%r8, %r11
	xorq	%r14, %r11
	movq	%r15, 600(%rsp)
	andq	%r8, %r15
	andq	%r11, %rsi
	xorq	%r15, %rdi
	orq	%r11, %rax
	orq	%r10, %rsi
	notq	%rax
	movq	%r10, %r15
	xorq	%rsi, %rdi
	movq	704(%rsp), %rsi
	orq	%rcx, %rax
	xorq	%rdi, %rax
	andq	%rbp, %r15
	xorq	%r12, %rbx
	andq	%r15, %r11
	movq	584(%rsp), %r15
	andq	%r8, %rbx
	xorq	%rax, %rsi
	xorq	%r13, %rbx
	xorq	592(%rsp), %r13
	movq	%rsi, 704(%rsp)
	movq	%r12, %rsi
	xorq	%rdx, %rsi
	xorq	%rdx, %r15
	andq	%r9, %rsi
	xorq	%rbp, %r9
	movq	128(%rsp), %rbp
	xorq	%rsi, %r11
	andq	%r10, %r9
	xorq	%rax, %r13
	orq	%rcx, %r11
	andq	%rdi, %r9
	xorq	%r14, %rdi
	xorq	%rbx, %r11
	movq	%r15, %rbx
	xorq	%r9, %r13
	andq	%rax, %rbx
	orq	%rcx, %r13
	xorq	728(%rsp), %r13
	orq	%r10, %rbx
	movq	72(%rsp), %rcx
	movq	-48(%rsp), %r15
	xorq	%rbx, %r11
	movq	472(%rsp), %rbx
	xorq	%r11, %rbx
	andq	600(%rsp), %r11
	movq	%rbx, 472(%rsp)
	xorq	%rdx, %r11
	xorq	%r11, %r13
	orq	%rdi, %r11
	andq	%r10, %r11
	movq	88(%rsp), %r10
	movq	%r11, %r9
	xorq	%r13, %r9
	xorq	336(%rsp), %rcx
	xorq	368(%rsp), %rbp
	movq	%r9, 728(%rsp)
	movq	112(%rsp), %r9
	xorq	664(%rsp), %r9
	xorq	568(%rsp), %r15
	xorq	832(%rsp), %r10
	movq	%rcx, %r13
	movq	%rbp, %r11
	movq	%rbp, %rdi
	movq	%r9, %r14
	movq	288(%rsp), %r9
	xorq	352(%rsp), %r9
	movq	%r15, %rsi
	notq	%r15
	movq	%r10, %r8
	movq	%r15, 584(%rsp)
	movq	%r14, %r10
	movq	%r9, %rax
	movq	%rbp, %r9
	xorq	%rax, %r13
	notq	%r9
	movq	%rax, %r12
	xorq	%rsi, %r13
	movq	%r9, %rdx
	xorq	%r9, %r13
	movq	%rcx, %r9
	andq	%r13, %r11
	andq	%rbp, %r9
	movq	%r9, %rbx
	movq	%r15, %r9
	movq	%r11, %r15
	andq	%rax, %r15
	orq	%rbx, %r9
	movq	%r11, 592(%rsp)
	xorq	%r15, %r9
	movq	432(%rsp), %r11
	movq	%rcx, %r15
	andq	%rsi, %r15
	andq	%r9, %r10
	xorq	%rcx, %r9
	xorq	%r15, %rdi
	andq	%rax, %r9
	andq	%rdi, %r12
	xorq	%r13, %r11
	xorq	%r12, %rdx
	xorq	%r10, %r11
	movq	%r14, %r10
	orq	%rdx, %r10
	xorq	%rsi, %r12
	xorq	%rcx, %rdx
	xorq	%r10, %r9
	andq	%rdx, %rax
	movq	%r8, %rsi
	andq	%r8, %r9
	xorq	%r11, %r9
	movq	%r9, 432(%rsp)
	movq	%rbx, %r9
	orq	%r12, %r9
	notq	%r12
	movq	%r9, %r10
	andq	%r14, %r10
	xorq	%rax, %r10
	andq	%rbp, %rdx
	orq	%rax, %rdi
	xorq	%rbp, %r10
	xorq	584(%rsp), %rdi
	orq	%r10, %rcx
	xorq	688(%rsp), %r10
	andn	%r14, %rcx, %r9
	xorq	%r12, %r9
	andq	%r9, %rsi
	andq	%rdi, %r12
	xorq	%r10, %rsi
	movq	456(%rsp), %r10
	orq	%r8, %r12
	movq	%rsi, 688(%rsp)
	movq	%r13, %rsi
	xorq	%rdx, %rsi
	orq	%r13, %rdx
	orq	%r14, %rsi
	xorq	%rbx, %r10
	xorq	712(%rsp), %rbx
	xorq	%rsi, %r10
	xorq	%r9, %r10
	movq	%r15, %r9
	xorq	%rax, %r9
	xorq	%rcx, %r9
	andq	592(%rsp), %rcx
	xorq	%rbx, %rdx
	orq	%r14, %r9
	xorq	%r12, %rdx
	xorq	%rdi, %r9
	orq	%r8, %r9
	orq	%r14, %rcx
	movq	%r9, %r15
	movq	224(%rsp), %r14
	xorq	%r10, %r15
	xorq	%rdx, %rcx
	movq	-40(%rsp), %r10
	movq	%r15, 456(%rsp)
	xorq	328(%rsp), %r10
	movq	%rcx, 712(%rsp)
	movq	232(%rsp), %r15
	movq	280(%rsp), %rcx
	xorq	384(%rsp), %r15
	xorq	336(%rsp), %rcx
	xorq	816(%rsp), %r14
	movq	240(%rsp), %r9
	xorq	608(%rsp), %r9
	movq	%r15, %rdx
	movq	%rcx, %rdi
	movq	96(%rsp), %rcx
	xorq	368(%rsp), %rcx
	movq	%r14, %r13
	movq	%r9, %r15
	movq	%rdx, %r9
	notq	%r9
	movq	%rdi, %r14
	movq	%rdi, %rsi
	movq	%r9, %rax
	movq	%r15, %r9
	notq	%r14
	movq	%rcx, %r11
	movq	%r13, %rcx
	movq	%r14, 584(%rsp)
	andq	%rdi, %rcx
	xorq	%rdx, %rcx
	xorq	%rcx, %r9
	andq	%r13, %rcx
	xorq	%rcx, %rsi
	movq	%r9, %r12
	movq	%rcx, %rbx
	movq	%rsi, %r14
	movq	%rsi, 592(%rsp)
	xorq	%rcx, %r12
	andq	%r15, %r14
	movq	%r14, %r8
	movq	%r14, 600(%rsp)
	xorq	%r11, %r8
	orq	%r10, %r8
	xorq	%r9, %r8
	movq	%r13, %r9
	andq	%rax, %r9
	xorq	%r8, %rbx
	movq	%r9, %rbp
	movq	%rdi, %r9
	orq	%r10, %rbx
	orq	%rbp, %r9
	orq	%r12, %rbp
	movq	%r9, %r14
	movq	%rax, %r9
	movq	%r11, %rax
	orq	%rdi, %r9
	movq	%r9, %rdx
	movq	%r14, %r9
	andq	%r15, %rdx
	xorq	%rdx, %r9
	xorq	%r9, %rbx
	andq	%rbx, %rax
	movq	%rax, %rsi
	movq	416(%rsp), %rax
	xorq	%r8, %rsi
	xorq	%rsi, %rax
	orq	%rdi, %rsi
	movq	%rax, 416(%rsp)
	movq	%rsi, %rax
	movq	%rbp, %rsi
	movq	%r10, %rbp
	xorq	%rcx, %rax
	orq	%rsi, %rbp
	xorq	696(%rsp), %rbp
	movq	%rax, %rdi
	movq	%rdx, %rax
	xorq	%rdi, %rax
	xorq	%rax, %rbp
	andq	%r10, %rsi
	orq	592(%rsp), %r15
	andq	%rdi, %rsi
	movq	584(%rsp), %rdi
	andq	%r13, %r14
	andq	%r13, %r9
	xorq	%rcx, %rdx
	xorq	%r13, %r12
	orq	%r10, %rdx
	andq	%r10, %r12
	andq	%rbx, %rdi
	xorq	%r15, %r14
	xorq	%rdi, %rsi
	orq	%r11, %rsi
	movq	%rsi, %rdi
	xorq	%rbp, %rdi
	movq	%rdi, 672(%rsp)
	movq	584(%rsp), %rdi
	movq	%rdi, %r15
	orq	%rdi, %r9
	movq	440(%rsp), %rdi
	orq	%r10, %r15
	andq	%r10, %r9
	orq	%r15, %rax
	xorq	%r9, %r8
	movq	%r11, %r9
	xorq	%rax, %r14
	orq	%r14, %r9
	xorq	%r9, %r8
	xorq	%r8, %rdi
	andq	%r12, %r8
	movq	%rdi, 440(%rsp)
	xorq	600(%rsp), %rdx
	xorq	880(%rsp), %rdx
	movq	80(%rsp), %rcx
	movq	56(%rsp), %r10
	movq	-56(%rsp), %rax
	xorq	%r14, %rdx
	xorq	%rbx, %r14
	movq	40(%rsp), %rbx
	xorq	%r14, %r8
	orq	%r11, %r8
	movq	%r8, %r11
	xorq	%rdx, %r11
	movq	%r11, 696(%rsp)
	movq	192(%rsp), %r11
	xorq	360(%rsp), %r11
	xorq	528(%rsp), %rcx
	xorq	384(%rsp), %r10
	xorq	864(%rsp), %rbx
	xorq	328(%rsp), %rax
	movq	%rcx, %rbp
	movq	48(%rsp), %rcx
	xorq	656(%rsp), %rcx
	movq	%r10, %r8
	movq	%rbx, %r9
	movq	%r10, %r13
	notq	%r8
	movq	%rbp, %r15
	movq	%rax, %rsi
	movq	%r8, %rdi
	movq	%rbx, %r8
	movq	%rcx, 584(%rsp)
	orq	%rdi, %r9
	notq	%rcx
	movq	%r9, %rdx
	movq	%rcx, %r9
	xorq	%rdi, %r8
	xorq	%rdx, %r9
	movq	%rcx, %rax
	andq	%rbp, %rdx
	movq	%r9, %r10
	movq	%rbp, %r9
	orq	%r10, %r9
	orq	%r10, %rdi
	movq	%r9, %r14
	movq	%r8, %r9
	andn	%rdi, %rbx, %rbx
	xorq	%r14, %r9
	xorq	%rdx, %rbx
	movq	%r11, %rdx
	movq	%r9, %r12
	movq	%rcx, %r9
	orq	%rsi, %rbx
	xorq	%rdi, %r9
	movq	%r12, 592(%rsp)
	andq	%r9, %r15
	movq	%r15, 600(%rsp)
	xorq	%rdi, %r15
	movq	%r15, %rcx
	andq	%rsi, %rcx
	xorq	%r12, %rcx
	movq	%r8, %r12
	orq	%rbp, %r8
	andq	%r9, %r12
	xorq	%r14, %r9
	andq	%r8, %rax
	movq	%r12, %r15
	movq	%rbp, %r12
	movq	%r13, %rbp
	andq	%rdi, %r12
	xorq	%r15, %r12
	movq	%r11, %r15
	orq	%rsi, %r12
	xorq	%r12, %r9
	movq	424(%rsp), %r12
	orq	%r9, %r15
	xorq	%rcx, %r12
	xorq	%r12, %r15
	xorq	%rax, %rbx
	xorq	%r8, %r10
	xorq	%r10, %r14
	andq	%rbx, %rdx
	movq	%r15, %r12
	andq	%r14, %rbp
	xorq	%rcx, %rdx
	xorq	576(%rsp), %rdx
	movq	%rbp, %r15
	movq	%rax, %rbp
	movq	592(%rsp), %rax
	xorq	%r13, %rbp
	xorq	872(%rsp), %r13
	orq	584(%rsp), %rcx
	xorq	%rdi, %r15
	xorq	680(%rsp), %r14
	xorq	%rbx, %r9
	movq	%rdx, 424(%rsp)
	movq	%rbp, %rdx
	orq	%r15, %r9
	andq	%rax, %rdx
	andq	%r11, %r9
	andn	%rdi, %rax, %rdi
	andq	%rsi, %rdx
	xorq	%r13, %r8
	xorq	600(%rsp), %r8
	xorq	%r15, %rdx
	andq	%rsi, %rcx
	orq	%rsi, %rdi
	orq	%r11, %rdx
	movq	168(%rsp), %r11
	movq	%rcx, %rbp
	xorq	%rdx, %r14
	movq	%r9, %rbx
	movq	%r12, 584(%rsp)
	xorq	%rdi, %r8
	xorq	%r14, %rbp
	movq	304(%rsp), %rcx
	xorq	%r8, %rbx
	xorq	%r12, %r11
	xorq	456(%rsp), %rcx
	movq	%r11, %r14
	movq	%rbp, 592(%rsp)
	movq	%rbx, 680(%rsp)
	movq	160(%rsp), %rbx
	movq	272(%rsp), %r11
	movq	%r14, %r9
	xorq	728(%rsp), %rbx
	xorq	752(%rsp), %r11
	movq	-112(%rsp), %rbp
	movq	152(%rsp), %rdi
	xorq	488(%rsp), %rbp
	xorq	416(%rsp), %rdi
	movq	%rcx, 576(%rsp)
	movq	%rbx, %r8
	movq	%rbx, %r10
	movq	%r11, %r12
	notq	%r8
	xorq	%r11, %r10
	movq	%rdi, %r15
	movq	%r8, %rdx
	movq	%rdi, 600(%rsp)
	notq	%r15
	orq	%r15, %r11
	movq	%r15, %rsi
	movq	%r15, %r8
	movq	%r11, %r15
	andq	%rdx, %r11
	xorq	%r10, %r8
	orq	%r11, %r9
	orq	%rdx, %rsi
	movq	%r11, %r13
	movq	%r9, %rbx
	movq	%r8, %r9
	movq	%r15, 624(%rsp)
	xorq	%rbx, %r9
	movq	%r9, %rdi
	movq	%r14, %r9
	andq	%rsi, %r9
	xorq	%r9, %rbx
	movq	%rbx, 632(%rsp)
	orq	%rbp, %rbx
	movq	%rbx, %r11
	xorq	%rdi, %r11
	xorq	%r11, %rsi
	andn	%r10, %rsi, %r10
	orq	%rbp, %r10
	movq	%r10, %rax
	movq	%r14, %r10
	orq	%rsi, %r10
	xorq	%rdx, %r10
	xorq	%rax, %r10
	movq	656(%rsp), %rax
	orq	%r10, %rcx
	movq	%rcx, %rbx
	xorq	%r11, %rax
	xorq	%rax, %rbx
	movq	%r12, %rax
	orq	%r8, %rax
	movq	%rbx, 656(%rsp)
	movq	%r13, %rbx
	notq	%rax
	orq	%r14, %rax
	xorq	%rax, %rbx
	movq	%rbx, %rcx
	movq	%r15, %rbx
	movq	%rdx, %r15
	andq	%rdi, %r15
	andq	%rsi, %rbx
	orq	%rdi, %rdx
	orq	%rbp, %r15
	xorq	%rdi, %rbx
	xorq	%rcx, %r15
	xorq	400(%rsp), %r15
	xorq	%r13, %rdx
	movq	%rbp, %r13
	andq	%r12, %r9
	orq	%r12, %rcx
	andq	%rbx, %r13
	andq	%r12, %rbx
	xorq	632(%rsp), %r12
	xorq	%r13, %rdx
	orq	576(%rsp), %rdx
	andq	624(%rsp), %r12
	xorq	%rbx, %rax
	xorq	%rsi, %rcx
	orq	%rbp, %rax
	movq	%rdx, %r13
	orq	%rbp, %r12
	movq	664(%rsp), %rdx
	xorq	%r15, %r13
	movq	600(%rsp), %r15
	xorq	%rdi, %r12
	movq	%r13, 400(%rsp)
	movq	%rax, %r13
	movq	%r8, %rax
	xorq	%r12, %rbx
	orq	%r14, %r8
	orq	%r9, %rax
	orq	%rdi, %r15
	xorq	408(%rsp), %rax
	xorq	%rbx, %rdx
	xorq	%r15, %r10
	movq	576(%rsp), %r15
	xorq	%r8, %r9
	orq	%rbp, %r10
	andq	%r11, %rbp
	movq	120(%rsp), %r12
	andq	%rbp, %rbx
	xorq	%r10, %rcx
	movq	-64(%rsp), %rbp
	xorq	%rbx, %r9
	andq	%r15, %rcx
	xorq	%rax, %r13
	andq	%r15, %r9
	movq	%rcx, %rax
	movq	%r9, %r8
	xorq	%r13, %rax
	xorq	%rdx, %r8
	movq	%rax, 408(%rsp)
	xorq	672(%rsp), %rbp
	movq	%r8, 664(%rsp)
	movq	-88(%rsp), %rdx
	movq	-8(%rsp), %r8
	xorq	472(%rsp), %rdx
	xorq	512(%rsp), %r8
	xorq	736(%rsp), %r12
	movq	296(%rsp), %rdi
	xorq	456(%rsp), %rdi
	movq	%rbp, %r11
	movq	32(%rsp), %rbx
	xorq	584(%rsp), %rbx
	movq	%rdx, %r9
	movq	%rdx, %rax
	movq	384(%rsp), %r15
	movq	%r12, %rsi
	notq	%r9
	movq	%r8, %r14
	movq	%rdi, %r10
	orq	%r8, %r9
	notq	%r10
	movq	%r10, %rcx
	movq	%r8, %r10
	xorq	%rdx, %r10
	movq	%rcx, %rdx
	movq	%r10, %r12
	movq	%rcx, %r10
	orq	%r9, %rdx
	xorq	%r12, %r10
	xorq	%rax, %r9
	movq	%r10, 576(%rsp)
	xorq	%rbx, %r10
	movq	%r10, %r13
	movq	%rdx, %r10
	movq	%rsi, %rdx
	andq	%rbx, %r10
	orq	%r9, %rdx
	movq	%r13, 600(%rsp)
	xorq	%r8, %r10
	movq	%rbx, %r8
	andq	%r10, %r8
	andq	%rsi, %r10
	xorq	%r8, %rdx
	movq	%rax, %r8
	xorq	%r13, %r10
	orq	%rdi, %r8
	movq	%rbp, %r13
	andq	%rcx, %rax
	andq	%rdx, %r13
	movq	%r8, 624(%rsp)
	orq	%r14, %r8
	xorq	%r13, %r10
	movq	%r8, %r13
	xorq	%rbx, %r13
	xorq	%r10, %r15
	movq	%r13, %rbp
	movq	%r14, %r13
	movq	%r15, 384(%rsp)
	orq	%rcx, %r13
	movq	%r8, %r15
	xorq	%r9, %rbp
	movq	%r13, %r8
	xorq	%r15, %rcx
	movq	%rbx, %r13
	andq	%rbx, %rcx
	orq	%rax, %r13
	xorq	%r12, %rax
	movq	%r15, 632(%rsp)
	xorq	%rcx, %rax
	movq	%r8, %r15
	movq	%rsi, %r12
	orq	576(%rsp), %r14
	xorq	%r13, %r15
	andq	%rax, %r12
	orq	%rdi, %rdx
	andq	%rbx, %rax
	xorq	%r12, %r15
	movq	640(%rsp), %r12
	xorq	%r9, %rdx
	orq	%r11, %r15
	xorq	%rbp, %rax
	xorq	648(%rsp), %r8
	andq	%r10, %r14
	movq	%rcx, %r10
	movq	16(%rsp), %r9
	xorq	%rbp, %r12
	orq	%rsi, %r14
	andq	%rbp, %r10
	xorq	%r15, %r12
	andq	632(%rsp), %rbp
	movq	-96(%rsp), %r15
	xorq	%r12, %r14
	movq	600(%rsp), %r12
	xorq	392(%rsp), %r12
	movq	%r14, 640(%rsp)
	movq	-104(%rsp), %r14
	movq	-80(%rsp), %rbx
	xorq	%rbp, %r8
	movq	%r12, %rcx
	xorq	%r10, %rcx
	movq	%rsi, %r10
	andq	%rax, %rsi
	orq	%rdx, %r10
	orq	%r13, %rdx
	andq	624(%rsp), %r13
	xorq	%rcx, %r10
	andq	%r11, %rdx
	xorq	%rsi, %r8
	xorq	%r10, %rdx
	movq	-16(%rsp), %r10
	movq	%rdx, 392(%rsp)
	andq	%rax, %r13
	orq	%r11, %r13
	movq	-72(%rsp), %r11
	xorq	%r8, %r13
	xorq	440(%rsp), %r10
	xorq	744(%rsp), %r9
	xorq	712(%rsp), %r14
	xorq	520(%rsp), %r15
	xorq	512(%rsp), %rbx
	movq	%r13, 648(%rsp)
	xorq	472(%rsp), %r11
	movq	%r10, %rax
	movq	%r10, %rcx
	movq	%r10, %r8
	movq	%r14, %rdi
	andq	%r9, %rax
	notq	%rcx
	movq	%rbx, %rdx
	movq	%rax, %r14
	movq	%r15, %rbx
	movq	%rdi, %rax
	xorq	%r15, %r14
	notq	%rbx
	andq	%rcx, %rax
	movq	%r11, %r13
	xorq	%rbx, %r8
	movq	%rax, %r11
	movq	%r14, %rax
	movq	%r8, %rbp
	xorq	%r11, %rax
	movq	%rdi, %r8
	movq	%r9, %r12
	movq	%rax, 576(%rsp)
	orq	%rbp, %r8
	xorq	%rdx, %rax
	movq	%rax, %r9
	andq	%r12, %rcx
	movq	%r8, %rax
	xorq	%rcx, %rax
	movq	%r9, %r8
	andq	%rax, %r8
	movq	%r8, %rsi
	movq	%r10, %r8
	xorq	%rax, %r8
	movq	%rsi, %r10
	movq	%rsi, 600(%rsp)
	movq	%r8, 872(%rsp)
	orq	%r9, %r8
	xorq	856(%rsp), %r9
	andq	%rdi, %r8
	movq	%r15, %rsi
	xorq	%r8, %r10
	xorq	%r12, %r8
	andq	%rdx, %r10
	xorq	%rax, %r10
	andq	%r13, %r10
	xorq	%r9, %r10
	movq	%rbx, %r9
	orq	%r14, %r9
	movq	%r10, 624(%rsp)
	xorq	%r9, %rsi
	movq	%rsi, 856(%rsp)
	movq	%rsi, %r10
	movq	%rdi, %rsi
	xorq	%r12, %rsi
	orq	%rdi, %r10
	xorq	%rbp, %rsi
	xorq	%r9, %rcx
	xorq	%r12, %rbp
	orq	%rdx, %rcx
	andq	%r15, %rax
	andq	600(%rsp), %r9
	xorq	%rcx, %rsi
	movq	%rdx, %rcx
	movq	144(%rsp), %r15
	orq	%r11, %rcx
	orq	%rbp, %r11
	xorq	864(%rsp), %r11
	orq	%r8, %rcx
	orq	%r14, %r8
	movq	608(%rsp), %rbp
	xorq	%r10, %rcx
	xorq	%rdi, %r8
	movq	%rdx, %rdi
	orq	%r13, %rcx
	xorq	856(%rsp), %r10
	orq	%r8, %rdi
	xorq	%rsi, %rcx
	movq	368(%rsp), %rsi
	xorq	%rdi, %r11
	movq	%r8, %rdi
	xorq	%rax, %rdi
	orq	576(%rsp), %rax
	xorq	%rcx, %rsi
	xorq	%rdi, %rcx
	orq	%rdx, %r10
	andq	%rdx, %rcx
	movq	872(%rsp), %rdx
	xorq	376(%rsp), %rdx
	andq	%r10, %r9
	movq	%rsi, 368(%rsp)
	xorq	%rcx, %rax
	movq	312(%rsp), %rcx
	orq	%r13, %rax
	orq	%r9, %r13
	xorq	%rdx, %r10
	xorq	%r11, %rax
	movq	-24(%rsp), %rdx
	xorq	%r13, %r10
	orq	%rbx, %r8
	xorq	440(%rsp), %rcx
	movq	%r8, %r11
	movq	(%rsp), %r8
	xorq	704(%rsp), %r8
	movq	24(%rsp), %rbx
	xorq	504(%rsp), %rbx
	xorq	%r10, %r11
	movq	%rax, 632(%rsp)
	xorq	520(%rsp), %r15
	movq	%rcx, %rax
	xorq	536(%rsp), %rdx
	movq	176(%rsp), %r10
	movq	%r8, %r13
	xorq	592(%rsp), %r10
	movq	%r11, 376(%rsp)
	orq	%rcx, %r13
	movq	%rbx, %r12
	movq	%r13, %r9
	movq	%rbx, %r13
	andq	%r9, %r13
	movq	%rdx, %r14
	movq	%r8, %rdx
	movq	%r13, %rcx
	movq	%rax, %r13
	movq	%r10, %r11
	notq	%r13
	notq	%rdx
	movq	%r13, %rsi
	movq	%rax, %r13
	andq	%rbx, %r13
	xorq	%rcx, %rsi
	xorq	%rdx, %rcx
	movq	%r13, %rdi
	movq	%r15, %r13
	xorq	%rbx, %rdx
	xorq	%r9, %rdi
	orq	%r15, %rdx
	movq	352(%rsp), %rbx
	andq	%rdi, %r13
	xorq	%r13, %r12
	movq	%r13, %r9
	movq	%r8, %r13
	orq	%r15, %r13
	movq	%r13, %r10
	movq	%r11, %r13
	xorq	%rsi, %r10
	andq	%r12, %r13
	andq	%rcx, %rsi
	movq	%r13, %rax
	movq	%rsi, %r13
	andq	%r15, %rcx
	xorq	%rdx, %r13
	xorq	%rcx, %rdi
	xorq	%r10, %rax
	movq	%r13, %rcx
	movq	%r14, %r13
	orq	%r11, %rcx
	xorq	%rcx, %rdi
	andq	%rdi, %r13
	orq	%r14, %rdi
	xorq	%rax, %r13
	notq	%rax
	xorq	%r13, %rbx
	xorq	%rax, %rbp
	xorq	%r8, %rdx
	xorq	%r9, %rdx
	andq	%r15, %r12
	movq	%rbp, %rcx
	andq	%r11, %rdx
	xorq	%rdi, %rcx
	movq	%rbx, 352(%rsp)
	xorq	%rdx, %r12
	movq	%rcx, 608(%rsp)
	xorq	616(%rsp), %rdi
	xorq	%r12, %rsi
	movq	240(%rsp), %rbp
	xorq	688(%rsp), %rbp
	xorq	%rsi, %rax
	andq	%rax, %r15
	orq	%r11, %rax
	xorq	%r13, %r15
	movq	216(%rsp), %r13
	xorq	504(%rsp), %r13
	xorq	%rax, %r15
	movq	%rbp, %rax
	andq	%r15, %r14
	xorq	%rdi, %r15
	movq	280(%rsp), %rdi
	xorq	%r14, %rsi
	movq	360(%rsp), %r14
	xorq	464(%rsp), %rdi
	movq	%r13, %r8
	movq	%r8, %r9
	xorq	%rsi, %r14
	movq	%r14, 360(%rsp)
	movq	%r15, %r14
	movq	%rdi, %r11
	xorq	%rsi, %r14
	movq	128(%rsp), %rdi
	xorq	776(%rsp), %rdi
	movq	%r14, 616(%rsp)
	movq	80(%rsp), %r14
	xorq	424(%rsp), %r14
	movq	%rdi, %r10
	notq	%r10
	movq	%r14, %rsi
	movq	%r10, %r12
	movq	200(%rsp), %r14
	movq	%rsi, %rdx
	xorq	536(%rsp), %r14
	notq	%rdx
	orq	%r10, %rdx
	movq	%rbp, %r10
	xorq	%rdx, %r10
	andq	%r13, %rdx
	movq	%rsi, %r13
	orq	%rax, %r13
	movq	%r10, %rbp
	movq	%r14, %rcx
	movq	%r13, %r10
	movq	%r13, 576(%rsp)
	xorq	%rdi, %r10
	orq	%r8, %rdi
	orq	%r13, %rdi
	movq	%r10, %rbx
	xorq	%rdi, %rbx
	movq	%rbx, %r14
	movq	%rbp, %rbx
	notq	%rbx
	movq	%rbx, %r13
	movq	%rsi, %rbx
	andq	%r13, %rbx
	orq	%rbx, %r9
	xorq	%r9, %r10
	orq	%r11, %r10
	xorq	%rdi, %r10
	movq	%r10, %r15
	movq	%rbp, %r10
	xorq	%rdx, %r10
	movq	%r15, 856(%rsp)
	movq	%r10, %rdi
	xorq	336(%rsp), %rdi
	movq	%r11, %r10
	andq	%r14, %r10
	xorq	%r10, %rdi
	movq	%r15, %r10
	orq	%rcx, %r10
	xorq	%rdi, %r10
	movq	%r10, 336(%rsp)
	movq	%r12, %r10
	orq	%rbx, %r10
	xorq	%r12, %rbx
	movq	%r10, %rdi
	movq	%rax, %r10
	xorq	%rdi, %r10
	xorq	%rdi, %rsi
	movq	%r10, %r15
	movq	%r8, %r10
	xorq	%r14, %r10
	movq	%r15, 864(%rsp)
	andq	%r8, %r15
	andq	%r10, %rdi
	xorq	%r15, %rsi
	orq	%r10, %rax
	orq	%r11, %rdi
	notq	%rax
	movq	%r11, %r15
	xorq	%rdi, %rsi
	movq	824(%rsp), %rdi
	orq	%rcx, %rax
	xorq	%rsi, %rax
	andq	%rbp, %r15
	andq	%r15, %r10
	xorq	%rax, %rdi
	movq	%rdi, 600(%rsp)
	movq	%r12, %rdi
	movq	576(%rsp), %r12
	xorq	%rdx, %rdi
	andq	%r9, %rdi
	xorq	%rdi, %r10
	orq	%rcx, %r10
	andq	%r8, %rbx
	xorq	%rdx, %r12
	xorq	%r13, %rbx
	xorq	856(%rsp), %r13
	xorq	%rbp, %r9
	xorq	%rbx, %r10
	movq	%r12, %rbx
	movq	344(%rsp), %r12
	andq	%rax, %rbx
	andq	%r11, %r9
	orq	%r11, %rbx
	andq	%rsi, %r9
	xorq	%r14, %rsi
	xorq	%rbx, %r10
	xorq	%rax, %r13
	xorq	%r10, %r12
	xorq	%r9, %r13
	andq	864(%rsp), %r10
	orq	%rcx, %r13
	xorq	840(%rsp), %r13
	movq	%r12, 344(%rsp)
	movq	40(%rsp), %rcx
	xorq	448(%rsp), %rcx
	xorq	%rdx, %r10
	xorq	%r10, %r13
	orq	%rsi, %r10
	andq	%r11, %r10
	movq	%r10, %rsi
	xorq	%r13, %rsi
	movq	%rsi, 840(%rsp)
	movq	64(%rsp), %r13
	xorq	480(%rsp), %r13
	movq	-40(%rsp), %r14
	xorq	696(%rsp), %r14
	movq	192(%rsp), %rax
	xorq	464(%rsp), %rax
	movq	208(%rsp), %r12
	xorq	792(%rsp), %r12
	movq	328(%rsp), %r11
	movq	%r13, %r10
	movq	%r13, %rdi
	movq	%r14, %r9
	notq	%r10
	movq	-56(%rsp), %r14
	xorq	424(%rsp), %r14
	movq	%r10, %rdx
	movq	%rcx, %r10
	xorq	%rax, %r10
	movq	%r12, %rbp
	movq	%rcx, %r12
	movq	%r10, %r15
	movq	%rcx, %r10
	xorq	%r14, %r15
	movq	%r14, %rbx
	xorq	%rdx, %r15
	notq	%rbx
	andq	%r13, %r10
	andq	%r15, %r13
	movq	%r10, %r8
	movq	%rbx, %r10
	movq	%r13, %rsi
	andq	%r14, %r12
	movq	%rbx, 576(%rsp)
	orq	%r8, %r10
	andq	%rax, %rsi
	movq	%rdi, %rbx
	movq	%r13, 856(%rsp)
	xorq	%r10, %rsi
	movq	%r12, %r13
	xorq	%r12, %rbx
	movq	%rbp, %r10
	movq	%rax, %r12
	andq	%rsi, %r10
	andq	%rbx, %r12
	xorq	%r15, %r11
	xorq	%r12, %rdx
	xorq	%r10, %r11
	xorq	%rcx, %rsi
	movq	%rbp, %r10
	andq	%rax, %rsi
	xorq	%r14, %r12
	orq	%rdx, %r10
	xorq	%rcx, %rdx
	xorq	%r10, %rsi
	andq	%rdx, %rax
	andq	%rdi, %rdx
	andq	%r9, %rsi
	movq	%rsi, %r10
	xorq	%r11, %r10
	movq	%r8, %r11
	orq	%r12, %r11
	notq	%r12
	movq	%r10, 328(%rsp)
	andq	%rbp, %r11
	movq	%r9, %r10
	xorq	%rax, %r11
	xorq	%rdi, %r11
	movq	%r15, %rdi
	orq	%r11, %rcx
	xorq	808(%rsp), %r11
	andn	%rbp, %rcx, %rsi
	xorq	%r12, %rsi
	andq	%rsi, %r10
	xorq	%r11, %r10
	orq	%rax, %rbx
	xorq	%rdx, %rdi
	movq	%r10, 824(%rsp)
	movq	544(%rsp), %r10
	orq	%rbp, %rdi
	xorq	576(%rsp), %rbx
	orq	%r15, %rdx
	xorq	%r8, %r10
	xorq	848(%rsp), %r8
	movq	%r10, %r11
	movq	%r13, %r10
	xorq	%rax, %r10
	xorq	%rdi, %r11
	andq	%rbx, %r12
	xorq	%rsi, %r11
	movq	%r10, %rsi
	orq	%r9, %r12
	xorq	%rcx, %rsi
	andq	856(%rsp), %rcx
	movq	288(%rsp), %rdi
	orq	%rbp, %rsi
	xorq	680(%rsp), %rdi
	movq	264(%rsp), %r10
	xorq	%rbx, %rsi
	xorq	720(%rsp), %r10
	movq	48(%rsp), %rbx
	orq	%r9, %rsi
	xorq	496(%rsp), %rbx
	xorq	%r8, %rdx
	orq	%rbp, %rcx
	movq	%r12, %rbp
	movq	-32(%rsp), %r12
	xorq	432(%rsp), %r12
	movq	%rsi, %r13
	movq	88(%rsp), %rsi
	xorq	448(%rsp), %rsi
	xorq	%rcx, %rdx
	xorq	%r11, %r13
	xorq	%rdx, %rbp
	movq	%rbx, %rdx
	movq	%r13, 544(%rsp)
	movq	%rbp, 848(%rsp)
	movq	%r10, %rbp
	movq	%rdx, %rax
	movq	%r12, %r9
	movq	%rdi, %r12
	movq	56(%rsp), %rbx
	andq	%rsi, %r12
	movq	%rsi, %r10
	xorq	480(%rsp), %rbx
	movq	%r12, %rcx
	notq	%r10
	notq	%rax
	xorq	%rdx, %rcx
	movq	%rbp, %rdx
	movq	%r10, 576(%rsp)
	xorq	%rcx, %rdx
	movq	%rsi, %r10
	andq	%rdi, %rcx
	xorq	%rcx, %r10
	movq	%rdx, %r13
	movq	%rdi, %r14
	movq	%r10, 856(%rsp)
	andq	%rbp, %r10
	xorq	%rcx, %r13
	movq	%r10, %r8
	movq	%r10, 864(%rsp)
	xorq	%rbx, %r8
	movq	%r8, %r10
	orq	%r9, %r10
	xorq	%rdx, %r10
	movq	%rdi, %rdx
	movq	%rbx, %rdi
	andq	%rax, %rdx
	movq	%rdx, %r8
	movq	%rsi, %rdx
	orq	%r8, %rdx
	movq	%rdx, %r15
	movq	%rax, %rdx
	movq	528(%rsp), %rax
	orq	%rsi, %rdx
	movq	%r15, %r12
	andq	%r14, %r15
	andq	%rbp, %rdx
	orq	856(%rsp), %rbp
	xorq	%rdx, %r12
	movq	%r12, %r11
	movq	%rcx, %r12
	xorq	%r10, %r12
	orq	%r9, %r12
	xorq	%r11, %r12
	andq	%r12, %rdi
	xorq	%r10, %rdi
	xorq	%rdi, %rax
	orq	%rsi, %rdi
	xorq	%rcx, %rdi
	movq	%rax, 528(%rsp)
	movq	%rdx, %rax
	xorq	%rdi, %rax
	movq	%rdi, %rsi
	movq	%r8, %rdi
	orq	%r13, %rdi
	movq	%r9, %r8
	orq	%rdi, %r8
	andq	%r9, %rdi
	xorq	800(%rsp), %r8
	andq	%rsi, %rdi
	movq	576(%rsp), %rsi
	andq	%r12, %rsi
	xorq	%rax, %r8
	xorq	%rsi, %rdi
	movq	%rbx, %rsi
	orq	%rbx, %rdi
	xorq	%r8, %rdi
	movq	576(%rsp), %r8
	xorq	%rbp, %r15
	xorq	%rcx, %rdx
	andq	%r14, %r11
	xorq	%r14, %r13
	orq	%r9, %rdx
	xorq	864(%rsp), %rdx
	andq	%r9, %r13
	movq	%r8, %rbp
	xorq	832(%rsp), %rdx
	orq	%r8, %r11
	orq	%r9, %rbp
	andq	%r9, %r11
	movq	72(%rsp), %r8
	orq	%rbp, %rax
	movq	560(%rsp), %rbp
	xorq	%r11, %r10
	xorq	%rax, %r15
	movq	-120(%rsp), %r11
	xorq	768(%rsp), %r11
	orq	%r15, %rsi
	xorq	%r15, %rdx
	xorq	%r12, %r15
	xorq	%rsi, %r10
	xorq	496(%rsp), %r8
	movq	96(%rsp), %rsi
	xorq	%r10, %rbp
	andq	%r13, %r10
	xorq	432(%rsp), %rsi
	xorq	%r15, %r10
	movq	%rbp, 560(%rsp)
	movq	248(%rsp), %rbp
	orq	%rbx, %r10
	xorq	760(%rsp), %rbp
	movq	%r11, 576(%rsp)
	movq	%r10, %r9
	movq	%r8, %r15
	movq	104(%rsp), %r10
	xorq	%rdx, %r9
	xorq	416(%rsp), %r10
	notq	%r15
	movq	%r9, 832(%rsp)
	movq	232(%rsp), %r9
	movq	%r8, %rbx
	xorq	488(%rsp), %r9
	movq	%rbp, %rdx
	movq	%rdi, 808(%rsp)
	orq	%r15, %rdx
	movq	%rbp, %rdi
	movq	%r9, %r14
	movq	%r11, %r9
	notq	%r9
	movq	%r9, %rax
	movq	%rbp, %r9
	xorq	%r15, %r9
	movq	%r9, %r8
	movq	%rax, %r9
	xorq	%rdx, %r9
	movq	%r8, %rcx
	movq	%r9, %r11
	movq	%r10, %r9
	orq	%r11, %r9
	orq	%r11, %r15
	andq	%r10, %rdx
	xorq	%r9, %rcx
	movq	%r9, %rbp
	movq	%rax, %r9
	xorq	%r15, %r9
	movq	%rcx, %r12
	movq	%r10, %rcx
	andq	%r9, %rcx
	movq	%r12, 800(%rsp)
	andn	%r15, %rdi, %rdi
	movq	%rcx, 856(%rsp)
	xorq	%r15, %rcx
	xorq	%rdx, %rdi
	andq	%rsi, %rcx
	orq	%rsi, %rdi
	movq	%r14, %rdx
	xorq	%r12, %rcx
	movq	%r8, %r12
	orq	%r10, %r8
	andq	%r9, %r12
	andq	%r8, %rax
	xorq	%rbp, %r9
	movq	%r12, %r13
	movq	%r10, %r12
	xorq	%rax, %rdi
	andq	%r15, %r12
	andq	%rdi, %rdx
	xorq	%r8, %r11
	xorq	%r13, %r12
	xorq	%rcx, %rdx
	movq	%r14, %r13
	orq	%rsi, %r12
	xorq	%r11, %rbp
	movq	%rdx, %r10
	xorq	%r12, %r9
	movq	552(%rsp), %r12
	movq	%rbx, %rdx
	orq	%r9, %r13
	andq	%rbp, %rdx
	xorq	%rbx, %rax
	xorq	568(%rsp), %r10
	xorq	%rcx, %r12
	xorq	%r12, %r13
	movq	%r13, %r12
	movq	%rdx, %r13
	movq	800(%rsp), %rdx
	xorq	%r15, %r13
	movq	%r10, 568(%rsp)
	andq	%rdx, %rax
	xorq	816(%rsp), %rbx
	orq	576(%rsp), %rcx
	xorq	784(%rsp), %rbp
	andq	%rsi, %rax
	xorq	%rdi, %r9
	xorq	%r13, %rax
	andn	%r15, %rdx, %r15
	orq	%r13, %r9
	orq	%r14, %rax
	movq	24(%rsp), %r13
	xorq	640(%rsp), %r13
	xorq	%rbx, %r8
	movq	-16(%rsp), %rbx
	xorq	840(%rsp), %rbx
	xorq	856(%rsp), %r8
	andq	%rsi, %rcx
	xorq	%rax, %rbp
	movq	%rcx, %r10
	movq	312(%rsp), %rcx
	xorq	528(%rsp), %rcx
	xorq	%rbp, %r10
	orq	%rsi, %r15
	movq	296(%rsp), %rdx
	movq	%r10, 800(%rsp)
	xorq	544(%rsp), %rdx
	movq	%rbx, %r10
	movq	-80(%rsp), %rbx
	xorq	360(%rsp), %rbx
	xorq	%r15, %r8
	movq	144(%rsp), %r15
	movq	%rcx, %rsi
	movq	%r13, %r11
	notq	%rsi
	movq	%r12, 784(%rsp)
	andq	%r14, %r9
	orq	%rsi, %r11
	movq	%rdx, %rdi
	movq	%r10, %rdx
	xorq	%r12, %r15
	xorq	%r13, %r10
	movq	%rbx, %r12
	movq	%rsi, %rbx
	notq	%rdx
	movq	%rcx, 576(%rsp)
	xorq	%r10, %rbx
	movq	%r11, %rcx
	xorq	%r8, %r9
	andq	%rdx, %rcx
	movq	%rbx, %r14
	movq	%r15, %rbx
	orq	%rcx, %rbx
	movq	%r9, 816(%rsp)
	movq	%r14, %r9
	xorq	%rbx, %r9
	orq	%rdx, %rsi
	movq	%r11, %rbp
	movq	%r9, %r8
	movq	%r15, %r9
	movq	%rdi, 552(%rsp)
	andq	%rsi, %r9
	movq	%rbp, 856(%rsp)
	xorq	%r9, %rbx
	andq	%r13, %r9
	movq	%rbx, %r11
	movq	%rbx, 864(%rsp)
	orq	%r12, %r11
	xorq	%r8, %r11
	xorq	%r11, %rsi
	andn	%r10, %rsi, %r10
	andq	%rsi, %rbp
	movq	%r10, %rbx
	orq	%r12, %rbx
	movq	%rbx, %rax
	movq	%r15, %rbx
	orq	%rsi, %rbx
	movq	%rbx, %r10
	xorq	%rdx, %r10
	xorq	%rax, %r10
	movq	768(%rsp), %rax
	orq	%r10, %rdi
	movq	%rdi, %rbx
	xorq	%r11, %rax
	xorq	%rax, %rbx
	movq	%rbx, 768(%rsp)
	movq	%r13, %rbx
	orq	%r14, %rbx
	movq	%rbx, %rax
	movq	%rcx, %rbx
	notq	%rax
	orq	%r15, %rax
	xorq	%rax, %rbx
	movq	%rbx, %rdi
	movq	%rbp, %rbx
	movq	%rdx, %rbp
	orq	%r8, %rdx
	xorq	%r8, %rbx
	andq	%r8, %rbp
	xorq	%rcx, %rdx
	movq	%r12, %rcx
	orq	%r12, %rbp
	andq	%rbx, %rcx
	xorq	%rdi, %rbp
	xorq	512(%rsp), %rbp
	xorq	%rcx, %rdx
	movq	552(%rsp), %rcx
	andq	%r13, %rbx
	xorq	%rbx, %rax
	orq	%r12, %rax
	orq	%rcx, %rdx
	xorq	%rbp, %rdx
	movq	%rax, %rbp
	movq	%r14, %rax
	orq	%r9, %rax
	xorq	536(%rsp), %rax
	movq	%rdx, 512(%rsp)
	orq	%r13, %rdi
	orq	%r15, %r14
	xorq	%rsi, %rdi
	xorq	%r14, %r9
	xorq	%rax, %rbp
	movq	576(%rsp), %rax
	xorq	864(%rsp), %r13
	andq	856(%rsp), %r13
	movq	792(%rsp), %rdx
	orq	%r8, %rax
	xorq	%rax, %r10
	orq	%r12, %r13
	orq	%r12, %r10
	andq	%r11, %r12
	xorq	%r8, %r13
	xorq	%r10, %rdi
	movq	16(%rsp), %r10
	xorq	%r13, %rbx
	xorq	400(%rsp), %r10
	andq	%rcx, %rdi
	xorq	%rbx, %rdx
	andq	%r12, %rbx
	xorq	%rbp, %rdi
	xorq	%rbx, %r9
	movq	-24(%rsp), %rbx
	xorq	784(%rsp), %rbx
	andq	%rcx, %r9
	movq	%rdi, 536(%rsp)
	movq	-112(%rsp), %r13
	xorq	%rdx, %r9
	movq	%r10, %r14
	movq	-72(%rsp), %r10
	movq	%r9, 792(%rsp)
	movq	168(%rsp), %r9
	movq	%r14, %r11
	xorq	544(%rsp), %r9
	xorq	344(%rsp), %r10
	xorq	624(%rsp), %r13
	movq	%r9, %rcx
	movq	%r10, %rax
	movq	-96(%rsp), %r10
	notq	%rcx
	xorq	%rax, %r11
	movq	%rax, %rdi
	movq	%rcx, %r12
	xorq	808(%rsp), %r10
	notq	%rdi
	xorq	%r11, %r12
	movq	%rdi, %r8
	movq	%rcx, %rdi
	movq	%r12, %rdx
	movq	%r13, %rsi
	movq	%r12, 552(%rsp)
	xorq	%rbx, %rdx
	orq	%r14, %r8
	orq	%r8, %rdi
	movq	%r10, %r15
	movq	%r9, %r10
	movq	%rdi, %r9
	xorq	%rax, %r8
	movq	%rdx, %rbp
	andq	%rbx, %r9
	movq	%rbx, %rdi
	movq	%r13, %rdx
	xorq	%r14, %r9
	orq	%r8, %rdx
	movq	%rbp, 576(%rsp)
	andq	%r9, %rdi
	andq	%r13, %r9
	movq	496(%rsp), %r13
	xorq	%rdi, %rdx
	movq	%r15, %rdi
	xorq	%rbp, %r9
	andq	%rdx, %rdi
	movq	%rbx, %rbp
	xorq	%rdi, %r9
	movq	%r14, %rdi
	xorq	%r9, %r13
	movq	%r9, 856(%rsp)
	orq	%rcx, %rdi
	movq	%r13, 496(%rsp)
	movq	%rax, %r13
	andq	%rcx, %rax
	orq	%r10, %r13
	movq	%r13, 864(%rsp)
	orq	%r14, %r13
	orq	552(%rsp), %r14
	movq	%r13, %r9
	xorq	%r13, %rbp
	movq	%rbx, %r13
	orq	%rax, %r13
	xorq	%r9, %rcx
	xorq	%r11, %rax
	movq	%rdi, %r11
	andq	%rbx, %rcx
	xorq	%r8, %rbp
	xorq	%r13, %r11
	xorq	%rcx, %rax
	movq	%r11, %r12
	movq	%rsi, %r11
	andq	%rax, %r11
	xorq	%r11, %r12
	movq	752(%rsp), %r11
	orq	%r15, %r12
	xorq	%rbp, %r11
	xorq	%r12, %r11
	andq	856(%rsp), %r14
	orq	%r10, %rdx
	andq	%rbp, %rcx
	xorq	776(%rsp), %rdi
	andq	%rbx, %rax
	xorq	%rbp, %rax
	andq	%r9, %rbp
	orq	%rsi, %r14
	xorq	%r11, %r14
	movq	%rdx, %r11
	movq	576(%rsp), %rdx
	xorq	520(%rsp), %rdx
	xorq	%r8, %r11
	movq	%r14, 752(%rsp)
	movq	%r11, %r10
	movq	%rsi, %r11
	xorq	%rbp, %rdi
	orq	%r10, %r11
	andq	%rax, %rsi
	xorq	%rsi, %rdi
	xorq	%rdx, %rcx
	xorq	%r11, %rcx
	movq	%r10, %r11
	orq	%r13, %r11
	movq	%r11, %rdx
	andq	%r15, %rdx
	movq	%rdx, %r11
	xorq	%rcx, %r11
	movq	%r11, 520(%rsp)
	andq	864(%rsp), %r13
	movq	32(%rsp), %r8
	movq	-64(%rsp), %r12
	xorq	560(%rsp), %r8
	xorq	848(%rsp), %r12
	movq	152(%rsp), %r9
	xorq	616(%rsp), %r9
	movq	-8(%rsp), %rbp
	xorq	392(%rsp), %rbp
	andq	%rax, %r13
	orq	%r15, %r13
	movq	%r12, %rsi
	movq	%r8, %rbx
	movq	-88(%rsp), %r12
	xorq	400(%rsp), %r12
	notq	%rbx
	movq	%r13, %r11
	movq	%rbx, %rcx
	movq	%r8, %rbx
	movq	%rbp, %r14
	andq	%r9, %rbx
	xorq	%rdi, %r11
	movq	%r14, %r15
	movq	%r11, 776(%rsp)
	movq	8(%rsp), %r11
	notq	%r15
	movq	%r12, %rdx
	movq	%rbx, %r12
	movq	%rsi, %rbx
	xorq	%r14, %r12
	xorq	344(%rsp), %r11
	andq	%rcx, %rbx
	movq	%r12, %rdi
	movq	%rbx, %r10
	movq	%r9, %rbp
	xorq	%rbx, %rdi
	movq	%r8, %rbx
	andq	%rbp, %rcx
	xorq	%r15, %rbx
	movq	%rdi, 552(%rsp)
	movq	%rdi, %rax
	movq	%rsi, %rdi
	xorq	%rdx, %rax
	movq	%r8, %r13
	orq	%rbx, %rdi
	movq	%rax, %r9
	movq	%rdi, %rax
	movq	%r9, %rdi
	xorq	%rcx, %rax
	xorq	%rax, %r13
	andq	%rax, %rdi
	movq	%r13, %r8
	movq	%r13, 856(%rsp)
	movq	%rdi, %r13
	orq	%r9, %r8
	movq	%rdi, 576(%rsp)
	xorq	736(%rsp), %r9
	andq	%rsi, %r8
	xorq	%r8, %r13
	xorq	%rbp, %r8
	movq	%r13, %rdi
	movq	%r15, %r13
	andq	%rdx, %rdi
	orq	%r12, %r13
	xorq	%rax, %rdi
	andq	%r11, %rdi
	xorq	%r9, %rdi
	movq	%r13, %r9
	movq	%r14, %r13
	movq	%rdi, 736(%rsp)
	movq	%rsi, %rdi
	xorq	%r9, %rcx
	xorq	%rbp, %rdi
	orq	%rdx, %rcx
	xorq	%r9, %r13
	xorq	%rbx, %rdi
	movq	%r13, 864(%rsp)
	orq	%rsi, %r13
	xorq	%rcx, %rdi
	movq	%rdx, %rcx
	orq	%r10, %rcx
	orq	%r8, %rcx
	xorq	%r13, %rcx
	orq	%r11, %rcx
	xorq	%rdi, %rcx
	movq	480(%rsp), %rdi
	xorq	%rcx, %rdi
	orq	%r12, %r8
	xorq	864(%rsp), %r13
	xorq	%rsi, %r8
	andq	%r14, %rax
	movq	%rdi, 480(%rsp)
	movq	%r8, %rdi
	xorq	%rbp, %rbx
	andq	576(%rsp), %r9
	xorq	%rax, %rdi
	orq	%rbx, %r10
	orq	552(%rsp), %rax
	xorq	%rdi, %rcx
	orq	%rdx, %r13
	movq	%rdx, %rbx
	andq	%rdx, %rcx
	movq	856(%rsp), %rdx
	xorq	504(%rsp), %rdx
	xorq	760(%rsp), %r10
	andq	%r13, %r9
	orq	%r8, %rbx
	orq	%r11, %r9
	orq	%r15, %r8
	xorq	%rcx, %rax
	orq	%r11, %rax
	movq	%r8, %rsi
	movq	-104(%rsp), %r8
	xorq	%rdx, %r13
	xorq	408(%rsp), %r8
	xorq	%rbx, %r10
	xorq	%r9, %r13
	xorq	%r10, %rax
	xorq	%r13, %rsi
	movq	%rax, 760(%rsp)
	movq	%rsi, 504(%rsp)
	movq	120(%rsp), %rcx
	xorq	376(%rsp), %rcx
	movq	304(%rsp), %r13
	xorq	600(%rsp), %r13
	movq	136(%rsp), %r14
	xorq	800(%rsp), %r14
	movq	%rcx, %rbx
	movq	320(%rsp), %rcx
	xorq	560(%rsp), %rcx
	movq	%r13, %r11
	movq	184(%rsp), %r13
	xorq	392(%rsp), %r13
	movq	%r11, %r15
	movq	%r11, %rdx
	movq	%rbx, %r12
	notq	%rdx
	movq	%r14, %r10
	movq	%rcx, %rax
	orq	%rcx, %r15
	movq	%r10, %rbp
	movq	%r15, %rsi
	movq	%rax, %rdi
	movq	%rbx, %r15
	andq	%rsi, %r15
	notq	%rdi
	movq	%r13, %r14
	xorq	%r15, %rdi
	movq	%r15, %rcx
	movq	%rax, %r15
	andq	%rbx, %r15
	xorq	%rdx, %rcx
	xorq	%rbx, %rdx
	movq	%r15, %r9
	orq	%r13, %rdx
	movq	%r13, %r15
	xorq	%rsi, %r9
	movq	%r11, %rsi
	orq	%r13, %rsi
	andq	%r9, %r15
	xorq	%rdi, %rsi
	andq	%rcx, %rdi
	andq	%r13, %rcx
	movq	%rdi, %rbx
	xorq	%r15, %r12
	xorq	%rcx, %r9
	xorq	%rdx, %rbx
	andq	%r12, %rbp
	xorq	%r11, %rdx
	movq	%rbx, %rcx
	movq	%rbp, %rax
	movq	%r8, %rbx
	orq	%r10, %rcx
	xorq	%rsi, %rax
	movq	720(%rsp), %rbp
	xorq	%rcx, %r9
	movq	464(%rsp), %rsi
	xorq	%r15, %rdx
	andq	%r9, %rbx
	andq	%r10, %rdx
	andq	%r13, %r12
	movq	%rbx, %rcx
	xorq	%rdx, %r12
	orq	%r8, %r9
	xorq	%rax, %rcx
	notq	%rax
	xorq	%r12, %rdi
	xorq	%rcx, %rsi
	xorq	%rax, %rbp
	xorq	%rdi, %rax
	movq	%rsi, 464(%rsp)
	movq	%rbp, %rsi
	movq	104(%rsp), %rdx
	xorq	%r9, %rsi
	andq	%rax, %r14
	xorq	744(%rsp), %r9
	xorq	568(%rsp), %rdx
	orq	%r10, %rax
	xorq	%rcx, %r14
	xorq	%rax, %r14
	movq	488(%rsp), %rax
	movq	%rsi, 720(%rsp)
	andq	%r14, %r8
	xorq	%r9, %r14
	xorq	%r8, %rdi
	movq	112(%rsp), %r8
	movq	%r14, %r15
	movq	%rdx, %rsi
	xorq	%rdi, %rax
	xorq	%rdi, %r15
	movq	64(%rsp), %rdx
	movq	88(%rsp), %rdi
	xorq	648(%rsp), %rdx
	xorq	352(%rsp), %rdi
	movq	%rsi, %r10
	movq	%rax, 488(%rsp)
	movq	264(%rsp), %rax
	movq	%rsi, %rbx
	xorq	824(%rsp), %rax
	xorq	376(%rsp), %r8
	movq	%r15, 744(%rsp)
	movq	%rdi, %r11
	movq	%rdx, %rdi
	movq	224(%rsp), %rdx
	movq	%rdi, %r13
	xorq	408(%rsp), %rdx
	notq	%r13
	orq	%rax, %r10
	movq	%r8, %r15
	movq	%r13, %r12
	movq	%rsi, %r13
	movq	%r10, %r9
	notq	%r13
	xorq	%rdi, %r10
	orq	%r9, %rdi
	movq	%rdx, %rcx
	movq	%r13, %rdx
	movq	%rax, %r13
	orq	%r12, %rdx
	orq	%r8, %rdi
	movq	%r9, 552(%rsp)
	xorq	%rdx, %r13
	andq	%r8, %rdx
	movq	%r13, %rbp
	movq	%r10, %r13
	xorq	%rdi, %r13
	movq	%r13, %r14
	movq	%rbp, %r13
	notq	%r13
	andq	%r13, %rbx
	orq	%rbx, %r15
	xorq	%r15, %r10
	movq	%r15, %r9
	orq	%r11, %r10
	movq	%r10, %r15
	movq	448(%rsp), %r10
	xorq	%rdi, %r15
	movq	%r15, 576(%rsp)
	xorq	%rbp, %r10
	movq	%r10, %rdi
	movq	%r11, %r10
	andq	%r14, %r10
	xorq	%rdx, %rdi
	xorq	%r10, %rdi
	movq	%r15, %r10
	movq	%rax, %r15
	orq	%rcx, %r10
	xorq	%rdi, %r10
	movq	%r10, 448(%rsp)
	movq	%r12, %r10
	orq	%rbx, %r10
	xorq	%r12, %rbx
	xorq	%r10, %r15
	movq	%r10, %rdi
	movq	%r8, %r10
	xorq	%r14, %r10
	movq	%r15, 856(%rsp)
	xorq	%rdi, %rsi
	andq	%r8, %r15
	andq	%r10, %rdi
	orq	%r10, %rax
	orq	%r11, %rdi
	xorq	%r15, %rsi
	notq	%rax
	movq	704(%rsp), %r15
	xorq	%rdi, %rsi
	orq	%rcx, %rax
	xorq	%rsi, %rax
	movq	%r12, %rdi
	movq	552(%rsp), %r12
	xorq	%rdx, %rdi
	andq	%r8, %rbx
	movq	280(%rsp), %r8
	xorq	%rax, %r15
	andq	%r9, %rdi
	xorq	%r13, %rbx
	movq	%r15, 704(%rsp)
	movq	%r11, %r15
	xorq	%rdx, %r12
	andq	%rbp, %r15
	andq	%r15, %r10
	movq	472(%rsp), %r15
	xorq	%rdi, %r10
	orq	%rcx, %r10
	xorq	%rbx, %r10
	movq	%r12, %rbx
	movq	-32(%rsp), %r12
	andq	%rax, %rbx
	orq	%r11, %rbx
	xorq	%rbx, %r10
	xorq	%r10, %r15
	andq	856(%rsp), %r10
	movq	%r15, 472(%rsp)
	movq	232(%rsp), %r15
	xorq	%rdx, %r10
	xorq	576(%rsp), %r13
	xorq	%rbp, %r9
	andq	%r11, %r9
	xorq	664(%rsp), %r8
	xorq	352(%rsp), %r15
	andq	%rsi, %r9
	xorq	%r14, %rsi
	xorq	832(%rsp), %r12
	xorq	%rax, %r13
	xorq	%r9, %r13
	movq	248(%rsp), %r9
	xorq	336(%rsp), %r9
	orq	%rcx, %r13
	xorq	728(%rsp), %r13
	movq	%r8, %rdi
	movq	96(%rsp), %r8
	xorq	568(%rsp), %r8
	movq	%r15, %rax
	xorq	%r10, %r13
	orq	%rsi, %r10
	movq	%r9, %rsi
	andq	%r11, %r10
	movq	256(%rsp), %r11
	xorq	368(%rsp), %r11
	xorq	%r13, %r10
	movq	%r8, %r13
	movq	%r10, 728(%rsp)
	movq	%r9, %r10
	notq	%r13
	movq	%r13, 552(%rsp)
	movq	%r11, %rbx
	movq	%r11, %rcx
	andq	%r11, %r10
	notq	%rbx
	movq	%r10, %r14
	orq	%r10, %r13
	movq	%rbx, %rdx
	movq	%r9, %rbx
	movq	%rcx, %rbp
	xorq	%r8, %rbx
	movq	%r15, %r9
	xorq	%r15, %rbx
	xorq	%rdx, %rbx
	andq	%rbx, %r11
	movq	%r11, %r10
	movq	%r11, 576(%rsp)
	movq	432(%rsp), %r11
	andq	%r15, %r10
	xorq	%r10, %r13
	movq	%rsi, %r10
	andq	%r8, %r10
	xorq	%r10, %rbp
	andq	%rbp, %r9
	xorq	%r9, %rdx
	movq	%r9, %r15
	movq	%rdi, %r9
	andq	%r13, %r9
	xorq	%rbx, %r11
	xorq	%rsi, %r13
	xorq	%r9, %r11
	movq	%rdi, %r9
	andq	%rax, %r13
	orq	%rdx, %r9
	xorq	%r8, %r15
	movq	%r14, %r8
	xorq	%r9, %r13
	orq	%r15, %r8
	xorq	%rsi, %rdx
	andq	%r12, %r13
	andq	%rdx, %rax
	notq	%r15
	xorq	%r11, %r13
	movq	%r8, %r11
	movq	%r12, %r8
	andq	%rdi, %r11
	movq	%r13, 432(%rsp)
	andq	%rcx, %rdx
	xorq	%rax, %r11
	movq	456(%rsp), %r9
	orq	%rax, %rbp
	xorq	%rcx, %r11
	xorq	552(%rsp), %rbp
	orq	%r11, %rsi
	xorq	688(%rsp), %r11
	andn	%rdi, %rsi, %r13
	xorq	%r14, %r9
	xorq	%r15, %r13
	andq	%r13, %r8
	xorq	%r11, %r8
	movq	%r8, 688(%rsp)
	movq	%rbx, %r8
	xorq	%rdx, %r8
	movq	%r8, %rcx
	orq	%rdi, %rcx
	xorq	%rcx, %r9
	xorq	%r13, %r9
	movq	%r10, %r13
	xorq	%rax, %r13
	xorq	%rsi, %r13
	orq	%rdi, %r13
	orq	%rbx, %rdx
	andq	%rbp, %r15
	xorq	%rbp, %r13
	orq	%r12, %r15
	orq	%r12, %r13
	xorq	%r9, %r13
	movq	%r13, 456(%rsp)
	xorq	712(%rsp), %r14
	andq	576(%rsp), %rsi
	movq	-120(%rsp), %r10
	movq	-40(%rsp), %rcx
	xorq	384(%rsp), %r10
	xorq	336(%rsp), %rcx
	movq	216(%rsp), %r11
	xorq	%r14, %rdx
	xorq	608(%rsp), %r11
	movq	72(%rsp), %r12
	xorq	%r15, %rdx
	movq	192(%rsp), %r15
	xorq	816(%rsp), %r15
	orq	%rdi, %rsi
	xorq	368(%rsp), %r12
	movq	80(%rsp), %rdi
	movq	%rsi, %rbx
	movq	%rcx, %rsi
	xorq	328(%rsp), %rdi
	xorq	%rdx, %rbx
	movq	%r10, %rdx
	movq	%rcx, %r10
	movq	%r15, %rcx
	movq	%r11, %r13
	movq	%rsi, %rbp
	andq	%rsi, %rcx
	notq	%r10
	movq	%rdx, %rax
	xorq	%rdx, %rcx
	movq	%r10, 552(%rsp)
	notq	%rax
	xorq	%rcx, %r13
	andq	%r15, %rcx
	movq	%r15, %r8
	xorq	%rcx, %rbp
	movq	%r13, %r14
	movq	%rdi, %r9
	movq	%rbp, %r13
	andq	%rax, %r8
	movq	%rbx, 712(%rsp)
	andq	%r11, %r13
	movq	%rsi, %rbx
	movq	%rax, %rdx
	movq	%r13, %r10
	orq	%r8, %rbx
	orq	%rsi, %rdx
	xorq	%r12, %r10
	movq	%rbp, 576(%rsp)
	movq	%r13, 856(%rsp)
	orq	%r9, %r10
	andq	%r11, %rdx
	movq	%r8, %rbp
	xorq	%r14, %r10
	movq	%rbx, %r8
	movq	%rcx, %r13
	xorq	%rdx, %r8
	xorq	%r10, %r13
	movq	416(%rsp), %rax
	orq	%r9, %r13
	movq	%r11, %rdi
	movq	%r8, %r11
	xorq	%r8, %r13
	movq	%r12, %r8
	xorq	%rcx, %r14
	andq	%r13, %r8
	orq	576(%rsp), %rdi
	andq	%r15, %rbx
	xorq	%r10, %r8
	andq	%r15, %r11
	xorq	%r8, %rax
	orq	%rsi, %r8
	xorq	%rcx, %r8
	movq	%rax, 416(%rsp)
	movq	%r8, %rsi
	movq	%rdx, %r8
	xorq	%rdi, %rbx
	xorq	%rsi, %r8
	movq	%r12, %rdi
	movq	%r8, %rax
	movq	%rbp, %r8
	movq	%r9, %rbp
	orq	%r14, %r8
	orq	%r8, %rbp
	andq	%r9, %r8
	xorq	672(%rsp), %rbp
	andq	%rsi, %r8
	movq	552(%rsp), %rsi
	andq	%r13, %rsi
	xorq	%rax, %rbp
	xorq	%rsi, %r8
	movq	552(%rsp), %rsi
	orq	%r12, %r8
	xorq	%rbp, %r8
	movq	%rsi, %rbp
	orq	%rsi, %r11
	movq	%r8, 672(%rsp)
	orq	%r9, %rbp
	andq	%r9, %r11
	orq	%rbp, %rax
	xorq	%r11, %r10
	movq	440(%rsp), %r11
	xorq	%rax, %rbx
	orq	%rbx, %rdi
	xorq	%rdi, %r10
	xorq	%rcx, %rdx
	xorq	%r15, %r14
	orq	%r9, %rdx
	xorq	856(%rsp), %rdx
	andq	%r9, %r14
	xorq	696(%rsp), %rdx
	xorq	%r10, %r11
	andq	%r14, %r10
	movq	%r11, 440(%rsp)
	movq	48(%rsp), %r11
	xorq	360(%rsp), %r11
	xorq	%rbx, %rdx
	xorq	%r13, %rbx
	xorq	%rbx, %r10
	orq	%r12, %r10
	movq	%r10, %rcx
	xorq	%rdx, %rcx
	movq	%rcx, 696(%rsp)
	movq	128(%rsp), %rdx
	movq	40(%rsp), %rbp
	xorq	384(%rsp), %rbp
	movq	200(%rsp), %r14
	xorq	632(%rsp), %r14
	movq	-48(%rsp), %r13
	xorq	656(%rsp), %r13
	xorq	528(%rsp), %rdx
	movq	56(%rsp), %rbx
	movq	%rbp, %r8
	movq	%rbp, %rsi
	xorq	328(%rsp), %rbx
	notq	%r8
	movq	%r14, %r10
	xorq	%r8, %r10
	movq	%r8, %rbp
	movq	%r13, %rdi
	movq	%r14, %r8
	notq	%rdi
	movq	%rdx, %rcx
	orq	%rbp, %r8
	movq	%r13, 552(%rsp)
	movq	%rdi, %rax
	movq	%r8, %rdx
	movq	%rdi, %r8
	xorq	%rdx, %r8
	movq	%r8, %r13
	movq	%rcx, %r8
	orq	%r13, %r8
	orq	%r13, %rbp
	movq	%r8, %rdi
	movq	%r10, %r8
	xorq	%rdi, %r8
	movq	%r8, %r9
	movq	%rax, %r8
	xorq	%rbp, %r8
	movq	%r9, 576(%rsp)
	movq	%r8, %r12
	movq	%rcx, %r8
	andq	%r12, %r8
	movq	%r8, 856(%rsp)
	xorq	%rbp, %r8
	andq	%rbx, %r8
	xorq	%r9, %r8
	movq	%r10, %r9
	andq	%r12, %r9
	movq	%r9, %r15
	movq	%rcx, %r9
	andq	%rbp, %r9
	xorq	%rdi, %r12
	andq	%rcx, %rdx
	xorq	%r15, %r9
	andn	%rbp, %r14, %r14
	orq	%rcx, %r10
	orq	%rbx, %r9
	xorq	%rdx, %r14
	andq	%r10, %rax
	xorq	%r9, %r12
	movq	584(%rsp), %r9
	xorq	%r10, %r13
	orq	%rbx, %r14
	xorq	%r13, %rdi
	movq	%r11, %rdx
	xorq	%rax, %r14
	movq	576(%rsp), %r13
	movq	%rsi, %rcx
	xorq	%r8, %r9
	andq	%r14, %rdx
	andq	%rdi, %rcx
	movq	%r9, %r15
	movq	%r11, %r9
	xorq	%r8, %rdx
	orq	%r12, %r9
	orq	552(%rsp), %r8
	xorq	%rsi, %rax
	xorq	%r15, %r9
	xorq	592(%rsp), %rdi
	andq	%r13, %rax
	movq	%rcx, %r15
	andq	%rbx, %rax
	xorq	424(%rsp), %rdx
	xorq	%rbp, %r15
	movq	%r9, 584(%rsp)
	xorq	%r15, %rax
	andq	%rbx, %r8
	orq	%r11, %rax
	movq	%r8, %rcx
	movq	120(%rsp), %r8
	xorq	%rax, %rdi
	movq	%rdx, 424(%rsp)
	xorq	%rdi, %rcx
	xorq	680(%rsp), %rsi
	andn	%rbp, %r13, %rbp
	xorq	%r14, %r12
	xorq	752(%rsp), %r8
	orq	%rbx, %rbp
	orq	%r15, %r12
	movq	184(%rsp), %r13
	movq	168(%rsp), %rbx
	xorq	456(%rsp), %rbx
	andq	%r11, %r12
	movq	%rcx, 592(%rsp)
	xorq	%rsi, %r10
	xorq	856(%rsp), %r10
	movq	%r12, %rcx
	xorq	%r9, %r13
	movq	32(%rsp), %r15
	xorq	728(%rsp), %r15
	movq	%r13, %r14
	movq	%rbx, %r13
	movq	-88(%rsp), %rbx
	xorq	%rbp, %r10
	movq	%r8, %rbp
	xorq	%r10, %rcx
	movq	%r15, %r12
	movq	%r15, %r9
	movq	%rcx, 680(%rsp)
	xorq	488(%rsp), %rbx
	notq	%r12
	movq	320(%rsp), %r8
	xorq	416(%rsp), %r8
	movq	%r12, %rsi
	xorq	%rbp, %r9
	movq	%rbp, %r10
	movq	%r13, 552(%rsp)
	movq	%r8, %rdi
	movq	%r8, 576(%rsp)
	notq	%rdi
	movq	%rdi, %r12
	orq	%rdi, %r10
	orq	%rsi, %rdi
	xorq	%r9, %r12
	movq	%r10, %r15
	movq	%r12, %rcx
	movq	%r10, %r12
	movq	%r15, 856(%rsp)
	andq	%rsi, %r12
	movq	%r12, %rdx
	movq	%r14, %r12
	orq	%rdx, %r12
	movq	%r12, %r11
	movq	%rcx, %r12
	xorq	%r11, %r12
	movq	%r12, %r8
	movq	%r14, %r12
	andq	%rdi, %r12
	movq	%r12, %r10
	movq	%r11, %r12
	movq	%r15, %r11
	xorq	%r10, %r12
	movq	%rsi, %r15
	movq	%r12, 864(%rsp)
	orq	%rbx, %r12
	xorq	%r8, %r12
	xorq	%r12, %rdi
	andn	%r9, %rdi, %r9
	orq	%rbx, %r9
	movq	%r9, %rax
	movq	%r14, %r9
	orq	%rdi, %r9
	xorq	%rsi, %r9
	xorq	%rax, %r9
	movq	656(%rsp), %rax
	andq	%rdi, %r11
	orq	%r9, %r13
	orq	%r8, %rsi
	xorq	%r8, %r11
	andq	%r8, %r15
	xorq	%rdx, %rsi
	andq	%rbp, %r10
	xorq	%r12, %rax
	orq	%rbx, %r15
	xorq	%rax, %r13
	movq	%rbp, %rax
	orq	%rcx, %rax
	movq	%r13, 656(%rsp)
	movq	%rdx, %r13
	notq	%rax
	movq	%rbx, %rdx
	orq	%r14, %rax
	andq	%r11, %rdx
	andq	%rbp, %r11
	xorq	%rax, %r13
	xorq	%rdx, %rsi
	orq	552(%rsp), %rsi
	xorq	%r13, %r15
	xorq	400(%rsp), %r15
	movq	576(%rsp), %rdx
	orq	%rbp, %r13
	xorq	%r11, %rax
	xorq	%rdi, %r13
	orq	%rbx, %rax
	orq	%r8, %rdx
	xorq	%r15, %rsi
	xorq	%rdx, %r9
	movq	552(%rsp), %r15
	movq	%rsi, 400(%rsp)
	movq	%rcx, %rsi
	orq	%rbx, %r9
	orq	%r10, %rsi
	xorq	408(%rsp), %rsi
	xorq	%r9, %r13
	movq	-8(%rsp), %r9
	xorq	%rsi, %rax
	andq	%r15, %r13
	xorq	864(%rsp), %rbp
	andq	856(%rsp), %rbp
	orq	%r14, %rcx
	xorq	672(%rsp), %r9
	xorq	%rcx, %r10
	movq	%r13, %rdi
	movq	152(%rsp), %r13
	xorq	%rax, %rdi
	movq	8(%rsp), %rax
	xorq	472(%rsp), %rax
	xorq	512(%rsp), %r13
	movq	%rdi, 408(%rsp)
	orq	%rbx, %rbp
	andq	%r12, %rbx
	movq	-80(%rsp), %rdi
	xorq	%r8, %rbp
	xorq	736(%rsp), %rdi
	xorq	%rbp, %r11
	movq	664(%rsp), %rbp
	movq	%r13, %r12
	xorq	%rax, %r12
	xorq	%r11, %rbp
	andq	%rbx, %r11
	movq	%rax, %rbx
	xorq	%r11, %r10
	notq	%rbx
	movq	-104(%rsp), %r11
	andq	%r15, %r10
	xorq	584(%rsp), %r11
	movq	%r10, %rcx
	xorq	%rbp, %rcx
	movq	%r9, %rbp
	movq	144(%rsp), %r9
	xorq	456(%rsp), %r9
	movq	%rcx, 664(%rsp)
	movq	%r9, %r10
	movq	%r9, %rsi
	movq	%rbx, %r9
	notq	%r10
	orq	%r13, %r9
	movq	%r11, %rbx
	movq	%r10, %rcx
	xorq	%r12, %r10
	movq	%rcx, %r8
	movq	%r10, 552(%rsp)
	xorq	%r11, %r10
	orq	%r9, %r8
	movq	%r10, %r14
	xorq	%rax, %r9
	andq	%r11, %r8
	movq	%r14, 576(%rsp)
	xorq	%r13, %r8
	andq	%r8, %rbx
	movq	%rbx, %r10
	movq	%rdi, %rbx
	orq	%r9, %rbx
	movq	%rbx, %rdx
	movq	%rbp, %rbx
	xorq	%r10, %rdx
	andq	%rdi, %r8
	movq	%r13, %r10
	xorq	%r14, %r8
	movq	384(%rsp), %r14
	andq	%rdx, %rbx
	xorq	%rbx, %r8
	orq	%rcx, %r10
	movq	%r11, %rbx
	movq	%r8, 856(%rsp)
	xorq	%r9, %rbx
	orq	%rsi, %rdx
	xorq	%r8, %r14
	movq	%rax, %r8
	andq	%rcx, %rax
	orq	%rsi, %r8
	movq	%r14, 384(%rsp)
	movq	%r11, %r14
	movq	%r8, 864(%rsp)
	orq	%r13, %r8
	orq	%rax, %r14
	xorq	%r8, %rcx
	xorq	%r12, %rax
	movq	%r10, %r12
	andq	%r11, %rcx
	xorq	%r14, %r12
	orq	552(%rsp), %r13
	xorq	%rcx, %rax
	movq	%r12, %r15
	movq	%rdi, %r12
	andq	856(%rsp), %r13
	andq	%rax, %r12
	xorq	%r8, %rbx
	xorq	%r12, %r15
	movq	640(%rsp), %r12
	xorq	%r9, %rdx
	orq	%rbp, %r15
	andq	%rbx, %rcx
	movq	%rdx, %rsi
	orq	%rdi, %r13
	xorq	%rbx, %r12
	xorq	%r15, %r12
	movq	%r13, %r15
	movq	-24(%rsp), %r13
	xorq	%r12, %r15
	movq	576(%rsp), %r12
	xorq	392(%rsp), %r12
	movq	%r15, 640(%rsp)
	movq	312(%rsp), %r15
	xorq	%r12, %rcx
	movq	%rdi, %r12
	orq	%rsi, %r12
	xorq	%r12, %rcx
	movq	%rsi, %r12
	xorq	648(%rsp), %r10
	orq	%r14, %r12
	andq	864(%rsp), %r14
	andq	%r11, %rax
	xorq	%rbx, %rax
	movq	%r12, %rdx
	xorq	440(%rsp), %r13
	xorq	744(%rsp), %r15
	andq	%rbp, %rdx
	andq	%r8, %rbx
	andq	%rax, %rdi
	xorq	%rbx, %r10
	movq	%rdx, %r12
	andq	%rax, %r14
	xorq	%rcx, %r12
	xorq	%rdi, %r10
	orq	%rbp, %r14
	movq	-72(%rsp), %rcx
	xorq	512(%rsp), %rcx
	movq	%r14, %r9
	movq	16(%rsp), %r14
	xorq	520(%rsp), %r14
	xorq	%r10, %r9
	movq	%r15, %rbp
	movq	%r13, %r15
	movq	%r9, 648(%rsp)
	movq	-96(%rsp), %r9
	notq	%r15
	xorq	712(%rsp), %r9
	movq	%rcx, %rdx
	movq	%r12, 392(%rsp)
	movq	%r15, %rcx
	movq	%r13, %r12
	movq	%r14, %r15
	notq	%r15
	andq	%rbp, %r12
	movq	%r13, %rdi
	xorq	%r14, %r12
	xorq	%r15, %rdi
	movq	(%rsp), %rbx
	movq	%r9, %r10
	movq	%rdi, %r11
	movq	%r12, %r8
	andq	%rcx, %r10
	movq	%r9, %rdi
	andq	%rbp, %rcx
	xorq	%r10, %r8
	orq	%r11, %rdi
	xorq	472(%rsp), %rbx
	movq	%r8, 552(%rsp)
	movq	%rdi, %rax
	xorq	%rdx, %r8
	xorq	%rcx, %rax
	movq	%r8, %rdi
	andq	%rax, %rdi
	movq	%rdi, %rsi
	movq	%r13, %rdi
	xorq	%rax, %rdi
	movq	%rsi, %r13
	movq	%rsi, 576(%rsp)
	movq	%rdi, 856(%rsp)
	orq	%r8, %rdi
	xorq	624(%rsp), %r8
	andq	%r9, %rdi
	xorq	%rdi, %r13
	xorq	%rbp, %rdi
	andq	%rdx, %r13
	xorq	%rax, %r13
	andq	%r14, %rax
	andq	%rbx, %r13
	movq	%r13, %rsi
	xorq	%r8, %rsi
	movq	%r15, %r8
	orq	%r12, %r8
	movq	%rsi, 624(%rsp)
	movq	%r14, %rsi
	xorq	%r8, %rsi
	xorq	%r8, %rcx
	movq	%rsi, 864(%rsp)
	orq	%r9, %rsi
	orq	%rdx, %rcx
	movq	%rsi, %r13
	movq	%r9, %rsi
	xorq	%rbp, %rsi
	xorq	%r11, %rsi
	xorq	%rbp, %r11
	xorq	%rcx, %rsi
	movq	%rdx, %rcx
	orq	%r10, %r11
	orq	%r10, %rcx
	xorq	632(%rsp), %r11
	movq	856(%rsp), %r10
	orq	%rdi, %rcx
	orq	%r12, %rdi
	movq	%rdx, %r12
	xorq	%r13, %rcx
	xorq	%r9, %rdi
	orq	%rbx, %rcx
	orq	%rdi, %r12
	xorq	%rsi, %rcx
	movq	368(%rsp), %rsi
	xorq	%r12, %r11
	movq	%rdi, %r12
	xorq	%rax, %r12
	xorq	%rcx, %rsi
	xorq	%r12, %rcx
	orq	552(%rsp), %rax
	andq	%rdx, %rcx
	xorq	864(%rsp), %r13
	andq	576(%rsp), %r8
	orq	%r15, %rdi
	movq	176(%rsp), %r15
	xorq	440(%rsp), %r15
	xorq	376(%rsp), %r10
	movq	%rdi, %rbp
	movq	-112(%rsp), %rdi
	xorq	%rcx, %rax
	xorq	504(%rsp), %rdi
	movq	%rsi, 368(%rsp)
	orq	%rbx, %rax
	orq	%rdx, %r13
	movq	%rax, %r12
	andq	%r13, %r8
	movq	%r15, %rax
	xorq	%r11, %r12
	orq	%r8, %rbx
	movq	-64(%rsp), %r8
	movq	%r12, 632(%rsp)
	movq	296(%rsp), %r12
	xorq	%r10, %r13
	xorq	704(%rsp), %r12
	xorq	536(%rsp), %r8
	xorq	%rbx, %r13
	movq	160(%rsp), %r10
	xorq	592(%rsp), %r10
	xorq	%r13, %rbp
	movq	%rbp, 376(%rsp)
	movq	%r12, %r15
	movq	%r8, %rbx
	movq	272(%rsp), %r8
	orq	%rax, %r15
	xorq	520(%rsp), %r8
	movq	%r10, %r13
	movq	%r15, %rsi
	movq	%rdi, %r15
	movq	%r12, %rdx
	andq	%rsi, %r15
	notq	%rdx
	movq	%r15, %rcx
	movq	%rax, %r15
	notq	%r15
	movq	%r8, %r9
	movq	%r15, %r10
	movq	%rax, %r15
	andq	%rdi, %r15
	xorq	%rcx, %r10
	movq	%r15, %rbp
	movq	%r8, %r15
	xorq	%rsi, %rbp
	andq	%rbp, %r15
	movq	%r15, %r11
	movq	%rdi, %r15
	xorq	%r11, %r15
	movq	%r15, %r8
	movq	%r12, %r15
	orq	%r9, %r15
	movq	%r15, %rsi
	movq	%r13, %r15
	andq	%r8, %r15
	xorq	%r10, %rsi
	movq	%r15, %rax
	xorq	%rsi, %rax
	xorq	%rdx, %rcx
	xorq	%rdi, %rdx
	andq	%rcx, %r10
	orq	%r9, %rdx
	andq	%r9, %rcx
	movq	%r10, %r15
	xorq	%rcx, %rbp
	andq	%r9, %r8
	xorq	%rdx, %r15
	xorq	%r12, %rdx
	movq	%r15, %rcx
	movq	%rbx, %r15
	xorq	%r11, %rdx
	orq	%r13, %rcx
	andq	%r13, %rdx
	movq	360(%rsp), %r11
	xorq	%rcx, %rbp
	xorq	%rdx, %r8
	andq	%rbp, %r15
	xorq	%r8, %r10
	orq	%rbx, %rbp
	movq	%r15, %r14
	movq	352(%rsp), %r15
	xorq	%rax, %r14
	notq	%rax
	xorq	%r14, %r15
	movq	%r15, 352(%rsp)
	movq	608(%rsp), %r15
	xorq	%rax, %r15
	xorq	%r10, %rax
	xorq	%rbp, %r15
	xorq	616(%rsp), %rbp
	andq	%rax, %r9
	xorq	%r14, %r9
	orq	%r13, %rax
	movq	%r15, 608(%rsp)
	xorq	%rax, %r9
	andq	%r9, %rbx
	xorq	%rbp, %r9
	xorq	%rbx, %r10
	movq	%r9, %rdx
	xorq	%r10, %r11
	xorq	%r10, %rdx
	movq	%r11, 360(%rsp)
	movq	%rdx, 616(%rsp)
	movq	128(%rsp), %rdx
	xorq	424(%rsp), %rdx
	movq	%rdx, %rdi
	movq	-40(%rsp), %rdx
	movq	216(%rsp), %rbp
	xorq	688(%rsp), %rbp
	xorq	464(%rsp), %rdx
	movq	%rbp, %rax
	movq	256(%rsp), %rbp
	xorq	776(%rsp), %rbp
	movq	%rdx, %r10
	movq	288(%rsp), %rdx
	xorq	536(%rsp), %rdx
	movq	%rbp, %rsi
	movq	208(%rsp), %rbp
	xorq	504(%rsp), %rbp
	movq	%rsi, %r14
	movq	%rdx, %rcx
	notq	%r14
	movq	%r14, %r12
	movq	%rdi, %r14
	notq	%r14
	movq	%rbp, %r8
	movq	%r14, %rdx
	movq	%rax, %r14
	orq	%r12, %rdx
	xorq	%rdx, %r14
	andq	%r8, %rdx
	movq	%r14, %rbp
	movq	%rdi, %r14
	orq	%rax, %r14
	movq	%rbp, %rbx
	movq	%r14, %r11
	notq	%rbx
	movq	%r14, 552(%rsp)
	xorq	%rsi, %r11
	orq	%r8, %rsi
	movq	%rbx, %r13
	orq	%r14, %rsi
	movq	%r11, %r9
	movq	%rdi, %rbx
	xorq	%rsi, %r9
	andq	%r13, %rbx
	movq	%r9, %r15
	movq	%r8, %r9
	orq	%rbx, %r9
	movq	%r15, %r14
	movq	%r15, 576(%rsp)
	xorq	%r9, %r11
	andq	%r10, %r14
	orq	%r10, %r11
	xorq	%rsi, %r11
	movq	%r11, %rsi
	movq	%rbp, %r11
	xorq	%rdx, %r11
	xorq	336(%rsp), %r11
	movq	%rsi, 856(%rsp)
	xorq	%r14, %r11
	movq	%rsi, %r14
	orq	%rcx, %r14
	movq	%r14, %rsi
	xorq	%r11, %rsi
	movq	%r12, %r11
	orq	%rbx, %r11
	movq	%rsi, 336(%rsp)
	movq	%r11, %rsi
	movq	%rax, %r11
	xorq	%rsi, %r11
	xorq	%rsi, %rdi
	movq	%r11, %r14
	movq	%r15, %r11
	movq	%r8, %r15
	xorq	%r8, %r11
	andq	%r14, %r15
	xorq	%r15, %rdi
	andq	%r11, %rsi
	orq	%r11, %rax
	orq	%r10, %rsi
	notq	%rax
	movq	%r12, %r15
	xorq	%rsi, %rdi
	movq	600(%rsp), %rsi
	orq	%rcx, %rax
	xorq	%rdi, %rax
	xorq	%rdx, %r15
	xorq	%r12, %rbx
	andq	%r8, %rbx
	movq	552(%rsp), %r12
	xorq	%rax, %rsi
	xorq	%r13, %rbx
	xorq	856(%rsp), %r13
	movq	%rsi, 600(%rsp)
	movq	%r15, %rsi
	movq	%r10, %r15
	andq	%rbp, %r15
	andq	%r9, %rsi
	xorq	%rbp, %r9
	andq	%r15, %r11
	xorq	%rdx, %r12
	andq	%r10, %r9
	xorq	%rsi, %r11
	andq	%rdi, %r9
	xorq	%rax, %r13
	orq	%rcx, %r11
	xorq	%r9, %r13
	movq	240(%rsp), %r15
	xorq	%rbx, %r11
	movq	%r12, %rbx
	movq	344(%rsp), %r12
	andq	%rax, %rbx
	orq	%rcx, %r13
	xorq	840(%rsp), %r13
	orq	%r10, %rbx
	xorq	%rbx, %r11
	xorq	%r11, %r12
	andq	%r14, %r11
	xorq	%rdx, %r11
	movq	88(%rsp), %rdx
	movq	%r12, 344(%rsp)
	xorq	%r11, %r13
	xorq	576(%rsp), %rdi
	xorq	792(%rsp), %rdx
	xorq	480(%rsp), %r15
	orq	%rdi, %r11
	andq	%r10, %r11
	movq	%r15, %r8
	movq	%r15, %r10
	movq	%r11, %r14
	movq	200(%rsp), %r11
	xorq	448(%rsp), %r11
	xorq	%r13, %r14
	movq	%rdx, %r13
	movq	80(%rsp), %rdx
	xorq	696(%rsp), %rdx
	movq	%r14, 840(%rsp)
	notq	%r8
	movq	56(%rsp), %rdi
	xorq	424(%rsp), %rdi
	movq	%r13, %rsi
	movq	%r11, %rcx
	movq	%rdx, %rbx
	movq	48(%rsp), %rdx
	xorq	464(%rsp), %rdx
	movq	%rdi, %r14
	movq	%rdi, %rbp
	notq	%r14
	movq	%r14, %rdi
	movq	%r11, %r14
	movq	%rdx, %rax
	movq	%r8, %rdx
	movq	%rdi, 552(%rsp)
	xorq	%rax, %r14
	movq	%rax, %r12
	xorq	%rbp, %r14
	xorq	%r8, %r14
	movq	%r11, %r8
	andq	%r15, %r8
	andq	%r14, %r10
	orq	%r8, %rdi
	movq	%r8, %r9
	movq	%r10, 576(%rsp)
	movq	%rdi, %r8
	movq	%r11, %rdi
	andq	%rax, %r10
	andq	%rbp, %rdi
	movq	328(%rsp), %r11
	xorq	%r10, %r8
	movq	%rdi, %r10
	movq	%r15, %rdi
	andq	%r8, %rsi
	xorq	%r10, %rdi
	xorq	%rcx, %r8
	andq	%rdi, %r12
	xorq	%r14, %r11
	andq	%rax, %r8
	xorq	%rsi, %r11
	xorq	%r12, %rdx
	movq	%r13, %rsi
	orq	%rdx, %rsi
	xorq	%rsi, %r8
	andq	%rbx, %r8
	movq	%r8, %rsi
	movq	%r9, %r8
	xorq	%r11, %rsi
	xorq	%rcx, %rdx
	xorq	%rbp, %r12
	orq	%r12, %r8
	andq	%rdx, %rax
	notq	%r12
	movq	%r8, %r11
	movq	%rbx, %rbp
	andq	%r15, %rdx
	andq	%r13, %r11
	orq	%rax, %rdi
	xorq	552(%rsp), %rdi
	xorq	%rax, %r11
	movq	%rsi, 328(%rsp)
	xorq	%r15, %r11
	orq	%r11, %rcx
	xorq	824(%rsp), %r11
	andn	%r13, %rcx, %r8
	xorq	%r12, %r8
	andq	%rdi, %r12
	andq	%r8, %rbp
	orq	%rbx, %r12
	xorq	%r11, %rbp
	movq	544(%rsp), %r11
	movq	%rbp, 824(%rsp)
	movq	%r14, %rbp
	xorq	%rdx, %rbp
	orq	%r14, %rdx
	movq	104(%rsp), %r14
	orq	%r13, %rbp
	xorq	%r9, %r11
	xorq	848(%rsp), %r9
	xorq	%rbp, %r11
	movq	40(%rsp), %rbp
	xorq	%r8, %r11
	movq	%r10, %r8
	xorq	%rax, %r8
	xorq	%rcx, %r8
	xorq	%r9, %rdx
	orq	%r13, %r8
	xorq	%rdi, %r8
	movq	112(%rsp), %rdi
	orq	%rbx, %r8
	movq	%r8, %r10
	xorq	%r11, %r10
	xorq	%r12, %rdx
	andq	576(%rsp), %rcx
	xorq	432(%rsp), %r14
	xorq	720(%rsp), %rdi
	xorq	480(%rsp), %rbp
	movq	%r10, 552(%rsp)
	orq	%r13, %rcx
	movq	%rcx, %r11
	movq	%rdi, %rsi
	movq	-32(%rsp), %rdi
	xorq	%rdx, %r11
	movq	-48(%rsp), %rdx
	xorq	496(%rsp), %rdx
	movq	%r11, 848(%rsp)
	movq	%r14, %r11
	movq	232(%rsp), %r14
	xorq	680(%rsp), %r14
	xorq	448(%rsp), %rdi
	movq	%rdx, %r8
	notq	%r8
	movq	%r8, %rax
	movq	%r14, %r8
	movq	%r14, %r15
	andq	%rdi, %r8
	movq	%rdi, %r12
	movq	%rdi, %r10
	movq	%r8, %rcx
	movq	%rsi, %r8
	notq	%r10
	xorq	%rdx, %rcx
	movq	%r10, 576(%rsp)
	movq	%rdi, %rbx
	xorq	%rcx, %r8
	andq	%r15, %rcx
	xorq	%rcx, %r12
	movq	%r8, %r14
	movq	%r12, 856(%rsp)
	andq	%rsi, %r12
	movq	%r12, %r10
	movq	%r12, 864(%rsp)
	xorq	%rbp, %r10
	orq	%r11, %r10
	xorq	%r8, %r10
	movq	%r15, %r8
	andq	%rax, %r8
	orq	%rdi, %rax
	movq	%rax, %rdx
	movq	%rcx, %rax
	orq	%r8, %rbx
	xorq	%r10, %rax
	andq	%rsi, %rdx
	movq	%rbx, %r12
	movq	%rax, %r13
	xorq	%rdx, %rbx
	movq	%rbp, %rax
	orq	%r11, %r13
	xorq	%rbx, %r13
	andq	%r13, %rax
	movq	%rax, %r9
	movq	528(%rsp), %rax
	xorq	%r10, %r9
	xorq	%r9, %rax
	orq	%rdi, %r9
	movq	%r9, %rdi
	movq	%rax, 544(%rsp)
	movq	%rdx, %rax
	xorq	%rcx, %rdi
	xorq	%rdi, %rax
	xorq	%rcx, %r14
	orq	856(%rsp), %rsi
	orq	%r14, %r8
	andq	%r15, %r12
	andq	%r15, %rbx
	movq	%r8, %r9
	movq	%r11, %r8
	xorq	%rcx, %rdx
	orq	%r9, %r8
	andq	%r11, %r9
	xorq	808(%rsp), %r8
	andq	%rdi, %r9
	movq	576(%rsp), %rdi
	xorq	%rsi, %r12
	orq	%r11, %rdx
	xorq	864(%rsp), %rdx
	xorq	%r15, %r14
	xorq	832(%rsp), %rdx
	andq	%r11, %r14
	movq	248(%rsp), %r15
	andq	%r13, %rdi
	xorq	%rax, %r8
	xorq	%rdi, %r9
	orq	%rbp, %r9
	movq	%r9, %rdi
	xorq	%r8, %rdi
	movq	%rdi, 808(%rsp)
	movq	576(%rsp), %rdi
	movq	%rdi, %r9
	orq	%rdi, %rbx
	movq	%rbp, %rdi
	orq	%r11, %r9
	andq	%r11, %rbx
	orq	%r9, %rax
	xorq	%rbx, %r10
	movq	-56(%rsp), %rbx
	xorq	%rax, %r12
	orq	%r12, %rdi
	xorq	%r12, %rdx
	xorq	%rdi, %r10
	movq	560(%rsp), %rdi
	xorq	%r10, %rdi
	andq	%r14, %r10
	xorq	%r13, %r12
	xorq	%r12, %r10
	xorq	496(%rsp), %r15
	movq	%rdi, 560(%rsp)
	orq	%rbp, %r10
	xorq	768(%rsp), %rbx
	movq	64(%rsp), %r12
	movq	%r10, %rdi
	movq	224(%rsp), %r10
	xorq	760(%rsp), %r10
	xorq	%rdx, %rdi
	xorq	416(%rsp), %r12
	movq	%r15, %r8
	movq	%rdi, 832(%rsp)
	movq	-120(%rsp), %rdi
	notq	%r8
	movq	%rbx, %rax
	xorq	488(%rsp), %rdi
	movq	%r10, %rcx
	notq	%rax
	movq	72(%rsp), %r10
	movq	%rcx, %r13
	movq	%rcx, %r11
	xorq	432(%rsp), %r10
	orq	%r8, %r13
	xorq	%r8, %r11
	movq	%rbx, 576(%rsp)
	movq	%r13, %rdx
	movq	%rax, %r13
	movq	%rdi, %r14
	xorq	%rdx, %r13
	movq	%rax, %rdi
	movq	%r15, %rsi
	movq	%r13, %rbp
	movq	%r12, %r13
	movq	%r12, %r9
	orq	%rbp, %r8
	orq	%rbp, %r13
	xorq	%r8, %rdi
	movq	%r13, %r15
	movq	%r11, %r13
	movq	%rdi, %rbx
	movq	%r12, %rdi
	xorq	%r15, %r13
	andq	%rbx, %rdi
	movq	%r13, 856(%rsp)
	andq	%r8, %r12
	movq	%rdi, 864(%rsp)
	xorq	%r8, %rdi
	andq	%r10, %rdi
	xorq	%r13, %rdi
	movq	%r11, %r13
	orq	%r9, %r11
	andq	%rbx, %r13
	xorq	%r15, %rbx
	xorq	%r13, %r12
	movq	%r14, %r13
	orq	%r10, %r12
	xorq	%r12, %rbx
	movq	784(%rsp), %r12
	orq	%rbx, %r13
	xorq	%rdi, %r12
	xorq	%r12, %r13
	andq	%r11, %rax
	andq	%r9, %rdx
	andn	%r8, %rcx, %rcx
	movq	856(%rsp), %r9
	xorq	%r11, %rbp
	xorq	%rdx, %rcx
	movq	%r14, %rdx
	xorq	%rbp, %r15
	orq	%r10, %rcx
	movq	%r13, 528(%rsp)
	movq	%rsi, %r12
	xorq	%rax, %rcx
	xorq	%rsi, %rax
	andq	%r15, %r12
	andq	%rcx, %rdx
	movq	%rax, %r13
	xorq	800(%rsp), %r15
	xorq	%rdi, %rdx
	orq	576(%rsp), %rdi
	andq	%r9, %r13
	xorq	%r8, %r12
	andq	%r10, %r13
	xorq	568(%rsp), %rdx
	xorq	%r12, %r13
	xorq	%rcx, %rbx
	andn	%r8, %r9, %r8
	orq	%r14, %r13
	orq	%r12, %rbx
	orq	%r10, %r8
	andq	%r10, %rdi
	xorq	%r13, %r15
	andq	%r14, %rbx
	movq	%rdi, %rax
	movq	%rdx, 568(%rsp)
	xorq	%r15, %rax
	movq	%rax, 800(%rsp)
	xorq	816(%rsp), %rsi
	movq	%rbx, %rax
	movq	176(%rsp), %rdx
	movq	-112(%rsp), %rbp
	movq	-72(%rsp), %r15
	movq	272(%rsp), %rdi
	movq	144(%rsp), %r10
	xorq	%rsi, %r11
	xorq	864(%rsp), %r11
	xorq	%r8, %r11
	xorq	%r11, %rax
	movq	-24(%rsp), %r11
	xorq	840(%rsp), %r11
	xorq	544(%rsp), %rdx
	xorq	640(%rsp), %rbp
	xorq	360(%rsp), %r15
	xorq	528(%rsp), %rdi
	xorq	552(%rsp), %r10
	movq	%rax, 816(%rsp)
	movq	%r11, %r8
	notq	%r8
	xorq	%rbp, %r11
	movq	%rbp, %r9
	movq	%r8, %rsi
	movq	%rdx, %r8
	movq	%r15, %rbx
	notq	%r8
	movq	%rdx, 856(%rsp)
	movq	%rbp, %r14
	movq	%r8, %r13
	orq	%r8, %r9
	orq	%rsi, %r8
	xorq	%r11, %r13
	movq	%r9, %rbp
	movq	%r10, %rcx
	movq	%r13, %r15
	movq	%r9, %r13
	movq	%rcx, 576(%rsp)
	andq	%rsi, %r13
	movq	%r13, %rdx
	movq	%rdi, %r13
	orq	%rdx, %r13
	movq	%r13, %r12
	movq	%r15, %r13
	xorq	%r12, %r13
	movq	%r13, %r9
	movq	%rdi, %r13
	andq	%r8, %r13
	movq	%r13, %r10
	movq	%r12, %r13
	movq	%rbp, %r12
	xorq	%r10, %r13
	movq	%r13, 864(%rsp)
	orq	%rbx, %r13
	xorq	%r9, %r13
	xorq	%r13, %r8
	andn	%r11, %r8, %r11
	andq	%r8, %r12
	orq	%rbx, %r11
	xorq	%r9, %r12
	movq	%r11, %rax
	movq	%rdi, %r11
	orq	%r8, %r11
	xorq	%rsi, %r11
	xorq	%rax, %r11
	movq	768(%rsp), %rax
	movq	%rbp, 768(%rsp)
	orq	%r11, %rcx
	movq	%rsi, %rbp
	xorq	%r13, %rax
	xorq	%rax, %rcx
	movq	%r14, %rax
	orq	%r15, %rax
	movq	%rcx, 784(%rsp)
	movq	%rdx, %rcx
	notq	%rax
	orq	%rdi, %rax
	xorq	%rax, %rcx
	andq	%r9, %rbp
	orq	%r9, %rsi
	xorq	%rdx, %rsi
	movq	%rbx, %rdx
	orq	%rbx, %rbp
	andq	%r12, %rdx
	xorq	%rcx, %rbp
	xorq	512(%rsp), %rbp
	xorq	%rdx, %rsi
	orq	576(%rsp), %rsi
	andq	%r14, %r10
	andq	%r14, %r12
	movq	856(%rsp), %rdx
	orq	%r14, %rcx
	xorq	864(%rsp), %r14
	xorq	%r12, %rax
	xorq	%r8, %rcx
	andq	768(%rsp), %r14
	orq	%rbx, %rax
	xorq	%rbp, %rsi
	orq	%r9, %rdx
	movq	%rsi, 512(%rsp)
	movq	%r15, %rsi
	xorq	%rdx, %r11
	orq	%r10, %rsi
	orq	%rbx, %r11
	orq	%rdi, %r15
	movq	%rsi, %rbp
	xorq	536(%rsp), %rbp
	orq	%rbx, %r14
	xorq	%r9, %r14
	xorq	%r11, %rcx
	movq	792(%rsp), %r9
	xorq	%r14, %r12
	xorq	%rbp, %rax
	movq	576(%rsp), %rbp
	xorq	%r12, %r9
	andq	%rbp, %rcx
	movq	%rcx, %r8
	xorq	%rax, %r8
	xorq	%r15, %r10
	andq	%r13, %rbx
	andq	%rbx, %r12
	movq	%r8, 536(%rsp)
	xorq	%r12, %r10
	andq	%rbp, %r10
	movq	%r10, %rax
	xorq	%r9, %rax
	movq	%rax, 792(%rsp)
	movq	312(%rsp), %r11
	movq	16(%rsp), %r8
	xorq	808(%rsp), %r8
	movq	(%rsp), %rdi
	movq	184(%rsp), %rdx
	xorq	344(%rsp), %rdi
	xorq	552(%rsp), %rdx
	xorq	400(%rsp), %r11
	movq	-64(%rsp), %r12
	movq	%r8, %rbp
	movq	-88(%rsp), %r8
	xorq	624(%rsp), %r8
	xorq	528(%rsp), %r12
	movq	%rdx, %rcx
	movq	%rdi, %rax
	movq	%rdx, %rsi
	movq	%r11, %r15
	notq	%rcx
	movq	%r11, %r9
	movq	%r8, %r10
	movq	%rdi, %r8
	movq	%rcx, %rbx
	notq	%r8
	movq	%r12, %r13
	xorq	%rdi, %r9
	orq	%r15, %r8
	movq	%r9, %r11
	movq	%rcx, %r9
	orq	%r8, %rbx
	xorq	%r11, %r9
	xorq	%rax, %r8
	movq	%rbx, %rdi
	movq	%r13, %rbx
	movq	%r9, 576(%rsp)
	andq	%r13, %rdi
	xorq	%r12, %r9
	movq	%r13, %r14
	xorq	%r15, %rdi
	movq	%r9, %r12
	andq	%rdi, %rbx
	andq	%r10, %rdi
	movq	%r12, 856(%rsp)
	movq	%rbx, %r9
	movq	%r10, %rbx
	xorq	%r12, %rdi
	orq	%r8, %rbx
	movq	496(%rsp), %r12
	movq	%rbx, %rdx
	movq	%rbp, %rbx
	xorq	%r9, %rdx
	andq	%rdx, %rbx
	movq	%rbx, %r9
	movq	%rdi, %rbx
	xorq	%r9, %rbx
	movq	%rbx, 768(%rsp)
	xorq	%rbx, %r12
	movq	%rax, %rbx
	orq	%rsi, %rbx
	movq	%r12, 496(%rsp)
	movq	%rbx, 864(%rsp)
	orq	%r15, %rbx
	xorq	%rbx, %r14
	movq	%rbx, %rdi
	movq	%r14, %rbx
	movq	%r15, %r14
	xorq	%r8, %rbx
	orq	%rcx, %r14
	andq	%rcx, %rax
	movq	%r14, %r9
	movq	%r13, %r14
	xorq	%rdi, %rcx
	orq	%rax, %r14
	xorq	%r11, %rax
	movq	%r9, %r11
	andq	%r13, %rcx
	xorq	%r14, %r11
	orq	576(%rsp), %r15
	xorq	%rcx, %rax
	movq	%r11, %r12
	movq	%r10, %r11
	andq	%rax, %r11
	andq	768(%rsp), %r15
	andq	%rbx, %rcx
	xorq	%r11, %r12
	movq	752(%rsp), %r11
	orq	%rsi, %rdx
	orq	%rbp, %r12
	movq	%rdx, %rsi
	xorq	776(%rsp), %r9
	xorq	%r8, %rsi
	andq	%r13, %rax
	xorq	%rbx, %r11
	orq	%r10, %r15
	xorq	%rbx, %rax
	xorq	%r12, %r11
	andq	%rdi, %rbx
	movq	-104(%rsp), %r12
	xorq	%r11, %r15
	movq	%rcx, %r11
	movq	856(%rsp), %rcx
	xorq	520(%rsp), %rcx
	xorq	%rbx, %r9
	movq	%r15, 768(%rsp)
	xorq	%r11, %rcx
	movq	%r10, %r11
	orq	%rsi, %r11
	xorq	%rcx, %r11
	movq	%rsi, %rcx
	orq	%r14, %rcx
	movq	%rcx, %rdx
	andq	%rbp, %rdx
	movq	%rdx, %rcx
	xorq	%r11, %rcx
	andq	%rax, %r10
	andq	864(%rsp), %r14
	xorq	560(%rsp), %r12
	xorq	%r10, %r9
	movq	%rcx, 520(%rsp)
	andq	%rax, %r14
	orq	%rbp, %r14
	movq	%r12, %r11
	movq	%r14, %r13
	movq	152(%rsp), %r14
	xorq	392(%rsp), %r14
	xorq	%r9, %r13
	movq	%r11, %r9
	movq	%r11, %r8
	movq	%r13, 776(%rsp)
	movq	-8(%rsp), %rdx
	notq	%r9
	xorq	848(%rsp), %rdx
	movq	320(%rsp), %rbp
	movq	%r11, %r13
	xorq	616(%rsp), %rbp
	movq	%r9, %rcx
	movq	%r14, %r9
	notq	%r9
	movq	304(%rsp), %rax
	xorq	344(%rsp), %rax
	movq	%r9, %r15
	movq	%rdx, %rdi
	movq	8(%rsp), %rdx
	xorq	400(%rsp), %rdx
	andq	%rbp, %r13
	movq	%rdi, %r10
	xorq	%r15, %r8
	xorq	%r14, %r13
	andq	%rcx, %r10
	movq	%rax, %r12
	movq	%r13, %rbx
	andq	%rbp, %rcx
	xorq	%r10, %rbx
	movq	%rbx, 576(%rsp)
	movq	%rbx, %r9
	movq	%r8, %rbx
	movq	%rdi, %r8
	xorq	%rdx, %r9
	orq	%rbx, %r8
	movq	%r8, %rax
	movq	%r9, %r8
	xorq	%rcx, %rax
	andq	%rax, %r8
	movq	%r8, %rsi
	movq	%r11, %r8
	xorq	%rax, %r8
	movq	%rsi, %r11
	movq	%r8, 856(%rsp)
	orq	%r9, %r8
	xorq	736(%rsp), %r9
	andq	%rdi, %r8
	movq	%rsi, 736(%rsp)
	movq	%rdi, %rsi
	xorq	%r8, %r11
	andq	%rdx, %r11
	xorq	%rax, %r11
	andq	%r12, %r11
	xorq	%r9, %r11
	movq	%r15, %r9
	orq	%r13, %r9
	movq	%r11, 752(%rsp)
	movq	%r14, %r11
	xorq	%r9, %r11
	xorq	%rbp, %rsi
	xorq	%r9, %rcx
	orq	%rdx, %rcx
	xorq	%rbx, %rsi
	xorq	%rbp, %rbx
	xorq	%rcx, %rsi
	movq	%rdx, %rcx
	xorq	%rbp, %r8
	orq	%r10, %rcx
	orq	%rbx, %r10
	xorq	760(%rsp), %r10
	movq	%r11, 864(%rsp)
	orq	%r8, %rcx
	orq	%rdi, %r11
	orq	%r13, %r8
	andq	%r14, %rax
	xorq	%r11, %rcx
	xorq	%rdi, %r8
	movq	%rdx, %r14
	orq	%r12, %rcx
	orq	%r8, %r14
	xorq	%rsi, %rcx
	movq	480(%rsp), %rsi
	xorq	%r14, %r10
	movq	%r8, %r14
	xorq	864(%rsp), %r11
	xorq	%rax, %r14
	orq	576(%rsp), %rax
	andq	736(%rsp), %r9
	xorq	%rcx, %rsi
	xorq	%r14, %rcx
	movq	856(%rsp), %r13
	andq	%rdx, %rcx
	movq	%rsi, 480(%rsp)
	orq	%rdx, %r11
	xorq	%rcx, %rax
	orq	%r12, %rax
	movq	%rax, %rcx
	xorq	%r10, %rcx
	andq	%r11, %r9
	xorq	504(%rsp), %r13
	orq	%r9, %r12
	orq	%r15, %r8
	movq	%rcx, 760(%rsp)
	movq	-96(%rsp), %r15
	movq	-80(%rsp), %r10
	xorq	408(%rsp), %r15
	xorq	376(%rsp), %r10
	xorq	%r13, %r11
	movq	%r8, %r13
	xorq	%r12, %r11
	movq	168(%rsp), %r12
	xorq	600(%rsp), %r12
	xorq	%r11, %r13
	movq	-16(%rsp), %r11
	xorq	800(%rsp), %r11
	movq	%r13, 504(%rsp)
	movq	24(%rsp), %r9
	movq	%r10, %r8
	movq	136(%rsp), %rax
	xorq	560(%rsp), %rax
	movq	%r15, %rbx
	movq	%r12, %rbp
	xorq	392(%rsp), %r9
	notq	%rbp
	movq	%r11, %r13
	movq	%rbp, %rdx
	movq	%r12, %rbp
	movq	%r13, %r14
	orq	%rax, %rbp
	movq	%rbp, %rdi
	movq	%r10, %rbp
	movq	%r9, %r11
	andq	%rdi, %rbp
	movq	%r9, %r15
	movq	%rbp, %rcx
	movq	%rax, %rbp
	notq	%rbp
	movq	%rbp, %rsi
	movq	%rax, %rbp
	andq	%r10, %rbp
	xorq	%rcx, %rsi
	xorq	%rdx, %rcx
	xorq	%rdi, %rbp
	movq	%r12, %rdi
	xorq	%r8, %rdx
	andq	%rbp, %r11
	orq	%r9, %rdi
	orq	%r9, %rdx
	movq	%r11, %r10
	xorq	%rsi, %rdi
	movq	%r8, %r11
	andq	%rcx, %rsi
	andq	%r9, %rcx
	xorq	%r10, %r11
	xorq	%rcx, %rbp
	movq	%rsi, %rcx
	andq	%r11, %r14
	xorq	%rdx, %rcx
	movq	%r14, %rax
	movq	720(%rsp), %r14
	orq	%r13, %rcx
	xorq	%rdi, %rax
	movq	464(%rsp), %r9
	xorq	%rcx, %rbp
	xorq	%r12, %rdx
	andq	%r15, %r11
	xorq	%r10, %rdx
	movq	%rbx, %rcx
	andq	%r13, %rdx
	andq	%rbp, %rcx
	orq	%rbx, %rbp
	xorq	%rdx, %r11
	xorq	%rax, %rcx
	notq	%rax
	xorq	%r11, %rsi
	xorq	%rax, %r14
	xorq	%rcx, %r9
	xorq	%rsi, %rax
	xorq	%rbp, %r14
	xorq	744(%rsp), %rbp
	andq	%rax, %r15
	orq	%r13, %rax
	movq	280(%rsp), %r13
	xorq	%rcx, %r15
	movq	488(%rsp), %rcx
	xorq	376(%rsp), %r13
	xorq	%rax, %r15
	movq	112(%rsp), %rax
	xorq	824(%rsp), %rax
	andq	%r15, %rbx
	xorq	%rbp, %r15
	movq	%r9, 464(%rsp)
	xorq	%rbx, %rsi
	movq	%r15, %rbx
	movq	-32(%rsp), %r9
	xorq	%rsi, %rcx
	xorq	%rsi, %rbx
	xorq	352(%rsp), %r9
	movq	%rcx, 488(%rsp)
	movq	64(%rsp), %rcx
	movq	%r13, %r8
	xorq	568(%rsp), %rcx
	movq	%rbx, 744(%rsp)
	movq	%r14, 736(%rsp)
	movq	%rcx, %rdi
	movq	240(%rsp), %rcx
	xorq	648(%rsp), %rcx
	movq	%rcx, %rsi
	movq	192(%rsp), %rcx
	xorq	408(%rsp), %rcx
	movq	%rsi, %rbp
	notq	%rbp
	movq	%rbp, %r12
	movq	%rdi, %rbp
	notq	%rbp
	movq	%rbp, %rdx
	movq	%rax, %rbp
	orq	%r12, %rdx
	xorq	%rdx, %rbp
	andq	%r13, %rdx
	movq	%rdi, %r13
	orq	%rax, %r13
	movq	%rbp, %r10
	movq	%rbp, %r15
	movq	%r13, %rbx
	notq	%r10
	xorq	%rsi, %r13
	movq	%r13, %r11
	movq	%r10, %r13
	movq	%rdi, %r10
	andq	%r13, %r10
	orq	%r8, %rsi
	movq	%rbx, 576(%rsp)
	orq	%rbx, %rsi
	movq	%r10, %rbx
	movq	%r8, %r10
	orq	%rbx, %r10
	movq	%r11, %r14
	xorq	%rdx, %r15
	xorq	%r10, %r11
	xorq	%rsi, %r14
	orq	%r9, %r11
	xorq	%rsi, %r11
	movq	%r15, %rsi
	xorq	448(%rsp), %rsi
	movq	%r14, %r15
	andq	%r9, %r14
	movq	%r11, 864(%rsp)
	movq	%r15, 856(%rsp)
	xorq	%r14, %rsi
	movq	%r11, %r14
	orq	%rcx, %r14
	movq	%r14, %r11
	movq	%rax, %r14
	xorq	%rsi, %r11
	movq	%r11, 448(%rsp)
	movq	%r12, %r11
	orq	%rbx, %r11
	xorq	%r11, %r14
	movq	%r11, %rsi
	movq	%r15, %r11
	xorq	%r8, %r11
	movq	%r8, %r15
	xorq	%rsi, %rdi
	andq	%r14, %r15
	andq	%r11, %rsi
	orq	%r11, %rax
	orq	%r9, %rsi
	xorq	%r15, %rdi
	notq	%rax
	movq	704(%rsp), %r15
	xorq	%rsi, %rdi
	orq	%rcx, %rax
	xorq	%rdi, %rax
	xorq	%rax, %r15
	movq	%r15, 720(%rsp)
	movq	%r12, %r15
	xorq	%rdx, %r15
	movq	%r15, %rsi
	movq	%r9, %r15
	andq	%r10, %rsi
	andq	%rbp, %r15
	xorq	%r12, %rbx
	andq	%r15, %r11
	andq	%r8, %rbx
	xorq	%rbp, %r10
	xorq	%rsi, %r11
	xorq	%r13, %rbx
	andq	%r9, %r10
	orq	%rcx, %r11
	andq	%rdi, %r10
	xorq	%rbx, %r11
	movq	576(%rsp), %rbx
	movq	472(%rsp), %rsi
	xorq	864(%rsp), %r13
	xorq	856(%rsp), %rdi
	xorq	%rdx, %rbx
	andq	%rax, %rbx
	xorq	%rax, %r13
	orq	%r9, %rbx
	movq	-120(%rsp), %rax
	xorq	%r10, %r13
	xorq	%rbx, %r11
	movq	-40(%rsp), %r10
	orq	%rcx, %r13
	xorq	728(%rsp), %r13
	xorq	%r11, %rsi
	andq	%r14, %r11
	xorq	664(%rsp), %r10
	movq	104(%rsp), %r14
	xorq	%rdx, %r11
	xorq	832(%rsp), %r14
	movq	%rsi, 472(%rsp)
	xorq	%r11, %r13
	orq	%rdi, %r11
	andq	%r9, %r11
	movq	%r10, %r8
	movq	72(%rsp), %r10
	movq	%r11, %rbp
	movq	264(%rsp), %r11
	xorq	368(%rsp), %r11
	xorq	%r13, %rbp
	movq	224(%rsp), %r13
	xorq	336(%rsp), %r13
	xorq	568(%rsp), %r10
	xorq	352(%rsp), %rax
	movq	%rbp, 728(%rsp)
	movq	%r11, %rdi
	movq	%r11, %rbx
	movq	%r11, %rsi
	notq	%rdi
	movq	%r13, %rcx
	movq	%rdi, %rdx
	movq	%r13, %rdi
	movq	%r10, %r9
	xorq	%rax, %rdi
	notq	%r9
	movq	%r10, %r12
	movq	%rdi, %r15
	movq	%r13, %rdi
	movq	%r9, 576(%rsp)
	xorq	%r10, %r15
	andq	%r11, %rdi
	movq	%r13, %r10
	xorq	%rdx, %r15
	andq	%r12, %r10
	andq	%r15, %rbx
	movq	%rbx, %rbp
	movq	%r9, %rbx
	movq	%rbp, %r9
	orq	%rdi, %rbx
	movq	%rbp, 856(%rsp)
	andq	%rax, %r9
	movq	%rax, %rbp
	xorq	%r9, %rbx
	movq	%r10, %r9
	movq	%r11, %r10
	movq	%r8, %r11
	xorq	%r9, %r10
	andq	%rbx, %r11
	andq	%r10, %rbp
	xorq	%rcx, %rbx
	movq	%r11, %r13
	movq	432(%rsp), %r11
	xorq	%rbp, %rdx
	andq	%rax, %rbx
	xorq	%r12, %rbp
	movq	%r14, %r12
	xorq	%r15, %r11
	xorq	%r13, %r11
	movq	%r8, %r13
	orq	%rdx, %r13
	xorq	%rcx, %rdx
	xorq	%r13, %rbx
	andq	%rdx, %rax
	movq	456(%rsp), %r13
	andq	%r14, %rbx
	xorq	%r11, %rbx
	movq	%rdi, %r11
	orq	%rbp, %r11
	movq	%rbx, 432(%rsp)
	notq	%rbp
	andq	%r8, %r11
	xorq	%rax, %r11
	xorq	%rsi, %r11
	orq	%r11, %rcx
	andn	%r8, %rcx, %rbx
	xorq	%rbp, %rbx
	xorq	688(%rsp), %r11
	andq	%rsi, %rdx
	andq	%rbx, %r12
	xorq	%rdi, %r13
	xorq	%rax, %r9
	orq	%rax, %r10
	xorq	576(%rsp), %r10
	xorq	712(%rsp), %rdi
	xorq	%r11, %r12
	movq	%r15, %r11
	xorq	%rdx, %r11
	orq	%r15, %rdx
	movq	%r12, 704(%rsp)
	movq	%r11, %rsi
	andq	%r10, %rbp
	xorq	%rdi, %rdx
	orq	%r8, %rsi
	orq	%r14, %rbp
	xorq	%rsi, %r13
	xorq	%rbx, %r13
	movq	%r9, %rbx
	xorq	%rcx, %rbx
	andq	856(%rsp), %rcx
	orq	%r8, %rbx
	xorq	%r10, %rbx
	movq	%rbp, %r10
	orq	%r14, %rbx
	orq	%r8, %rcx
	xorq	%r13, %rbx
	xorq	%rcx, %rdx
	movq	%rbx, 456(%rsp)
	xorq	%rdx, %r10
	movq	%r10, 712(%rsp)
	movq	128(%rsp), %r10
	xorq	328(%rsp), %r10
	movq	-56(%rsp), %rdx
	movq	208(%rsp), %r14
	xorq	608(%rsp), %r14
	xorq	384(%rsp), %rdx
	movq	%r10, %rdi
	movq	48(%rsp), %r10
	xorq	816(%rsp), %r10
	movq	%r14, %rsi
	movq	80(%rsp), %r14
	xorq	336(%rsp), %r14
	movq	%rdx, %r9
	notq	%r9
	movq	%r10, %r15
	movq	%r9, %rax
	movq	248(%rsp), %r10
	movq	%r15, %r9
	xorq	368(%rsp), %r10
	movq	%r14, %r8
	andq	%r14, %r9
	movq	%r8, %r12
	movq	%r14, %r13
	movq	%r9, %rcx
	movq	%rsi, %r9
	notq	%r13
	xorq	%rdx, %rcx
	movq	%r15, %rbp
	movq	%r13, 576(%rsp)
	xorq	%rcx, %r9
	andq	%r15, %rcx
	andq	%rax, %rbp
	xorq	%rcx, %r12
	movq	%r9, %r14
	movq	%r8, %r13
	movq	%r12, %rbx
	movq	%rax, %rdx
	orq	%rbp, %r13
	andq	%rsi, %rbx
	orq	%r8, %rdx
	movq	%r12, 856(%rsp)
	movq	%rbx, %r9
	andq	%rsi, %rdx
	movq	%rbx, 864(%rsp)
	xorq	%r10, %r9
	movq	416(%rsp), %rax
	movq	%r9, %r11
	movq	%r13, %r9
	xorq	%rdx, %r9
	orq	%rdi, %r11
	xorq	%r14, %r11
	movq	%r9, %r12
	movq	%rcx, %r9
	xorq	%r11, %r9
	xorq	%rcx, %r14
	movq	%r9, %rbx
	movq	%r10, %r9
	orq	%r14, %rbp
	orq	%rdi, %rbx
	xorq	%r12, %rbx
	andq	%rbx, %r9
	xorq	%r11, %r9
	xorq	%r9, %rax
	orq	%r8, %r9
	xorq	%rcx, %r9
	movq	%rax, 416(%rsp)
	movq	%r9, %r8
	movq	%rdx, %r9
	xorq	%r8, %r9
	movq	%r9, %rax
	movq	%rbp, %r9
	movq	%rdi, %rbp
	orq	%r9, %rbp
	andq	%rdi, %r9
	xorq	672(%rsp), %rbp
	andq	%r8, %r9
	movq	576(%rsp), %r8
	andq	%rbx, %r8
	xorq	%rax, %rbp
	xorq	%r8, %r9
	orq	856(%rsp), %rsi
	movq	576(%rsp), %r8
	andq	%r15, %r13
	orq	%r10, %r9
	andq	%r15, %r12
	xorq	%rcx, %rdx
	xorq	%rbp, %r9
	xorq	%r15, %r14
	orq	%r8, %r12
	orq	%rdi, %rdx
	xorq	864(%rsp), %rdx
	xorq	%rsi, %r13
	movq	%r8, %rsi
	xorq	696(%rsp), %rdx
	orq	%rdi, %rsi
	andq	%rdi, %r12
	movq	%r9, 688(%rsp)
	orq	%rsi, %rax
	movq	440(%rsp), %r9
	movq	%r10, %rsi
	xorq	%rax, %r13
	xorq	%r12, %r11
	andq	%rdi, %r14
	orq	%r13, %rsi
	xorq	%r13, %rdx
	xorq	%rbx, %r13
	xorq	%rsi, %r11
	xorq	%r11, %r9
	andq	%r14, %r11
	movq	%r9, 440(%rsp)
	movq	-48(%rsp), %r9
	xorq	%r13, %r11
	xorq	360(%rsp), %r9
	orq	%r10, %r11
	movq	96(%rsp), %r13
	xorq	%rdx, %r11
	xorq	656(%rsp), %r13
	movq	%r11, 696(%rsp)
	movq	256(%rsp), %r11
	xorq	544(%rsp), %r11
	movq	%r9, %r15
	movq	288(%rsp), %r9
	xorq	632(%rsp), %r9
	movq	40(%rsp), %r14
	movq	200(%rsp), %rbp
	xorq	328(%rsp), %r14
	xorq	384(%rsp), %rbp
	movq	%r11, %r12
	movq	%r13, 672(%rsp)
	movq	%r9, %r8
	movq	%r13, %r9
	notq	%r9
	movq	%r8, %rdx
	movq	%rbp, %rdi
	movq	%r9, %r10
	movq	%r9, %rax
	notq	%rdi
	movq	%rbp, %rbx
	movq	%r11, %rbp
	movq	%rdi, %rsi
	movq	%r8, %rdi
	orq	%rsi, %rdx
	xorq	%rsi, %rdi
	xorq	%rdx, %r10
	andq	%r11, %rdx
	movq	%rdi, %r13
	orq	%r10, %rsi
	orq	%r10, %rbp
	xorq	%rsi, %r9
	andn	%rsi, %r8, %r8
	xorq	%rbp, %r13
	andq	%r9, %r12
	xorq	%rdx, %r8
	movq	%r15, %rdx
	movq	%r12, 856(%rsp)
	movq	%r12, %rcx
	movq	%rdi, %r12
	andq	%r9, %r12
	orq	%r11, %rdi
	xorq	%rsi, %rcx
	movq	%r12, 576(%rsp)
	movq	%r11, %r12
	andq	%rdi, %rax
	andq	%rsi, %r12
	xorq	576(%rsp), %r12
	xorq	%rbp, %r9
	orq	%r14, %r8
	andq	%r14, %rcx
	movq	%rax, %r11
	xorq	%rax, %r8
	xorq	%r13, %rcx
	andq	%r8, %rdx
	orq	%r14, %r12
	xorq	%rcx, %rdx
	xorq	424(%rsp), %rdx
	xorq	%r12, %r9
	movq	584(%rsp), %r12
	movq	%r9, 576(%rsp)
	movq	%r15, %r9
	orq	576(%rsp), %r9
	xorq	%rcx, %r12
	movq	%rdx, 424(%rsp)
	movq	%rbx, %rdx
	movq	%r12, 584(%rsp)
	xorq	584(%rsp), %r9
	xorq	%rdi, %r10
	xorq	%r10, %rbp
	orq	672(%rsp), %rcx
	xorq	%rbx, %r11
	xorq	680(%rsp), %rbx
	andq	%rbp, %rdx
	andq	%r13, %r11
	xorq	592(%rsp), %rbp
	xorq	%rsi, %rdx
	andq	%r14, %r11
	movq	%r9, %r12
	movq	576(%rsp), %r9
	xorq	%rdx, %r11
	orq	%r15, %r11
	andq	%r14, %rcx
	andn	%rsi, %r13, %rsi
	xorq	%rbx, %rdi
	xorq	856(%rsp), %rdi
	movq	%rcx, %r10
	xorq	%r11, %rbp
	xorq	%r8, %r9
	orq	%r14, %rsi
	xorq	%rbp, %r10
	orq	%rdx, %r9
	movq	320(%rsp), %rbp
	xorq	768(%rsp), %rbp
	andq	%r15, %r9
	movq	16(%rsp), %r13
	xorq	%rsi, %rdi
	movq	%r9, %r14
	movq	%r10, 672(%rsp)
	xorq	%rdi, %r14
	movq	%r12, 592(%rsp)
	movq	296(%rsp), %r10
	xorq	%r12, %r13
	xorq	728(%rsp), %r10
	movq	%r14, 680(%rsp)
	movq	%rbp, %r12
	movq	-96(%rsp), %r14
	movq	160(%rsp), %rbx
	xorq	456(%rsp), %r14
	xorq	488(%rsp), %rbx
	movq	%r12, %r8
	movq	-88(%rsp), %rbp
	xorq	416(%rsp), %rbp
	movq	%r10, %rdi
	xorq	%r12, %r10
	notq	%rdi
	movq	%r14, %r15
	movq	%rbx, %r11
	movq	%rbp, %rcx
	movq	%rbp, 856(%rsp)
	movq	%r15, 576(%rsp)
	notq	%rcx
	movq	%rcx, %rdx
	xorq	%r10, %rdx
	orq	%rcx, %r8
	orq	%rdi, %rcx
	movq	%r8, %rsi
	movq	%rdx, %r14
	movq	%r13, %rdx
	andq	%rdi, %rsi
	movq	%r8, 584(%rsp)
	orq	%rsi, %rdx
	movq	%rdx, %rbx
	movq	%r14, %rdx
	xorq	%rbx, %rdx
	movq	%rdx, %r8
	movq	%r13, %rdx
	andq	%rcx, %rdx
	xorq	%rdx, %rbx
	movq	%rdx, %r9
	movq	%rbx, %rbp
	movq	%rbx, 864(%rsp)
	movq	584(%rsp), %rbx
	orq	%r11, %rbp
	xorq	%r8, %rbp
	xorq	%rbp, %rcx
	andn	%r10, %rcx, %r10
	andq	%rcx, %rbx
	movq	%r10, %rdx
	xorq	%r8, %rbx
	orq	%r11, %rdx
	movq	%rdx, %rax
	movq	%r13, %rdx
	orq	%rcx, %rdx
	movq	%rdx, %r10
	xorq	%rdi, %r10
	xorq	%rax, %r10
	movq	656(%rsp), %rax
	orq	%r10, %r15
	movq	%r15, %rdx
	movq	%rdi, %r15
	orq	%r8, %rdi
	xorq	%rbp, %rax
	andq	%r8, %r15
	xorq	%rsi, %rdi
	xorq	%rax, %rdx
	orq	%r11, %r15
	movq	%rdx, 656(%rsp)
	movq	%r12, %rdx
	orq	%r14, %rdx
	movq	%rdx, %rax
	movq	%rsi, %rdx
	movq	%r11, %rsi
	notq	%rax
	andq	%rbx, %rsi
	orq	%r13, %rax
	xorq	%rsi, %rdi
	orq	576(%rsp), %rdi
	xorq	%rax, %rdx
	xorq	%rdx, %r15
	xorq	400(%rsp), %r15
	xorq	%r15, %rdi
	andq	%r12, %r9
	andq	%r12, %rbx
	orq	%r12, %rdx
	xorq	864(%rsp), %r12
	movq	856(%rsp), %r15
	andq	584(%rsp), %r12
	xorq	%rbx, %rax
	movq	%rdi, 400(%rsp)
	movq	%rax, %rdi
	xorq	%rcx, %rdx
	movq	576(%rsp), %rcx
	orq	%r11, %rdi
	orq	%r8, %r15
	xorq	%r15, %r10
	movq	%rdi, %rsi
	movq	%r14, %rdi
	orq	%r11, %r12
	orq	%r9, %rdi
	orq	%r11, %r10
	xorq	%r8, %r12
	movq	664(%rsp), %r8
	orq	%r13, %r14
	xorq	%r12, %rbx
	andq	%rbp, %r11
	xorq	%r14, %r9
	movq	%rdi, %rax
	xorq	408(%rsp), %rax
	xorq	%r10, %rdx
	xorq	%rbx, %r8
	andq	%r11, %rbx
	andq	%rcx, %rdx
	xorq	%rbx, %r9
	movq	32(%rsp), %rbx
	xorq	472(%rsp), %rbx
	andq	%rcx, %r9
	movq	%rdx, %r15
	movq	-112(%rsp), %r14
	xorq	%rax, %rsi
	movq	%r9, %r12
	xorq	512(%rsp), %r14
	xorq	%rsi, %r15
	xorq	%r8, %r12
	movq	136(%rsp), %r9
	movq	%rbx, %rax
	movq	24(%rsp), %rbx
	xorq	688(%rsp), %rbx
	xorq	752(%rsp), %r9
	movq	%r15, 408(%rsp)
	movq	%rax, %r15
	movq	%r12, 664(%rsp)
	movq	144(%rsp), %rbp
	movq	%r14, %r12
	xorq	592(%rsp), %rbp
	xorq	%rax, %r12
	movq	%r9, %rsi
	movq	-8(%rsp), %r9
	xorq	456(%rsp), %r9
	movq	%rbp, %r13
	movq	%r9, %rdi
	movq	%r9, %rdx
	movq	%rax, %r9
	notq	%r9
	notq	%rdx
	orq	%rdi, %r15
	orq	%r14, %r9
	movq	%rdx, %rcx
	movq	%rdx, %r8
	orq	%r9, %rdx
	xorq	%r12, %r8
	xorq	%rax, %r9
	movq	%rdx, %r10
	movq	%rbp, %rdx
	movq	%r8, 576(%rsp)
	andq	%rbp, %r10
	xorq	%rbp, %r8
	movq	%r15, 864(%rsp)
	xorq	%r14, %r10
	movq	%r8, %r11
	andq	%rcx, %rax
	andq	%r10, %rdx
	andq	%rsi, %r10
	movq	%r11, 584(%rsp)
	movq	%rdx, %r8
	movq	%rsi, %rdx
	xorq	%r11, %r10
	orq	%r9, %rdx
	movq	%rbx, %r11
	orq	%rax, %r13
	xorq	%r8, %rdx
	movq	384(%rsp), %r8
	xorq	%r12, %rax
	andq	%rdx, %r11
	xorq	%r11, %r10
	movq	%rbp, %r11
	movq	%r10, 856(%rsp)
	xorq	%r10, %r8
	movq	%r15, %r10
	movq	%r14, %r15
	orq	%r14, %r10
	movq	%r8, 384(%rsp)
	orq	%rcx, %r15
	xorq	%r10, %rcx
	xorq	%r10, %r11
	movq	%r15, %r12
	andq	%rbp, %rcx
	movq	%r15, %r8
	xorq	%r13, %r12
	xorq	%rcx, %rax
	xorq	%r9, %r11
	movq	%r12, %r15
	movq	%rsi, %r12
	andq	%rax, %r12
	xorq	%r12, %r15
	orq	576(%rsp), %r14
	movq	640(%rsp), %r12
	andq	856(%rsp), %r14
	orq	%rbx, %r15
	orq	%rdi, %rdx
	xorq	%r9, %rdx
	xorq	648(%rsp), %r8
	andq	%rbp, %rax
	xorq	%r11, %r12
	xorq	%r11, %rax
	movq	272(%rsp), %r9
	xorq	%r15, %r12
	xorq	712(%rsp), %r9
	orq	%rsi, %r14
	xorq	%r12, %r14
	movq	%rcx, %r12
	movq	584(%rsp), %rcx
	xorq	392(%rsp), %rcx
	andq	%r11, %r12
	andq	%r10, %r11
	xorq	%r11, %r8
	movq	%r14, 640(%rsp)
	xorq	%r12, %rcx
	movq	%rsi, %r12
	andq	%rax, %rsi
	orq	%rdx, %r12
	orq	%r13, %rdx
	andq	864(%rsp), %r13
	andq	%rbx, %rdx
	xorq	%rcx, %r12
	xorq	%rsi, %r8
	movq	%rdx, %rdi
	movq	120(%rsp), %rcx
	xorq	520(%rsp), %rcx
	xorq	%r12, %rdi
	movq	%r9, %rsi
	andq	%rax, %r13
	movq	%rdi, 392(%rsp)
	orq	%rbx, %r13
	movq	168(%rsp), %rbx
	xorq	440(%rsp), %rbx
	movq	%r13, %r12
	movq	%rcx, %r15
	movq	-24(%rsp), %r13
	xorq	%r8, %r12
	movq	-80(%rsp), %r8
	xorq	744(%rsp), %r8
	movq	%r12, 648(%rsp)
	movq	%r15, %rdi
	xorq	472(%rsp), %r13
	movq	%rbx, %r10
	movq	%rbx, %r14
	notq	%rdi
	notq	%r10
	movq	%rdi, %r11
	movq	%r8, %rbp
	movq	-16(%rsp), %r8
	xorq	512(%rsp), %r8
	andq	%rbp, %r14
	movq	%r10, %rcx
	movq	%r9, %r10
	xorq	%r15, %r14
	andq	%rcx, %r10
	xorq	%rbx, %r11
	movq	%r14, %r12
	andq	%rbp, %rcx
	xorq	%r10, %r12
	movq	%r8, %rdx
	movq	%r12, 856(%rsp)
	xorq	%r8, %r12
	movq	%r12, %r9
	movq	%rdi, %r12
	movq	%rsi, %rdi
	orq	%r11, %rdi
	movq	%rdi, %rax
	movq	%r9, %rdi
	xorq	%rcx, %rax
	andq	%rax, %rdi
	movq	%rdi, 576(%rsp)
	movq	%rbx, %rdi
	xorq	%rax, %rdi
	movq	%rdi, 864(%rsp)
	orq	%r9, %rdi
	xorq	624(%rsp), %r9
	movq	576(%rsp), %rbx
	movq	%rdi, %r8
	movq	%r12, 584(%rsp)
	andq	%rsi, %r8
	orq	%r14, %r12
	xorq	%r12, %rcx
	xorq	%r8, %rbx
	orq	%rdx, %rcx
	xorq	%rbp, %r8
	movq	%rbx, %rdi
	andq	%rdx, %rdi
	xorq	%rax, %rdi
	andq	%r13, %rdi
	movq	%rdi, %rbx
	movq	%rsi, %rdi
	xorq	%rbp, %rdi
	xorq	%r9, %rbx
	movq	%r15, %r9
	xorq	%r11, %rdi
	xorq	%r12, %r9
	movq	%rbx, 624(%rsp)
	xorq	%rcx, %rdi
	movq	%rdx, %rcx
	movq	%r9, %rbx
	orq	%r10, %rcx
	movq	%rsi, %r9
	orq	%rbx, %r9
	orq	%r8, %rcx
	orq	%r14, %r8
	xorq	%r9, %rcx
	xorq	%rsi, %r8
	andq	%r15, %rax
	orq	%r13, %rcx
	movq	%r8, %rsi
	xorq	%rbp, %r11
	xorq	%rdi, %rcx
	movq	368(%rsp), %rdi
	xorq	%rax, %rsi
	orq	856(%rsp), %rax
	orq	%r10, %r11
	xorq	632(%rsp), %r11
	andq	576(%rsp), %r12
	movq	%rdx, %r10
	xorq	%rbx, %r9
	xorq	%rcx, %rdi
	xorq	%rsi, %rcx
	orq	%r8, %r10
	andq	%rdx, %rcx
	movq	%rdi, 368(%rsp)
	movq	864(%rsp), %rdi
	xorq	%rcx, %rax
	xorq	376(%rsp), %rdi
	orq	584(%rsp), %r8
	orq	%r13, %rax
	xorq	%r10, %r11
	orq	%rdx, %r9
	movq	%rax, %rsi
	movq	536(%rsp), %r10
	andq	%r9, %r12
	xorq	%r11, %rsi
	movq	184(%rsp), %r11
	orq	%r13, %r12
	xorq	%rdi, %r9
	movq	%rsi, 632(%rsp)
	movq	%r8, %rsi
	xorq	%r12, %r9
	movq	176(%rsp), %rbx
	movq	(%rsp), %r14
	xorq	504(%rsp), %rbx
	xorq	%r9, %rsi
	xorq	%r10, %r11
	movq	-64(%rsp), %r8
	xorq	672(%rsp), %r14
	movq	%r11, %r15
	xorq	720(%rsp), %r8
	movq	-72(%rsp), %r9
	movq	%r15, %rbp
	xorq	440(%rsp), %r9
	movq	152(%rsp), %r12
	xorq	520(%rsp), %r12
	movq	%rsi, 376(%rsp)
	movq	%r8, %rdi
	notq	%rdi
	movq	%r9, %rax
	movq	%rdi, %rdx
	movq	%r8, %rdi
	orq	%r9, %rdi
	movq	%rdi, %r9
	movq	%rbx, %rdi
	andq	%r9, %rdi
	movq	%rdi, %rcx
	movq	%rax, %rdi
	notq	%rdi
	movq	%rdi, %rsi
	movq	%rax, %rdi
	movq	%r12, %rax
	andq	%rbx, %rdi
	xorq	%rcx, %rsi
	xorq	%rdx, %rcx
	xorq	%r9, %rdi
	movq	%r8, %r9
	xorq	%rbx, %rdx
	orq	%r12, %r9
	andq	%rdi, %rax
	orq	%r12, %rdx
	xorq	%rsi, %r9
	andq	%rcx, %rsi
	andq	%r12, %rcx
	movq	%rax, %r13
	xorq	%rcx, %rdi
	movq	%rbx, %rax
	movq	%rsi, %rcx
	xorq	%r13, %rax
	xorq	%rdx, %rcx
	movq	%rax, %r11
	movq	%r14, %rax
	orq	%r14, %rcx
	andq	%r11, %rax
	xorq	%r8, %rdx
	xorq	%rcx, %rdi
	movq	352(%rsp), %rcx
	xorq	%r9, %rax
	andq	%rdi, %rbp
	xorq	%r13, %rdx
	orq	%r15, %rdi
	xorq	%rax, %rbp
	notq	%rax
	movq	360(%rsp), %r13
	xorq	%rbp, %rcx
	movq	%rcx, 352(%rsp)
	movq	608(%rsp), %rcx
	xorq	%rax, %rcx
	xorq	%rdi, %rcx
	andq	%r14, %rdx
	andq	%r12, %r11
	xorq	%rdx, %r11
	movq	%rcx, 608(%rsp)
	xorq	%r11, %rsi
	xorq	%rsi, %rax
	andq	%rax, %r12
	orq	%r14, %rax
	xorq	%rbp, %r12
	xorq	%rax, %r12
	andq	%r12, %r15
	xorq	%r15, %rsi
	xorq	%rsi, %r13
	movq	%r13, 360(%rsp)
	xorq	616(%rsp), %rdi
	movq	48(%rsp), %r13
	movq	56(%rsp), %rcx
	xorq	424(%rsp), %r13
	xorq	704(%rsp), %rcx
	movq	128(%rsp), %rbx
	movq	40(%rsp), %r8
	xorq	%rdi, %r12
	movq	224(%rsp), %rdi
	xorq	464(%rsp), %rdi
	xorq	%rsi, %r12
	xorq	504(%rsp), %r8
	xorq	%r10, %rbx
	movq	%rcx, %rax
	movq	%r12, 616(%rsp)
	movq	%rbx, %rcx
	movq	%r13, %rbx
	movq	%rax, %r10
	movq	%rdi, %r9
	movq	-48(%rsp), %rdi
	xorq	776(%rsp), %rdi
	orq	%rax, %rbx
	movq	%r13, %rsi
	movq	%rbx, %r15
	movq	%r15, 576(%rsp)
	movq	%rdi, %rdx
	xorq	%rdi, %rbx
	orq	%r15, %rdi
	notq	%rdx
	movq	%rbx, %r11
	orq	%r8, %rdi
	movq	%rdx, %r12
	movq	%r13, %rdx
	notq	%rdx
	orq	%r12, %rdx
	xorq	%rdx, %r10
	andq	%r8, %rdx
	movq	%r10, %rbp
	movq	%r11, %r10
	xorq	%rdi, %r10
	movq	%r10, %r14
	movq	%rbp, %r10
	notq	%r10
	movq	%r10, %r13
	movq	%rsi, %r10
	andq	%r13, %r10
	movq	%r10, %rbx
	movq	%r8, %r10
	orq	%rbx, %r10
	xorq	%r10, %r11
	orq	%r9, %r11
	movq	%r11, %r15
	movq	336(%rsp), %r11
	xorq	%rdi, %r15
	movq	%r9, %rdi
	andq	%r14, %rdi
	movq	%r15, 584(%rsp)
	orq	%rcx, %r15
	xorq	%rbp, %r11
	xorq	%rdx, %r11
	xorq	%rdi, %r11
	movq	%r15, %rdi
	xorq	%r11, %rdi
	movq	%rax, %r11
	movq	%rdi, 336(%rsp)
	movq	%r12, %rdi
	orq	%rbx, %rdi
	xorq	%r12, %rbx
	xorq	%rdi, %r11
	xorq	%rdi, %rsi
	andq	%r8, %rbx
	movq	%r11, %r15
	movq	%r8, %r11
	xorq	%r13, %rbx
	xorq	%r14, %r11
	movq	%r15, 856(%rsp)
	andq	%r8, %r15
	andq	%r11, %rdi
	xorq	%r15, %rsi
	orq	%r11, %rax
	orq	%r9, %rdi
	notq	%rax
	movq	%r9, %r15
	xorq	%rdi, %rsi
	movq	600(%rsp), %rdi
	orq	%rcx, %rax
	xorq	%rsi, %rax
	andq	%rbp, %r15
	andq	%r15, %r11
	movq	344(%rsp), %r15
	xorq	%rax, %rdi
	movq	%rdi, 600(%rsp)
	movq	%r12, %rdi
	movq	200(%rsp), %r12
	xorq	%rdx, %rdi
	andq	%r10, %rdi
	xorq	%rdi, %r11
	movq	80(%rsp), %rdi
	orq	%rcx, %r11
	xorq	%rbx, %r11
	movq	576(%rsp), %rbx
	xorq	%rdx, %rbx
	andq	%rax, %rbx
	xorq	584(%rsp), %r13
	xorq	%rbp, %r10
	orq	%r9, %rbx
	andq	%r9, %r10
	xorq	448(%rsp), %rdi
	xorq	%rbx, %r11
	andq	%rsi, %r10
	xorq	%r14, %rsi
	xorq	%r11, %r15
	andq	856(%rsp), %r11
	xorq	%rax, %r13
	movq	%r15, 344(%rsp)
	xorq	%r10, %r13
	orq	%rcx, %r13
	xorq	840(%rsp), %r13
	movq	-56(%rsp), %rcx
	xorq	%rdx, %r11
	xorq	480(%rsp), %rcx
	xorq	%r11, %r13
	orq	%rsi, %r11
	andq	%r9, %r11
	movq	%rdi, %r9
	movq	%rcx, %rdx
	movq	%r11, %r10
	notq	%rdx
	movq	%rcx, %r8
	xorq	%r13, %r10
	movq	%rdi, %r11
	movq	%rcx, %rbp
	movq	%r10, 840(%rsp)
	xorq	792(%rsp), %r12
	movq	280(%rsp), %rbx
	xorq	424(%rsp), %rbx
	movq	240(%rsp), %rax
	xorq	464(%rsp), %rax
	movq	%r12, %r10
	movq	192(%rsp), %r12
	xorq	696(%rsp), %r12
	xorq	%rbx, %r9
	movq	%rbx, %r13
	xorq	%rax, %r9
	notq	%r13
	xorq	%rdx, %r9
	movq	%r13, %r14
	movq	%rdi, %r13
	andq	%rcx, %r13
	andq	%r9, %r8
	movq	%r14, 576(%rsp)
	movq	%r8, 584(%rsp)
	orq	%r13, %r14
	andq	%rax, %r8
	xorq	%r8, %r14
	andq	%rbx, %r11
	xorq	%r11, %rbp
	movq	%r11, %rsi
	movq	%rax, %r11
	andq	%rbp, %r11
	xorq	%r11, %rdx
	movq	%r11, %r15
	movq	%r10, %r11
	andq	%r14, %r11
	xorq	%rdi, %r14
	xorq	%rbx, %r15
	movq	%r11, %r8
	movq	328(%rsp), %r11
	andq	%rax, %r14
	movq	%r12, %rbx
	xorq	%r9, %r11
	xorq	%r8, %r11
	movq	%r10, %r8
	orq	%rdx, %r8
	xorq	%rdi, %rdx
	xorq	%r8, %r14
	andq	%rdx, %rax
	andq	%rcx, %rdx
	andq	%r12, %r14
	orq	%rax, %rbp
	xorq	576(%rsp), %rbp
	xorq	%r11, %r14
	movq	%r13, %r11
	orq	%r15, %r11
	movq	%r14, 328(%rsp)
	notq	%r15
	andq	%r10, %r11
	xorq	%rax, %r11
	xorq	%rcx, %r11
	orq	%r11, %rdi
	xorq	824(%rsp), %r11
	andn	%r10, %rdi, %r14
	xorq	%r15, %r14
	andq	%r14, %rbx
	xorq	%r11, %rbx
	movq	%r9, %r11
	xorq	%rdx, %r11
	movq	%rbx, 824(%rsp)
	movq	%r11, %rcx
	movq	552(%rsp), %r11
	orq	%r10, %rcx
	xorq	%r13, %r11
	xorq	848(%rsp), %r13
	orq	%r9, %rdx
	xorq	%rcx, %r11
	andq	%rbp, %r15
	xorq	%r14, %r11
	movq	%rsi, %r14
	orq	%r12, %r15
	xorq	%rax, %r14
	xorq	%rdi, %r14
	andq	584(%rsp), %rdi
	xorq	%r13, %rdx
	orq	%r10, %r14
	xorq	%r15, %rdx
	movq	72(%rsp), %r15
	xorq	%rbp, %r14
	xorq	736(%rsp), %r15
	orq	%r12, %r14
	movq	-40(%rsp), %r12
	xorq	480(%rsp), %r12
	orq	%r10, %rdi
	movq	%r14, %rsi
	xorq	%r11, %rsi
	movq	%rdi, %r11
	xorq	%rdx, %r11
	movq	%r15, %rdi
	movq	288(%rsp), %r15
	movq	%r11, 848(%rsp)
	movq	256(%rsp), %r11
	xorq	680(%rsp), %r11
	xorq	448(%rsp), %r15
	movq	216(%rsp), %rdx
	xorq	496(%rsp), %rdx
	movq	%rsi, 552(%rsp)
	movq	232(%rsp), %rsi
	xorq	432(%rsp), %rsi
	movq	%r11, %r14
	movq	%r15, %r9
	movq	%r15, %r10
	andq	%r15, %r14
	movq	%rdx, %rax
	notq	%r10
	movq	%r14, %rcx
	movq	%r10, 576(%rsp)
	movq	%r11, %rbx
	xorq	%rdx, %rcx
	movq	%rdi, %rdx
	notq	%rax
	xorq	%rcx, %rdx
	andq	%r11, %rcx
	movq	%rbx, %r14
	movq	%rdx, %r15
	movq	%r9, %rdx
	movq	%r9, %r13
	xorq	%rcx, %rdx
	movq	%rdx, 584(%rsp)
	andq	%rdi, %rdx
	movq	%rdx, 856(%rsp)
	xorq	%r12, %rdx
	movq	%rdx, %r11
	orq	%rsi, %r11
	xorq	%r15, %r11
	andq	%rax, %r14
	orq	%r9, %rax
	orq	%r14, %r13
	movq	%rax, %rdx
	movq	%r14, %r8
	andq	%rdi, %rdx
	movq	%r13, %r14
	movq	%r12, %rax
	xorq	%rdx, %r14
	xorq	%rcx, %r15
	orq	584(%rsp), %rdi
	movq	%r14, %rbp
	movq	%rcx, %r14
	andq	%rbx, %r13
	xorq	%r11, %r14
	orq	%rsi, %r14
	xorq	%rbp, %r14
	xorq	%rdi, %r13
	movq	104(%rsp), %rdi
	andq	%r14, %rax
	movq	%rax, %r10
	movq	544(%rsp), %rax
	xorq	%r11, %r10
	xorq	%r10, %rax
	orq	%r9, %r10
	movq	%rax, 544(%rsp)
	movq	%r10, %rax
	movq	%r8, %r10
	xorq	%rcx, %rax
	orq	%r15, %r10
	movq	%rsi, %r8
	movq	%rax, %r9
	orq	%r10, %r8
	movq	%rdx, %rax
	andq	%rsi, %r10
	xorq	%r9, %rax
	xorq	808(%rsp), %r8
	andq	%r9, %r10
	movq	576(%rsp), %r9
	andq	%r14, %r9
	xorq	%rax, %r8
	xorq	%r9, %r10
	orq	%r12, %r10
	movq	%r10, %r9
	xorq	%r8, %r9
	movq	-120(%rsp), %r8
	movq	%r9, 808(%rsp)
	movq	576(%rsp), %r9
	movq	%r9, %r10
	orq	%rsi, %r10
	orq	%r10, %rax
	movq	560(%rsp), %r10
	xorq	%rax, %r13
	andq	%rbx, %rbp
	movq	%r12, %rax
	orq	%r9, %rbp
	xorq	%rcx, %rdx
	orq	%r13, %rax
	andq	%rsi, %rbp
	orq	%rsi, %rdx
	xorq	%rbx, %r15
	xorq	856(%rsp), %rdx
	xorq	%rbp, %r11
	andq	%rsi, %r15
	xorq	832(%rsp), %rdx
	xorq	%rax, %r11
	xorq	760(%rsp), %rdi
	xorq	%r11, %r10
	andq	%r15, %r11
	movq	-32(%rsp), %r15
	xorq	496(%rsp), %r15
	movq	112(%rsp), %rcx
	xorq	784(%rsp), %rcx
	movq	264(%rsp), %rbx
	xorq	%r13, %rdx
	xorq	%r14, %r13
	xorq	488(%rsp), %rbx
	xorq	%r13, %r11
	xorq	416(%rsp), %r8
	movq	%r10, 560(%rsp)
	movq	%r15, %r14
	orq	%r12, %r11
	movq	%r15, %r10
	notq	%r14
	movq	%r11, %rax
	movq	%rcx, 576(%rsp)
	movq	%r14, %rsi
	movq	%rdi, %r14
	xorq	%rdx, %rax
	xorq	%rsi, %r14
	movq	%rax, 832(%rsp)
	movq	%rcx, %rax
	movq	%r14, %r11
	movq	%rdi, %r14
	notq	%rax
	orq	%rsi, %r14
	movq	%rbx, %r13
	movq	88(%rsp), %rbx
	movq	%r14, %rdx
	xorq	432(%rsp), %rbx
	movq	%rax, %r14
	xorq	%rdx, %r14
	movq	%rax, %rbp
	movq	%r8, %rcx
	movq	%r14, %r15
	movq	%r8, %r14
	movq	%r11, %r12
	orq	%r15, %rsi
	orq	%r15, %r14
	movq	%rbx, %r9
	xorq	%rsi, %rbp
	movq	%r14, %rbx
	movq	%r11, %r14
	xorq	%rbx, %r14
	andq	%rbp, %rcx
	andq	%rbp, %r12
	movq	%r12, 856(%rsp)
	movq	%r8, %r12
	andq	%r8, %rdx
	andq	%rsi, %r12
	xorq	856(%rsp), %r12
	andn	%rsi, %rdi, %rdi
	orq	%r8, %r11
	xorq	%rdx, %rdi
	movq	%rcx, 584(%rsp)
	andq	%r11, %rax
	xorq	%rsi, %rcx
	orq	%r9, %rdi
	xorq	%rax, %rdi
	andq	%r9, %rcx
	xorq	%rbx, %rbp
	orq	%r9, %r12
	movq	%r13, %rdx
	xorq	%r14, %rcx
	xorq	%r12, %rbp
	andq	%rdi, %rdx
	movq	528(%rsp), %r12
	xorq	%rcx, %rdx
	xorq	%r11, %r15
	xorq	%r10, %rax
	xorq	%r15, %rbx
	movq	%rdx, %r8
	movq	%r10, %rdx
	xorq	%rcx, %r12
	andq	%r14, %rax
	andq	%rbx, %rdx
	xorq	%rsi, %rdx
	movq	%r12, 528(%rsp)
	andq	%r9, %rax
	movq	%r13, %r12
	xorq	%rdx, %rax
	orq	%rbp, %r12
	orq	%r13, %rax
	movq	%r12, 856(%rsp)
	movq	528(%rsp), %r12
	xorq	568(%rsp), %r8
	xorq	856(%rsp), %r12
	xorq	800(%rsp), %rbx
	orq	576(%rsp), %rcx
	xorq	%rdi, %rbp
	xorq	816(%rsp), %r10
	orq	%rdx, %rbp
	andn	%rsi, %r14, %rsi
	andq	%r13, %rbp
	movq	176(%rsp), %r13
	xorq	640(%rsp), %r13
	movq	%r8, 528(%rsp)
	orq	%r9, %rsi
	andq	%r9, %rcx
	xorq	%rax, %rbx
	movq	%rcx, %rax
	xorq	%r10, %r11
	movq	168(%rsp), %r10
	xorq	%rbx, %rax
	movq	-8(%rsp), %rbx
	xorq	552(%rsp), %rbx
	xorq	840(%rsp), %r10
	xorq	584(%rsp), %r11
	movq	152(%rsp), %rcx
	movq	%r12, 584(%rsp)
	movq	%rax, 800(%rsp)
	movq	%rbx, %rdx
	movq	-72(%rsp), %rbx
	xorq	544(%rsp), %rbx
	movq	%r10, %r14
	xorq	%r13, %r10
	xorq	%rsi, %r11
	notq	%r14
	xorq	%r12, %rcx
	xorq	%r11, %rbp
	movq	%r14, %r8
	movq	%rbp, 816(%rsp)
	movq	-16(%rsp), %r12
	movq	%rbx, %rdi
	movq	%rbx, 576(%rsp)
	xorq	360(%rsp), %r12
	notq	%rdi
	movq	%rdx, 568(%rsp)
	movq	%rdi, %r14
	xorq	%r10, %r14
	movq	%r14, %r15
	movq	%r13, %r14
	orq	%rdi, %r14
	orq	%r8, %rdi
	movq	%r14, %rsi
	movq	%r14, %rbp
	movq	%rcx, %r14
	andq	%r8, %rsi
	movq	%rbp, 856(%rsp)
	orq	%rsi, %r14
	movq	%r14, %rbx
	movq	%r15, %r14
	xorq	%rbx, %r14
	movq	%r14, %r9
	movq	%rcx, %r14
	andq	%rdi, %r14
	movq	%r14, %r11
	movq	%rbx, %r14
	xorq	%r11, %r14
	movq	%r14, 864(%rsp)
	orq	%r12, %r14
	xorq	%r9, %r14
	xorq	%r14, %rdi
	andq	%r13, %r11
	andn	%r10, %rdi, %r10
	andq	%rdi, %rbp
	movq	%r10, %rax
	movq	%rcx, %r10
	movq	%rbp, %rbx
	orq	%rdi, %r10
	orq	%r12, %rax
	movq	%r8, %rbp
	xorq	%r8, %r10
	orq	%r9, %r8
	xorq	%r9, %rbx
	xorq	%rax, %r10
	movq	784(%rsp), %rax
	xorq	%rsi, %r8
	orq	%r10, %rdx
	andq	%r9, %rbp
	orq	%r12, %rbp
	xorq	%r14, %rax
	xorq	%rax, %rdx
	movq	%r13, %rax
	orq	%r15, %rax
	movq	%rdx, 784(%rsp)
	movq	%rsi, %rdx
	notq	%rax
	movq	%r12, %rsi
	orq	%rcx, %rax
	andq	%rbx, %rsi
	andq	%r13, %rbx
	xorq	%rax, %rdx
	xorq	%rbx, %rax
	xorq	%rsi, %r8
	orq	%r12, %rax
	orq	568(%rsp), %r8
	xorq	%rdx, %rbp
	movq	%rax, %rsi
	xorq	512(%rsp), %rbp
	movq	%r15, %rax
	orq	%r11, %rax
	xorq	536(%rsp), %rax
	xorq	%rbp, %r8
	xorq	%rax, %rsi
	movq	%r8, 512(%rsp)
	movq	576(%rsp), %rax
	orq	%r9, %rax
	xorq	%rax, %r10
	movq	568(%rsp), %rax
	orq	%r13, %rdx
	xorq	864(%rsp), %r13
	orq	%r12, %r10
	xorq	%rdi, %rdx
	andq	856(%rsp), %r13
	xorq	%r10, %rdx
	orq	%rcx, %r15
	andq	%rax, %rdx
	xorq	%r15, %r11
	movq	120(%rsp), %r15
	xorq	%rsi, %rdx
	xorq	808(%rsp), %r15
	movq	%rdx, 536(%rsp)
	movq	792(%rsp), %rdx
	orq	%r12, %r13
	andq	%r14, %r12
	movq	-80(%rsp), %r14
	xorq	%r9, %r13
	xorq	400(%rsp), %r14
	xorq	%r13, %rbx
	xorq	%rbx, %rdx
	andq	%r12, %rbx
	movq	184(%rsp), %r12
	xorq	%rbx, %r11
	xorq	584(%rsp), %r12
	movq	%r15, %rbx
	andq	%rax, %r11
	movq	%r11, %rax
	movq	%r14, %r11
	xorq	%rdx, %rax
	movq	160(%rsp), %rdx
	xorq	624(%rsp), %rdx
	movq	%r12, %rbp
	movq	%rax, 792(%rsp)
	movq	16(%rsp), %r12
	movq	-24(%rsp), %rax
	xorq	552(%rsp), %r12
	movq	%rbp, %rdi
	xorq	344(%rsp), %rax
	movq	%rdx, %rsi
	movq	%r12, %r13
	movq	%r12, %r10
	movq	%rax, %r9
	notq	%r13
	xorq	%rax, %r11
	notq	%r9
	movq	%r13, %rcx
	movq	%r13, %rdx
	movq	%r9, %r8
	movq	%rcx, %r9
	xorq	%r11, %rdx
	orq	%r14, %r8
	movq	%rdx, 568(%rsp)
	xorq	%rbp, %rdx
	orq	%r8, %r9
	movq	%rdx, %r13
	movq	%rsi, %rdx
	andq	%rbp, %r9
	movq	%r13, 576(%rsp)
	xorq	%r14, %r9
	xorq	%rax, %r8
	andq	%r9, %rdi
	orq	%r8, %rdx
	andq	%rsi, %r9
	xorq	%rdi, %rdx
	movq	%r15, %rdi
	xorq	%r13, %r9
	andq	%rdx, %rdi
	movq	%rbp, %r15
	movq	%rbp, %r13
	xorq	%rdi, %r9
	movq	496(%rsp), %rdi
	xorq	%r8, %r13
	movq	%r9, 856(%rsp)
	orq	%r10, %rdx
	xorq	%r9, %rdi
	movq	%rax, %r9
	andq	%rcx, %rax
	orq	%r12, %r9
	movq	%rdi, 496(%rsp)
	movq	%r14, %rdi
	orq	%rcx, %rdi
	movq	%r9, 864(%rsp)
	orq	%r14, %r9
	orq	%rax, %r15
	xorq	%r9, %rcx
	xorq	%r11, %rax
	movq	%rdi, %r11
	andq	%rbp, %rcx
	orq	568(%rsp), %r14
	xorq	%r15, %r11
	xorq	%rcx, %rax
	andq	856(%rsp), %r14
	movq	%r11, %r12
	movq	%rsi, %r11
	xorq	%r9, %r13
	andq	%rax, %r11
	xorq	%r11, %r12
	movq	768(%rsp), %r11
	orq	%rbx, %r12
	orq	%rsi, %r14
	xorq	%r13, %r11
	xorq	%r12, %r11
	xorq	%r11, %r14
	movq	%rdx, %r11
	movq	576(%rsp), %rdx
	xorq	%r8, %r11
	xorq	520(%rsp), %rdx
	andq	%r13, %rcx
	movq	%r11, %r10
	movq	%rsi, %r11
	movq	%r14, 768(%rsp)
	orq	%r10, %r11
	andq	%rbp, %rax
	xorq	%r13, %rax
	andq	%r9, %r13
	xorq	%rdx, %rcx
	andq	%rax, %rsi
	xorq	%r11, %rcx
	movq	%r10, %r11
	orq	%r15, %r11
	movq	%r11, %rdx
	andq	%rbx, %rdx
	movq	%rdx, %r11
	xorq	%rcx, %r11
	movq	%r11, 520(%rsp)
	xorq	776(%rsp), %rdi
	andq	864(%rsp), %r15
	movq	-112(%rsp), %r14
	xorq	392(%rsp), %r14
	movq	144(%rsp), %r12
	xorq	560(%rsp), %r12
	movq	-88(%rsp), %rbp
	xorq	%r13, %rdi
	xorq	616(%rsp), %rbp
	movq	32(%rsp), %rdx
	xorq	%rsi, %rdi
	andq	%rax, %r15
	movq	24(%rsp), %rsi
	movq	%r14, %r13
	xorq	848(%rsp), %rsi
	orq	%rbx, %r15
	notq	%r13
	movq	%r15, %r11
	xorq	400(%rsp), %rdx
	movq	%r13, %r15
	movq	%r12, %r13
	movq	%r12, %rcx
	andq	%rbp, %r13
	notq	%rcx
	xorq	%rdi, %r11
	xorq	%r14, %r13
	movq	%rsi, %r10
	movq	%r12, %rbx
	andq	%rcx, %r10
	movq	%r13, %r9
	andq	%rbp, %rcx
	xorq	%r10, %r9
	movq	%r11, 776(%rsp)
	movq	%rsi, %rax
	movq	%r9, 576(%rsp)
	movq	-104(%rsp), %r11
	xorq	%rdx, %r9
	xorq	344(%rsp), %r11
	xorq	%r15, %rbx
	movq	%r9, %rdi
	orq	%rbx, %rax
	xorq	%rcx, %rax
	andq	%rax, %rdi
	movq	%rdi, 568(%rsp)
	movq	%r12, %rdi
	xorq	%rax, %rdi
	movq	%rdi, 856(%rsp)
	movq	%rdi, %r8
	movq	568(%rsp), %rdi
	orq	%r9, %r8
	xorq	752(%rsp), %r9
	andq	%rsi, %r8
	xorq	%r8, %rdi
	xorq	%rbp, %r8
	movq	%rdi, %r12
	andq	%rdx, %r12
	xorq	%rax, %r12
	andq	%r14, %rax
	andq	%r11, %r12
	movq	%r12, %rdi
	xorq	%r9, %rdi
	movq	%r15, %r9
	orq	%r13, %r9
	movq	%rdi, 752(%rsp)
	movq	%r14, %rdi
	xorq	%r9, %rdi
	xorq	%r9, %rcx
	movq	%rdi, 864(%rsp)
	orq	%rsi, %rdi
	orq	%rdx, %rcx
	movq	%rdi, %r12
	movq	%rsi, %rdi
	xorq	%rbp, %rdi
	xorq	%rbx, %rdi
	xorq	%rbp, %rbx
	xorq	%rcx, %rdi
	movq	%rdx, %rcx
	orq	%r10, %rcx
	orq	%r8, %rcx
	orq	%r13, %r8
	xorq	%r12, %rcx
	xorq	%rsi, %r8
	orq	%r11, %rcx
	xorq	%rdi, %rcx
	movq	480(%rsp), %rdi
	xorq	%rcx, %rdi
	orq	%rbx, %r10
	xorq	760(%rsp), %r10
	movq	%rdx, %rbx
	xorq	864(%rsp), %r12
	andq	568(%rsp), %r9
	orq	%r8, %rbx
	movq	%rdi, 480(%rsp)
	xorq	%rbx, %r10
	movq	%r8, %rbx
	orq	%r15, %r8
	xorq	%rax, %rbx
	orq	576(%rsp), %rax
	orq	%rdx, %r12
	xorq	%rbx, %rcx
	andq	%r12, %r9
	movq	%r8, %rbp
	andq	%rdx, %rcx
	orq	%r11, %r9
	xorq	%rcx, %rax
	orq	%r11, %rax
	movq	856(%rsp), %r11
	xorq	504(%rsp), %r11
	movq	%rax, %rbx
	xorq	%r10, %rbx
	movq	%rbx, 760(%rsp)
	xorq	%r11, %r12
	xorq	%r9, %r12
	xorq	%r12, %rbp
	movq	%rbp, 504(%rsp)
	movq	272(%rsp), %r11
	movq	408(%rsp), %rbp
	movq	312(%rsp), %rdx
	xorq	392(%rsp), %rdx
	movq	136(%rsp), %rdi
	movq	8(%rsp), %rax
	xorq	376(%rsp), %rdi
	xorq	%rbp, %r11
	xorq	560(%rsp), %rax
	movq	304(%rsp), %r14
	movq	%r11, %r8
	movq	-96(%rsp), %r11
	xorq	600(%rsp), %r11
	movq	%rdx, %r12
	xorq	800(%rsp), %r14
	movq	464(%rsp), %r15
	movq	%rdi, %rbx
	movq	%rbx, %r10
	movq	%r11, %r13
	notq	%r13
	movq	%r13, %rdx
	movq	%r11, %r13
	orq	%rax, %r13
	movq	%r13, %rsi
	movq	%rdi, %r13
	movq	%rax, %rdi
	andq	%rbx, %rax
	andq	%rsi, %r13
	notq	%rdi
	movq	%rax, %r9
	xorq	%r13, %rdi
	movq	%r13, %rcx
	xorq	%rsi, %r9
	movq	%r12, %r13
	movq	%r11, %rsi
	andq	%r9, %r13
	xorq	%rdx, %rcx
	orq	%r12, %rsi
	xorq	%rdi, %rsi
	xorq	%rbx, %rdx
	andq	%rcx, %rdi
	andq	%r12, %rcx
	orq	%r12, %rdx
	xorq	%r13, %r10
	xorq	%rcx, %r9
	movq	%rdi, %rcx
	movq	%r14, %rax
	xorq	%rdx, %rcx
	xorq	%r11, %rdx
	andq	%r10, %rax
	orq	%r14, %rcx
	xorq	%r13, %rdx
	xorq	%rsi, %rax
	xorq	%rcx, %r9
	movq	736(%rsp), %rsi
	andq	%r14, %rdx
	andq	%r12, %r10
	movq	%r8, %rcx
	movq	-120(%rsp), %rbx
	xorq	%rdx, %r10
	andq	%r9, %rcx
	orq	%r8, %r9
	xorq	%rax, %rcx
	xorq	%r10, %rdi
	notq	%rax
	xorq	%rax, %rsi
	xorq	%rdi, %rax
	xorq	%rcx, %r15
	andq	%rax, %r12
	orq	%r14, %rax
	xorq	%r9, %rsi
	xorq	%rcx, %r12
	movq	488(%rsp), %rdx
	movq	%r15, 464(%rsp)
	xorq	%rax, %r12
	movq	248(%rsp), %r15
	movq	288(%rsp), %r10
	andq	%r12, %r8
	xorq	744(%rsp), %r9
	xorq	528(%rsp), %rbx
	xorq	%r8, %rdi
	xorq	376(%rsp), %r15
	xorq	352(%rsp), %r10
	xorq	%rdi, %rdx
	movq	%rsi, 736(%rsp)
	movq	%rdx, 488(%rsp)
	xorq	%r9, %r12
	movq	72(%rsp), %r9
	xorq	824(%rsp), %r9
	movq	%r12, %r13
	movq	%r15, %r8
	movq	%rbx, %r14
	xorq	%rdi, %r13
	movq	-56(%rsp), %rdi
	xorq	648(%rsp), %rdi
	movq	%r13, 744(%rsp)
	movq	%rbx, %rsi
	movq	%r9, %rax
	movq	64(%rsp), %r9
	movq	%rdi, %r11
	notq	%r11
	xorq	%rbp, %r9
	movq	%r11, %r12
	movq	%rbx, %r11
	movq	%r9, %rcx
	notq	%r11
	movq	%r11, %rdx
	movq	%rax, %r11
	orq	%r12, %rdx
	xorq	%rdx, %r11
	andq	%r15, %rdx
	movq	%rbx, %r15
	orq	%rax, %r15
	movq	%r11, %rbp
	movq	%r15, %r11
	movq	%r15, 576(%rsp)
	xorq	%rdi, %r11
	orq	%r8, %rdi
	orq	%r15, %rdi
	movq	%r11, %r13
	xorq	%rdi, %r13
	movq	%r13, %r15
	movq	%rbp, %r13
	notq	%r13
	andq	%r13, %r14
	movq	%r14, %rbx
	movq	%r8, %r14
	orq	%rbx, %r14
	xorq	%r14, %r11
	movq	%r14, %r9
	movq	%r15, %r14
	orq	%r10, %r11
	andq	%r10, %r14
	xorq	%rdi, %r11
	movq	%r11, 568(%rsp)
	movq	%rbp, %r11
	movq	568(%rsp), %rdi
	xorq	%rdx, %r11
	xorq	448(%rsp), %r11
	movq	%r15, 856(%rsp)
	orq	%rcx, %rdi
	xorq	%r14, %r11
	xorq	%r11, %rdi
	movq	%r12, %r11
	orq	%rbx, %r11
	movq	%rdi, 448(%rsp)
	movq	%r11, %rdi
	movq	%rax, %r11
	xorq	%rdi, %r11
	xorq	%rdi, %rsi
	xorq	%r12, %rbx
	movq	%r11, %r14
	movq	%r15, %r11
	movq	%r8, %r15
	xorq	%r8, %r11
	andq	%r14, %r15
	andq	%r8, %rbx
	andq	%r11, %rdi
	orq	%r11, %rax
	xorq	%r15, %rsi
	orq	%r10, %rdi
	movq	720(%rsp), %r15
	notq	%rax
	xorq	%rdi, %rsi
	orq	%rcx, %rax
	movq	%r12, %rdi
	xorq	%rsi, %rax
	movq	576(%rsp), %r8
	xorq	%rdx, %rdi
	xorq	%rax, %r15
	andq	%r9, %rdi
	xorq	%r13, %rbx
	movq	%r15, 720(%rsp)
	movq	%r10, %r15
	xorq	%rbp, %r9
	andq	%rbp, %r15
	xorq	%rdx, %r8
	andq	%r10, %r9
	andq	%r15, %r11
	andq	%rsi, %r9
	movq	96(%rsp), %r15
	xorq	%rdi, %r11
	orq	%rcx, %r11
	xorq	%rbx, %r11
	movq	%r8, %rbx
	movq	472(%rsp), %r8
	andq	%rax, %rbx
	orq	%r10, %rbx
	xorq	%rbx, %r11
	xorq	%r11, %r8
	andq	%r14, %r11
	xorq	%rdx, %r11
	xorq	568(%rsp), %r13
	xorq	856(%rsp), %rsi
	movq	%r8, 472(%rsp)
	movq	88(%rsp), %rdx
	movq	232(%rsp), %r8
	xorq	528(%rsp), %rdx
	xorq	832(%rsp), %r8
	xorq	368(%rsp), %r15
	xorq	%rax, %r13
	xorq	%r9, %r13
	orq	%rcx, %r13
	xorq	728(%rsp), %r13
	movq	%r15, %r14
	movq	%r15, %rbx
	notq	%r14
	xorq	%r11, %r13
	orq	%rsi, %r11
	andq	%r10, %r11
	movq	%r8, %r10
	movq	%rdx, %r8
	xorq	%r13, %r11
	movq	264(%rsp), %rdx
	xorq	352(%rsp), %rdx
	movq	%r11, 728(%rsp)
	movq	104(%rsp), %r11
	movq	%r8, %rdi
	xorq	336(%rsp), %r11
	notq	%rdi
	movq	%rdi, 568(%rsp)
	movq	%rdx, %rax
	movq	%r14, %rdx
	movq	%r11, %rcx
	movq	224(%rsp), %r11
	xorq	664(%rsp), %r11
	movq	%rcx, %r14
	movq	%rcx, %rbp
	xorq	%rax, %r14
	andq	%r8, %rbp
	movq	%r14, %r12
	movq	%rcx, %r14
	movq	%rbp, %r13
	xorq	%r8, %r12
	movq	%r11, %r9
	andq	%r15, %r14
	xorq	%rdx, %r12
	movq	%r15, %rbp
	orq	%r14, %rdi
	andq	%r12, %rbx
	xorq	%r13, %rbp
	movq	%rbx, 576(%rsp)
	movq	%rbx, %rsi
	movq	%r11, %rbx
	movq	432(%rsp), %r11
	andq	%rax, %rsi
	xorq	%rsi, %rdi
	movq	%rbp, %rsi
	movq	%rax, %rbp
	andq	%rsi, %rbp
	andq	%rdi, %rbx
	xorq	%rcx, %rdi
	xorq	%r12, %r11
	xorq	%rbp, %rdx
	xorq	%rbx, %r11
	movq	%r9, %rbx
	andq	%rax, %rdi
	orq	%rdx, %rbx
	xorq	%r8, %rbp
	xorq	%rcx, %rdx
	xorq	%rbx, %rdi
	andq	%rdx, %rax
	movq	%r10, %r8
	andq	%r10, %rdi
	andq	%r15, %rdx
	orq	%rax, %rsi
	xorq	%r11, %rdi
	movq	%r14, %r11
	xorq	568(%rsp), %rsi
	orq	%rbp, %r11
	movq	%rdi, 432(%rsp)
	notq	%rbp
	andq	%r9, %r11
	xorq	%rax, %r11
	xorq	%r15, %r11
	orq	%r11, %rcx
	xorq	704(%rsp), %r11
	andn	%r9, %rcx, %rdi
	xorq	%rbp, %rdi
	andq	%rdi, %r8
	xorq	%r11, %r8
	movq	%r12, %r11
	movq	%r8, 704(%rsp)
	movq	456(%rsp), %rbx
	xorq	%rdx, %r11
	movq	%r11, %r8
	movq	112(%rsp), %r15
	movq	-32(%rsp), %r11
	orq	%r9, %r8
	xorq	%r14, %rbx
	xorq	%r8, %rbx
	movq	40(%rsp), %r8
	xorq	%rdi, %rbx
	movq	%r13, %rdi
	xorq	%rax, %rdi
	xorq	%rcx, %rdi
	orq	%r9, %rdi
	xorq	%rsi, %rdi
	orq	%r10, %rdi
	movq	%rdi, %rax
	xorq	%rbx, %rax
	xorq	712(%rsp), %r14
	andq	576(%rsp), %rcx
	xorq	384(%rsp), %r15
	orq	%r12, %rdx
	andq	%rsi, %rbp
	orq	%r10, %rbp
	xorq	608(%rsp), %r8
	movq	%rax, 456(%rsp)
	xorq	368(%rsp), %r11
	movq	48(%rsp), %rsi
	xorq	%r14, %rdx
	orq	%r9, %rcx
	movq	192(%rsp), %r9
	xorq	%rbp, %rdx
	xorq	336(%rsp), %r9
	xorq	328(%rsp), %rsi
	xorq	%rdx, %rcx
	movq	%r15, %rdx
	movq	240(%rsp), %r15
	xorq	816(%rsp), %r15
	movq	%rdx, %r14
	movq	%rcx, 712(%rsp)
	notq	%r14
	movq	%r14, %rax
	movq	%r9, %rcx
	movq	%r9, %rbp
	notq	%rcx
	movq	%r15, %r14
	movq	%rcx, 568(%rsp)
	movq	%r15, %rdi
	andq	%r9, %r14
	andq	%rax, %rdi
	orq	%r9, %rax
	movq	%r14, %rcx
	movq	%r8, %r14
	xorq	%rdx, %rcx
	movq	%rax, %rdx
	xorq	%rcx, %r14
	andq	%r15, %rcx
	andq	%r8, %rdx
	xorq	%rcx, %rbp
	movq	%rcx, %rax
	movq	%rbp, 576(%rsp)
	andq	%r8, %rbp
	movq	%rbp, %r10
	movq	%rbp, 856(%rsp)
	movq	%rdi, %rbp
	xorq	%r11, %r10
	movq	%r9, %rdi
	orq	%rsi, %r10
	orq	%rbp, %rdi
	xorq	%r14, %r10
	movq	%rdi, %rbx
	movq	%rdi, %r12
	xorq	%r10, %rax
	xorq	%rdx, %rbx
	movq	%r11, %rdi
	movq	%rax, %r13
	movq	416(%rsp), %rax
	orq	%rsi, %r13
	xorq	%rbx, %r13
	andq	%r13, %rdi
	xorq	%rcx, %r14
	orq	576(%rsp), %r8
	xorq	%r10, %rdi
	andq	%r15, %r12
	andq	%r15, %rbx
	xorq	%rdi, %rax
	orq	%r9, %rdi
	xorq	%rcx, %rdi
	movq	%rax, 416(%rsp)
	movq	%rdx, %rax
	xorq	%rdi, %rax
	movq	%rdi, %r9
	movq	%rbp, %rdi
	orq	%r14, %rdi
	movq	%rsi, %rbp
	xorq	%r8, %r12
	orq	%rdi, %rbp
	andq	%rsi, %rdi
	xorq	688(%rsp), %rbp
	andq	%r9, %rdi
	movq	568(%rsp), %r9
	xorq	%rcx, %rdx
	orq	%rsi, %rdx
	andq	%r13, %r9
	xorq	%rax, %rbp
	xorq	%r9, %rdi
	orq	%r11, %rdi
	xorq	%rbp, %rdi
	movq	568(%rsp), %rbp
	movq	%rdi, 688(%rsp)
	movq	%rbp, %r8
	orq	%rbp, %rbx
	movq	440(%rsp), %rbp
	orq	%rsi, %r8
	andq	%rsi, %rbx
	orq	%r8, %rax
	movq	%r11, %r8
	xorq	%rbx, %r10
	xorq	%rax, %r12
	orq	%r12, %r8
	xorq	%r8, %r10
	xorq	%r10, %rbp
	xorq	856(%rsp), %rdx
	xorq	%r15, %r14
	xorq	696(%rsp), %rdx
	andq	%rsi, %r14
	movq	%rbp, 440(%rsp)
	andq	%r14, %r10
	xorq	%r12, %rdx
	xorq	%r13, %r12
	xorq	%r12, %r10
	orq	%r11, %r10
	movq	%r10, %rcx
	xorq	%rdx, %rcx
	movq	%rcx, 696(%rsp)
	movq	216(%rsp), %rax
	movq	208(%rsp), %rcx
	xorq	360(%rsp), %rax
	xorq	656(%rsp), %rcx
	movq	80(%rsp), %r10
	xorq	384(%rsp), %r10
	movq	-48(%rsp), %r14
	xorq	544(%rsp), %r14
	movq	-40(%rsp), %rbp
	movq	%rax, %r13
	xorq	328(%rsp), %rbp
	movq	%rcx, %rax
	movq	128(%rsp), %rcx
	xorq	632(%rsp), %rcx
	movq	%r10, %rdx
	movq	%rax, 568(%rsp)
	notq	%rax
	notq	%rdx
	movq	%r14, %rsi
	movq	%r10, %r14
	movq	%rdx, %r11
	movq	%rbp, %r8
	movq	%rax, %rbp
	movq	%rcx, %rdx
	movq	%rsi, %r9
	movq	%rsi, %rdi
	xorq	%r11, %rdx
	movq	%rsi, %r12
	movq	%rdx, %r10
	movq	%rcx, %rdx
	orq	%r11, %rdx
	movq	%r10, %rbx
	xorq	%rdx, %rbp
	orq	%rbp, %r9
	orq	%rbp, %r11
	xorq	%r9, %rbx
	andq	%r11, %r12
	movq	%rbx, %r15
	movq	%rax, %rbx
	xorq	%r11, %rbx
	movq	%r15, 576(%rsp)
	andq	%rbx, %rdi
	movq	%rdi, 856(%rsp)
	xorq	%r11, %rdi
	andq	%r8, %rdi
	xorq	%r15, %rdi
	movq	%r10, %r15
	andq	%rbx, %r15
	xorq	%r9, %rbx
	xorq	%r15, %r12
	movq	592(%rsp), %r15
	orq	%r8, %r12
	xorq	%r12, %rbx
	orq	%rsi, %r10
	andq	%rsi, %rdx
	xorq	%r10, %rbp
	andn	%r11, %rcx, %rcx
	movq	%r13, %r12
	xorq	%rbp, %r9
	xorq	%rdx, %rcx
	movq	%r14, %rsi
	xorq	%rdi, %r15
	andq	%r10, %rax
	andq	%r9, %rsi
	orq	%rbx, %r12
	orq	%r8, %rcx
	movq	%r13, %rdx
	xorq	%r15, %r12
	xorq	%rax, %rcx
	movq	%rsi, %r15
	movq	576(%rsp), %rsi
	andq	%rcx, %rdx
	xorq	%r14, %rax
	xorq	%rdi, %rdx
	orq	568(%rsp), %rdi
	xorq	680(%rsp), %r14
	xorq	424(%rsp), %rdx
	xorq	672(%rsp), %r9
	xorq	%r11, %r15
	andq	%rsi, %rax
	andn	%r11, %rsi, %r11
	movq	%r12, 592(%rsp)
	andq	%r8, %rax
	xorq	%r15, %rax
	andq	%r8, %rdi
	xorq	%r14, %r10
	orq	%r13, %rax
	xorq	856(%rsp), %r10
	movq	%rdx, 424(%rsp)
	xorq	%rax, %r9
	movq	%rdi, %rdx
	movq	136(%rsp), %r14
	xorq	%r9, %rdx
	orq	%r8, %r11
	xorq	%rcx, %rbx
	orq	%r15, %rbx
	movq	16(%rsp), %r15
	xorq	456(%rsp), %r15
	andq	%r13, %rbx
	xorq	%r11, %r10
	movq	%rdx, 672(%rsp)
	movq	%rbx, %rsi
	movq	312(%rsp), %rdx
	movq	144(%rsp), %r11
	xorq	%r10, %rsi
	xorq	728(%rsp), %r11
	movq	%rsi, 680(%rsp)
	xorq	768(%rsp), %r14
	movq	%r15, %rsi
	movq	8(%rsp), %r15
	xorq	416(%rsp), %r15
	xorq	%r12, %rdx
	movq	32(%rsp), %r9
	xorq	488(%rsp), %r9
	movq	%rdx, %rbp
	movq	%rsi, 568(%rsp)
	movq	%r14, %r13
	movq	%r11, %r14
	movq	%r15, %r8
	notq	%r14
	movq	%r13, %rax
	notq	%r8
	movq	%r14, %rcx
	movq	%r15, 576(%rsp)
	orq	%r8, %rax
	xorq	%r13, %r11
	movq	%r8, %r14
	movq	%rax, %r15
	andq	%rcx, %rax
	xorq	%r11, %r14
	movq	%rax, %rdi
	orq	%rax, %rbp
	orq	%rcx, %r8
	movq	%rdx, %rax
	movq	%r9, %rbx
	movq	%r14, %r9
	andq	%r8, %rax
	xorq	%rbp, %r9
	movq	%r15, 856(%rsp)
	xorq	%rax, %rbp
	movq	%rax, %r10
	movq	%rbp, 864(%rsp)
	orq	%rbx, %rbp
	movq	%rbp, %r12
	movq	%rsi, %rbp
	xorq	%r9, %r12
	xorq	%r12, %r8
	andn	%r11, %r8, %r11
	movq	%r11, %rax
	movq	%rdx, %r11
	orq	%r8, %r11
	orq	%rbx, %rax
	xorq	%rcx, %r11
	xorq	%rax, %r11
	movq	656(%rsp), %rax
	orq	%r11, %rbp
	movq	%rbp, %rsi
	movq	%r15, %rbp
	movq	%rcx, %r15
	xorq	%r12, %rax
	xorq	%rax, %rsi
	movq	%r13, %rax
	orq	%r14, %rax
	andq	%r8, %rbp
	orq	%r9, %rcx
	notq	%rax
	xorq	%r9, %rbp
	movq	%rsi, 656(%rsp)
	orq	%rdx, %rax
	andq	%r9, %r15
	xorq	%rdi, %rcx
	movq	%rdi, %rsi
	movq	%rbx, %rdi
	orq	%rbx, %r15
	xorq	%rax, %rsi
	andq	%rbp, %rdi
	andq	%r13, %r10
	xorq	%rsi, %r15
	xorq	%rdi, %rcx
	xorq	400(%rsp), %r15
	movq	568(%rsp), %rdi
	andq	%r13, %rbp
	orq	%r13, %rsi
	xorq	%rbp, %rax
	xorq	864(%rsp), %r13
	xorq	%r8, %rsi
	orq	%rbx, %rax
	andq	856(%rsp), %r13
	orq	%rdi, %rcx
	xorq	%r15, %rcx
	movq	%r14, %r15
	orq	%r10, %r15
	movq	%rcx, 400(%rsp)
	movq	%r15, %rcx
	xorq	408(%rsp), %rcx
	xorq	%rcx, %rax
	movq	576(%rsp), %rcx
	orq	%r9, %rcx
	xorq	%rcx, %r11
	orq	%rbx, %r11
	xorq	%r11, %rsi
	andq	%rdi, %rsi
	movq	%rsi, %r8
	xorq	%rax, %r8
	orq	%rbx, %r13
	orq	%rdx, %r14
	xorq	%r9, %r13
	andq	%r12, %rbx
	xorq	%r14, %r10
	xorq	%r13, %rbp
	movq	664(%rsp), %r13
	movq	%r8, 408(%rsp)
	movq	-104(%rsp), %rax
	movq	272(%rsp), %rdx
	xorq	472(%rsp), %rax
	xorq	592(%rsp), %rdx
	xorq	%rbp, %r13
	andq	%rbx, %rbp
	xorq	%rbp, %r10
	movq	-16(%rsp), %rbp
	xorq	752(%rsp), %rbp
	andq	%rdi, %r10
	movq	%r13, %r9
	movq	%r10, %r13
	movq	-112(%rsp), %r10
	xorq	688(%rsp), %r10
	xorq	%r9, %r13
	movq	%rax, %r9
	movq	%rdx, %rbx
	movq	%rbp, %rdi
	movq	%r13, 664(%rsp)
	movq	152(%rsp), %rbp
	movq	-88(%rsp), %r13
	xorq	512(%rsp), %r13
	notq	%r9
	xorq	456(%rsp), %rbp
	movq	%r10, %r11
	orq	%r13, %r9
	movq	%r13, %r15
	movq	%rbp, %r14
	movq	%rbp, %rsi
	notq	%r14
	movq	%r14, %rcx
	movq	%r13, %r14
	xorq	%rax, %r14
	movq	%rcx, %r8
	xorq	%r14, %r8
	movq	%r14, %r12
	movq	%r8, 568(%rsp)
	xorq	%rdx, %r8
	movq	%rcx, %rdx
	orq	%r9, %rdx
	movq	%r8, %r14
	xorq	%rax, %r9
	movq	%rdx, %r8
	movq	%rbx, %rdx
	movq	%r14, 576(%rsp)
	andq	%rbx, %r8
	xorq	%r13, %r8
	andq	%r8, %rdx
	andq	%rdi, %r8
	movq	%rdx, %r10
	movq	%rdi, %rdx
	xorq	%r14, %r8
	orq	%r9, %rdx
	movq	%r11, %r14
	xorq	%r10, %rdx
	andq	%rdx, %r14
	movq	%r14, %r10
	movq	%r8, %r14
	xorq	%r10, %r14
	movq	384(%rsp), %r10
	movq	%r14, 856(%rsp)
	xorq	%r14, %r10
	orq	%rcx, %r15
	orq	%rsi, %rdx
	movq	%r10, 384(%rsp)
	movq	%rax, %r10
	andq	%rcx, %rax
	orq	%rbp, %r10
	movq	%rbx, %rbp
	movq	%rdx, %rsi
	movq	%r10, 864(%rsp)
	orq	%r13, %r10
	orq	568(%rsp), %r13
	movq	%r10, %r8
	xorq	%r10, %rbp
	movq	%r15, %r10
	xorq	%r8, %rcx
	movq	%rbx, %r15
	andq	856(%rsp), %r13
	orq	%rax, %r15
	andq	%rbx, %rcx
	xorq	%r12, %rax
	movq	%r15, %r14
	xorq	%rcx, %rax
	movq	%r10, %r15
	movq	%rdi, %r12
	xorq	%r14, %r15
	xorq	%r9, %rbp
	andq	%rax, %r12
	orq	%rdi, %r13
	xorq	%r9, %rsi
	xorq	%r12, %r15
	movq	640(%rsp), %r12
	andq	%rbp, %rcx
	orq	%r11, %r15
	movq	%rdi, %rdx
	movq	-80(%rsp), %r9
	orq	%rsi, %rdx
	orq	%r14, %rsi
	xorq	%rbp, %r12
	xorq	%r15, %r12
	xorq	%r12, %r13
	movq	%r13, 640(%rsp)
	movq	576(%rsp), %r13
	xorq	392(%rsp), %r13
	xorq	%r13, %rcx
	xorq	%rdx, %rcx
	movq	%rsi, %rdx
	andq	%r11, %rdx
	xorq	%rcx, %rdx
	andq	%rbx, %rax
	andq	864(%rsp), %r14
	xorq	648(%rsp), %r10
	xorq	%rbp, %rax
	movq	184(%rsp), %rcx
	andq	%rax, %rdi
	xorq	440(%rsp), %rcx
	xorq	520(%rsp), %r9
	andq	%r8, %rbp
	movq	%rdx, 392(%rsp)
	movq	-72(%rsp), %rdx
	andq	%rax, %r14
	movq	120(%rsp), %rax
	xorq	712(%rsp), %rax
	xorq	%rbp, %r10
	orq	%r11, %r14
	xorq	744(%rsp), %rdx
	xorq	%rdi, %r10
	movq	%rcx, %r13
	xorq	%r10, %r14
	movq	%r13, %rsi
	movq	%rax, %rdi
	movq	%rcx, %rax
	movq	%r14, 648(%rsp)
	notq	%rax
	movq	%r9, %r14
	movq	%rdx, %rbp
	movq	%rax, %rcx
	movq	%r14, %rax
	movq	-24(%rsp), %rdx
	notq	%rax
	xorq	512(%rsp), %rdx
	movq	-64(%rsp), %r9
	movq	%rax, %r15
	movq	%r13, %rax
	xorq	472(%rsp), %r9
	andq	%rbp, %rax
	xorq	%r15, %rsi
	movq	%rax, %r12
	movq	%rdi, %rax
	movq	%rsi, %r11
	xorq	%r14, %r12
	andq	%rcx, %rax
	andq	%rbp, %rcx
	movq	%rax, %r10
	movq	%r12, %rax
	movq	%r9, %rbx
	xorq	%r10, %rax
	movq	%rax, 568(%rsp)
	xorq	%rdx, %rax
	movq	%rax, %r9
	movq	%rdi, %rax
	orq	%rsi, %rax
	movq	%r9, %r8
	xorq	%rcx, %rax
	xorq	%rax, %r13
	andq	%rax, %r8
	movq	%r13, 856(%rsp)
	orq	%r9, %r13
	movq	%r8, %rsi
	movq	%r13, %r8
	xorq	624(%rsp), %r9
	movq	%rsi, 576(%rsp)
	andq	%rdi, %r8
	xorq	%r8, %rsi
	andq	%rdx, %rsi
	xorq	%rbp, %r8
	xorq	%rax, %rsi
	andq	%r14, %rax
	andq	%rbx, %rsi
	movq	%rsi, %r13
	movq	%rdi, %rsi
	xorq	%r9, %r13
	movq	%r15, %r9
	xorq	%rbp, %rsi
	orq	%r12, %r9
	xorq	%r11, %rsi
	movq	%r13, 624(%rsp)
	xorq	%r9, %rcx
	movq	%r14, %r13
	xorq	%rbp, %r11
	orq	%rdx, %rcx
	xorq	%r9, %r13
	orq	%r10, %r11
	xorq	%rcx, %rsi
	movq	%rdx, %rcx
	movq	%r13, 864(%rsp)
	orq	%r10, %rcx
	orq	%rdi, %r13
	xorq	632(%rsp), %r11
	orq	%r8, %rcx
	orq	%r12, %r8
	movq	%rdx, %r10
	xorq	%r13, %rcx
	xorq	%rdi, %r8
	movq	-8(%rsp), %rbp
	orq	%rbx, %rcx
	movq	%r8, %r14
	orq	%r8, %r10
	xorq	%rsi, %rcx
	movq	368(%rsp), %rsi
	xorq	%rax, %r14
	orq	568(%rsp), %rax
	xorq	%r10, %r11
	movq	352(%rsp), %r12
	xorq	%rcx, %rsi
	xorq	%r14, %rcx
	andq	%rdx, %rcx
	movq	%rsi, 368(%rsp)
	xorq	%rcx, %rax
	orq	%rbx, %rax
	xorq	864(%rsp), %r13
	andq	576(%rsp), %r9
	xorq	%r11, %rax
	orq	%r15, %r8
	xorq	720(%rsp), %rbp
	movq	%rax, 632(%rsp)
	movq	856(%rsp), %rax
	movq	%r8, %r14
	xorq	376(%rsp), %rax
	movq	24(%rsp), %r8
	orq	%rdx, %r13
	xorq	536(%rsp), %r8
	andq	%r13, %r9
	movq	%rbp, %rsi
	orq	%r9, %rbx
	movq	320(%rsp), %r9
	xorq	520(%rsp), %r9
	xorq	%rax, %r13
	movq	(%rsp), %rax
	xorq	440(%rsp), %rax
	xorq	%rbx, %r13
	movq	296(%rsp), %rbx
	xorq	672(%rsp), %rbx
	xorq	%r13, %r14
	movq	160(%rsp), %r13
	xorq	504(%rsp), %r13
	movq	%r14, 376(%rsp)
	movq	%rbp, %r14
	movq	%r8, %r10
	notq	%r14
	orq	%rax, %rsi
	movq	%r14, %rdx
	movq	%r13, %rdi
	movq	%r9, %r13
	movq	%rdi, %r14
	movq	%rdi, %r8
	andq	%rsi, %r14
	movq	%r14, %rcx
	movq	%rax, %r14
	notq	%r14
	movq	%r14, %r9
	movq	%rax, %r14
	movq	%rbx, %rax
	andq	%rdi, %r14
	xorq	%rcx, %r9
	xorq	%rdx, %rcx
	movq	%r14, %r11
	movq	%r13, %r14
	xorq	%rdi, %rdx
	xorq	%rsi, %r11
	movq	%rbp, %rsi
	andq	%r11, %r14
	orq	%r13, %rsi
	xorq	%r14, %r8
	xorq	%r9, %rsi
	andq	%rcx, %r9
	andq	%r8, %rax
	movq	%r9, %rdi
	xorq	%rsi, %rax
	orq	%r13, %rdx
	andq	%r13, %rcx
	xorq	%rdx, %rdi
	xorq	%rcx, %r11
	xorq	%rbp, %rdx
	movq	%rdi, %rcx
	movq	%r10, %rdi
	xorq	%r14, %rdx
	orq	%rbx, %rcx
	andq	%rbx, %rdx
	andq	%r13, %r8
	xorq	%rcx, %r11
	movq	608(%rsp), %rcx
	xorq	%rdx, %r8
	andq	%r11, %rdi
	xorq	%r8, %r9
	orq	%r10, %r11
	movq	%rdi, %r15
	xorq	%rax, %r15
	notq	%rax
	xorq	%rax, %rcx
	xorq	%r9, %rax
	xorq	%r15, %r12
	movq	%rcx, %rdi
	andq	%rax, %r13
	orq	%rbx, %rax
	xorq	%r11, %rdi
	xorq	616(%rsp), %r11
	xorq	%r15, %r13
	xorq	%rax, %r13
	movq	%rdi, 608(%rsp)
	movq	360(%rsp), %rdi
	andq	%r13, %r10
	movq	%r12, 352(%rsp)
	xorq	%r10, %r9
	xorq	%r11, %r13
	xorq	%r9, %rdi
	xorq	%r9, %r13
	movq	%rdi, 360(%rsp)
	movq	%r13, 616(%rsp)
	movq	-48(%rsp), %r9
	xorq	424(%rsp), %r9
	movq	192(%rsp), %r11
	movq	96(%rsp), %r8
	xorq	464(%rsp), %r11
	movq	256(%rsp), %r13
	movq	%r9, %rdi
	movq	40(%rsp), %r9
	xorq	704(%rsp), %r9
	xorq	776(%rsp), %r8
	movq	%rdi, %rdx
	xorq	536(%rsp), %r13
	notq	%rdx
	movq	%r9, %r14
	movq	%r9, %rax
	movq	%r8, %rsi
	movq	200(%rsp), %r8
	xorq	504(%rsp), %r8
	movq	%rsi, %r12
	movq	%r13, %rcx
	notq	%r12
	orq	%r12, %rdx
	xorq	%rdx, %r14
	andq	%r8, %rdx
	movq	%r14, %rbp
	movq	%rdi, %r14
	movq	%rbp, %r15
	orq	%r9, %r14
	notq	%r15
	movq	%r14, %rbx
	xorq	%rsi, %r14
	movq	%r15, %r13
	movq	%rdi, %r15
	orq	%r8, %rsi
	andq	%r13, %r15
	orq	%rbx, %rsi
	movq	%rbx, 568(%rsp)
	movq	%r15, %rbx
	movq	%r8, %r15
	movq	%r14, %r10
	orq	%rbx, %r15
	movq	%r10, %r14
	xorq	%r15, %r10
	xorq	%rsi, %r14
	movq	%r15, %r9
	orq	%r11, %r10
	xorq	%rsi, %r10
	movq	%rbp, %rsi
	xorq	%rdx, %rsi
	xorq	336(%rsp), %rsi
	movq	%r10, %r15
	movq	%r11, %r10
	movq	%r15, 576(%rsp)
	andq	%r14, %r10
	xorq	%r10, %rsi
	movq	%r15, %r10
	movq	%rax, %r15
	orq	%rcx, %r10
	xorq	%rsi, %r10
	movq	%r12, %rsi
	orq	%rbx, %rsi
	movq	%r10, 336(%rsp)
	movq	%r8, %r10
	xorq	%r14, %r10
	xorq	%rsi, %r15
	xorq	%rsi, %rdi
	movq	%r15, 856(%rsp)
	andq	%r10, %rsi
	andq	%r8, %r15
	orq	%r11, %rsi
	xorq	%r15, %rdi
	orq	%r10, %rax
	xorq	%rsi, %rdi
	notq	%rax
	movq	600(%rsp), %rsi
	orq	%rcx, %rax
	movq	%r11, %r15
	xorq	%r12, %rbx
	xorq	%rdi, %rax
	andq	%rbp, %r15
	andq	%r8, %rbx
	xorq	%rax, %rsi
	andq	%r15, %r10
	xorq	%r13, %rbx
	movq	%rsi, 600(%rsp)
	movq	%r12, %rsi
	xorq	576(%rsp), %r13
	xorq	%rdx, %rsi
	movq	344(%rsp), %r12
	movq	56(%rsp), %r8
	andq	%r9, %rsi
	xorq	%rbp, %r9
	xorq	%rsi, %r10
	andq	%r11, %r9
	orq	%rcx, %r10
	andq	%rdi, %r9
	xorq	%rax, %r13
	xorq	%rbx, %r10
	movq	568(%rsp), %rbx
	xorq	%r9, %r13
	orq	%rcx, %r13
	xorq	840(%rsp), %r13
	xorq	%r14, %rdi
	xorq	%rdx, %rbx
	andq	%rax, %rbx
	orq	%r11, %rbx
	xorq	%rbx, %r10
	xorq	%r10, %r12
	andq	856(%rsp), %r10
	movq	%r12, 344(%rsp)
	xorq	%rdx, %r10
	xorq	%r10, %r13
	orq	%rdi, %r10
	andq	%r11, %r10
	movq	%r10, %r12
	xorq	%r13, %r12
	movq	128(%rsp), %r13
	xorq	448(%rsp), %r13
	xorq	480(%rsp), %r8
	movq	%r12, 840(%rsp)
	movq	%r13, %rcx
	movq	288(%rsp), %r13
	xorq	792(%rsp), %r13
	movq	%r8, %rdx
	movq	%r8, %rdi
	movq	%rcx, %r10
	notq	%rdx
	andq	%r8, %r10
	movq	%r13, %rsi
	movq	48(%rsp), %r13
	movq	-40(%rsp), %r12
	xorq	424(%rsp), %r12
	movq	216(%rsp), %r11
	xorq	464(%rsp), %r11
	xorq	696(%rsp), %r13
	movq	%r12, %r15
	notq	%r15
	movq	%r11, %rax
	movq	%r15, %rbx
	movq	%rcx, %r15
	xorq	%r11, %r15
	movq	%r8, %r11
	movq	%rbx, 568(%rsp)
	xorq	%r12, %r15
	orq	%r10, %rbx
	xorq	%rdx, %r15
	movq	%rbx, %r9
	andq	%r15, %r11
	movq	%r11, 576(%rsp)
	movq	%r11, %r14
	movq	%rcx, %r11
	andq	%r12, %r11
	andq	%rax, %r14
	movq	%r11, %r8
	movq	%rdi, %r11
	xorq	%r14, %r9
	xorq	%r8, %r11
	movq	%rsi, %r14
	movq	%r11, %rbx
	movq	%rax, %r11
	andq	%r9, %r14
	andq	%rbx, %r11
	xorq	%rcx, %r9
	xorq	%r11, %rdx
	movq	%r11, %rbp
	movq	328(%rsp), %r11
	andq	%rax, %r9
	xorq	%r12, %rbp
	movq	%r13, %r12
	xorq	%r15, %r11
	xorq	%r14, %r11
	movq	%rsi, %r14
	orq	%rdx, %r14
	xorq	%rcx, %rdx
	xorq	%r14, %r9
	andq	%rdx, %rax
	andq	%r13, %r9
	movq	%r9, %r14
	xorq	%r11, %r14
	movq	%r10, %r11
	orq	%rbp, %r11
	movq	%r14, 328(%rsp)
	movq	552(%rsp), %r14
	movq	%r11, %r9
	notq	%rbp
	andq	%rsi, %r9
	andq	%rdi, %rdx
	orq	%rax, %rbx
	xorq	%rax, %r9
	xorq	%r10, %r14
	xorq	568(%rsp), %rbx
	xorq	%rdi, %r9
	movq	%r15, %rdi
	xorq	848(%rsp), %r10
	orq	%r9, %rcx
	xorq	%rdx, %rdi
	xorq	824(%rsp), %r9
	andn	%rsi, %rcx, %r11
	orq	%rsi, %rdi
	orq	%r15, %rdx
	xorq	%rbp, %r11
	xorq	%rdi, %r14
	andq	%rbx, %rbp
	xorq	%r11, %r14
	andq	%r11, %r12
	movq	%r8, %r11
	xorq	%rax, %r11
	orq	%r13, %rbp
	xorq	%r10, %rdx
	xorq	%rcx, %r11
	andq	576(%rsp), %rcx
	xorq	%r9, %r12
	orq	%rsi, %r11
	movq	-120(%rsp), %r9
	movq	264(%rsp), %r8
	xorq	%rbx, %r11
	movq	232(%rsp), %r10
	movq	%r12, 824(%rsp)
	orq	%r13, %r11
	movq	208(%rsp), %r12
	orq	%rsi, %rcx
	xorq	%r14, %r11
	xorq	%rcx, %rdx
	movq	%rbp, %rcx
	movq	%r11, 568(%rsp)
	xorq	%rdx, %rcx
	xorq	432(%rsp), %r9
	xorq	680(%rsp), %r8
	xorq	448(%rsp), %r10
	xorq	496(%rsp), %r12
	movq	%rcx, 848(%rsp)
	movq	80(%rsp), %r11
	xorq	480(%rsp), %r11
	movq	%r8, %r15
	movq	248(%rsp), %r8
	xorq	736(%rsp), %r8
	movq	%r15, %rcx
	movq	%r10, %rbx
	movq	%r9, %rdi
	andq	%r10, %rcx
	notq	%rbx
	movq	%r12, %rax
	xorq	%r12, %rcx
	movq	%rbx, 576(%rsp)
	movq	%r10, %rbx
	movq	%r8, %rdx
	notq	%rax
	movq	%r8, %r9
	xorq	%rcx, %rdx
	andq	%r15, %rcx
	xorq	%rcx, %rbx
	movq	%rdx, %r13
	movq	%rbx, 856(%rsp)
	andq	%r8, %rbx
	xorq	%rcx, %r13
	movq	%rbx, %rbp
	movq	%rbx, 864(%rsp)
	xorq	%r11, %rbp
	orq	%rdi, %rbp
	xorq	%rdx, %rbp
	movq	%r15, %rdx
	andq	%rax, %rdx
	movq	%rdx, %r8
	movq	%r10, %rdx
	orq	%r8, %rdx
	movq	%rdx, %r14
	movq	%rax, %rdx
	orq	%r10, %rdx
	movq	%r14, %rax
	andq	%r9, %rdx
	xorq	%rdx, %rax
	movq	%rax, %r12
	movq	%rcx, %rax
	xorq	%rbp, %rax
	movq	%rax, %rbx
	movq	%r11, %rax
	orq	%rdi, %rbx
	xorq	%r12, %rbx
	andq	%rbx, %rax
	movq	%rax, %rsi
	movq	544(%rsp), %rax
	xorq	%rbp, %rsi
	xorq	%rsi, %rax
	orq	%r10, %rsi
	movq	%rax, 552(%rsp)
	movq	%rsi, %rax
	movq	%r8, %rsi
	xorq	%rcx, %rax
	orq	%r13, %rsi
	movq	%rdi, %r8
	movq	%rax, %r10
	movq	%rdx, %rax
	orq	%rsi, %r8
	xorq	%r10, %rax
	xorq	808(%rsp), %r8
	andq	%rdi, %rsi
	andq	%r10, %rsi
	movq	576(%rsp), %r10
	orq	856(%rsp), %r9
	xorq	%rcx, %rdx
	andq	%r15, %r14
	andq	%r15, %r12
	orq	%rdi, %rdx
	xorq	864(%rsp), %rdx
	xorq	%r15, %r13
	andq	%rbx, %r10
	xorq	%rax, %r8
	xorq	832(%rsp), %rdx
	xorq	%r10, %rsi
	movq	576(%rsp), %r10
	xorq	%r9, %r14
	orq	%r11, %rsi
	andq	%rdi, %r13
	movq	64(%rsp), %rcx
	xorq	%r8, %rsi
	movq	%rsi, 808(%rsp)
	movq	%r10, %rsi
	orq	%r10, %r12
	orq	%rdi, %rsi
	andq	%rdi, %r12
	movq	560(%rsp), %r10
	orq	%rsi, %rax
	xorq	%r12, %rbp
	movq	112(%rsp), %rdi
	xorq	%rax, %r14
	movq	%r11, %rax
	orq	%r14, %rax
	xorq	%r14, %rdx
	xorq	%rbx, %r14
	xorq	%rax, %rbp
	movq	104(%rsp), %rbx
	movq	-56(%rsp), %rax
	xorq	%rbp, %r10
	andq	%r13, %rbp
	xorq	%r14, %rbp
	movq	%r10, 560(%rsp)
	orq	%r11, %rbp
	movq	%rbp, %r10
	xorq	%rdx, %r10
	xorq	496(%rsp), %rbx
	xorq	488(%rsp), %rdi
	xorq	760(%rsp), %rcx
	movq	%r10, 832(%rsp)
	movq	-32(%rsp), %r10
	xorq	432(%rsp), %r10
	xorq	416(%rsp), %rax
	movq	%rdi, %r13
	movq	%rbx, %rdx
	movq	280(%rsp), %rdi
	xorq	784(%rsp), %rdi
	notq	%rdx
	movq	%rbx, %r9
	movq	%r10, %r8
	movq	%rdx, %r10
	movq	%rcx, %rdx
	xorq	%r10, %rdx
	movq	%rax, %rsi
	movq	%rdx, %r11
	movq	%rcx, %rdx
	movq	%rdi, 856(%rsp)
	notq	%rdi
	orq	%r10, %rdx
	movq	%rdi, %r15
	movq	%rdi, %rax
	movq	%rsi, %rdi
	xorq	%rdx, %r15
	movq	%r11, %r12
	andq	%rsi, %rdx
	orq	%r15, %rdi
	orq	%r15, %r10
	movq	%rdi, %rbp
	movq	%r11, %rdi
	andn	%r10, %rcx, %rcx
	xorq	%rbp, %rdi
	orq	%rsi, %r11
	xorq	%rdx, %rcx
	movq	%rdi, %r14
	movq	%rax, %rdi
	andq	%r11, %rax
	xorq	%r10, %rdi
	movq	%r13, %rdx
	movq	%rdi, %rbx
	movq	%rsi, %rdi
	andq	%rbx, %r12
	andq	%rbx, %rdi
	xorq	%rbp, %rbx
	movq	%r12, 544(%rsp)
	movq	%rsi, %r12
	movq	%rdi, 864(%rsp)
	andq	%r10, %r12
	xorq	544(%rsp), %r12
	xorq	%r10, %rdi
	andq	%r8, %rdi
	xorq	%r14, %rdi
	orq	%r8, %r12
	xorq	%r12, %rbx
	movq	584(%rsp), %r12
	xorq	%rdi, %r12
	movq	%r12, 544(%rsp)
	movq	%r13, %r12
	orq	%rbx, %r12
	movq	%r12, 576(%rsp)
	movq	544(%rsp), %r12
	xorq	576(%rsp), %r12
	orq	%r8, %rcx
	xorq	%r11, %r15
	xorq	%rax, %rcx
	xorq	%r15, %rbp
	andq	%rcx, %rdx
	xorq	%rcx, %rbx
	xorq	%rdi, %rdx
	xorq	528(%rsp), %rdx
	orq	856(%rsp), %rdi
	movq	%r12, 544(%rsp)
	movq	%rdx, 576(%rsp)
	movq	%r9, %rdx
	andq	%r8, %rdi
	andq	%rbp, %rdx
	xorq	800(%rsp), %rbp
	movq	%rdi, %r15
	movq	%rdx, %r12
	movq	%rax, %rdx
	movq	160(%rsp), %rdi
	xorq	%r9, %rdx
	xorq	816(%rsp), %r9
	xorq	%r10, %r12
	andq	%r14, %rdx
	orq	%r12, %rbx
	andn	%r10, %r14, %r10
	andq	%r8, %rdx
	andq	%r13, %rbx
	orq	%r8, %r10
	xorq	%r12, %rdx
	movq	%rbx, %rcx
	movq	(%rsp), %r8
	xorq	%r9, %r11
	xorq	864(%rsp), %r11
	orq	%r13, %rdx
	movq	320(%rsp), %r13
	xorq	544(%rsp), %r13
	xorq	%rdx, %rbp
	xorq	%rbp, %r15
	movq	-24(%rsp), %rbx
	movq	%r15, 800(%rsp)
	xorq	%r10, %r11
	xorq	%r11, %rcx
	movq	%r13, %rdx
	movq	152(%rsp), %r13
	movq	%rcx, 816(%rsp)
	xorq	568(%rsp), %r13
	movq	%rdx, %rax
	movq	184(%rsp), %rcx
	xorq	840(%rsp), %rcx
	xorq	640(%rsp), %rdi
	xorq	552(%rsp), %r8
	xorq	360(%rsp), %rbx
	movq	%r13, %rbp
	movq	%rcx, %r11
	movq	%rbp, 528(%rsp)
	movq	%rdi, %r14
	movq	%r8, %rcx
	movq	%r11, %rdi
	notq	%rcx
	movq	%r14, %rsi
	notq	%rdi
	orq	%rcx, %rsi
	xorq	%r14, %r11
	movq	%rcx, %r15
	movq	%rsi, 584(%rsp)
	andq	%rdi, %rsi
	xorq	%r11, %r15
	orq	%rsi, %rax
	orq	%rdi, %rcx
	movq	%r8, 856(%rsp)
	movq	%rax, %r12
	movq	%r15, %rax
	movq	%rsi, %r8
	xorq	%r12, %rax
	movq	%rax, %r9
	movq	%rdx, %rax
	andq	%rcx, %rax
	movq	%rax, %r10
	movq	%r12, %rax
	movq	%rbp, %r12
	xorq	%r10, %rax
	movq	%rax, 864(%rsp)
	orq	%rbx, %rax
	movq	%rax, %r13
	xorq	%r9, %r13
	xorq	%r13, %rcx
	andn	%r11, %rcx, %r11
	orq	%rbx, %r11
	movq	%r11, %rax
	movq	%rdx, %r11
	orq	%rcx, %r11
	xorq	%rdi, %r11
	xorq	%rax, %r11
	movq	784(%rsp), %rax
	orq	%r11, %r12
	movq	%r12, %rbp
	xorq	%r13, %rax
	xorq	%rax, %rbp
	movq	%r14, %rax
	orq	%r15, %rax
	movq	%rbp, 784(%rsp)
	movq	%r8, %rbp
	notq	%rax
	orq	%rdx, %rax
	xorq	%rax, %rbp
	movq	%rbp, %rsi
	movq	584(%rsp), %rbp
	andq	%rcx, %rbp
	movq	%rbp, %r12
	movq	%rdi, %rbp
	andq	%r9, %rbp
	xorq	%r9, %r12
	orq	%rbx, %rbp
	xorq	%rsi, %rbp
	xorq	512(%rsp), %rbp
	orq	%r9, %rdi
	xorq	%r8, %rdi
	movq	%rbx, %r8
	andq	%r14, %r10
	andq	%r12, %r8
	orq	%r14, %rsi
	andq	%r14, %r12
	xorq	%r8, %rdi
	movq	528(%rsp), %r8
	xorq	%rcx, %rsi
	xorq	%r12, %rax
	orq	%rbx, %rax
	orq	%r8, %rdi
	xorq	%rbp, %rdi
	movq	%rdi, 528(%rsp)
	movq	%r15, %rdi
	orq	%rdx, %r15
	orq	%r10, %rdi
	xorq	536(%rsp), %rdi
	xorq	864(%rsp), %r14
	movq	856(%rsp), %rbp
	andq	584(%rsp), %r14
	xorq	%r15, %r10
	movq	-72(%rsp), %r15
	orq	%r9, %rbp
	xorq	%rdi, %rax
	movq	-64(%rsp), %rdi
	xorq	%rbp, %r11
	orq	%rbx, %r14
	movq	792(%rsp), %rbp
	orq	%rbx, %r11
	xorq	%r9, %r14
	andq	%r13, %rbx
	xorq	%r11, %rsi
	xorq	%r14, %r12
	movq	496(%rsp), %r14
	andq	%r8, %rsi
	xorq	%r12, %rbp
	andq	%rbx, %r12
	movq	%rsi, %rcx
	xorq	%r12, %r10
	movq	%rbp, %r11
	xorq	%rax, %rcx
	andq	%r8, %r10
	xorq	400(%rsp), %r15
	movq	%rcx, 536(%rsp)
	movq	-80(%rsp), %rcx
	movq	%r10, %rbp
	xorq	808(%rsp), %rcx
	xorq	344(%rsp), %rdi
	xorq	%r11, %rbp
	movq	%rbp, 792(%rsp)
	movq	%rcx, %r13
	movq	32(%rsp), %rcx
	xorq	624(%rsp), %rcx
	movq	%rdi, %rax
	movq	%rcx, %r10
	movq	24(%rsp), %rcx
	xorq	544(%rsp), %rcx
	movq	%rcx, %rbx
	movq	312(%rsp), %rcx
	xorq	568(%rsp), %rcx
	movq	%rbx, %r9
	movq	%rcx, %rdx
	movq	%rcx, %rsi
	notq	%rdx
	movq	%rdx, %rcx
	movq	%r15, %rdx
	xorq	%rdi, %rdx
	movq	%rcx, %rbp
	xorq	%rdx, %rbp
	movq	%rdx, %r11
	movq	%rdi, %rdx
	notq	%rdx
	movq	%rbp, 584(%rsp)
	xorq	%rbx, %rbp
	movq	%rdx, %r8
	movq	%rcx, %rdx
	movq	%rbp, 856(%rsp)
	orq	%r15, %r8
	orq	%r8, %rdx
	xorq	%rax, %r8
	movq	%rdx, %rdi
	movq	%r10, %rdx
	andq	%rbx, %rdi
	orq	%r8, %rdx
	xorq	%r15, %rdi
	andq	%rdi, %r9
	andq	%r10, %rdi
	xorq	%r9, %rdx
	xorq	%rbp, %rdi
	movq	%r13, %r9
	movq	%rax, %rbp
	andq	%rdx, %r9
	andq	%rcx, %rax
	orq	%rsi, %rbp
	xorq	%r9, %rdi
	movq	%r15, %r9
	movq	%rbp, 496(%rsp)
	orq	%r15, %rbp
	xorq	%rdi, %r14
	movq	%rbp, %r12
	orq	%rcx, %r9
	movq	%r14, 512(%rsp)
	xorq	%rbx, %rbp
	movq	%rbx, %r14
	xorq	%r12, %rcx
	xorq	%r8, %rbp
	orq	%rax, %r14
	andq	%rbx, %rcx
	orq	584(%rsp), %r15
	xorq	%r11, %rax
	orq	%rsi, %rdx
	movq	%r9, %r11
	movq	%rdx, %rsi
	movq	856(%rsp), %rdx
	xorq	%r14, %r11
	xorq	520(%rsp), %rdx
	xorq	%rcx, %rax
	movq	%r12, 864(%rsp)
	movq	%r11, %r12
	movq	%r10, %r11
	andq	%rax, %r11
	andq	%rdi, %r15
	movq	%rcx, %rdi
	xorq	%r11, %r12
	movq	768(%rsp), %r11
	xorq	%r8, %rsi
	andq	%rbp, %rdi
	movq	%rdx, %rcx
	movq	%rsi, %rdx
	xorq	%rdi, %rcx
	movq	%r10, %rdi
	orq	%r13, %r12
	xorq	%rbp, %r11
	orq	%rsi, %rdi
	orq	%r14, %rdx
	xorq	%r12, %r11
	xorq	%rcx, %rdi
	orq	%r10, %r15
	andq	%r13, %rdx
	xorq	%r11, %r15
	andq	%rbx, %rax
	xorq	%rdi, %rdx
	xorq	%rbp, %rax
	xorq	776(%rsp), %r9
	movq	%r15, 768(%rsp)
	movq	%rdx, 520(%rsp)
	andq	%rax, %r10
	andq	864(%rsp), %rbp
	andq	496(%rsp), %r14
	movq	-104(%rsp), %rdx
	movq	-96(%rsp), %r12
	xorq	%rbp, %r9
	andq	%rax, %r14
	movq	272(%rsp), %rbp
	xorq	%r10, %r9
	orq	%r13, %r14
	xorq	560(%rsp), %rbp
	movq	%r14, %rdi
	movq	-88(%rsp), %r14
	xorq	392(%rsp), %r14
	xorq	%r9, %rdi
	xorq	400(%rsp), %rdx
	xorq	344(%rsp), %r12
	movq	%rdi, 776(%rsp)
	movq	-112(%rsp), %rdi
	movq	%rbp, %r11
	movq	8(%rsp), %rbp
	xorq	616(%rsp), %rbp
	xorq	848(%rsp), %rdi
	movq	%r11, %rax
	movq	%r14, %r15
	notq	%rax
	notq	%r15
	movq	%rax, %rcx
	movq	%r11, %rax
	andq	%rbp, %rax
	movq	%rax, %r13
	movq	%rdi, %rax
	xorq	%r14, %r13
	andq	%rcx, %rax
	andq	%rbp, %rcx
	movq	%rax, %r10
	movq	%r13, %rax
	xorq	%r10, %rax
	movq	%rax, 856(%rsp)
	movq	%rax, %r9
	movq	%r11, %rax
	xorq	%r15, %rax
	xorq	%rdx, %r9
	movq	%rax, %rbx
	movq	%rdi, %rax
	movq	%r9, %rsi
	orq	%rbx, %rax
	xorq	%rcx, %rax
	andq	%rax, %rsi
	movq	%rsi, 584(%rsp)
	movq	%r11, %rsi
	movq	584(%rsp), %r11
	xorq	%rax, %rsi
	movq	%rsi, 864(%rsp)
	orq	%r9, %rsi
	xorq	752(%rsp), %r9
	movq	%rsi, %r8
	andq	%rdi, %r8
	xorq	%r8, %r11
	xorq	%rbp, %r8
	movq	%r11, %rsi
	andq	%rdx, %rsi
	xorq	%rax, %rsi
	andq	%r12, %rsi
	movq	%rsi, %r11
	movq	%rdi, %rsi
	xorq	%r9, %r11
	movq	%r15, %r9
	xorq	%rbp, %rsi
	orq	%r13, %r9
	movq	%r11, 752(%rsp)
	movq	%r14, %r11
	xorq	%r9, %r11
	movq	%r11, 872(%rsp)
	orq	%rdi, %r11
	xorq	%rbx, %rsi
	xorq	%r9, %rcx
	xorq	%rbp, %rbx
	andq	%r14, %rax
	orq	%rdx, %rcx
	movq	%rdx, %r14
	andq	584(%rsp), %r9
	xorq	%rcx, %rsi
	movq	%rdx, %rcx
	orq	%r10, %rcx
	orq	%rbx, %r10
	xorq	760(%rsp), %r10
	orq	%r8, %rcx
	orq	%r13, %r8
	xorq	%r11, %rcx
	xorq	%rdi, %r8
	xorq	872(%rsp), %r11
	orq	%r12, %rcx
	orq	%r8, %r14
	xorq	%rsi, %rcx
	movq	480(%rsp), %rsi
	xorq	%r14, %r10
	movq	%r8, %r14
	xorq	%rax, %r14
	orq	856(%rsp), %rax
	orq	%rdx, %r11
	xorq	%rcx, %rsi
	xorq	%r14, %rcx
	movq	864(%rsp), %r14
	xorq	504(%rsp), %r14
	andq	%rdx, %rcx
	andq	%r11, %r9
	orq	%r12, %r9
	movq	%rsi, 496(%rsp)
	xorq	%rcx, %rax
	orq	%r12, %rax
	xorq	%r14, %r11
	xorq	%r10, %rax
	xorq	%r9, %r11
	orq	%r15, %r8
	movq	%rax, 760(%rsp)
	movq	%r8, %r15
	xorq	%r11, %r15
	movq	%r15, 504(%rsp)
	movq	120(%rsp), %r11
	movq	16(%rsp), %rcx
	xorq	408(%rsp), %r11
	xorq	600(%rsp), %rcx
	movq	304(%rsp), %rax
	xorq	560(%rsp), %rax
	movq	168(%rsp), %rdi
	xorq	800(%rsp), %rdi
	movq	176(%rsp), %r13
	movq	%r11, %rbx
	movq	-16(%rsp), %r11
	xorq	376(%rsp), %r11
	movq	%rcx, %r10
	xorq	392(%rsp), %r13
	movq	%rcx, %r15
	notq	%r10
	movq	%rax, %rsi
	movq	464(%rsp), %r12
	movq	%r10, %rdx
	movq	%rcx, %r10
	movq	%rdi, %rbp
	orq	%rax, %r10
	notq	%rsi
	movq	%r11, %r9
	movq	%r10, %rdi
	movq	%r11, %r10
	movq	%r13, %r14
	andq	%rdi, %r10
	movq	%r11, %r8
	xorq	%r10, %rsi
	movq	%r10, %rcx
	movq	%rax, %r10
	andq	%r11, %r10
	xorq	%rdx, %rcx
	xorq	%r8, %rdx
	xorq	%rdi, %r10
	orq	%r13, %rdx
	movq	%rbp, %rax
	andq	%r10, %r14
	xorq	%r14, %r9
	movq	%r9, %r11
	movq	%r15, %r9
	orq	%r13, %r9
	andq	%r11, %rax
	movq	%r9, %rdi
	xorq	%rsi, %rdi
	andq	%rcx, %rsi
	andq	%r13, %rcx
	movq	%rsi, %r9
	xorq	%rcx, %r10
	xorq	%rdi, %rax
	xorq	%rdx, %r9
	movq	-56(%rsp), %rdi
	movq	%r9, %rcx
	movq	%rbx, %r9
	orq	%rbp, %rcx
	xorq	%rcx, %r10
	andq	%r10, %r9
	movq	%r9, %rcx
	movq	736(%rsp), %r9
	xorq	%rax, %rcx
	notq	%rax
	xorq	%rcx, %r12
	orq	%rbx, %r10
	xorq	%r15, %rdx
	xorq	%r14, %rdx
	andq	%r13, %r11
	xorq	%rax, %r9
	andq	%rbp, %rdx
	xorq	%r10, %r9
	xorq	744(%rsp), %r10
	xorq	%rdx, %r11
	movq	488(%rsp), %r14
	xorq	576(%rsp), %rdi
	xorq	%r11, %rsi
	movq	%r12, 480(%rsp)
	movq	224(%rsp), %r15
	xorq	%rsi, %rax
	xorq	376(%rsp), %r15
	movq	%r9, 736(%rsp)
	andq	%rax, %r13
	orq	%rbp, %rax
	xorq	%rcx, %r13
	xorq	%rax, %r13
	movq	248(%rsp), %rax
	xorq	824(%rsp), %rax
	andq	%r13, %rbx
	xorq	%r10, %r13
	movq	%r15, %r8
	xorq	%rbx, %rsi
	movq	%r13, %r10
	movq	%rdi, %rbx
	xorq	%rsi, %r14
	xorq	%rsi, %r10
	movq	%r14, 488(%rsp)
	movq	%r10, 744(%rsp)
	orq	%rax, %rbx
	movq	232(%rsp), %r14
	movq	56(%rsp), %r10
	movq	%rbx, %r9
	xorq	352(%rsp), %r14
	xorq	648(%rsp), %r10
	movq	%r14, %r11
	movq	%r10, %rsi
	movq	%rdi, %r14
	movq	%rsi, %r12
	notq	%r14
	xorq	%rsi, %rbx
	notq	%r12
	movq	%r14, %rdx
	movq	%rax, %r14
	orq	%r12, %rdx
	orq	%r9, %rsi
	movq	240(%rsp), %r10
	xorq	%rdx, %r14
	xorq	408(%rsp), %r10
	andq	%r15, %rdx
	movq	%r14, %rbp
	orq	%r15, %rsi
	movq	%r9, 584(%rsp)
	movq	%rbp, %r15
	notq	%r15
	movq	%r15, %r13
	movq	%rdi, %r15
	movq	%r10, %rcx
	andq	%r13, %r15
	movq	%rbx, %r10
	movq	%r15, %rbx
	movq	%r8, %r15
	movq	%r10, %r14
	orq	%rbx, %r15
	xorq	%rsi, %r14
	xorq	%r15, %r10
	movq	%r15, %r9
	orq	%r11, %r10
	xorq	%rsi, %r10
	movq	448(%rsp), %rsi
	movq	%r10, %r15
	movq	%r11, %r10
	andq	%r14, %r10
	movq	%r15, 448(%rsp)
	xorq	%rbp, %rsi
	xorq	%rdx, %rsi
	xorq	%r10, %rsi
	movq	%r15, %r10
	orq	%rcx, %r10
	movq	%r10, %r15
	movq	%r8, %r10
	xorq	%rsi, %r15
	movq	%r12, %rsi
	xorq	%r14, %r10
	orq	%rbx, %rsi
	movq	%r15, 464(%rsp)
	movq	%rax, %r15
	xorq	%rsi, %r15
	xorq	%rsi, %rdi
	orq	%r10, %rax
	movq	%r15, 856(%rsp)
	andq	%r10, %rsi
	andq	%r8, %r15
	orq	%r11, %rsi
	xorq	%r15, %rdi
	notq	%rax
	movq	720(%rsp), %r15
	xorq	%rsi, %rdi
	orq	%rcx, %rax
	xorq	%rdi, %rax
	movq	%r12, %rsi
	xorq	%rdx, %rsi
	xorq	%rax, %r15
	andq	%r9, %rsi
	movq	%r15, 720(%rsp)
	movq	%r11, %r15
	andq	%rbp, %r15
	andq	%r15, %r10
	movq	472(%rsp), %r15
	xorq	%rsi, %r10
	orq	%rcx, %r10
	xorq	%r12, %rbx
	xorq	%rbp, %r9
	andq	%r8, %rbx
	andq	%r11, %r9
	xorq	%r13, %rbx
	xorq	448(%rsp), %r13
	andq	%rdi, %r9
	xorq	%rbx, %r10
	movq	584(%rsp), %rbx
	xorq	%r14, %rdi
	movq	72(%rsp), %r14
	xorq	368(%rsp), %r14
	xorq	%rdx, %rbx
	xorq	%rax, %r13
	andq	%rax, %rbx
	xorq	%r9, %r13
	movq	-32(%rsp), %rax
	orq	%r11, %rbx
	orq	%rcx, %r13
	xorq	728(%rsp), %r13
	xorq	%rbx, %r10
	xorq	576(%rsp), %rax
	movq	%r14, %rcx
	xorq	%r10, %r15
	andq	856(%rsp), %r10
	movq	%r15, 472(%rsp)
	movq	64(%rsp), %r15
	xorq	336(%rsp), %r15
	xorq	%rdx, %r10
	xorq	%r10, %r13
	orq	%rdi, %r10
	movq	%r14, %rdi
	andq	%r11, %r10
	movq	%r15, %rsi
	movq	192(%rsp), %r15
	movq	%r10, %rbx
	movq	%rax, %r10
	movq	112(%rsp), %rax
	xorq	352(%rsp), %rax
	movq	%r10, %r9
	xorq	%r13, %rbx
	notq	%r9
	movq	%rsi, %r12
	movq	%rbx, 728(%rsp)
	xorq	%r10, %r12
	movq	%r9, %rbx
	movq	%r14, %r9
	xorq	664(%rsp), %r15
	notq	%r9
	movq	-120(%rsp), %r13
	xorq	%rax, %r12
	xorq	832(%rsp), %r13
	movq	%r9, %rdx
	xorq	%r9, %r12
	movq	%rsi, %r9
	movq	%rsi, %rbp
	andq	%r14, %r9
	andq	%r12, %rdi
	movq	%rbx, 584(%rsp)
	andq	%r10, %rbp
	orq	%r9, %rbx
	movq	432(%rsp), %r11
	movq	%r15, %r8
	movq	%rdi, 856(%rsp)
	movq	%rbx, %r14
	andq	%rax, %rdi
	movq	%rbp, %rbx
	movq	%rcx, %rbp
	xorq	%rdi, %r14
	xorq	%rbx, %rbp
	movq	%rax, %r15
	movq	%r8, %rdi
	andq	%rbp, %r15
	xorq	%r12, %r11
	andq	%r14, %rdi
	xorq	%r15, %rdx
	xorq	%rsi, %r14
	xorq	%rdi, %r11
	movq	%r8, %rdi
	andq	%rax, %r14
	orq	%rdx, %rdi
	xorq	%r10, %r15
	xorq	%rsi, %rdx
	xorq	%rdi, %r14
	andq	%rdx, %rax
	movq	%r13, %r10
	andq	%r13, %r14
	movq	%r14, %rdi
	movq	%r9, %r14
	orq	%r15, %r14
	xorq	%r11, %rdi
	notq	%r15
	movq	%r14, %r11
	movq	%rdi, 448(%rsp)
	andq	%r8, %r11
	xorq	%rax, %r11
	xorq	%rcx, %r11
	orq	%r11, %rsi
	xorq	704(%rsp), %r11
	andn	%r8, %rsi, %r14
	xorq	%r15, %r14
	andq	%r14, %r10
	xorq	%r11, %r10
	andq	%rcx, %rdx
	orq	%rax, %rbp
	movq	%r10, 704(%rsp)
	movq	584(%rsp), %r10
	movq	%r12, %rcx
	xorq	%rdx, %rcx
	orq	%r12, %rdx
	orq	%r8, %rcx
	xorq	%rbp, %r10
	movq	456(%rsp), %rbp
	andq	%r10, %r15
	orq	%r13, %r15
	xorq	%r9, %rbp
	xorq	712(%rsp), %r9
	movq	%rbp, %rdi
	xorq	%rcx, %rdi
	xorq	%r14, %rdi
	movq	%rbx, %r14
	xorq	%rax, %r14
	xorq	%r9, %rdx
	movq	200(%rsp), %r9
	xorq	%rsi, %r14
	andq	856(%rsp), %rsi
	xorq	%r15, %rdx
	orq	%r8, %r14
	movq	216(%rsp), %r15
	xorq	816(%rsp), %r15
	xorq	%r10, %r14
	xorq	608(%rsp), %r9
	orq	%r13, %r14
	movq	%r14, %rbx
	orq	%r8, %rsi
	movq	-48(%rsp), %r8
	xorq	%rdi, %rbx
	xorq	%rdx, %rsi
	xorq	328(%rsp), %r8
	movq	%rbx, 456(%rsp)
	movq	280(%rsp), %rbx
	xorq	384(%rsp), %rbx
	movq	%rsi, 712(%rsp)
	movq	%rbx, %rdx
	movq	48(%rsp), %rbx
	xorq	336(%rsp), %rbx
	movq	%rdx, %r11
	notq	%r11
	movq	%r11, %rax
	movq	%r15, %r11
	movq	%rbx, %rdi
	movq	104(%rsp), %rbx
	xorq	368(%rsp), %rbx
	andq	%rdi, %r11
	movq	%rdi, %r12
	movq	%r11, %rcx
	movq	%r9, %r11
	notq	%r12
	xorq	%rdx, %rcx
	movq	%rdi, %rdx
	movq	%r12, 584(%rsp)
	xorq	%rcx, %r11
	andq	%r15, %rcx
	movq	%rbx, %rsi
	xorq	%rcx, %rdx
	movq	%r11, %r14
	movq	%rcx, %r12
	movq	%rdx, 856(%rsp)
	andq	%r9, %rdx
	xorq	%rcx, %r14
	movq	%rdx, %r10
	movq	%rdx, 864(%rsp)
	xorq	%rbx, %r10
	orq	%r8, %r10
	xorq	%r11, %r10
	movq	%r15, %r11
	andq	%rax, %r11
	xorq	%r10, %r12
	movq	%r11, %rbp
	movq	%rdi, %r11
	orq	%r8, %r12
	orq	%rbp, %r11
	orq	%r14, %rbp
	movq	%r11, %r13
	movq	%rax, %r11
	movq	416(%rsp), %rax
	orq	%rdi, %r11
	movq	%r11, %rdx
	movq	%r13, %r11
	andq	%r15, %r13
	andq	%r9, %rdx
	xorq	%rdx, %r11
	xorq	%r11, %r12
	andq	%r12, %rsi
	xorq	%r10, %rsi
	xorq	%rsi, %rax
	orq	%rdi, %rsi
	movq	%rsi, %rdi
	movq	%rbp, %rsi
	movq	%r8, %rbp
	xorq	%rcx, %rdi
	movq	%rax, 432(%rsp)
	orq	%rsi, %rbp
	movq	%rdx, %rax
	andq	%r8, %rsi
	xorq	688(%rsp), %rbp
	xorq	%rdi, %rax
	andq	%rdi, %rsi
	movq	584(%rsp), %rdi
	andq	%r12, %rdi
	xorq	%rax, %rbp
	xorq	%rdi, %rsi
	orq	%rbx, %rsi
	movq	%rsi, %rdi
	movq	584(%rsp), %rsi
	xorq	%rbp, %rdi
	orq	856(%rsp), %r9
	andq	%r15, %r11
	xorq	%rcx, %rdx
	movq	440(%rsp), %rbp
	xorq	%r15, %r14
	orq	%rsi, %r11
	orq	%r8, %rdx
	xorq	864(%rsp), %rdx
	xorq	696(%rsp), %rdx
	andq	%r8, %r11
	andq	%r8, %r14
	xorq	%r9, %r13
	movq	%rsi, %r9
	xorq	%r11, %r10
	orq	%r8, %r9
	movq	%rbx, %r11
	movq	%rdi, 688(%rsp)
	orq	%r9, %rax
	xorq	%rax, %r13
	orq	%r13, %r11
	xorq	%r13, %rdx
	xorq	%r12, %r13
	xorq	%r11, %r10
	xorq	%r10, %rbp
	andq	%r14, %r10
	xorq	%r13, %r10
	movq	%rbp, 440(%rsp)
	orq	%rbx, %r10
	movq	%r10, %r12
	xorq	%rdx, %r12
	movq	%r12, 696(%rsp)
	movq	208(%rsp), %r12
	xorq	360(%rsp), %r12
	movq	80(%rsp), %rbx
	xorq	328(%rsp), %rbx
	movq	256(%rsp), %rdx
	xorq	632(%rsp), %rdx
	movq	%r12, %r15
	movq	96(%rsp), %r12
	xorq	552(%rsp), %r12
	movq	%rbx, %rsi
	movq	128(%rsp), %rbx
	xorq	384(%rsp), %rbx
	movq	%rdx, %rbp
	movq	%rdx, %rdi
	movq	%r12, %r11
	movq	88(%rsp), %r12
	xorq	656(%rsp), %r12
	movq	%rbx, %rcx
	movq	%rbx, %r8
	notq	%rcx
	xorq	%rcx, %rbp
	movq	%rcx, %r10
	movq	%rdx, %rcx
	movq	%r12, %r14
	orq	%r10, %rcx
	movq	%r12, 856(%rsp)
	notq	%r14
	movq	%rcx, %rdx
	movq	%r11, %r12
	movq	%r14, %rcx
	movq	%r14, %rax
	movq	%rbp, %r13
	xorq	%rdx, %rcx
	movq	%rax, %r9
	andq	%r11, %rdx
	movq	%rcx, %r14
	movq	%r11, %rcx
	orq	%r14, %r10
	orq	%r14, %rcx
	xorq	%r10, %r9
	xorq	%rcx, %r13
	movq	%rcx, %rbx
	andq	%r9, %r12
	andn	%r10, %rdi, %rdi
	movq	%r12, 864(%rsp)
	movq	%r12, %rcx
	movq	%rbp, %r12
	andq	%r9, %r12
	orq	%r11, %rbp
	xorq	%rdx, %rdi
	movq	%r12, 416(%rsp)
	movq	%r11, %r12
	andq	%rbp, %rax
	andq	%r10, %r12
	xorq	416(%rsp), %r12
	orq	%rsi, %rdi
	xorq	%rax, %rdi
	xorq	%r10, %rcx
	movq	%r15, %r11
	andq	%rdi, %r11
	andq	%rsi, %rcx
	xorq	%rbx, %r9
	xorq	%r13, %rcx
	movq	%r11, %rdx
	xorq	%rbp, %r14
	orq	%rsi, %r12
	xorq	%rcx, %rdx
	xorq	%r14, %rbx
	xorq	%r12, %r9
	movq	592(%rsp), %r12
	movq	%rdx, %r11
	xorq	424(%rsp), %r11
	movq	%r9, 584(%rsp)
	movq	%r15, %r9
	orq	584(%rsp), %r9
	xorq	%rcx, %r12
	movq	%r12, 416(%rsp)
	movq	%r8, %r12
	xorq	416(%rsp), %r9
	movq	%r11, 424(%rsp)
	andq	%rbx, %r12
	movq	%rax, %r11
	xorq	%r10, %r12
	xorq	%r8, %r11
	xorq	680(%rsp), %r8
	orq	856(%rsp), %rcx
	movq	%r11, %rdx
	xorq	672(%rsp), %rbx
	movq	%r9, 416(%rsp)
	movq	584(%rsp), %r9
	andq	%r13, %rdx
	andq	%rsi, %rdx
	andn	%r10, %r13, %r10
	movq	176(%rsp), %r11
	xorq	%r8, %rbp
	xorq	864(%rsp), %rbp
	xorq	%r12, %rdx
	xorq	%rdi, %r9
	orq	%r15, %rdx
	andq	%rsi, %rcx
	orq	%rsi, %r10
	orq	%r12, %r9
	xorq	%rdx, %rbx
	andq	%r15, %r9
	movq	%rcx, %r14
	xorq	%r10, %rbp
	xorq	%rbx, %r14
	xorq	%rbp, %r9
	movq	%r14, 672(%rsp)
	movq	%r9, 680(%rsp)
	xorq	416(%rsp), %r11
	movq	-104(%rsp), %rdx
	xorq	488(%rsp), %rdx
	movq	272(%rsp), %r10
	movq	-16(%rsp), %r12
	xorq	728(%rsp), %r10
	xorq	768(%rsp), %r12
	movq	312(%rsp), %rbx
	xorq	456(%rsp), %rbx
	movq	%r11, %r13
	movq	%rdx, %rbp
	movq	304(%rsp), %rdx
	xorq	432(%rsp), %rdx
	movq	%r11, %rsi
	movq	%r10, %r8
	movq	%r12, %r9
	xorq	%r12, %r10
	notq	%r8
	movq	%rbx, %r15
	movq	%rsi, %rdi
	movq	%rdx, 856(%rsp)
	notq	%rdx
	movq	%r15, 584(%rsp)
	orq	%rdx, %r9
	movq	%rdx, %r14
	movq	%r9, 592(%rsp)
	andq	%r8, %r9
	xorq	%r10, %r14
	orq	%r9, %r13
	movq	%r9, %rcx
	movq	%r13, %rbx
	movq	%r14, %r13
	xorq	%rbx, %r13
	orq	%r8, %rdx
	movq	%r13, %r9
	movq	%r11, %r13
	andq	%rdx, %r13
	movq	%r13, %r11
	movq	%rbx, %r13
	movq	592(%rsp), %rbx
	xorq	%r11, %r13
	andq	%r12, %r11
	movq	%r13, 864(%rsp)
	orq	%rbp, %r13
	xorq	%r9, %r13
	xorq	%r13, %rdx
	andn	%r10, %rdx, %r10
	orq	%rdx, %rdi
	andq	%rdx, %rbx
	movq	%r10, %rax
	movq	%rdi, %r10
	xorq	%r9, %rbx
	orq	%rbp, %rax
	xorq	%r8, %r10
	xorq	%rax, %r10
	movq	656(%rsp), %rax
	orq	%r10, %r15
	movq	%r15, %rdi
	movq	%r8, %r15
	orq	%r9, %r8
	xorq	%r13, %rax
	andq	%r9, %r15
	xorq	%rcx, %r8
	xorq	%rax, %rdi
	movq	%r12, %rax
	orq	%rbp, %r15
	orq	%r14, %rax
	movq	%rdi, 656(%rsp)
	movq	%rcx, %rdi
	notq	%rax
	movq	%rbp, %rcx
	orq	%rsi, %rax
	andq	%rbx, %rcx
	andq	%r12, %rbx
	xorq	%rax, %rdi
	xorq	%rcx, %r8
	orq	584(%rsp), %r8
	xorq	%rdi, %r15
	xorq	400(%rsp), %r15
	movq	856(%rsp), %rcx
	xorq	%rbx, %rax
	xorq	%r15, %r8
	orq	%rbp, %rax
	orq	%r12, %rdi
	xorq	864(%rsp), %r12
	orq	%r9, %rcx
	xorq	%rdx, %rdi
	andq	592(%rsp), %r12
	xorq	%rcx, %r10
	movq	%rax, %r15
	orq	%rbp, %r10
	movq	%r14, %rax
	movq	584(%rsp), %rdx
	xorq	%r10, %rdi
	movq	664(%rsp), %r10
	orq	%rsi, %r14
	orq	%r11, %rax
	xorq	408(%rsp), %rax
	xorq	%r14, %r11
	orq	%rbp, %r12
	andq	%r13, %rbp
	andq	%rdx, %rdi
	xorq	%r9, %r12
	movq	%r8, 400(%rsp)
	movq	8(%rsp), %r14
	xorq	%r12, %rbx
	xorq	528(%rsp), %r14
	xorq	%rbx, %r10
	andq	%rbp, %rbx
	xorq	%rax, %r15
	xorq	%rbx, %r11
	xorq	%r15, %rdi
	andq	%rdx, %r11
	movq	%rdi, 408(%rsp)
	movq	%r11, %rax
	movq	%r14, %r8
	xorq	%r10, %rax
	movq	%rax, 664(%rsp)
	movq	-96(%rsp), %rax
	xorq	472(%rsp), %rax
	movq	120(%rsp), %rdx
	xorq	416(%rsp), %rdx
	movq	-88(%rsp), %rbp
	movq	-24(%rsp), %r15
	xorq	688(%rsp), %rbp
	xorq	752(%rsp), %r15
	xorq	%rax, %r8
	movq	%rdx, %r11
	movq	320(%rsp), %rdx
	xorq	456(%rsp), %rdx
	movq	%r8, %r12
	movq	%r15, %rsi
	movq	%rdx, %rcx
	movq	%rdx, %rdi
	movq	%r15, %rdx
	notq	%rcx
	movq	%rcx, %r9
	xorq	%r8, %r9
	movq	%rax, %r8
	movq	%r9, 584(%rsp)
	notq	%r8
	xorq	%r11, %r9
	movq	%r9, %r13
	movq	%r8, %r9
	movq	%rcx, %r8
	orq	%r14, %r9
	movq	%r13, 592(%rsp)
	orq	%r9, %r8
	xorq	%rax, %r9
	movq	%r8, %r10
	movq	%r11, %r8
	orq	%r9, %rdx
	andq	%r11, %r10
	xorq	%r14, %r10
	andq	%r10, %r8
	andq	%r15, %r10
	xorq	%r8, %rdx
	movq	%rbp, %r8
	xorq	%r13, %r10
	andq	%rdx, %r8
	movq	%r11, %r13
	xorq	%r8, %r10
	movq	384(%rsp), %r8
	xorq	%r9, %r13
	movq	%r13, %rbx
	movq	%r11, %r13
	xorq	%r10, %r8
	movq	%r8, 384(%rsp)
	movq	%rax, %r8
	andq	%rcx, %rax
	orq	%rdi, %r8
	orq	%rax, %r13
	xorq	%r12, %rax
	movq	%r8, 856(%rsp)
	orq	%r14, %r8
	xorq	%r8, %rbx
	movq	%r8, %r15
	movq	%r14, %r8
	orq	%rcx, %r8
	xorq	%r15, %rcx
	movq	%r15, 864(%rsp)
	movq	%r8, %r12
	andq	%r11, %rcx
	xorq	%r13, %r12
	xorq	%rcx, %rax
	movq	%r12, %r15
	movq	%rsi, %r12
	andq	%rax, %r12
	xorq	%r12, %r15
	movq	640(%rsp), %r12
	orq	%rbp, %r15
	xorq	%rbx, %r12
	xorq	%r15, %r12
	orq	584(%rsp), %r14
	orq	%rdi, %rdx
	movq	%rdx, %rdi
	andq	%rbx, %rcx
	andq	%r11, %rax
	xorq	%r9, %rdi
	movq	592(%rsp), %r9
	xorq	392(%rsp), %r9
	xorq	%rbx, %rax
	xorq	648(%rsp), %r8
	andq	864(%rsp), %rbx
	andq	%r10, %r14
	movq	%rcx, %r10
	movq	24(%rsp), %r11
	orq	%rsi, %r14
	xorq	440(%rsp), %r11
	movq	-80(%rsp), %r15
	movq	%r9, %rcx
	xorq	712(%rsp), %r15
	xorq	%r12, %r14
	xorq	%r10, %rcx
	movq	%rsi, %r10
	xorq	%rbx, %r8
	orq	%rdi, %r10
	andq	%rax, %rsi
	movq	%r14, 640(%rsp)
	xorq	%rcx, %r10
	movq	%rdi, %rcx
	xorq	%rsi, %r8
	orq	%r13, %rcx
	andq	856(%rsp), %r13
	movq	%r15, %rsi
	movq	%rcx, %rdx
	movq	%r11, %rbx
	andq	%rbp, %rdx
	xorq	%r10, %rdx
	andq	%rax, %r13
	movq	%rdx, 392(%rsp)
	movq	%rsi, %rax
	orq	%rbp, %r13
	movq	(%rsp), %rbp
	movq	%r13, %rcx
	xorq	%r8, %rcx
	movq	%r11, %r8
	movq	%rcx, 648(%rsp)
	movq	-72(%rsp), %rcx
	notq	%r8
	xorq	520(%rsp), %rcx
	xorq	744(%rsp), %rbp
	movq	-64(%rsp), %rdx
	movq	-8(%rsp), %r12
	xorq	528(%rsp), %rdx
	xorq	472(%rsp), %r12
	movq	%rcx, %r14
	movq	%r8, %rcx
	movq	%r14, %r8
	notq	%r8
	movq	%r8, %r15
	movq	%r11, %r8
	andq	%rbp, %r8
	movq	%r8, %r13
	movq	%rsi, %r8
	xorq	%r14, %r13
	andq	%rcx, %r8
	andq	%rbp, %rcx
	movq	%r8, %r10
	movq	%r13, %r8
	xorq	%r10, %r8
	movq	%r8, 584(%rsp)
	movq	%r8, %r9
	movq	%r11, %r8
	xorq	%r15, %r8
	xorq	%rdx, %r9
	orq	%r8, %rax
	movq	%r8, %r11
	movq	%r9, %r8
	xorq	%rcx, %rax
	andq	%rax, %r8
	movq	%r8, %rdi
	movq	%rbx, %r8
	xorq	%rax, %r8
	movq	%rdi, %rbx
	movq	%rdi, 592(%rsp)
	movq	%r8, 856(%rsp)
	orq	%r9, %r8
	xorq	624(%rsp), %r9
	andq	%rsi, %r8
	xorq	%r8, %rbx
	xorq	%rbp, %r8
	andq	%rdx, %rbx
	xorq	%rax, %rbx
	andq	%r12, %rbx
	movq	%rbx, %rdi
	xorq	%r9, %rdi
	movq	%rdi, 624(%rsp)
	movq	%r15, %rdi
	orq	%r13, %rdi
	movq	%rdi, %r9
	movq	%r14, %rdi
	xorq	%r9, %rdi
	xorq	%r9, %rcx
	movq	%rdi, 864(%rsp)
	movq	%rdi, %rbx
	movq	%rsi, %rdi
	xorq	%rbp, %rdi
	orq	%rdx, %rcx
	orq	%rsi, %rbx
	xorq	%r11, %rdi
	xorq	%rcx, %rdi
	movq	%rdx, %rcx
	orq	%r10, %rcx
	orq	%r8, %rcx
	xorq	%rbx, %rcx
	orq	%r12, %rcx
	xorq	%rdi, %rcx
	movq	368(%rsp), %rdi
	xorq	%rcx, %rdi
	xorq	%rbp, %r11
	orq	%r13, %r8
	orq	%r10, %r11
	xorq	632(%rsp), %r11
	xorq	%rsi, %r8
	movq	%rdx, %r13
	andq	%r14, %rax
	xorq	864(%rsp), %rbx
	orq	%r8, %r13
	andq	592(%rsp), %r9
	movq	%rdi, 368(%rsp)
	movq	144(%rsp), %r10
	xorq	672(%rsp), %r10
	xorq	%r13, %r11
	movq	%r8, %r13
	orq	%r15, %r8
	xorq	%rax, %r13
	orq	584(%rsp), %rax
	orq	%rdx, %rbx
	xorq	%r13, %rcx
	andq	%rbx, %r9
	movq	%r8, %rsi
	andq	%rdx, %rcx
	movq	152(%rsp), %rdx
	xorq	720(%rsp), %rdx
	xorq	%rcx, %rax
	orq	%r12, %rax
	orq	%r9, %r12
	movq	856(%rsp), %r9
	xorq	376(%rsp), %r9
	xorq	%r11, %rax
	movq	%rdx, %r13
	movq	%rax, 632(%rsp)
	movq	296(%rsp), %rax
	notq	%r13
	xorq	%r9, %rbx
	movq	32(%rsp), %r9
	xorq	504(%rsp), %r9
	xorq	%r12, %rbx
	xorq	%rbx, %rsi
	movq	-112(%rsp), %rbx
	xorq	536(%rsp), %rbx
	movq	%rsi, 376(%rsp)
	movq	%r13, %rsi
	movq	%rdx, %r13
	movq	%r9, %rbp
	movq	%rbx, %r12
	movq	136(%rsp), %rbx
	xorq	520(%rsp), %rbx
	xorq	440(%rsp), %rax
	movq	352(%rsp), %r11
	movq	%rbx, %r14
	orq	%rax, %r13
	movq	%rax, %r8
	movq	%r13, %rcx
	movq	%r9, %r13
	notq	%r8
	andq	%rcx, %r13
	xorq	%r13, %r8
	movq	%r13, %rdi
	movq	%rax, %r13
	andq	%r9, %r13
	xorq	%rsi, %rdi
	xorq	%r9, %rsi
	movq	%r13, %r15
	movq	%rbx, %r13
	orq	%r14, %rsi
	xorq	%rcx, %r15
	movq	96(%rsp), %r9
	andq	%r15, %r13
	xorq	%r13, %rbp
	movq	%r13, %rbx
	movq	%rdx, %r13
	orq	%r14, %r13
	movq	%r13, %rcx
	movq	%r10, %r13
	xorq	%r8, %rcx
	andq	%rbp, %r13
	andq	%rdi, %r8
	movq	%r13, %rax
	movq	%r8, %r13
	andq	%r14, %rdi
	xorq	%rsi, %r13
	xorq	%rdi, %r15
	xorq	%rdx, %rsi
	movq	%r13, %rdi
	xorq	%rcx, %rax
	xorq	%rbx, %rsi
	orq	%r10, %rdi
	movq	608(%rsp), %rcx
	movq	%r12, %r13
	xorq	%rdi, %r15
	andq	%r10, %rsi
	andq	%r14, %rbp
	andq	%r15, %r13
	xorq	%rsi, %rbp
	orq	%r12, %r15
	xorq	%rax, %r13
	notq	%rax
	xorq	%rbp, %r8
	xorq	%rax, %rcx
	xorq	%r13, %r11
	movq	360(%rsp), %rbp
	xorq	%r15, %rcx
	xorq	%r8, %rax
	xorq	616(%rsp), %r15
	andq	%rax, %r14
	orq	%r10, %rax
	movq	72(%rsp), %rdi
	xorq	%r13, %r14
	xorq	776(%rsp), %rdi
	xorq	424(%rsp), %r9
	xorq	%rax, %r14
	movq	264(%rsp), %rdx
	xorq	536(%rsp), %rdx
	andq	%r14, %r12
	xorq	%r15, %r14
	movq	%r11, 352(%rsp)
	xorq	%r12, %r8
	movq	%r14, %r13
	movq	%rcx, 608(%rsp)
	xorq	%r8, %r13
	xorq	%r8, %rbp
	movq	288(%rsp), %r8
	movq	%r13, 616(%rsp)
	movq	48(%rsp), %r13
	movq	%r9, %rsi
	xorq	480(%rsp), %r13
	xorq	504(%rsp), %r8
	movq	%rdx, %rcx
	movq	%rbp, 360(%rsp)
	movq	%rdi, %rbp
	movq	%rsi, %r14
	notq	%rbp
	movq	%rbp, %r12
	movq	%r9, %rbp
	movq	%r13, %r10
	movq	200(%rsp), %r13
	xorq	704(%rsp), %r13
	notq	%rbp
	movq	%rbp, %rdx
	orq	%r12, %rdx
	orq	%r13, %r9
	movq	%r13, %rax
	movq	%r13, %rbp
	movq	%r9, %r11
	xorq	%rdx, %rbp
	movq	%r9, 584(%rsp)
	xorq	%rdi, %r11
	orq	%r8, %rdi
	andq	%r8, %rdx
	orq	%r9, %rdi
	movq	%r11, %r13
	xorq	%rdi, %r13
	movq	%r13, %r15
	movq	%rbp, %r13
	notq	%r13
	movq	%r15, 856(%rsp)
	andq	%r13, %r14
	movq	%r14, %rbx
	movq	%r8, %r14
	orq	%rbx, %r14
	movq	%r14, %r9
	xorq	%r14, %r11
	movq	%rbp, %r14
	xorq	%rdx, %r14
	orq	%r10, %r11
	xorq	%rdi, %r11
	movq	%r14, %rdi
	xorq	336(%rsp), %rdi
	movq	%r15, %r14
	movq	%r11, 864(%rsp)
	andq	%r10, %r14
	xorq	%r14, %rdi
	movq	%r11, %r14
	movq	%r15, %r11
	orq	%rcx, %r14
	xorq	%r8, %r11
	movq	%r8, %r15
	xorq	%rdi, %r14
	movq	%r12, %rdi
	orq	%rbx, %rdi
	movq	%r14, 336(%rsp)
	movq	%rax, %r14
	xorq	%rdi, %r14
	xorq	%rdi, %rsi
	orq	%r11, %rax
	andq	%r14, %r15
	andq	%r11, %rdi
	notq	%rax
	orq	%r10, %rdi
	xorq	%r15, %rsi
	movq	600(%rsp), %r15
	xorq	%rdi, %rsi
	orq	%rcx, %rax
	xorq	%r12, %rbx
	xorq	%rsi, %rax
	movq	%r12, %rdi
	andq	%r8, %rbx
	xorq	%rax, %r15
	xorq	%rdx, %rdi
	movq	584(%rsp), %r8
	movq	%r15, 592(%rsp)
	movq	%r10, %r15
	andq	%r9, %rdi
	andq	%rbp, %r15
	xorq	%r13, %rbx
	andq	%r15, %r11
	xorq	%rdx, %r8
	xorq	%rdi, %r11
	orq	%rcx, %r11
	xorq	%rbx, %r11
	movq	%r8, %rbx
	movq	344(%rsp), %r8
	andq	%rax, %rbx
	orq	%r10, %rbx
	xorq	%rbx, %r11
	xorq	%r11, %r8
	andq	%r14, %r11
	xorq	864(%rsp), %r13
	xorq	%rbp, %r9
	movq	%r8, 344(%rsp)
	xorq	%rdx, %r11
	andq	%r10, %r9
	andq	%rsi, %r9
	xorq	%rax, %r13
	xorq	%r9, %r13
	orq	%rcx, %r13
	xorq	840(%rsp), %r13
	xorq	856(%rsp), %rsi
	movq	40(%rsp), %rdx
	movq	208(%rsp), %r14
	xorq	496(%rsp), %rdx
	xorq	480(%rsp), %r14
	movq	80(%rsp), %r9
	xorq	424(%rsp), %r9
	xorq	%r11, %r13
	orq	%rsi, %r11
	movq	232(%rsp), %r8
	andq	%r10, %r11
	xorq	792(%rsp), %r8
	movq	-48(%rsp), %rbx
	movq	%r11, %r10
	movq	%rdx, %r15
	movq	%r14, %rax
	xorq	%r13, %r10
	movq	%r9, %rbp
	movq	%r15, %rdi
	movq	%r10, 600(%rsp)
	movq	256(%rsp), %r10
	notq	%rbp
	xorq	464(%rsp), %r10
	movq	%rbp, 584(%rsp)
	movq	%r8, %r11
	xorq	696(%rsp), %rbx
	movq	%r9, %rsi
	movq	%r10, %rcx
	movq	%rdx, %r10
	movq	%rcx, %r12
	notq	%r10
	xorq	%r14, %r12
	movq	%r10, %rdx
	xorq	%r9, %r12
	xorq	%r10, %r12
	movq	%rcx, %r10
	andq	%r15, %r10
	movq	%r10, %r13
	movq	%r15, %r10
	andq	%r12, %r10
	movq	%r10, %r14
	movq	%rbp, %r10
	movq	%r14, 856(%rsp)
	movq	%r14, %rbp
	movq	%rcx, %r14
	andq	%r9, %r14
	andq	%rax, %rbp
	orq	%r13, %r10
	xorq	%rbp, %r10
	xorq	%r14, %rdi
	movq	%rax, %rbp
	andq	%rdi, %rbp
	xorq	%rbp, %rdx
	andq	%r10, %r11
	xorq	%rcx, %r10
	movq	%r11, %r9
	movq	328(%rsp), %r11
	andq	%rax, %r10
	xorq	%rsi, %rbp
	movq	%rbx, %rsi
	xorq	%r12, %r11
	xorq	%r9, %r11
	movq	%r8, %r9
	orq	%rdx, %r9
	xorq	%rcx, %rdx
	xorq	%r9, %r10
	andq	%rdx, %rax
	andq	%r15, %rdx
	andq	%rbx, %r10
	orq	%rax, %rdi
	xorq	584(%rsp), %rdi
	xorq	%r11, %r10
	movq	568(%rsp), %r11
	movq	%r10, 328(%rsp)
	movq	%r13, %r10
	orq	%rbp, %r10
	notq	%rbp
	movq	%r10, %r9
	xorq	%r13, %r11
	andq	%r8, %r9
	xorq	%rax, %r9
	xorq	%r15, %r9
	movq	%r12, %r15
	orq	%r9, %rcx
	xorq	824(%rsp), %r9
	xorq	%rdx, %r15
	andn	%r8, %rcx, %r10
	xorq	%rbp, %r10
	andq	%r10, %rsi
	xorq	%r9, %rsi
	movq	-56(%rsp), %r9
	movq	%rsi, 840(%rsp)
	movq	%r15, %rsi
	orq	%r8, %rsi
	xorq	%rsi, %r11
	xorq	%r10, %r11
	movq	%r14, %r10
	xorq	%rax, %r10
	xorq	%rcx, %r10
	xorq	848(%rsp), %r13
	andq	856(%rsp), %rcx
	orq	%r8, %r10
	orq	%r12, %rdx
	andq	%rdi, %rbp
	xorq	%rdi, %r10
	orq	%rbx, %rbp
	xorq	448(%rsp), %r9
	orq	%rbx, %r10
	movq	112(%rsp), %rbx
	orq	%r8, %rcx
	xorq	%r13, %rdx
	xorq	%r11, %r10
	xorq	%rbp, %rdx
	movq	%rcx, %r11
	movq	%r10, 568(%rsp)
	xorq	%rdx, %r11
	movq	88(%rsp), %r8
	xorq	512(%rsp), %r8
	movq	%r11, 848(%rsp)
	xorq	680(%rsp), %rbx
	movq	-120(%rsp), %r12
	xorq	464(%rsp), %r12
	movq	224(%rsp), %r10
	xorq	736(%rsp), %r10
	movq	128(%rsp), %rbp
	xorq	496(%rsp), %rbp
	movq	%rbx, %r15
	movq	%r12, %rsi
	movq	%r12, %r13
	movq	%r8, %r12
	notq	%r12
	movq	%rsi, %r11
	notq	%r13
	movq	%r12, %rax
	movq	%rbx, %r12
	movq	%r13, 584(%rsp)
	andq	%rsi, %r12
	movq	%r12, %rcx
	movq	%r10, %r12
	xorq	%r8, %rcx
	xorq	%rcx, %r12
	andq	%rbx, %rcx
	xorq	%rcx, %r11
	movq	%r12, %r14
	movq	%rcx, %r13
	movq	%r11, %r12
	movq	%r11, 856(%rsp)
	andq	%r10, %r12
	movq	%r12, 864(%rsp)
	movq	%r12, %r11
	movq	%rbx, %r12
	andq	%rax, %r12
	xorq	%rbp, %r11
	orq	%rsi, %rax
	orq	%r9, %r11
	movq	%r12, %r8
	movq	%rsi, %r12
	xorq	%r14, %r11
	orq	%r8, %r12
	movq	%rax, %rdx
	andq	%r10, %rdx
	movq	%r12, %rax
	xorq	%r11, %r13
	xorq	%rdx, %rax
	orq	%r9, %r13
	xorq	%rcx, %r14
	xorq	%rax, %r13
	movq	%rax, %rbx
	movq	%rbp, %rax
	andq	%r13, %rax
	orq	%r14, %r8
	orq	856(%rsp), %r10
	movq	%rax, %rdi
	movq	552(%rsp), %rax
	andq	%r15, %r12
	xorq	%r11, %rdi
	andq	%r15, %rbx
	xorq	%rdi, %rax
	orq	%rsi, %rdi
	xorq	%r10, %r12
	xorq	%rcx, %rdi
	movq	%rax, 552(%rsp)
	movq	%rdx, %rax
	xorq	%rdi, %rax
	movq	%rdi, %rsi
	movq	%r8, %rdi
	movq	%r9, %r8
	orq	%rdi, %r8
	andq	%r9, %rdi
	xorq	808(%rsp), %r8
	andq	%rsi, %rdi
	movq	584(%rsp), %rsi
	andq	%r13, %rsi
	xorq	%rax, %r8
	xorq	%rsi, %rdi
	movq	584(%rsp), %rsi
	orq	%rbp, %rdi
	xorq	%r8, %rdi
	movq	%rbp, %r8
	movq	%rsi, %r10
	orq	%rsi, %rbx
	movq	560(%rsp), %rsi
	orq	%r9, %r10
	andq	%r9, %rbx
	movq	%rdi, 824(%rsp)
	orq	%r10, %rax
	xorq	%rbx, %r11
	xorq	%rax, %r12
	orq	%r12, %r8
	xorq	%rcx, %rdx
	xorq	%r15, %r14
	orq	%r9, %rdx
	xorq	864(%rsp), %rdx
	xorq	%r8, %r11
	xorq	832(%rsp), %rdx
	andq	%r9, %r14
	xorq	%r11, %rsi
	andq	%r14, %r11
	movq	%rsi, 560(%rsp)
	movq	280(%rsp), %r14
	movq	56(%rsp), %r9
	xorq	488(%rsp), %r14
	xorq	432(%rsp), %r9
	xorq	%r12, %rdx
	xorq	%r13, %r12
	movq	-40(%rsp), %r13
	xorq	%r12, %r11
	xorq	784(%rsp), %r13
	orq	%rbp, %r11
	movq	104(%rsp), %rbp
	xorq	448(%rsp), %rbp
	movq	%r11, %r15
	movq	240(%rsp), %r11
	xorq	760(%rsp), %r11
	xorq	%rdx, %r15
	movq	%r9, %r10
	movq	%r15, 832(%rsp)
	movq	64(%rsp), %r8
	movq	%r13, %r15
	xorq	512(%rsp), %r8
	notq	%r15
	movq	%rbp, %rsi
	movq	%r11, %rdi
	movq	%r15, %rax
	movq	%r10, %rcx
	movq	%rax, %rbp
	movq	%r13, 584(%rsp)
	movq	%r8, %r12
	notq	%r12
	movq	%r12, %r9
	movq	%r11, %r12
	xorq	%r9, %r12
	movq	%r12, %r11
	movq	%rdi, %r12
	orq	%r9, %r12
	movq	%r12, %rdx
	movq	%r15, %r12
	xorq	%rdx, %r12
	movq	%r12, %r15
	movq	%r10, %r12
	orq	%r15, %r9
	orq	%r15, %r12
	xorq	%r9, %rbp
	movq	%r12, %rbx
	movq	%r11, %r12
	andq	%rbp, %rcx
	xorq	%rbx, %r12
	movq	%rcx, 856(%rsp)
	xorq	%r9, %rcx
	movq	%r12, 808(%rsp)
	andq	%rsi, %rcx
	xorq	%r12, %rcx
	movq	%r11, %r12
	andq	%rbp, %r12
	xorq	%rbx, %rbp
	andq	%r10, %rdx
	movq	%r12, %r13
	movq	%r10, %r12
	andn	%r9, %rdi, %rdi
	andq	%r9, %r12
	orq	%r10, %r11
	xorq	%rdx, %rdi
	xorq	%r13, %r12
	andq	%r11, %rax
	orq	%rsi, %rdi
	orq	%rsi, %r12
	movq	%r14, %r13
	movq	808(%rsp), %r10
	xorq	%r12, %rbp
	movq	544(%rsp), %r12
	xorq	%rax, %rdi
	orq	%rbp, %r13
	movq	%r14, %rdx
	xorq	%r11, %r15
	andq	%rdi, %rdx
	xorq	%r15, %rbx
	xorq	%r8, %rax
	xorq	%rcx, %r12
	xorq	%rcx, %rdx
	orq	584(%rsp), %rcx
	xorq	%r12, %r13
	xorq	576(%rsp), %rdx
	andq	%r10, %rax
	movq	%r13, %r12
	movq	%r8, %r13
	andq	%rsi, %rax
	andq	%rbx, %r13
	xorq	800(%rsp), %rbx
	movq	%r12, 800(%rsp)
	xorq	%r9, %r13
	andq	%rsi, %rcx
	xorq	%r13, %rax
	movq	%rdx, 544(%rsp)
	movq	%rcx, %rdx
	orq	%r14, %rax
	xorq	%rax, %rbx
	xorq	%rbx, %rdx
	xorq	816(%rsp), %r8
	xorq	%rdi, %rbp
	andn	%r9, %r10, %r9
	orq	%r13, %rbp
	movq	%rdx, 808(%rsp)
	orq	%rsi, %r9
	andq	%r14, %rbp
	movq	-64(%rsp), %rbx
	movq	296(%rsp), %rdx
	xorq	360(%rsp), %rbx
	movq	%rbp, %r14
	xorq	%r8, %r11
	xorq	856(%rsp), %r11
	xorq	552(%rsp), %rdx
	movq	32(%rsp), %rdi
	xorq	640(%rsp), %rdi
	movq	24(%rsp), %r10
	xorq	600(%rsp), %r10
	xorq	%r9, %r11
	movq	136(%rsp), %r9
	movq	%rdx, 856(%rsp)
	xorq	%r11, %r14
	movq	%rdi, %r11
	movq	%rdi, %r13
	movq	%r14, 816(%rsp)
	movq	320(%rsp), %r14
	xorq	568(%rsp), %r14
	xorq	%r12, %r9
	movq	%rbx, %r12
	movq	%rdx, %rbx
	movq	%r9, %rsi
	notq	%rbx
	orq	%rbx, %r11
	movq	%rbx, %r15
	movq	%rbx, %rdx
	movq	%r14, %r8
	movq	%r10, %r14
	movq	%r11, %rbp
	notq	%r14
	xorq	%rdi, %r10
	movq	%r11, 576(%rsp)
	movq	%r14, %rcx
	andq	%r14, %rbp
	movq	%r9, %r14
	xorq	%r10, %r15
	orq	%rbp, %r14
	orq	%rcx, %rdx
	movq	%r14, %rbx
	movq	%r15, %r14
	movq	%r8, 584(%rsp)
	xorq	%rbx, %r14
	movq	%rbp, %rdi
	movq	%r14, %r9
	movq	%rsi, %r14
	andq	%rdx, %r14
	xorq	%r14, %rbx
	movq	%r14, %r11
	movq	%rbx, %r14
	movq	%rbx, 864(%rsp)
	orq	%r12, %r14
	xorq	%r9, %r14
	xorq	%r14, %rdx
	andn	%r10, %rdx, %r10
	orq	%r12, %r10
	movq	%r10, %rax
	movq	%rsi, %r10
	orq	%rdx, %r10
	xorq	%rcx, %r10
	andq	%r13, %r11
	xorq	%rax, %r10
	movq	784(%rsp), %rax
	orq	%r10, %r8
	movq	%r8, %rbp
	movq	%rdi, %r8
	xorq	%r14, %rax
	xorq	%rax, %rbp
	movq	%r13, %rax
	movq	%rbp, 784(%rsp)
	movq	576(%rsp), %rbp
	orq	%r15, %rax
	notq	%rax
	orq	%rsi, %rax
	andq	%rdx, %rbp
	xorq	%rax, %r8
	movq	%rbp, %rbx
	movq	%rcx, %rbp
	orq	%r9, %rcx
	xorq	%r9, %rbx
	andq	%r9, %rbp
	xorq	%rdi, %rcx
	movq	%r12, %rdi
	orq	%r12, %rbp
	andq	%rbx, %rdi
	xorq	%r8, %rbp
	xorq	528(%rsp), %rbp
	xorq	%rdi, %rcx
	movq	584(%rsp), %rdi
	andq	%r13, %rbx
	xorq	%rbx, %rax
	orq	%r13, %r8
	orq	%r12, %rax
	xorq	%rdx, %r8
	orq	%rdi, %rcx
	xorq	%rbp, %rcx
	movq	%rax, %rbp
	movq	%r15, %rax
	orq	%r11, %rax
	xorq	536(%rsp), %rax
	movq	%rcx, 528(%rsp)
	movq	792(%rsp), %rcx
	xorq	%rax, %rbp
	movq	856(%rsp), %rax
	orq	%r9, %rax
	xorq	%rax, %r10
	movq	-8(%rsp), %rax
	orq	%r12, %r10
	xorq	%r10, %r8
	xorq	864(%rsp), %r13
	xorq	344(%rsp), %rax
	andq	576(%rsp), %r13
	andq	%rdi, %r8
	orq	%rsi, %r15
	xorq	%rbp, %r8
	xorq	%r15, %r11
	movq	-112(%rsp), %r15
	movq	%r8, 536(%rsp)
	movq	-72(%rsp), %r8
	xorq	824(%rsp), %r8
	xorq	800(%rsp), %r15
	orq	%r12, %r13
	andq	%r14, %r12
	movq	-104(%rsp), %rsi
	xorq	%r9, %r13
	movq	176(%rsp), %r9
	xorq	568(%rsp), %r9
	xorq	%r13, %rbx
	xorq	624(%rsp), %rsi
	xorq	%rbx, %rcx
	andq	%r12, %rbx
	movq	%r8, %rbp
	xorq	%rbx, %r11
	movq	(%rsp), %rbx
	xorq	400(%rsp), %rbx
	movq	%r9, %r12
	andq	%rdi, %r11
	movq	%rax, %r8
	notq	%r12
	xorq	%rcx, %r11
	notq	%r8
	movq	%r12, %rcx
	movq	%r9, %r10
	movq	%r11, 792(%rsp)
	orq	%rbx, %r8
	movq	%rcx, %rdx
	movq	%rbx, %r11
	orq	%r8, %rdx
	xorq	%rax, %r11
	xorq	%rax, %r8
	movq	%rdx, %r9
	movq	%r15, %rdi
	movq	%rsi, %rdx
	andq	%r15, %r9
	xorq	%r11, %r12
	orq	%r8, %rdx
	xorq	%rbx, %r9
	movq	%r12, 576(%rsp)
	xorq	%r15, %r12
	andq	%r9, %rdi
	movq	%rbx, %r14
	movq	%r15, %r13
	xorq	%rdi, %rdx
	andq	%rsi, %r9
	movq	%rbp, %rdi
	xorq	%r12, %r9
	andq	%rdx, %rdi
	movq	%r12, 584(%rsp)
	movq	%r9, %rbx
	orq	%r10, %rdx
	xorq	%rdi, %rbx
	movq	512(%rsp), %rdi
	movq	%rbx, 856(%rsp)
	xorq	%rbx, %rdi
	movq	%rax, %rbx
	andq	%rcx, %rax
	orq	%r10, %rbx
	movq	%rdi, 512(%rsp)
	movq	%r15, %rdi
	movq	%rbx, %r9
	movq	%rbx, 864(%rsp)
	orq	%rax, %r15
	orq	%r14, %r9
	xorq	%r11, %rax
	movq	%rsi, %r10
	xorq	%r9, %rdi
	movq	%rdi, %rbx
	movq	%r14, %rdi
	orq	576(%rsp), %r14
	orq	%rcx, %rdi
	xorq	%r9, %rcx
	andq	856(%rsp), %r14
	movq	%rdi, %r11
	andq	%r13, %rcx
	xorq	%r8, %rbx
	xorq	%r15, %r11
	xorq	%rcx, %rax
	xorq	%rdx, %r8
	movq	%r11, %r12
	movq	%rsi, %r11
	andq	%rbx, %rcx
	andq	%rax, %r11
	orq	%rsi, %r14
	xorq	%r11, %r12
	movq	768(%rsp), %r11
	orq	%rbp, %r12
	xorq	%rbx, %r11
	xorq	%r12, %r11
	xorq	%r11, %r14
	movq	%r14, 768(%rsp)
	movq	584(%rsp), %r11
	xorq	520(%rsp), %r11
	movq	8(%rsp), %r14
	movq	-96(%rsp), %rdx
	xorq	%r11, %rcx
	orq	%r8, %r10
	orq	%r15, %r8
	andq	864(%rsp), %r15
	andq	%r13, %rax
	xorq	392(%rsp), %r14
	xorq	%rbx, %rax
	xorq	%r10, %rcx
	movq	%r8, %r10
	andq	%rbp, %r10
	movq	-88(%rsp), %r8
	xorq	848(%rsp), %r8
	xorq	%rcx, %r10
	xorq	776(%rsp), %rdi
	andq	%rax, %rsi
	andq	%rax, %r15
	movq	%r10, 520(%rsp)
	xorq	400(%rsp), %rdx
	orq	%rbp, %r15
	movq	304(%rsp), %rbp
	xorq	616(%rsp), %rbp
	movq	%r15, %r11
	movq	120(%rsp), %r15
	xorq	560(%rsp), %r15
	movq	%r8, %r10
	andq	%r9, %rbx
	xorq	%rbx, %rdi
	xorq	%rsi, %rdi
	movq	%r8, %rsi
	movq	%r15, %r13
	movq	%r15, %r12
	xorq	%rdi, %r11
	notq	%r13
	movq	%r11, 776(%rsp)
	movq	16(%rsp), %r11
	movq	%r13, %rcx
	movq	%r14, %r13
	xorq	344(%rsp), %r11
	notq	%r13
	andq	%rcx, %r10
	andq	%rbp, %rcx
	movq	%r13, %r15
	movq	%r12, %r13
	andq	%rbp, %r13
	xorq	%r14, %r13
	movq	%r13, %rax
	xorq	%r10, %rax
	movq	%rax, 584(%rsp)
	movq	%rax, %r9
	movq	%r12, %rax
	xorq	%r15, %rax
	xorq	%rdx, %r9
	movq	%rax, %rbx
	movq	%r8, %rax
	movq	%r9, %r8
	orq	%rbx, %rax
	xorq	%rcx, %rax
	andq	%rax, %r8
	xorq	%rax, %r12
	movq	%r12, %rdi
	movq	%r8, 576(%rsp)
	movq	%r12, 856(%rsp)
	orq	%r9, %rdi
	movq	576(%rsp), %r12
	xorq	752(%rsp), %r9
	movq	%rdi, %r8
	andq	%rsi, %r8
	xorq	%r8, %r12
	xorq	%rbp, %r8
	movq	%r12, %rdi
	movq	%r15, %r12
	andq	%rdx, %rdi
	orq	%r13, %r12
	xorq	%rax, %rdi
	andq	%r14, %rax
	andq	%r11, %rdi
	xorq	%r9, %rdi
	movq	%r12, %r9
	movq	%r14, %r12
	movq	%rdi, 752(%rsp)
	movq	%rsi, %rdi
	xorq	%r9, %rcx
	xorq	%rbp, %rdi
	orq	%rdx, %rcx
	xorq	%r9, %r12
	xorq	%rbx, %rdi
	movq	%r12, 864(%rsp)
	xorq	%rbp, %rbx
	xorq	%rcx, %rdi
	movq	%rdx, %rcx
	orq	%rsi, %r12
	orq	%r10, %rcx
	orq	%rbx, %r10
	xorq	760(%rsp), %r10
	orq	%r8, %rcx
	orq	%r13, %r8
	movq	%rdx, %r14
	xorq	%r12, %rcx
	xorq	%rsi, %r8
	orq	%r11, %rcx
	orq	%r8, %r14
	xorq	%rdi, %rcx
	movq	496(%rsp), %rdi
	xorq	%r14, %r10
	movq	%r8, %r14
	xorq	%rcx, %rdi
	xorq	%rax, %r14
	orq	584(%rsp), %rax
	xorq	%r14, %rcx
	xorq	864(%rsp), %r12
	andq	576(%rsp), %r9
	andq	%rdx, %rcx
	movq	%rdi, 496(%rsp)
	orq	%r15, %r8
	movq	%r8, %r13
	xorq	%rax, %rcx
	orq	%r11, %rcx
	orq	%rdx, %r12
	movq	%rcx, %r14
	andq	%r12, %r9
	xorq	%r10, %r14
	orq	%r11, %r9
	movq	%r14, 760(%rsp)
	movq	856(%rsp), %rbp
	movq	408(%rsp), %rbx
	movq	-80(%rsp), %r14
	xorq	504(%rsp), %rbp
	movq	-24(%rsp), %r10
	xorq	376(%rsp), %r10
	movq	184(%rsp), %r15
	xorq	%rbx, %r14
	xorq	808(%rsp), %r15
	movq	%r14, %r11
	movq	312(%rsp), %r14
	xorq	592(%rsp), %r14
	xorq	%rbp, %r12
	xorq	%r9, %r12
	xorq	%r12, %r13
	movq	%r15, %rcx
	movq	160(%rsp), %r15
	movq	%r14, %rdx
	movq	168(%rsp), %r14
	xorq	560(%rsp), %r14
	movq	%r13, 504(%rsp)
	movq	%rdx, %r13
	xorq	392(%rsp), %r15
	notq	%r13
	movq	%r13, %rdi
	movq	%rdx, %r13
	orq	%r14, %r13
	movq	%r13, %rsi
	movq	%r10, %r13
	andq	%rsi, %r13
	movq	%r13, %r8
	movq	%r14, %r13
	notq	%r13
	movq	%r13, %r9
	movq	%r14, %r13
	andq	%r10, %r13
	xorq	%r8, %r9
	movq	%r13, %r12
	movq	%r15, %r13
	xorq	%rsi, %r12
	andq	%r12, %r13
	movq	%r13, %rbp
	movq	%r10, %r13
	xorq	%rbp, %r13
	movq	%r13, %r14
	movq	%rdx, %r13
	orq	%r15, %r13
	movq	%r13, %rsi
	movq	%rcx, %r13
	xorq	%r9, %rsi
	andq	%r14, %r13
	xorq	%rdi, %r8
	andq	%r8, %r9
	xorq	%rdi, %r10
	movq	%r13, %rax
	orq	%r15, %r10
	movq	%r9, %r13
	andq	%r15, %r8
	xorq	%r10, %r13
	xorq	%r8, %r12
	xorq	%rdx, %r10
	movq	%r13, %r8
	xorq	%rbp, %r10
	movq	%r11, %r13
	orq	%rcx, %r8
	movq	736(%rsp), %rdi
	andq	%rcx, %r10
	xorq	%r8, %r12
	andq	%r15, %r14
	xorq	%rsi, %rax
	andq	%r12, %r13
	xorq	%r10, %r14
	orq	%r11, %r12
	movq	%r13, %r8
	xorq	%r14, %r9
	movq	480(%rsp), %r13
	xorq	%rax, %r8
	notq	%rax
	xorq	%rax, %rdi
	xorq	%r9, %rax
	andq	%rax, %r15
	xorq	%r8, %r13
	xorq	%r12, %rdi
	orq	%rcx, %rax
	xorq	744(%rsp), %r12
	xorq	%r8, %r15
	movq	%r13, 480(%rsp)
	xorq	%rax, %r15
	movq	488(%rsp), %r13
	andq	%r15, %r11
	movq	%rdi, 736(%rsp)
	xorq	%r11, %r9
	xorq	%r9, %r13
	xorq	%r12, %r15
	movq	%r15, %rcx
	movq	%r13, 488(%rsp)
	movq	56(%rsp), %r15
	xorq	%r9, %rcx
	xorq	544(%rsp), %r15
	movq	40(%rsp), %r13
	movq	%rcx, 744(%rsp)
	xorq	648(%rsp), %r13
	movq	224(%rsp), %rcx
	xorq	840(%rsp), %rcx
	movq	-120(%rsp), %r9
	xorq	352(%rsp), %r9
	movq	%r15, %r11
	movq	%r15, %rsi
	movq	%r13, %rdi
	movq	%r13, %r12
	movq	%r15, %r13
	movq	%rcx, %rax
	movq	216(%rsp), %rcx
	movq	192(%rsp), %rbp
	xorq	376(%rsp), %rbp
	notq	%r13
	notq	%r12
	movq	%r13, %rdx
	movq	%rax, %r13
	orq	%rax, %r11
	orq	%r12, %rdx
	xorq	%rbx, %rcx
	xorq	%rdx, %r13
	movq	%rbp, %r8
	movq	%r13, %rbp
	movq	%r11, %r13
	xorq	%rdi, %r11
	orq	%r8, %rdi
	movq	%r13, 584(%rsp)
	orq	%r13, %rdi
	movq	%r11, %rbx
	movq	%r8, %r10
	xorq	%rdi, %rbx
	andq	%r8, %rdx
	movq	%rbx, %r15
	movq	%rbp, %rbx
	notq	%rbx
	movq	%r15, 856(%rsp)
	movq	%rbx, %r13
	movq	%rsi, %rbx
	andq	%r13, %rbx
	orq	%rbx, %r10
	xorq	%r10, %r11
	orq	%r9, %r11
	xorq	%rdi, %r11
	movq	%rbp, %rdi
	xorq	%rdx, %rdi
	xorq	464(%rsp), %rdi
	movq	%r11, 576(%rsp)
	movq	%r15, %r11
	andq	%r9, %r11
	xorq	%r11, %rdi
	movq	576(%rsp), %r11
	orq	%rcx, %r11
	xorq	%rdi, %r11
	movq	%r12, %rdi
	orq	%rbx, %rdi
	movq	%r11, 464(%rsp)
	movq	%rax, %r11
	xorq	%rdi, %r11
	xorq	%rdi, %rsi
	movq	%r11, %r14
	movq	%r15, %r11
	movq	%r8, %r15
	xorq	%r8, %r11
	andq	%r14, %r15
	xorq	%r15, %rsi
	andq	%r11, %rdi
	orq	%r11, %rax
	orq	%r9, %rdi
	notq	%rax
	movq	%r9, %r15
	xorq	%rdi, %rsi
	movq	720(%rsp), %rdi
	orq	%rcx, %rax
	xorq	%rsi, %rax
	andq	%rbp, %r15
	xorq	%r12, %rbx
	andq	%r15, %r11
	andq	%r8, %rbx
	xorq	%rax, %rdi
	xorq	%r13, %rbx
	xorq	576(%rsp), %r13
	movq	%rdi, 720(%rsp)
	movq	%r12, %rdi
	movq	584(%rsp), %r12
	xorq	%rdx, %rdi
	andq	%r10, %rdi
	xorq	%rbp, %r10
	movq	48(%rsp), %rbp
	xorq	%rdi, %r11
	xorq	%rdx, %r12
	movq	472(%rsp), %rdi
	orq	%rcx, %r11
	andq	%r9, %r10
	xorq	%rax, %r13
	xorq	%rbx, %r11
	movq	%r12, %rbx
	andq	%rsi, %r10
	andq	%rax, %rbx
	xorq	%r10, %r13
	movq	248(%rsp), %r12
	orq	%r9, %rbx
	orq	%rcx, %r13
	movq	240(%rsp), %rcx
	xorq	%rbx, %r11
	xorq	%r11, %rdi
	andq	%r14, %r11
	xorq	%rdx, %r11
	xorq	728(%rsp), %r13
	xorq	856(%rsp), %rsi
	movq	%rdi, 472(%rsp)
	movq	104(%rsp), %rdi
	xorq	544(%rsp), %rdi
	xorq	336(%rsp), %rcx
	xorq	368(%rsp), %r12
	xorq	664(%rsp), %rbp
	xorq	%r11, %r13
	orq	%rsi, %r11
	andq	%r9, %r11
	movq	%r11, %rsi
	movq	%rcx, %r15
	movq	%rcx, %r8
	xorq	%r13, %rsi
	movq	%rdi, %r13
	movq	280(%rsp), %rdi
	xorq	352(%rsp), %rdi
	movq	%rsi, 728(%rsp)
	movq	%r12, %rsi
	movq	%r13, %rbx
	movq	%rsi, %rdx
	andq	%rsi, %r8
	notq	%rbx
	notq	%rdx
	movq	%rbp, %r10
	movq	%rbx, 576(%rsp)
	orq	%r8, %rbx
	movq	-56(%rsp), %r12
	xorq	%rdi, %r15
	movq	%rdi, %rax
	movq	%rsi, %rdi
	xorq	%r13, %r15
	movq	%rbx, %r9
	movq	%rcx, %rbx
	xorq	%rdx, %r15
	andq	%r13, %rbx
	movq	%rax, %r11
	andq	%r15, %rdi
	xorq	832(%rsp), %r12
	movq	%rdi, 584(%rsp)
	andq	%rax, %rdi
	xorq	%rdi, %r9
	movq	%rbx, %rdi
	movq	%rsi, %rbx
	xorq	%rdi, %rbx
	andq	%rbx, %r11
	xorq	%r11, %rdx
	movq	%r11, %rbp
	movq	%r10, %r11
	andq	%r9, %r11
	xorq	%rcx, %r9
	movq	%r11, %r14
	movq	448(%rsp), %r11
	andq	%rax, %r9
	xorq	%r15, %r11
	xorq	%r14, %r11
	movq	%r10, %r14
	orq	%rdx, %r14
	xorq	%r14, %r9
	andq	%r12, %r9
	xorq	%r11, %r9
	xorq	%r13, %rbp
	movq	%r8, %r13
	orq	%rbp, %r13
	movq	%r9, 448(%rsp)
	xorq	%rcx, %rdx
	movq	%r13, %r9
	andq	%rdx, %rax
	notq	%rbp
	andq	%r10, %r9
	movq	%r12, %r13
	andq	%rsi, %rdx
	xorq	%rax, %r9
	orq	%rax, %rbx
	xorq	576(%rsp), %rbx
	xorq	%rsi, %r9
	movq	%r15, %rsi
	orq	%r9, %rcx
	xorq	704(%rsp), %r9
	xorq	%rdx, %rsi
	andn	%r10, %rcx, %r11
	orq	%r10, %rsi
	orq	%r15, %rdx
	xorq	%rbp, %r11
	andq	%r11, %r13
	xorq	%r9, %r13
	movq	%r13, 704(%rsp)
	movq	456(%rsp), %r13
	xorq	%r8, %r13
	xorq	712(%rsp), %r8
	movq	%r13, %r14
	movq	%rdi, %r13
	movq	96(%rsp), %rdi
	xorq	%rax, %r13
	xorq	%rsi, %r14
	xorq	%r11, %r14
	movq	%r13, %r11
	xorq	%rcx, %r11
	andq	584(%rsp), %rcx
	xorq	%r8, %rdx
	orq	%r10, %r11
	xorq	%rbx, %r11
	orq	%r12, %r11
	xorq	%r14, %r11
	orq	%r10, %rcx
	xorq	328(%rsp), %rdi
	andq	%rbx, %rbp
	xorq	%rcx, %rdx
	movq	208(%rsp), %rcx
	orq	%r12, %rbp
	xorq	816(%rsp), %rcx
	movq	%r11, 456(%rsp)
	movq	%rbp, %rsi
	movq	-48(%rsp), %rbp
	xorq	336(%rsp), %rbp
	movq	%rdi, %r9
	movq	-40(%rsp), %rdi
	xorq	384(%rsp), %rdi
	xorq	%rdx, %rsi
	movq	64(%rsp), %r11
	xorq	368(%rsp), %r11
	movq	%rcx, %r15
	movq	%rsi, 712(%rsp)
	movq	%rbp, %rsi
	movq	%rbp, %r13
	movq	%rdi, %rdx
	movq	288(%rsp), %rdi
	xorq	608(%rsp), %rdi
	movq	%rdx, %rbx
	movq	%r11, %r10
	movq	%rbp, %r11
	notq	%rbx
	movq	%rsi, %r12
	notq	%r13
	movq	%rbx, %rax
	movq	%rcx, %rbx
	movq	%r13, 576(%rsp)
	andq	%rbp, %rbx
	movq	%rbx, %rcx
	movq	%rdi, %rbx
	xorq	%rdx, %rcx
	xorq	%rcx, %rbx
	andq	%r15, %rcx
	xorq	%rcx, %r11
	movq	%rbx, %r14
	movq	%rcx, %r8
	movq	%r11, %rbx
	movq	%r11, 584(%rsp)
	andq	%rdi, %rbx
	movq	%rbx, %r11
	movq	%rbx, 856(%rsp)
	movq	%r15, %rbx
	xorq	%r10, %r11
	andq	%rax, %rbx
	orq	%rsi, %rax
	orq	%r9, %r11
	orq	%rbx, %r12
	movq	%rax, %rdx
	xorq	%r14, %r11
	andq	%rdi, %rdx
	movq	%rbx, %rbp
	xorq	%r11, %r8
	movq	%r12, %rbx
	movq	432(%rsp), %rax
	movq	%r8, %r13
	xorq	%rdx, %rbx
	movq	%r10, %r8
	orq	%r9, %r13
	xorq	%rbx, %r13
	andq	%r13, %r8
	xorq	%r11, %r8
	xorq	%r8, %rax
	orq	%rsi, %r8
	xorq	%rcx, %r8
	movq	%rax, 432(%rsp)
	movq	%rdx, %rax
	xorq	%r8, %rax
	xorq	%rcx, %r14
	movq	%r8, %rsi
	movq	%rbp, %r8
	movq	%r9, %rbp
	orq	584(%rsp), %rdi
	orq	%r14, %r8
	andq	%r15, %rbx
	andq	%r15, %r12
	orq	%r8, %rbp
	andq	%r9, %r8
	xorq	688(%rsp), %rbp
	andq	%rsi, %r8
	movq	576(%rsp), %rsi
	xorq	%rcx, %rdx
	xorq	%rdi, %r12
	orq	%r9, %rdx
	xorq	%r15, %r14
	andq	%r13, %rsi
	xorq	%rax, %rbp
	xorq	%rsi, %r8
	movq	440(%rsp), %rsi
	orq	%r10, %r8
	xorq	%rbp, %r8
	movq	576(%rsp), %rbp
	movq	%r8, 688(%rsp)
	movq	%rbp, %r8
	orq	%rbp, %rbx
	orq	%r9, %r8
	andq	%r9, %rbx
	orq	%r8, %rax
	xorq	%rbx, %r11
	movq	%r10, %rbx
	xorq	%rax, %r12
	orq	%r12, %rbx
	xorq	%rbx, %r11
	xorq	%r11, %rsi
	movq	%rsi, 440(%rsp)
	xorq	856(%rsp), %rdx
	xorq	696(%rsp), %rdx
	movq	88(%rsp), %rdi
	xorq	%r12, %rdx
	andq	%r9, %r14
	xorq	360(%rsp), %rdi
	xorq	%r13, %r12
	andq	%r14, %r11
	movq	72(%rsp), %r13
	xorq	%r12, %r11
	xorq	552(%rsp), %r13
	orq	%r10, %r11
	movq	%rdi, %r15
	movq	-32(%rsp), %rdi
	xorq	656(%rsp), %rdi
	movq	%r11, %rbx
	movq	128(%rsp), %r11
	xorq	328(%rsp), %r11
	xorq	%rdx, %rbx
	movq	%r13, %r9
	movq	%rbx, 696(%rsp)
	movq	256(%rsp), %rbx
	xorq	384(%rsp), %rbx
	movq	%rdi, %rbp
	movq	264(%rsp), %rdi
	xorq	632(%rsp), %rdi
	movq	%rbp, 576(%rsp)
	notq	%rbp
	movq	%rbp, %rax
	movq	%rbx, %r8
	movq	%rbx, %rsi
	notq	%r8
	movq	%rdi, %r12
	movq	%rdi, %rbx
	orq	%r8, %r12
	xorq	%r8, %rbx
	movq	%rdi, %rcx
	movq	%r12, %rdx
	movq	%rbp, %r12
	xorq	%rdx, %r12
	movq	%r12, %r14
	movq	%r13, %r12
	orq	%r14, %r12
	orq	%r14, %r8
	movq	%r12, %r10
	movq	%rbx, %r12
	xorq	%r10, %r12
	movq	%r12, %r13
	movq	%rbp, %r12
	xorq	%r8, %r12
	movq	%r12, %rbp
	movq	%r9, %r12
	andq	%rbp, %r12
	movq	%r12, 584(%rsp)
	xorq	%r8, %r12
	movq	%r12, %rdi
	movq	%rbx, %r12
	andq	%rbp, %r12
	xorq	%r10, %rbp
	andq	%r11, %rdi
	movq	%r12, 856(%rsp)
	movq	%r9, %r12
	xorq	%r13, %rdi
	andq	%r8, %r12
	xorq	856(%rsp), %r12
	orq	%r11, %r12
	xorq	%r12, %rbp
	movq	416(%rsp), %r12
	xorq	%rdi, %r12
	movq	%r12, 416(%rsp)
	movq	%r15, %r12
	orq	%rbp, %r12
	movq	%r12, 856(%rsp)
	movq	416(%rsp), %r12
	xorq	856(%rsp), %r12
	orq	%r9, %rbx
	andq	%r9, %rdx
	andn	%r8, %rcx, %rcx
	andq	%rbx, %rax
	xorq	%rbx, %r14
	xorq	%rdx, %rcx
	movq	%r15, %rdx
	xorq	%r14, %r10
	orq	%r11, %rcx
	xorq	%rax, %rcx
	movq	%r12, 416(%rsp)
	xorq	%rsi, %rax
	movq	%rsi, %r12
	xorq	680(%rsp), %rsi
	andq	%rcx, %rdx
	xorq	%rdi, %rdx
	orq	576(%rsp), %rdi
	andq	%r10, %r12
	andq	%r13, %rax
	xorq	672(%rsp), %r10
	xorq	%r8, %r12
	andq	%r11, %rax
	andn	%r8, %r13, %r8
	xorq	%rcx, %rbp
	xorq	%rsi, %rbx
	xorq	584(%rsp), %rbx
	xorq	%r12, %rax
	orq	%r15, %rax
	andq	%r11, %rdi
	xorq	424(%rsp), %rdx
	xorq	%rax, %r10
	orq	%r11, %r8
	movq	%rdi, %rax
	orq	%r12, %rbp
	xorq	%r10, %rax
	xorq	%r8, %rbx
	andq	%r15, %rbp
	movq	%rax, 672(%rsp)
	movq	%rbp, %r15
	movq	%rdx, 424(%rsp)
	xorq	%rbx, %r15
	movq	%r15, 680(%rsp)
	movq	176(%rsp), %r15
	xorq	456(%rsp), %r15
	movq	120(%rsp), %r11
	movq	168(%rsp), %rbp
	xorq	728(%rsp), %r11
	xorq	432(%rsp), %rbp
	movq	-24(%rsp), %r13
	xorq	768(%rsp), %r13
	movq	160(%rsp), %r10
	movq	%r15, %rcx
	movq	-96(%rsp), %r15
	xorq	488(%rsp), %r15
	xorq	416(%rsp), %r10
	movq	%r11, %rax
	movq	%rcx, 576(%rsp)
	notq	%rax
	movq	%rbp, 584(%rsp)
	movq	%r13, %r9
	movq	%rax, %rdx
	xorq	%r13, %r11
	movq	%r15, %rbx
	movq	%rbp, %r15
	notq	%r15
	movq	%r10, %rdi
	orq	%r15, %r9
	movq	%r15, %rax
	movq	%r15, %rsi
	xorq	%r11, %rax
	movq	%r9, %r8
	movq	%r9, %r15
	andq	%rdx, %r8
	movq	%rax, %r14
	movq	%r10, %rax
	orq	%r8, %rax
	orq	%rdx, %rsi
	movq	%r15, 856(%rsp)
	movq	%rax, %rbp
	movq	%r14, %rax
	xorq	%rbp, %rax
	movq	%rax, %r9
	movq	%r10, %rax
	andq	%rsi, %rax
	movq	%rax, %r10
	movq	%rbp, %rax
	movq	%r15, %rbp
	xorq	%r10, %rax
	movq	%rdx, %r15
	movq	%rax, %r12
	movq	%rax, 864(%rsp)
	orq	%rbx, %r12
	xorq	%r9, %r12
	xorq	%r12, %rsi
	andn	%r11, %rsi, %r11
	andq	%rsi, %rbp
	movq	%r11, %rax
	movq	%rdi, %r11
	orq	%rsi, %r11
	orq	%rbx, %rax
	xorq	%rdx, %r11
	xorq	%rax, %r11
	movq	656(%rsp), %rax
	orq	%r11, %rcx
	xorq	%r12, %rax
	xorq	%rax, %rcx
	movq	%r13, %rax
	orq	%r14, %rax
	movq	%rcx, 656(%rsp)
	movq	%r8, %rcx
	notq	%rax
	orq	%rdi, %rax
	xorq	%rax, %rcx
	xorq	%r9, %rbp
	orq	%r9, %rdx
	andq	%r9, %r15
	xorq	%r8, %rdx
	movq	%rbx, %r8
	andq	%rbp, %r8
	orq	%rbx, %r15
	andq	%r13, %r10
	xorq	%rcx, %r15
	xorq	%r8, %rdx
	xorq	400(%rsp), %r15
	movq	576(%rsp), %r8
	andq	%r13, %rbp
	orq	%r13, %rcx
	xorq	%rbp, %rax
	xorq	864(%rsp), %r13
	xorq	%rsi, %rcx
	orq	%rbx, %rax
	andq	856(%rsp), %r13
	orq	%r8, %rdx
	xorq	%r15, %rdx
	movq	%r14, %r15
	orq	%r10, %r15
	xorq	408(%rsp), %r15
	movq	%rdx, 400(%rsp)
	orq	%rbx, %r13
	xorq	%r9, %r13
	xorq	%r13, %rbp
	xorq	%r15, %rax
	movq	584(%rsp), %r15
	orq	%r9, %r15
	movq	664(%rsp), %r9
	xorq	%r15, %r11
	orq	%rbx, %r11
	xorq	%r11, %rcx
	xorq	%rbp, %r9
	andq	%r8, %rcx
	movq	%rcx, %rsi
	movq	304(%rsp), %rcx
	xorq	%rax, %rsi
	orq	%rdi, %r14
	andq	%r12, %rbx
	andq	%rbx, %rbp
	xorq	%r14, %r10
	xorq	528(%rsp), %rcx
	xorq	%rbp, %r10
	movq	%rsi, 408(%rsp)
	andq	%r8, %r10
	movq	%r10, %rax
	xorq	%r9, %rax
	movq	%rcx, %r13
	movq	16(%rsp), %rcx
	movq	%rax, 664(%rsp)
	xorq	472(%rsp), %rcx
	movq	%r13, %r12
	movq	8(%rsp), %rbx
	movq	136(%rsp), %r9
	xorq	456(%rsp), %r9
	movq	-80(%rsp), %rbp
	xorq	416(%rsp), %rbp
	movq	-64(%rsp), %rdi
	movq	%rcx, %rax
	xorq	752(%rsp), %rdi
	xorq	688(%rsp), %rbx
	xorq	%rax, %r12
	movq	%r9, %rcx
	movq	%r9, %r11
	notq	%rcx
	movq	%rbp, %r14
	movq	%r11, 304(%rsp)
	movq	%rcx, %r8
	orq	%rax, %r11
	movq	%rbx, %rsi
	xorq	%r12, %r8
	movq	%r11, 856(%rsp)
	movq	%r8, 576(%rsp)
	movq	%r8, %r9
	movq	%rax, %r8
	xorq	%rbp, %r9
	notq	%r8
	movq	%r9, %r15
	movq	%r8, %r9
	movq	%rcx, %r8
	orq	%r13, %r9
	movq	%r15, 584(%rsp)
	orq	%r9, %r8
	xorq	%rax, %r9
	andq	%rbp, %r8
	xorq	%r13, %r8
	andq	%r8, %r14
	andq	%rdi, %r8
	movq	%r14, %r10
	movq	%rdi, %r14
	xorq	%r15, %r8
	orq	%r9, %r14
	movq	384(%rsp), %r15
	movq	%r14, %rdx
	movq	%rbx, %r14
	xorq	%r10, %rdx
	movq	%r13, %r10
	andq	%rdx, %r14
	xorq	%r14, %r8
	movq	%r11, %r14
	orq	%r13, %r14
	xorq	%r8, %r15
	movq	%r14, %rbx
	movq	%rbp, %r14
	movq	%r15, 384(%rsp)
	xorq	%rbx, %r14
	movq	%r14, %r11
	movq	%rbp, %r14
	xorq	%r9, %r11
	orq	%rcx, %r10
	andq	%rcx, %rax
	orq	%rax, %r14
	xorq	%rbx, %rcx
	xorq	%r12, %rax
	movq	%r10, %r12
	andq	%rbp, %rcx
	orq	576(%rsp), %r13
	xorq	%r14, %r12
	xorq	%rcx, %rax
	orq	304(%rsp), %rdx
	movq	%r12, %r15
	movq	%rdi, %r12
	xorq	648(%rsp), %r10
	andq	%rax, %r12
	andq	%r11, %rcx
	andq	%rbp, %rax
	xorq	%r12, %r15
	movq	640(%rsp), %r12
	andq	%r8, %r13
	orq	%rsi, %r15
	orq	%rdi, %r13
	xorq	%r9, %rdx
	movq	584(%rsp), %r9
	xorq	392(%rsp), %r9
	movq	%r13, %r8
	xorq	%r11, %r12
	xorq	%r11, %rax
	andq	%rbx, %r11
	xorq	%r15, %r12
	xorq	%r12, %r8
	movq	%rdi, %r12
	orq	%rdx, %r12
	orq	%r14, %rdx
	xorq	%r9, %rcx
	andq	%rsi, %rdx
	xorq	%r12, %rcx
	movq	%r8, 640(%rsp)
	movq	%rdx, %r15
	movq	-112(%rsp), %r8
	xorq	%rcx, %r15
	xorq	%r11, %r10
	andq	856(%rsp), %r14
	andq	%rax, %rdi
	xorq	440(%rsp), %r8
	movq	%r15, 392(%rsp)
	xorq	%rdi, %r10
	movq	296(%rsp), %r15
	movq	-72(%rsp), %rdi
	xorq	744(%rsp), %r15
	xorq	712(%rsp), %rdi
	andq	%rax, %r14
	orq	%rsi, %r14
	movq	%r14, %r12
	movq	(%rsp), %r14
	xorq	520(%rsp), %r14
	xorq	%r10, %r12
	movq	%r15, %rbx
	movq	%r12, 648(%rsp)
	movq	-8(%rsp), %rax
	xorq	528(%rsp), %rax
	movq	%rax, %rdx
	movq	152(%rsp), %rax
	xorq	472(%rsp), %rax
	movq	%rax, %r13
	movq	%r8, %rax
	notq	%rax
	movq	%rax, %rcx
	movq	%r14, %rax
	notq	%rax
	movq	%rax, %r15
	movq	%r8, %rax
	andq	%rbx, %rax
	movq	%rax, %rbp
	movq	%rdi, %rax
	xorq	%r14, %rbp
	andq	%rcx, %rax
	andq	%rbx, %rcx
	movq	%rax, %r10
	movq	%rbp, %rax
	xorq	%r10, %rax
	movq	%rax, -112(%rsp)
	xorq	%rdx, %rax
	movq	%rax, %rsi
	movq	%r8, %rax
	xorq	%r15, %rax
	movq	%rsi, %r12
	movq	%rax, %r11
	movq	%rdi, %rax
	orq	%r11, %rax
	xorq	%rcx, %rax
	xorq	%rax, %r8
	andq	%rax, %r12
	movq	%r8, 152(%rsp)
	orq	%rsi, %r8
	xorq	624(%rsp), %rsi
	movq	%r8, %r9
	movq	%r12, %r8
	movq	%r12, -8(%rsp)
	andq	%rdi, %r9
	movq	%r15, %r12
	xorq	%r9, %r8
	andq	%rdx, %r8
	xorq	%rax, %r8
	andq	%r13, %r8
	xorq	%rsi, %r8
	orq	%rbp, %r12
	movq	%rdi, %rsi
	movq	%r8, 624(%rsp)
	movq	%r12, %r8
	xorq	%rbx, %rsi
	xorq	%r8, %rcx
	xorq	%r11, %rsi
	movq	%r14, %r12
	orq	%rdx, %rcx
	xorq	%rbx, %r9
	xorq	%r8, %r12
	xorq	%rcx, %rsi
	movq	%rdx, %rcx
	movq	%r12, 304(%rsp)
	orq	%r10, %rcx
	orq	%rdi, %r12
	xorq	%rbx, %r11
	orq	%r9, %rcx
	orq	%r11, %r10
	xorq	632(%rsp), %r10
	xorq	%r12, %rcx
	orq	%rbp, %r9
	andq	%r14, %rax
	orq	%r13, %rcx
	xorq	%rdi, %r9
	xorq	304(%rsp), %r12
	xorq	%rsi, %rcx
	movq	368(%rsp), %rsi
	movq	320(%rsp), %rbp
	xorq	%rcx, %rsi
	orq	%rdx, %r12
	movq	%rsi, 368(%rsp)
	movq	%rdx, %rsi
	orq	%r9, %rsi
	xorq	%rsi, %r10
	movq	%r9, %rsi
	xorq	%rax, %rsi
	orq	-112(%rsp), %rax
	xorq	%rsi, %rcx
	andq	%rdx, %rcx
	xorq	%rcx, %rax
	orq	%r13, %rax
	xorq	%r10, %rax
	andq	-8(%rsp), %r8
	orq	%r15, %r9
	movq	%rax, 632(%rsp)
	movq	152(%rsp), %rax
	xorq	376(%rsp), %rax
	xorq	720(%rsp), %rbp
	movq	536(%rsp), %r15
	andq	%r12, %r8
	orq	%r8, %r13
	movq	-88(%rsp), %r8
	xorq	%rax, %r12
	movq	%r9, %rax
	movq	-16(%rsp), %r9
	xorq	%r13, %r12
	xorq	520(%rsp), %r9
	xorq	%r12, %rax
	movq	%rbp, %r12
	xorq	%r15, %r8
	movq	%rax, 376(%rsp)
	movq	-104(%rsp), %rax
	notq	%r12
	xorq	504(%rsp), %rax
	movq	%r12, %r13
	movq	%rbp, %r12
	movq	%r9, %rdx
	movq	%rax, %rsi
	movq	272(%rsp), %rax
	xorq	672(%rsp), %rax
	movq	%rax, %rbx
	movq	144(%rsp), %rax
	xorq	440(%rsp), %rax
	orq	%rax, %r12
	movq	%r12, %r11
	movq	%rsi, %r12
	andq	%r11, %r12
	movq	%r12, %rdi
	movq	%rax, %r12
	notq	%r12
	movq	%r12, %r10
	movq	%rax, %r12
	andq	%rsi, %r12
	xorq	%rdi, %r10
	xorq	%r13, %rdi
	xorq	%r11, %r12
	andq	%r12, %rdx
	movq	%rdx, %r11
	movq	%rsi, %rdx
	xorq	%r13, %rsi
	xorq	%r11, %rdx
	orq	%r9, %rsi
	movq	352(%rsp), %r13
	movq	%rdx, %rcx
	movq	%rbp, %rdx
	movq	608(%rsp), %r14
	orq	%r9, %rdx
	movq	%rdx, %rax
	movq	%rbx, %rdx
	andq	%rcx, %rdx
	xorq	%r10, %rax
	andq	%rdi, %r10
	xorq	%rdx, %rax
	movq	%rdi, %rdx
	andq	%r9, %rdx
	xorq	%rdx, %r12
	movq	%r10, %rdx
	xorq	%rsi, %rdx
	orq	%rbx, %rdx
	xorq	%rbp, %rsi
	andq	%r9, %rcx
	xorq	%r11, %rsi
	xorq	%r12, %rdx
	movq	%r8, %r12
	andq	%rbx, %rsi
	andq	%rdx, %r12
	orq	%r8, %rdx
	xorq	%rsi, %rcx
	xorq	%rax, %r12
	notq	%rax
	xorq	%r10, %rcx
	xorq	%rax, %r14
	movq	360(%rsp), %r11
	xorq	%rcx, %rax
	xorq	%rdx, %r14
	xorq	616(%rsp), %rdx
	andq	%rax, %r9
	orq	%rbx, %rax
	movq	248(%rsp), %rbp
	xorq	%r12, %r9
	xorq	776(%rsp), %rbp
	xorq	%r12, %r13
	xorq	%rax, %r9
	movq	%r13, 352(%rsp)
	movq	%r14, 608(%rsp)
	andq	%r9, %r8
	xorq	%rdx, %r9
	movq	72(%rsp), %rdx
	xorq	%r8, %rcx
	xorq	424(%rsp), %rdx
	movq	%r9, %r12
	xorq	%rcx, %r11
	movq	%rbp, %r13
	movq	%rbp, %r10
	movq	%r11, 360(%rsp)
	movq	-48(%rsp), %r11
	notq	%r13
	xorq	480(%rsp), %r11
	movq	%r13, %rbp
	xorq	%rcx, %r12
	movq	%rdx, %rax
	movq	288(%rsp), %rdx
	xorq	704(%rsp), %rdx
	movq	%rax, %r13
	movq	%r12, 616(%rsp)
	movq	232(%rsp), %r12
	notq	%r13
	xorq	504(%rsp), %r12
	movq	%r11, %r8
	movq	112(%rsp), %r11
	movq	%r13, %rcx
	orq	%rbp, %rcx
	movq	%rdx, %r13
	xorq	%r15, %r11
	xorq	%rcx, %r13
	movq	%r12, %rdi
	movq	%r13, %rbx
	movq	%rax, %r13
	andq	%r12, %rcx
	orq	%rdx, %r13
	movq	%r11, %rsi
	movq	%rax, %r11
	movq	%r13, %r12
	xorq	%r10, %r13
	orq	%r12, %r10
	movq	%r13, %r9
	movq	%r12, -112(%rsp)
	orq	%rdi, %r10
	xorq	%r10, %r9
	movq	%r9, %r15
	movq	%rbx, %r9
	notq	%r9
	movq	%r15, -8(%rsp)
	andq	%r9, %r11
	movq	%r9, %r12
	movq	%rdi, %r9
	orq	%r11, %r9
	xorq	%r9, %r13
	orq	%r8, %r13
	xorq	%r10, %r13
	movq	%r13, %r14
	movq	336(%rsp), %r13
	movq	%r14, 72(%rsp)
	xorq	%rbx, %r13
	movq	%r13, %r10
	movq	%r15, %r13
	xorq	%rdi, %r15
	andq	%r8, %r13
	xorq	%rcx, %r10
	xorq	%r13, %r10
	movq	%r14, %r13
	orq	%rsi, %r13
	xorq	%r10, %r13
	movq	%r15, %r10
	movq	%rdi, %r15
	movq	%r13, 336(%rsp)
	movq	%rbp, %r13
	orq	%r11, %r13
	movq	%r13, %r14
	movq	%rdx, %r13
	orq	%r10, %rdx
	xorq	%r14, %r13
	xorq	%r14, %rax
	notq	%rdx
	andq	%r13, %r15
	orq	%rsi, %rdx
	xorq	%rax, %r15
	movq	%r14, %rax
	movq	592(%rsp), %r14
	andq	%r10, %rax
	orq	%r8, %rax
	xorq	%r15, %rax
	movq	%rbp, %r15
	xorq	%rax, %rdx
	xorq	%rcx, %r15
	xorq	%rdx, %r14
	movq	%r14, 592(%rsp)
	movq	%r15, %r14
	movq	%r8, %r15
	andq	%r9, %r14
	xorq	%rbp, %r11
	andq	%rbx, %r15
	andq	%rdi, %r11
	movq	-112(%rsp), %rbp
	andq	%r15, %r10
	xorq	%r12, %r11
	xorq	72(%rsp), %r12
	xorq	%r14, %r10
	xorq	%rbx, %r9
	orq	%rsi, %r10
	xorq	%rcx, %rbp
	andq	%r8, %r9
	xorq	%r10, %r11
	andq	%rax, %r9
	movq	%rbp, %r10
	movq	344(%rsp), %rbp
	xorq	%rdx, %r12
	andq	%rdx, %r10
	xorq	-8(%rsp), %rax
	xorq	%r9, %r12
	orq	%r8, %r10
	orq	%rsi, %r12
	xorq	600(%rsp), %r12
	xorq	%r11, %r10
	xorq	%r10, %rbp
	andq	%r13, %r10
	xorq	%rcx, %r10
	movq	%rbp, 344(%rsp)
	xorq	%r10, %r12
	orq	%rax, %r10
	andq	%r8, %r10
	movq	%r10, %r13
	xorq	%r12, %r13
	movq	%r13, 600(%rsp)
	movq	264(%rsp), %r11
	movq	200(%rsp), %rcx
	xorq	464(%rsp), %r11
	xorq	496(%rsp), %rcx
	movq	-120(%rsp), %rdi
	movq	96(%rsp), %rdx
	xorq	792(%rsp), %rdi
	xorq	696(%rsp), %rdx
	movq	128(%rsp), %r8
	xorq	424(%rsp), %r8
	movq	%r11, %r12
	movq	%r11, %r15
	movq	%rcx, %rbp
	movq	%r11, %rsi
	movq	%rdi, %r10
	movq	%rdx, %r14
	movq	88(%rsp), %rdx
	xorq	480(%rsp), %rdx
	movq	%r8, %rbx
	notq	%r8
	xorq	%rbx, %r12
	andq	%rbx, %r15
	movq	%r8, %r13
	movq	%r11, %r8
	movq	%r15, %r9
	movq	328(%rsp), %r11
	movq	%rdx, %rax
	movq	%rcx, %rdx
	andq	%rcx, %r8
	xorq	%rax, %r12
	notq	%rdx
	movq	%rcx, %r15
	xorq	%rdx, %r12
	movq	%r13, -112(%rsp)
	xorq	%r9, %r15
	andq	%r12, %rbp
	orq	%r8, %r13
	xorq	%r12, %r11
	movq	%rbp, -8(%rsp)
	andq	%rax, %rbp
	xorq	%rbp, %r13
	movq	%r15, %rbp
	movq	%rax, %r15
	andq	%rbp, %r15
	andq	%r13, %r10
	xorq	%rsi, %r13
	xorq	%r15, %rdx
	xorq	%r10, %r11
	movq	%rdi, %r10
	orq	%rdx, %r10
	andq	%rax, %r13
	xorq	%rbx, %r15
	xorq	%r10, %r13
	xorq	%rsi, %rdx
	movq	%r14, %r10
	andq	%r14, %r13
	andq	%rdx, %rax
	movq	568(%rsp), %rbx
	xorq	%r11, %r13
	movq	%r8, %r11
	orq	%r15, %r11
	movq	%r13, 304(%rsp)
	notq	%r15
	andq	%rdi, %r11
	xorq	%rax, %r11
	xorq	%rcx, %r11
	orq	%r11, %rsi
	andn	%rdi, %rsi, %r13
	xorq	840(%rsp), %r11
	andq	%rcx, %rdx
	xorq	%r15, %r13
	xorq	%r8, %rbx
	orq	%rax, %rbp
	andq	%r13, %r10
	xorq	-112(%rsp), %rbp
	xorq	848(%rsp), %r8
	xorq	%r11, %r10
	movq	%r12, %r11
	xorq	%rdx, %r11
	movq	%r10, 576(%rsp)
	movq	%rbx, %r10
	movq	%r11, %rcx
	orq	%r12, %rdx
	andq	%rbp, %r15
	orq	%rdi, %rcx
	orq	%r14, %r15
	xorq	%r8, %rdx
	xorq	%rcx, %r10
	xorq	%r15, %rdx
	movq	280(%rsp), %r12
	xorq	%r13, %r10
	movq	%r9, %r13
	xorq	680(%rsp), %r12
	xorq	%rax, %r13
	movq	56(%rsp), %rax
	xorq	448(%rsp), %rax
	xorq	%rsi, %r13
	andq	-8(%rsp), %rsi
	orq	%rdi, %r13
	xorq	%rbp, %r13
	movq	%r12, %r15
	orq	%r14, %r13
	movq	%rax, %rcx
	orq	%rdi, %rsi
	movq	%r13, %r11
	movq	%rsi, %r8
	xorq	%r10, %r11
	movq	192(%rsp), %rsi
	xorq	%rdx, %r8
	xorq	736(%rsp), %rsi
	movq	%r11, 328(%rsp)
	movq	%r8, 584(%rsp)
	movq	-32(%rsp), %r8
	xorq	512(%rsp), %r8
	movq	-56(%rsp), %rdi
	movq	256(%rsp), %rdx
	xorq	464(%rsp), %rdi
	xorq	496(%rsp), %rdx
	movq	%r8, %r9
	movq	%rdi, %r13
	movq	%rdx, %rbx
	movq	%rdi, %rdx
	notq	%rdx
	movq	%rbx, %r10
	movq	%rdx, -112(%rsp)
	movq	%r8, %rdx
	notq	%rdx
	movq	%rdx, %rax
	movq	%r12, %rdx
	andq	%rdi, %rdx
	xorq	%rdx, %r9
	movq	%rsi, %rdx
	xorq	%r9, %rdx
	andq	%r12, %r9
	xorq	%r9, %r13
	movq	%rdx, %r14
	movq	%r13, %rbp
	movq	%r13, -8(%rsp)
	movq	%rdi, %r13
	andq	%rsi, %rbp
	movq	%rbp, %rdx
	movq	%rbp, 72(%rsp)
	xorq	%rbx, %rdx
	movq	%rdx, %r11
	movq	%r12, %rdx
	movq	%r9, %r12
	andq	%rax, %rdx
	orq	%rcx, %r11
	orq	%rdx, %r13
	movq	%rdx, %r8
	movq	%rax, %rdx
	xorq	%r14, %r11
	orq	%rdi, %rdx
	movq	%r13, %rbp
	andq	%rsi, %rdx
	xorq	%r11, %r12
	movq	552(%rsp), %rax
	xorq	%rdx, %rbp
	orq	%rcx, %r12
	xorq	%r9, %r14
	xorq	%rbp, %r12
	andq	%r12, %r10
	xorq	%r11, %r10
	xorq	%r10, %rax
	orq	%rdi, %r10
	xorq	%r9, %r10
	movq	%rax, 152(%rsp)
	movq	%rdx, %rax
	xorq	%r10, %rax
	movq	%r10, %rdi
	movq	%r8, %r10
	orq	%r14, %r10
	movq	%rcx, %r8
	orq	%r10, %r8
	andq	%rcx, %r10
	xorq	824(%rsp), %r8
	andq	%rdi, %r10
	movq	-112(%rsp), %rdi
	xorq	%rax, %r8
	andq	%r12, %rdi
	orq	-8(%rsp), %rsi
	xorq	%rdi, %r10
	andq	%r15, %r13
	andq	%r15, %rbp
	orq	%rbx, %r10
	xorq	%r9, %rdx
	xorq	%r15, %r14
	xorq	%r8, %r10
	movq	-112(%rsp), %r8
	orq	%rcx, %rdx
	xorq	%rsi, %r13
	xorq	72(%rsp), %rdx
	andq	%rcx, %r14
	xorq	832(%rsp), %rdx
	movq	%r10, 568(%rsp)
	movq	%r8, %rsi
	orq	%r8, %rbp
	movq	-40(%rsp), %r8
	orq	%rcx, %rsi
	andq	%rcx, %rbp
	xorq	488(%rsp), %r8
	orq	%rsi, %rax
	xorq	%rbp, %r11
	movq	%rbx, %rbp
	xorq	%rax, %r13
	movq	216(%rsp), %rax
	orq	%r13, %rbp
	xorq	%r13, %rdx
	xorq	%r12, %r13
	xorq	%rbp, %r11
	movq	560(%rsp), %rbp
	movq	80(%rsp), %r12
	xorq	784(%rsp), %r12
	xorq	%r11, %rbp
	andq	%r14, %r11
	xorq	%r13, %r11
	movq	%rbp, 192(%rsp)
	movq	240(%rsp), %rbp
	orq	%rbx, %r11
	movq	%r8, %r13
	movq	%r12, -112(%rsp)
	xorq	%rdx, %r11
	notq	%r12
	movq	%r11, 560(%rsp)
	movq	40(%rsp), %r11
	movq	%r12, %rdi
	xorq	432(%rsp), %r11
	xorq	760(%rsp), %rax
	xorq	512(%rsp), %rbp
	movq	%rax, %rcx
	movq	%r11, %r9
	movq	64(%rsp), %rax
	movq	%rbp, %rdx
	movq	%rcx, %r11
	xorq	448(%rsp), %rax
	notq	%rdx
	movq	%rbp, %rsi
	movq	%r9, %rbp
	xorq	%rdx, %r11
	movq	%rdx, %r8
	movq	%rcx, %rdx
	orq	%r8, %rdx
	movq	%r11, %r14
	xorq	%rdx, %rdi
	movq	%rax, %r10
	movq	%r12, %rax
	orq	%rdi, %r8
	orq	%rdi, %rbp
	movq	%rdi, %r15
	movq	%r12, %rdi
	movq	%r11, %r12
	xorq	%rbp, %r14
	xorq	%r8, %rdi
	andq	%r9, %rdx
	andn	%r8, %rcx, %rcx
	movq	%rdi, %rbx
	movq	%r9, %rdi
	orq	%r9, %r11
	andq	%rbx, %rdi
	andq	%rbx, %r12
	xorq	%rbp, %rbx
	movq	%rdi, 80(%rsp)
	movq	%r12, -8(%rsp)
	movq	%r9, %r12
	andq	%r8, %r12
	xorq	-8(%rsp), %r12
	xorq	%r8, %rdi
	andq	%r10, %rdi
	xorq	%rdx, %rcx
	andq	%r11, %rax
	xorq	%r14, %rdi
	orq	%r10, %rcx
	movq	%r13, %rdx
	xorq	%rax, %rcx
	movq	%rsi, %r9
	orq	%r10, %r12
	andq	%rcx, %rdx
	xorq	%r12, %rbx
	movq	800(%rsp), %r12
	xorq	%rdi, %rdx
	xorq	%rdi, %r12
	movq	%r12, -8(%rsp)
	movq	%r13, %r12
	orq	%rbx, %r12
	movq	%r12, 72(%rsp)
	movq	-8(%rsp), %r12
	xorq	72(%rsp), %r12
	xorq	544(%rsp), %rdx
	xorq	%r11, %r15
	xorq	%r15, %rbp
	xorq	%rsi, %rax
	xorq	816(%rsp), %rsi
	andq	%rbp, %r9
	orq	-112(%rsp), %rdi
	andq	%r14, %rax
	xorq	808(%rsp), %rbp
	andq	%r10, %rax
	xorq	%rcx, %rbx
	movq	%r12, -8(%rsp)
	movq	%r9, %r12
	movq	296(%rsp), %r15
	xorq	%r8, %r12
	andn	%r8, %r14, %r8
	movq	312(%rsp), %r14
	xorq	600(%rsp), %r14
	xorq	%rsi, %r11
	xorq	80(%rsp), %r11
	xorq	%r12, %rax
	andq	%r10, %rdi
	xorq	640(%rsp), %r15
	orq	%r13, %rax
	orq	%r10, %r8
	orq	%r12, %rbx
	xorq	%rax, %rbp
	movq	%rdi, %r9
	andq	%r13, %rbx
	movq	%r14, %rcx
	movq	-64(%rsp), %r14
	xorq	152(%rsp), %r14
	xorq	%rbp, %r9
	xorq	%r8, %r11
	movq	-88(%rsp), %r8
	xorq	328(%rsp), %r8
	movq	%r9, 544(%rsp)
	movq	%rbx, %r9
	movq	8(%rsp), %rbx
	xorq	-8(%rsp), %rbx
	xorq	%r11, %r9
	movq	%r14, 808(%rsp)
	movq	%rcx, %r13
	notq	%r14
	movq	%r9, 552(%rsp)
	movq	%r14, %rax
	xorq	%r15, %rcx
	notq	%r13
	movq	%r14, %rsi
	movq	%r15, %r9
	movq	%rdx, 72(%rsp)
	movq	%r8, 800(%rsp)
	movq	%r13, %r8
	movq	184(%rsp), %rdx
	xorq	360(%rsp), %rdx
	xorq	%rcx, %rsi
	orq	%rax, %r9
	movq	%rsi, %r14
	orq	%r8, %rax
	andq	%r9, %r13
	movq	%rbx, %r11
	movq	%rbx, %r10
	andq	%rax, %r10
	movq	%r13, %r12
	orq	%r13, %r11
	movq	%r14, %r13
	movq	%rdx, %rbp
	xorq	%r11, %r13
	xorq	%r10, %r11
	orq	%r11, %rdx
	movq	%r13, %rdi
	movq	%r8, %r13
	movq	%rdx, %r8
	movq	%rax, %rdx
	movq	%rbx, %rax
	xorq	%rdi, %r8
	xorq	%r8, %rdx
	movq	%r8, %rsi
	movq	%rdx, %r8
	andn	%rcx, %rdx, %rcx
	movq	%r12, %rdx
	orq	%r8, %rax
	orq	%rbp, %rcx
	movq	%r8, 256(%rsp)
	xorq	%r13, %rax
	movq	%r13, %r8
	xorq	%rax, %rcx
	movq	%r15, %rax
	movq	%rcx, 296(%rsp)
	movq	784(%rsp), %r13
	orq	%r14, %rax
	movq	%rsi, 992(%rsp)
	movq	%r12, 976(%rsp)
	movq	%r8, %rcx
	movq	%rbx, 312(%rsp)
	movq	%r14, 968(%rsp)
	xorq	%rsi, %r13
	movq	%rax, %rsi
	movq	%r8, 816(%rsp)
	notq	%rsi
	movq	%r13, 1016(%rsp)
	orq	%rbx, %rsi
	xorq	%rsi, %rdx
	movq	%rdx, %r13
	movq	256(%rsp), %rdx
	movq	%r13, 1000(%rsp)
	andq	%r9, %rdx
	movq	%rdx, %r12
	movq	%rdi, %rdx
	andq	%rdx, %rcx
	xorq	%rdi, %r12
	orq	%rbp, %rcx
	movq	%r12, %rdi
	movq	%rdx, %r12
	xorq	%r13, %rcx
	movq	%r15, %rdx
	movq	-24(%rsp), %r13
	movq	%rcx, %rbx
	xorq	528(%rsp), %rbx
	movq	%r15, %rcx
	andq	%rdi, %rcx
	movq	%rdx, 528(%rsp)
	movq	%rdi, 1008(%rsp)
	xorq	%rcx, %rsi
	movq	%r12, 984(%rsp)
	orq	%rbp, %rsi
	movq	%rbx, 1032(%rsp)
	movq	%r10, %rbx
	movq	144(%rsp), %r10
	andq	%r15, %rbx
	movq	%rbp, %r15
	movq	%r14, %rbp
	orq	%rbx, %rbp
	xorq	536(%rsp), %rbp
	movq	%rsi, %r14
	movq	%r15, 536(%rsp)
	movq	%rbx, 1024(%rsp)
	xorq	%rbp, %r14
	xorq	%rdx, %r11
	xorq	624(%rsp), %r10
	andq	%r9, %r11
	movq	%r14, 928(%rsp)
	xorq	400(%rsp), %r13
	orq	%r15, %r11
	movq	%r11, %rdx
	xorq	%r12, %rdx
	movq	%r10, %r11
	movq	-72(%rsp), %r12
	movq	%rdx, %r15
	movq	176(%rsp), %r10
	movq	-16(%rsp), %rdx
	xorq	%rcx, %r15
	xorq	568(%rsp), %rdx
	xorq	-8(%rsp), %r10
	movq	%r15, %r14
	movq	792(%rsp), %r15
	movq	%r14, 1040(%rsp)
	xorq	%r14, %r15
	movq	24(%rsp), %r14
	xorq	344(%rsp), %r14
	movq	%r15, 920(%rsp)
	xorq	328(%rsp), %r12
	movq	%r13, %r15
	movq	%r10, %rbp
	movq	%r15, %r9
	movq	%rdx, %rbx
	movq	%rbx, %rdx
	movq	%rbx, -24(%rsp)
	movq	%r14, %r13
	xorq	%r14, %r9
	movq	%r13, %rdi
	movq	%r12, %r10
	movq	%r12, %rsi
	notq	%rdi
	notq	%r10
	movq	%rdi, %rcx
	movq	%r10, %rdi
	movq	%r10, %r12
	orq	%r15, %rcx
	xorq	%r9, %r12
	orq	%rcx, %rdi
	movq	%r12, 904(%rsp)
	movq	%r12, %r14
	andq	%rbp, %rdi
	movq	%rbp, %r12
	xorq	%r13, %rcx
	xorq	%r15, %rdi
	xorq	%rbp, %r14
	andq	%rdi, %r12
	movq	%r14, %rax
	movq	%r11, %r14
	movq	%r12, %r8
	orq	%rcx, %r11
	andq	%r14, %rdi
	xorq	%r11, %r8
	xorq	%rax, %rdi
	movq	%r13, %r12
	andq	%r8, %rdx
	orq	%rsi, %r12
	movq	%r15, %r11
	xorq	%rdx, %rdi
	orq	%r12, %r15
	movq	%r12, 912(%rsp)
	movq	%rdi, 176(%rsp)
	movq	%rbp, %rdi
	movq	%r11, %r12
	xorq	%rcx, %rdi
	movq	%r11, 784(%rsp)
	movq	%rbp, %r11
	xorq	%r15, %rdi
	orq	%r10, %r12
	andq	%r10, %r13
	xorq	%r15, %r10
	orq	%r13, %r11
	xorq	%r9, %r13
	andq	%rbp, %r10
	movq	%r11, %rbx
	movq	%r14, %r9
	xorq	%r10, %r13
	xorq	%r12, %rbx
	movq	%r11, 184(%rsp)
	andq	%r13, %r9
	movq	%r14, %r11
	movq	768(%rsp), %r14
	xorq	%r9, %rbx
	orq	-24(%rsp), %rbx
	xorq	520(%rsp), %rax
	orq	%rsi, %r8
	andq	%rdi, %r10
	andq	%rbp, %r13
	xorq	%rdi, %r14
	xorq	776(%rsp), %r12
	movq	-104(%rsp), %rsi
	xorq	616(%rsp), %rsi
	movq	%r11, 520(%rsp)
	xorq	%r14, %rbx
	movq	%r8, %r14
	movq	%r11, %r8
	xorq	%rcx, %r14
	xorq	%rax, %r10
	movq	%rbx, 944(%rsp)
	orq	%r14, %r8
	movq	%r14, 936(%rsp)
	movq	32(%rsp), %r14
	xorq	%r8, %r10
	xorq	392(%rsp), %r14
	movq	%rsi, %rbp
	movq	%r10, 960(%rsp)
	movq	%r13, %r10
	movq	272(%rsp), %rbx
	xorq	%rdi, %r10
	andq	%r15, %rdi
	movq	%r11, %r15
	andq	%r10, %r15
	movq	%r10, 952(%rsp)
	movq	320(%rsp), %r10
	xorq	192(%rsp), %r10
	xorq	%rdi, %r12
	movq	%r15, %rax
	movq	%r12, %r15
	xorq	400(%rsp), %rbx
	movq	120(%rsp), %r13
	xorq	%rax, %r15
	movq	%r14, %rsi
	notq	%rsi
	movq	%r15, 896(%rsp)
	movq	%r10, %r11
	movq	160(%rsp), %r10
	xorq	584(%rsp), %r10
	movq	%r11, %rdi
	xorq	344(%rsp), %r13
	movq	%r11, %rax
	andq	%rbp, %rdi
	notq	%rax
	movq	%rsi, %rdx
	movq	%rdi, %r12
	xorq	%r11, %rsi
	movq	%r10, %rdi
	xorq	%r14, %r12
	andq	%rax, %rdi
	movq	%r13, -112(%rsp)
	movq	%rbx, %r13
	movq	%rdi, %rcx
	movq	%r12, %rdi
	andq	%rbp, %rax
	xorq	%rcx, %rdi
	xorq	%rdi, %rbx
	movq	%rdi, 848(%rsp)
	movq	%rbx, %rdi
	movq	%rsi, %rbx
	movq	%r10, %rsi
	orq	%rbx, %rsi
	xorq	%rax, %rsi
	movq	%rsi, %r15
	andq	%rdi, %rsi
	xorq	%r15, %r11
	movq	%rsi, 120(%rsp)
	movq	%rdi, %rsi
	orq	%r11, %rsi
	movq	%r15, 80(%rsp)
	movq	%rdx, 840(%rsp)
	movq	%rsi, %r15
	movq	%rdi, %rsi
	xorq	752(%rsp), %rsi
	movq	%rdx, %rdi
	andq	%r10, %r15
	orq	%r12, %rdi
	movq	%r15, 856(%rsp)
	movq	%r15, %rdx
	movq	%rdi, %r9
	movq	%r14, %rdi
	movq	%r13, %r15
	movq	%rsi, 864(%rsp)
	movq	%r10, %rsi
	xorq	%r9, %rax
	xorq	%rbp, %rsi
	xorq	%r9, %rdi
	orq	%r13, %rax
	xorq	%rbx, %rsi
	orq	%rcx, %r13
	xorq	%rbp, %rdx
	movq	%rdi, %r8
	xorq	%rsi, %rax
	movq	%r10, %rdi
	movq	%r13, %rsi
	movq	-112(%rsp), %r13
	orq	%r8, %rdi
	orq	%rdx, %rsi
	orq	%rdx, %r12
	andq	80(%rsp), %r14
	xorq	%rdi, %rsi
	movq	%r15, -16(%rsp)
	orq	%r13, %rsi
	xorq	%rsi, %rax
	movq	%rax, 872(%rsp)
	movq	%r12, %rax
	movq	%r14, 880(%rsp)
	xorq	%r10, %rax
	xorq	%rbp, %rbx
	andq	120(%rsp), %r9
	orq	%rbx, %rcx
	movq	16(%rsp), %rbx
	xorq	760(%rsp), %rcx
	xorq	544(%rsp), %rbx
	movq	%r15, %rbp
	xorq	504(%rsp), %r11
	orq	%rax, %rbp
	xorq	%r8, %rdi
	movq	376(%rsp), %r14
	orq	%r15, %rdi
	movq	168(%rsp), %r15
	movq	%rax, 144(%rsp)
	movq	%rcx, %r10
	andq	%rdi, %r9
	movq	(%rsp), %rcx
	movq	%rbx, %r8
	movq	-80(%rsp), %rbx
	xorq	592(%rsp), %rbx
	xorq	%rbp, %r10
	orq	%r13, %r9
	xorq	%rdi, %r11
	movq	%r10, 888(%rsp)
	movq	-96(%rsp), %r10
	movq	%r9, %rsi
	xorq	192(%rsp), %r10
	xorq	%r14, %r15
	xorq	%r11, %rsi
	movq	%rbx, %rbp
	movq	%r15, %rax
	movq	%rsi, 768(%rsp)
	notq	%rbp
	movq	%rbx, %rsi
	xorq	392(%rsp), %rcx
	movq	%rbp, %r11
	movq	%rbx, %rbp
	movq	%r15, %rbx
	movq	%r10, %r15
	orq	%r10, %rbp
	movq	136(%rsp), %r9
	notq	%r15
	andq	%rbp, %rbx
	xorq	408(%rsp), %r9
	movq	%r15, %rdx
	movq	%r10, %r15
	andq	%rax, %r15
	xorq	%rbx, %rdx
	xorq	%r11, %rbx
	movq	%r15, %r12
	movq	%rax, %r15
	xorq	%rbp, %r12
	movq	%rcx, %rbp
	movq	%r9, %rdi
	andq	%r12, %rbp
	xorq	%rbp, %r15
	movq	%r15, %r10
	movq	%rsi, %r15
	orq	%rcx, %r15
	movq	%r15, %r13
	movq	%r8, %r15
	andq	%r10, %r15
	xorq	%rdx, %r13
	andq	%rbx, %rdx
	movq	%r15, %r9
	xorq	%r13, %r9
	xorq	%rax, %r11
	andq	%rcx, %rbx
	orq	%rcx, %r11
	xorq	%rbx, %r12
	movq	%rdx, %rbx
	xorq	%r11, %rbx
	xorq	%rsi, %r11
	andq	%rcx, %r10
	movq	%rbx, %rax
	movq	%rdi, %rbx
	xorq	%rbp, %r11
	orq	%r8, %rax
	andq	%r8, %r11
	movq	744(%rsp), %rsi
	xorq	%rax, %r12
	xorq	%r11, %r10
	andq	%r12, %rbx
	xorq	%rdx, %r10
	xorq	%r9, %rbx
	notq	%r9
	movq	%rbx, %r15
	movq	%r12, %rbx
	orq	%rdi, %rbx
	movq	%r15, 792(%rsp)
	movq	%rbx, %rax
	movq	736(%rsp), %rbx
	xorq	%rax, %rsi
	xorq	%r9, %rbx
	xorq	%r10, %r9
	andq	%r9, %rcx
	orq	%r8, %r9
	movq	%rbx, 832(%rsp)
	xorq	%r15, %rcx
	movq	%rdi, %r15
	xorq	%r9, %rcx
	andq	%rcx, %r15
	xorq	%rcx, %rsi
	xorq	%r10, %r15
	movq	%r15, 32(%rsp)
	movq	%rax, 824(%rsp)
	movq	280(%rsp), %rbx
	xorq	72(%rsp), %rbx
	movq	-40(%rsp), %rcx
	xorq	648(%rsp), %rcx
	movq	56(%rsp), %r15
	xorq	408(%rsp), %r15
	movq	%rsi, 744(%rsp)
	movq	%rbx, %rax
	movq	264(%rsp), %rbx
	xorq	352(%rsp), %rbx
	movq	%r15, -96(%rsp)
	movq	%rbx, %r10
	movq	104(%rsp), %rbx
	xorq	576(%rsp), %rbx
	movq	%r10, -104(%rsp)
	movq	%rbx, %r9
	movq	64(%rsp), %rbx
	xorq	%r14, %rbx
	movq	%rbx, %r8
	movq	%rcx, %rbx
	notq	%rbx
	movq	%rbx, %r15
	movq	%rax, %rbx
	notq	%rbx
	movq	%rbx, %rbp
	movq	%r9, %rbx
	orq	%r15, %rbp
	xorq	%rbp, %rbx
	andq	%r8, %rbp
	movq	%rbx, %r14
	movq	%rax, %rbx
	orq	%r9, %rbx
	movq	%r14, %rdi
	movq	%rbx, %r12
	movq	%rcx, %rbx
	xorq	%rbp, %rdi
	xorq	%r12, %rbx
	xorq	464(%rsp), %rdi
	movq	%rbx, %rsi
	movq	%rcx, %rbx
	orq	%r8, %rbx
	movq	%rbx, %rdx
	movq	%rsi, %rbx
	orq	%r12, %rdx
	xorq	%rdx, %rbx
	movq	%rbx, %r11
	movq	%r14, %rbx
	notq	%rbx
	movq	%rbx, %rcx
	movq	%rax, %rbx
	andq	%rcx, %rbx
	movq	%rbx, %r13
	movq	%r8, %rbx
	orq	%r13, %rbx
	xorq	%rbx, %rsi
	orq	%r10, %rsi
	andq	%r11, %r10
	xorq	%r10, %rdi
	xorq	%rdx, %rsi
	movq	%r9, %r10
	movq	%rdi, 760(%rsp)
	movq	%r15, %rdi
	movq	%rsi, 24(%rsp)
	orq	%r13, %rdi
	movq	%r11, %rsi
	movq	%r8, %rdx
	movq	-104(%rsp), %r11
	xorq	%rdi, %r10
	movq	%rsi, 736(%rsp)
	xorq	%r8, %rsi
	andq	%r10, %rdx
	xorq	%rdi, %rax
	andq	%rsi, %rdi
	xorq	%rdx, %rax
	movq	%rdi, %rdx
	movq	%r9, %rdi
	orq	%r11, %rdx
	orq	%rsi, %rdi
	xorq	%rdx, %rax
	movq	%rdi, %rdx
	movq	-96(%rsp), %rdi
	notq	%rdx
	movq	%rax, -40(%rsp)
	orq	%rdi, %rdx
	movq	%rdx, %rax
	xorq	-40(%rsp), %rax
	movq	%r11, %rdx
	andq	%r14, %rdx
	movq	%rax, %r9
	movq	%r15, %rax
	xorq	%rbp, %rax
	movq	%r9, 752(%rsp)
	andq	%rbx, %rax
	andq	%rdx, %rsi
	xorq	%r15, %r13
	andq	%r8, %r13
	xorq	%r14, %rbx
	xorq	%rax, %rsi
	xorq	%rcx, %r13
	xorq	24(%rsp), %rcx
	andq	%r11, %rbx
	andq	-40(%rsp), %rbx
	xorq	%rbp, %r12
	orq	%rdi, %rsi
	xorq	%r13, %rsi
	movq	%r12, %r13
	movq	%r10, %r12
	andq	%r9, %r13
	xorq	%r9, %rcx
	orq	%r11, %r13
	xorq	%rcx, %rbx
	xorq	%r13, %rsi
	movq	-32(%rsp), %rcx
	movq	%rbx, %rdx
	andq	%rsi, %r12
	movq	%rsi, 776(%rsp)
	orq	%rdi, %rdx
	xorq	728(%rsp), %rdx
	movq	%r12, %r10
	xorq	%rbp, %r10
	movq	-56(%rsp), %rdi
	xorq	336(%rsp), %rdi
	movq	%r10, %rbp
	movq	%rbp, 728(%rsp)
	movq	%rdx, %r12
	xorq	%rbp, %r12
	movq	%rdi, %rbx
	movq	%r12, 264(%rsp)
	xorq	368(%rsp), %rcx
	movq	240(%rsp), %r10
	xorq	664(%rsp), %r10
	movq	248(%rsp), %r12
	xorq	352(%rsp), %r12
	movq	%rcx, %r15
	movq	%rcx, %rax
	movq	%r10, %r14
	movq	112(%rsp), %r10
	xorq	560(%rsp), %r10
	xorq	%r12, %rbx
	movq	%rbx, %rsi
	movq	%rdi, %rbx
	movq	%rbx, 56(%rsp)
	movq	%r10, -80(%rsp)
	movq	232(%rsp), %r10
	xorq	72(%rsp), %r10
	movq	%r10, %rbp
	xorq	%r10, %rsi
	notq	%rbp
	movq	%rbp, %r8
	movq	%rcx, %rbp
	notq	%rbp
	xorq	%rbp, %rsi
	movq	%rbp, %r9
	movq	%rdi, %rbp
	andq	%rcx, %rbp
	andq	%rsi, %r15
	andq	%r10, %rdi
	movq	%r15, %r13
	movq	%r8, %r15
	movq	%rdi, 272(%rsp)
	orq	%rbp, %r15
	movq	%r13, 240(%rsp)
	movq	%r15, %rcx
	movq	%r12, %r15
	andq	%r13, %r15
	movq	%r15, %rdx
	movq	%rcx, %r15
	movq	%rdi, %rcx
	xorq	%rax, %rcx
	xorq	%rdx, %r15
	movq	%r12, %rdi
	movq	%r15, %r13
	andq	%rcx, %rdi
	movq	%r12, %r15
	movq	%r9, %r12
	movq	%r13, 248(%rsp)
	movq	%rbx, %rdx
	xorq	%rdi, %r12
	xorq	%r10, %rdi
	movq	%rbp, %r10
	movq	%r12, 16(%rsp)
	movq	%r14, %r12
	andq	%r13, %r14
	movq	448(%rsp), %r13
	xorq	16(%rsp), %rdx
	orq	%rdi, %r10
	movq	%r15, 64(%rsp)
	notq	%rdi
	movq	%r12, -88(%rsp)
	xorq	%rsi, %r13
	movq	%r13, %r9
	movq	%r14, %r13
	movq	%r15, %r14
	xorq	%r9, %r13
	movq	%r10, %r9
	andq	%rdx, %r14
	andq	%r12, %r9
	movq	%r13, 504(%rsp)
	movq	%rsi, %r10
	xorq	%r14, %r9
	movq	%rcx, %r15
	movq	%r14, 280(%rsp)
	xorq	%rax, %r9
	andq	%rdx, %rax
	orq	%r14, %r15
	orq	%r9, %rbx
	xorq	%rax, %r10
	xorq	%r8, %r15
	andn	%r12, %rbx, %r13
	movq	%rbx, 320(%rsp)
	movq	%r9, %rbx
	xorq	704(%rsp), %rbx
	movq	%r10, %rdx
	xorq	%rdi, %r13
	orq	%r12, %rdx
	orq	%rsi, %rax
	movq	%r13, 448(%rsp)
	movq	208(%rsp), %rsi
	movq	%rbx, 464(%rsp)
	movq	456(%rsp), %rbx
	movq	%r15, 456(%rsp)
	xorq	%rbp, %rbx
	xorq	712(%rsp), %rbp
	movq	%rbx, %r11
	xorq	%rdx, %r11
	movq	%r11, %r10
	xorq	%r13, %r10
	xorq	%rbp, %rax
	andq	%r15, %rdi
	orq	-80(%rsp), %rdi
	movq	%rax, %rbp
	movq	%r10, 704(%rsp)
	xorq	%rdi, %rbp
	movq	%rbp, 232(%rsp)
	xorq	304(%rsp), %rsi
	movq	40(%rsp), %r13
	xorq	552(%rsp), %r13
	movq	224(%rsp), %r10
	xorq	384(%rsp), %r10
	movq	-120(%rsp), %r9
	xorq	368(%rsp), %r9
	movq	%rsi, %r15
	movq	%r13, %r11
	movq	128(%rsp), %r13
	xorq	608(%rsp), %r13
	movq	%r10, %rdx
	movq	%r10, %rdi
	movq	%r11, %r10
	notq	%rdi
	movq	%r9, %r14
	movq	%r11, -120(%rsp)
	movq	%rdi, %r8
	movq	%r14, %rbp
	movq	%r14, 40(%rsp)
	movq	%r13, %rbx
	movq	216(%rsp), %r13
	xorq	336(%rsp), %r13
	movq	%rbx, %rdi
	andq	%r13, %r10
	movq	%r13, %rax
	movq	%r13, %rsi
	xorq	%r10, %rdx
	notq	%rax
	xorq	%rdx, %rdi
	andq	%r11, %rdx
	movq	%rax, -64(%rsp)
	movq	%rdi, %r12
	movq	%r13, %rdi
	movq	%r13, %rax
	xorq	%rdx, %rdi
	movq	%rdi, %r10
	movq	%rbx, %rdi
	andq	%r10, %rdi
	xorq	%rdi, %rbp
	movq	%rdi, %r9
	movq	%rbp, %rdi
	movq	%r11, %rbp
	andq	%r8, %rbp
	orq	%r15, %rdi
	orq	%rbp, %rax
	xorq	%r12, %rdi
	movq	%rax, %r11
	movq	%r8, %rax
	orq	%r13, %rax
	movq	%r11, %r8
	movq	%r14, %r13
	andq	%rbx, %rax
	xorq	%rax, %r8
	movq	%r8, %rcx
	movq	%rdx, %r8
	xorq	%rdi, %r8
	orq	%r15, %r8
	xorq	%rcx, %r8
	andq	%r8, %r13
	movq	%r8, (%rsp)
	xorq	%rdi, %r13
	orq	%r13, %rsi
	movq	%r13, 112(%rsp)
	movq	%rsi, %r13
	movq	%r12, %rsi
	xorq	%rdx, %r13
	movq	%r13, 128(%rsp)
	xorq	%rax, %r13
	xorq	%rdx, %rsi
	orq	%rsi, %rbp
	movq	%rsi, 136(%rsp)
	orq	%rbx, %r10
	movq	%rbp, %r12
	movq	%rbp, 160(%rsp)
	movq	-120(%rsp), %rbp
	orq	%r15, %r12
	xorq	%rdx, %rax
	movq	%r12, %r8
	xorq	688(%rsp), %r8
	orq	%r15, %rax
	andq	%rbp, %r11
	andq	%rbp, %rcx
	xorq	%rax, %r9
