
bin/avx2:     file format elf64-x86-64


Disassembly of section .init:

0000000000400890 <_init>:
  400890:	48 83 ec 08          	sub    $0x8,%rsp
  400894:	48 8b 05 45 f7 20 00 	mov    0x20f745(%rip),%rax        # 60ffe0 <_DYNAMIC+0x200>
  40089b:	48 85 c0             	test   %rax,%rax
  40089e:	74 05                	je     4008a5 <_init+0x15>
  4008a0:	e8 3b 01 00 00       	callq  4009e0 <rand@plt+0x10>
  4008a5:	48 83 c4 08          	add    $0x8,%rsp
  4008a9:	c3                   	retq   

Disassembly of section .plt:

00000000004008b0 <getenv@plt-0x10>:
  4008b0:	ff 35 52 f7 20 00    	pushq  0x20f752(%rip)        # 610008 <_GLOBAL_OFFSET_TABLE_+0x8>
  4008b6:	ff 25 54 f7 20 00    	jmpq   *0x20f754(%rip)        # 610010 <_GLOBAL_OFFSET_TABLE_+0x10>
  4008bc:	0f 1f 40 00          	nopl   0x0(%rax)

00000000004008c0 <getenv@plt>:
  4008c0:	ff 25 52 f7 20 00    	jmpq   *0x20f752(%rip)        # 610018 <_GLOBAL_OFFSET_TABLE_+0x18>
  4008c6:	68 00 00 00 00       	pushq  $0x0
  4008cb:	e9 e0 ff ff ff       	jmpq   4008b0 <_init+0x20>

00000000004008d0 <strncpy@plt>:
  4008d0:	ff 25 4a f7 20 00    	jmpq   *0x20f74a(%rip)        # 610020 <_GLOBAL_OFFSET_TABLE_+0x20>
  4008d6:	68 01 00 00 00       	pushq  $0x1
  4008db:	e9 d0 ff ff ff       	jmpq   4008b0 <_init+0x20>

00000000004008e0 <setenv@plt>:
  4008e0:	ff 25 42 f7 20 00    	jmpq   *0x20f742(%rip)        # 610028 <_GLOBAL_OFFSET_TABLE_+0x28>
  4008e6:	68 02 00 00 00       	pushq  $0x2
  4008eb:	e9 c0 ff ff ff       	jmpq   4008b0 <_init+0x20>

00000000004008f0 <strlen@plt>:
  4008f0:	ff 25 3a f7 20 00    	jmpq   *0x20f73a(%rip)        # 610030 <_GLOBAL_OFFSET_TABLE_+0x30>
  4008f6:	68 03 00 00 00       	pushq  $0x3
  4008fb:	e9 b0 ff ff ff       	jmpq   4008b0 <_init+0x20>

0000000000400900 <__stack_chk_fail@plt>:
  400900:	ff 25 32 f7 20 00    	jmpq   *0x20f732(%rip)        # 610038 <_GLOBAL_OFFSET_TABLE_+0x38>
  400906:	68 04 00 00 00       	pushq  $0x4
  40090b:	e9 a0 ff ff ff       	jmpq   4008b0 <_init+0x20>

0000000000400910 <strchr@plt>:
  400910:	ff 25 2a f7 20 00    	jmpq   *0x20f72a(%rip)        # 610040 <_GLOBAL_OFFSET_TABLE_+0x40>
  400916:	68 05 00 00 00       	pushq  $0x5
  40091b:	e9 90 ff ff ff       	jmpq   4008b0 <_init+0x20>

0000000000400920 <printf@plt>:
  400920:	ff 25 22 f7 20 00    	jmpq   *0x20f722(%rip)        # 610048 <_GLOBAL_OFFSET_TABLE_+0x48>
  400926:	68 06 00 00 00       	pushq  $0x6
  40092b:	e9 80 ff ff ff       	jmpq   4008b0 <_init+0x20>

0000000000400930 <__libc_start_main@plt>:
  400930:	ff 25 1a f7 20 00    	jmpq   *0x20f71a(%rip)        # 610050 <_GLOBAL_OFFSET_TABLE_+0x50>
  400936:	68 07 00 00 00       	pushq  $0x7
  40093b:	e9 70 ff ff ff       	jmpq   4008b0 <_init+0x20>

0000000000400940 <catopen@plt>:
  400940:	ff 25 12 f7 20 00    	jmpq   *0x20f712(%rip)        # 610058 <_GLOBAL_OFFSET_TABLE_+0x58>
  400946:	68 08 00 00 00       	pushq  $0x8
  40094b:	e9 60 ff ff ff       	jmpq   4008b0 <_init+0x20>

0000000000400950 <__printf_chk@plt>:
  400950:	ff 25 0a f7 20 00    	jmpq   *0x20f70a(%rip)        # 610060 <_GLOBAL_OFFSET_TABLE_+0x60>
  400956:	68 09 00 00 00       	pushq  $0x9
  40095b:	e9 50 ff ff ff       	jmpq   4008b0 <_init+0x20>

0000000000400960 <fopen@plt>:
  400960:	ff 25 02 f7 20 00    	jmpq   *0x20f702(%rip)        # 610068 <_GLOBAL_OFFSET_TABLE_+0x68>
  400966:	68 0a 00 00 00       	pushq  $0xa
  40096b:	e9 40 ff ff ff       	jmpq   4008b0 <_init+0x20>

0000000000400970 <catgets@plt>:
  400970:	ff 25 fa f6 20 00    	jmpq   *0x20f6fa(%rip)        # 610070 <_GLOBAL_OFFSET_TABLE_+0x70>
  400976:	68 0b 00 00 00       	pushq  $0xb
  40097b:	e9 30 ff ff ff       	jmpq   4008b0 <_init+0x20>

0000000000400980 <exit@plt>:
  400980:	ff 25 f2 f6 20 00    	jmpq   *0x20f6f2(%rip)        # 610078 <_GLOBAL_OFFSET_TABLE_+0x78>
  400986:	68 0c 00 00 00       	pushq  $0xc
  40098b:	e9 20 ff ff ff       	jmpq   4008b0 <_init+0x20>

0000000000400990 <fwrite@plt>:
  400990:	ff 25 ea f6 20 00    	jmpq   *0x20f6ea(%rip)        # 610080 <_GLOBAL_OFFSET_TABLE_+0x80>
  400996:	68 0d 00 00 00       	pushq  $0xd
  40099b:	e9 10 ff ff ff       	jmpq   4008b0 <_init+0x20>

00000000004009a0 <__fprintf_chk@plt>:
  4009a0:	ff 25 e2 f6 20 00    	jmpq   *0x20f6e2(%rip)        # 610088 <_GLOBAL_OFFSET_TABLE_+0x88>
  4009a6:	68 0e 00 00 00       	pushq  $0xe
  4009ab:	e9 00 ff ff ff       	jmpq   4008b0 <_init+0x20>

00000000004009b0 <__strncat_chk@plt>:
  4009b0:	ff 25 da f6 20 00    	jmpq   *0x20f6da(%rip)        # 610090 <_GLOBAL_OFFSET_TABLE_+0x90>
  4009b6:	68 0f 00 00 00       	pushq  $0xf
  4009bb:	e9 f0 fe ff ff       	jmpq   4008b0 <_init+0x20>

00000000004009c0 <__vsprintf_chk@plt>:
  4009c0:	ff 25 d2 f6 20 00    	jmpq   *0x20f6d2(%rip)        # 610098 <_GLOBAL_OFFSET_TABLE_+0x98>
  4009c6:	68 10 00 00 00       	pushq  $0x10
  4009cb:	e9 e0 fe ff ff       	jmpq   4008b0 <_init+0x20>

00000000004009d0 <rand@plt>:
  4009d0:	ff 25 ca f6 20 00    	jmpq   *0x20f6ca(%rip)        # 6100a0 <_GLOBAL_OFFSET_TABLE_+0xa0>
  4009d6:	68 11 00 00 00       	pushq  $0x11
  4009db:	e9 d0 fe ff ff       	jmpq   4008b0 <_init+0x20>

Disassembly of section .plt.got:

00000000004009e0 <.plt.got>:
  4009e0:	ff 25 fa f5 20 00    	jmpq   *0x20f5fa(%rip)        # 60ffe0 <_DYNAMIC+0x200>
  4009e6:	66 90                	xchg   %ax,%ax

Disassembly of section .text:

00000000004009f0 <_start>:
  4009f0:	31 ed                	xor    %ebp,%ebp
  4009f2:	49 89 d1             	mov    %rdx,%r9
  4009f5:	5e                   	pop    %rsi
  4009f6:	48 89 e2             	mov    %rsp,%rdx
  4009f9:	48 83 e4 f0          	and    $0xfffffffffffffff0,%rsp
  4009fd:	50                   	push   %rax
  4009fe:	54                   	push   %rsp
  4009ff:	49 c7 c0 c0 d3 40 00 	mov    $0x40d3c0,%r8
  400a06:	48 c7 c1 50 d3 40 00 	mov    $0x40d350,%rcx
  400a0d:	48 c7 c7 e0 0a 40 00 	mov    $0x400ae0,%rdi
  400a14:	e8 17 ff ff ff       	callq  400930 <__libc_start_main@plt>
  400a19:	f4                   	hlt    
  400a1a:	66 0f 1f 44 00 00    	nopw   0x0(%rax,%rax,1)

0000000000400a20 <deregister_tm_clones>:
  400a20:	b8 07 09 61 00       	mov    $0x610907,%eax
  400a25:	55                   	push   %rbp
  400a26:	48 2d 00 09 61 00    	sub    $0x610900,%rax
  400a2c:	48 83 f8 0e          	cmp    $0xe,%rax
  400a30:	48 89 e5             	mov    %rsp,%rbp
  400a33:	77 02                	ja     400a37 <deregister_tm_clones+0x17>
  400a35:	5d                   	pop    %rbp
  400a36:	c3                   	retq   
  400a37:	b8 00 00 00 00       	mov    $0x0,%eax
  400a3c:	48 85 c0             	test   %rax,%rax
  400a3f:	74 f4                	je     400a35 <deregister_tm_clones+0x15>
  400a41:	5d                   	pop    %rbp
  400a42:	bf 00 09 61 00       	mov    $0x610900,%edi
  400a47:	ff e0                	jmpq   *%rax
  400a49:	0f 1f 80 00 00 00 00 	nopl   0x0(%rax)

0000000000400a50 <register_tm_clones>:
  400a50:	b8 00 09 61 00       	mov    $0x610900,%eax
  400a55:	55                   	push   %rbp
  400a56:	48 2d 00 09 61 00    	sub    $0x610900,%rax
  400a5c:	48 c1 f8 03          	sar    $0x3,%rax
  400a60:	48 89 e5             	mov    %rsp,%rbp
  400a63:	48 89 c2             	mov    %rax,%rdx
  400a66:	48 c1 ea 3f          	shr    $0x3f,%rdx
  400a6a:	48 01 d0             	add    %rdx,%rax
  400a6d:	48 d1 f8             	sar    %rax
  400a70:	75 02                	jne    400a74 <register_tm_clones+0x24>
  400a72:	5d                   	pop    %rbp
  400a73:	c3                   	retq   
  400a74:	ba 00 00 00 00       	mov    $0x0,%edx
  400a79:	48 85 d2             	test   %rdx,%rdx
  400a7c:	74 f4                	je     400a72 <register_tm_clones+0x22>
  400a7e:	5d                   	pop    %rbp
  400a7f:	48 89 c6             	mov    %rax,%rsi
  400a82:	bf 00 09 61 00       	mov    $0x610900,%edi
  400a87:	ff e2                	jmpq   *%rdx
  400a89:	0f 1f 80 00 00 00 00 	nopl   0x0(%rax)

0000000000400a90 <__do_global_dtors_aux>:
  400a90:	80 3d 69 fe 20 00 00 	cmpb   $0x0,0x20fe69(%rip)        # 610900 <__TMC_END__>
  400a97:	75 11                	jne    400aaa <__do_global_dtors_aux+0x1a>
  400a99:	55                   	push   %rbp
  400a9a:	48 89 e5             	mov    %rsp,%rbp
  400a9d:	e8 7e ff ff ff       	callq  400a20 <deregister_tm_clones>
  400aa2:	5d                   	pop    %rbp
  400aa3:	c6 05 56 fe 20 00 01 	movb   $0x1,0x20fe56(%rip)        # 610900 <__TMC_END__>
  400aaa:	f3 c3                	repz retq 
  400aac:	0f 1f 40 00          	nopl   0x0(%rax)

0000000000400ab0 <frame_dummy>:
  400ab0:	48 83 3d 80 ed 20 00 	cmpq   $0x0,0x20ed80(%rip)        # 60f838 <__JCR_END__>
  400ab7:	00 
  400ab8:	74 1e                	je     400ad8 <frame_dummy+0x28>
  400aba:	b8 00 00 00 00       	mov    $0x0,%eax
  400abf:	48 85 c0             	test   %rax,%rax
  400ac2:	74 14                	je     400ad8 <frame_dummy+0x28>
  400ac4:	55                   	push   %rbp
  400ac5:	bf 38 f8 60 00       	mov    $0x60f838,%edi
  400aca:	48 89 e5             	mov    %rsp,%rbp
  400acd:	ff d0                	callq  *%rax
  400acf:	5d                   	pop    %rbp
  400ad0:	e9 7b ff ff ff       	jmpq   400a50 <register_tm_clones>
  400ad5:	0f 1f 00             	nopl   (%rax)
  400ad8:	e9 73 ff ff ff       	jmpq   400a50 <register_tm_clones>
  400add:	0f 1f 00             	nopl   (%rax)

0000000000400ae0 <main>:
  400ae0:	55                   	push   %rbp
  400ae1:	48 89 e5             	mov    %rsp,%rbp
  400ae4:	48 83 e4 80          	and    $0xffffffffffffff80,%rsp
  400ae8:	41 55                	push   %r13
  400aea:	41 56                	push   %r14
  400aec:	41 57                	push   %r15
  400aee:	53                   	push   %rbx
  400aef:	48 81 ec 60 70 00 00 	sub    $0x7060,%rsp
  400af6:	be fe 9f 9d 00       	mov    $0x9d9ffe,%esi
  400afb:	bf 03 00 00 00       	mov    $0x3,%edi
  400b00:	e8 2b 96 00 00       	callq  40a130 <__intel_new_feature_proc_init>
  400b05:	c5 f8 ae 1c 24       	vstmxcsr (%rsp)
  400b0a:	c5 fd 76 c0          	vpcmpeqd %ymm0,%ymm0,%ymm0
  400b0e:	40 32 f6             	xor    %sil,%sil
  400b11:	81 0c 24 40 80 00 00 	orl    $0x8040,(%rsp)
  400b18:	33 c9                	xor    %ecx,%ecx
  400b1a:	c5 f8 ae 14 24       	vldmxcsr (%rsp)
  400b1f:	33 d2                	xor    %edx,%edx
  400b21:	48 b8 f1 df bc 9b 79 	movabs $0x133457799bbcdff1,%rax
  400b28:	57 34 13 
  400b2b:	c4 e2 f3 f7 f8       	shrx   %rcx,%rax,%rdi
  400b30:	48 f7 c7 01 00 00 00 	test   $0x1,%rdi
  400b37:	74 06                	je     400b3f <main+0x5f>
  400b39:	c5 fd 6f c8          	vmovdqa %ymm0,%ymm1
  400b3d:	eb 04                	jmp    400b43 <main+0x63>
  400b3f:	c5 f5 ef c9          	vpxor  %ymm1,%ymm1,%ymm1
  400b43:	c5 fe 7f 8c 14 e0 67 	vmovdqu %ymm1,0x67e0(%rsp,%rdx,1)
  400b4a:	00 00 
  400b4c:	8d 79 01             	lea    0x1(%rcx),%edi
  400b4f:	c5 fe 7f 8c 14 e0 6f 	vmovdqu %ymm1,0x6fe0(%rsp,%rdx,1)
  400b56:	00 00 
  400b58:	c4 62 c3 f7 c0       	shrx   %rdi,%rax,%r8
  400b5d:	49 f7 c0 01 00 00 00 	test   $0x1,%r8
  400b64:	74 06                	je     400b6c <main+0x8c>
  400b66:	c5 fd 6f c8          	vmovdqa %ymm0,%ymm1
  400b6a:	eb 04                	jmp    400b70 <main+0x90>
  400b6c:	c5 f5 ef c9          	vpxor  %ymm1,%ymm1,%ymm1
  400b70:	40 fe c6             	inc    %sil
  400b73:	83 c1 02             	add    $0x2,%ecx
  400b76:	c5 fe 7f 8c 14 c0 67 	vmovdqu %ymm1,0x67c0(%rsp,%rdx,1)
  400b7d:	00 00 
  400b7f:	c5 fe 7f 8c 14 c0 6f 	vmovdqu %ymm1,0x6fc0(%rsp,%rdx,1)
  400b86:	00 00 
  400b88:	48 83 c2 c0          	add    $0xffffffffffffffc0,%rdx
  400b8c:	40 80 fe 20          	cmp    $0x20,%sil
  400b90:	72 99                	jb     400b2b <main+0x4b>
  400b92:	33 c0                	xor    %eax,%eax
  400b94:	48 89 c3             	mov    %rax,%rbx
  400b97:	c5 f8 77             	vzeroupper 
  400b9a:	e8 31 fe ff ff       	callq  4009d0 <rand@plt>
  400b9f:	48 63 c0             	movslq %eax,%rax
  400ba2:	48 89 04 dc          	mov    %rax,(%rsp,%rbx,8)
  400ba6:	48 ff c3             	inc    %rbx
  400ba9:	48 81 fb 00 04 00 00 	cmp    $0x400,%rbx
  400bb0:	72 e5                	jb     400b97 <main+0xb7>
  400bb2:	33 c0                	xor    %eax,%eax
  400bb4:	41 89 c6             	mov    %eax,%r14d
  400bb7:	45 32 ff             	xor    %r15b,%r15b
  400bba:	33 db                	xor    %ebx,%ebx
  400bbc:	ba 00 08 00 00       	mov    $0x800,%edx
  400bc1:	48 8d bc 24 00 68 00 	lea    0x6800(%rsp),%rdi
  400bc8:	00 
  400bc9:	48 8d b4 24 00 60 00 	lea    0x6000(%rsp),%rsi
  400bd0:	00 
  400bd1:	e8 ca 98 00 00       	callq  40a4a0 <__intel_avx_rep_memcpy>
  400bd6:	48 8d bc 1c 00 20 00 	lea    0x2000(%rsp,%rbx,1),%rdi
  400bdd:	00 
  400bde:	48 8d 94 1c 00 40 00 	lea    0x4000(%rsp,%rbx,1),%rdx
  400be5:	00 
  400be6:	48 8d b4 24 00 68 00 	lea    0x6800(%rsp),%rsi
  400bed:	00 
  400bee:	e8 2d 03 00 00       	callq  400f20 <des__>
  400bf3:	41 fe c7             	inc    %r15b
  400bf6:	48 81 c3 00 08 00 00 	add    $0x800,%rbx
  400bfd:	41 80 ff 04          	cmp    $0x4,%r15b
  400c01:	72 b9                	jb     400bbc <main+0xdc>
  400c03:	41 ff c6             	inc    %r14d
  400c06:	41 81 fe 10 27 00 00 	cmp    $0x2710,%r14d
  400c0d:	72 a8                	jb     400bb7 <main+0xd7>
  400c0f:	0f 31                	rdtsc  
  400c11:	48 c1 e2 20          	shl    $0x20,%rdx
  400c15:	48 0b c2             	or     %rdx,%rax
  400c18:	48 89 c1             	mov    %rax,%rcx
  400c1b:	33 c0                	xor    %eax,%eax
  400c1d:	49 89 ce             	mov    %rcx,%r14
  400c20:	89 c3                	mov    %eax,%ebx
  400c22:	45 32 ff             	xor    %r15b,%r15b
  400c25:	45 33 ed             	xor    %r13d,%r13d
  400c28:	ba 00 08 00 00       	mov    $0x800,%edx
  400c2d:	48 8d bc 24 00 68 00 	lea    0x6800(%rsp),%rdi
  400c34:	00 
  400c35:	48 8d b4 24 00 60 00 	lea    0x6000(%rsp),%rsi
  400c3c:	00 
  400c3d:	e8 5e 98 00 00       	callq  40a4a0 <__intel_avx_rep_memcpy>
  400c42:	4a 8d bc 2c 00 20 00 	lea    0x2000(%rsp,%r13,1),%rdi
  400c49:	00 
  400c4a:	4a 8d 94 2c 00 40 00 	lea    0x4000(%rsp,%r13,1),%rdx
  400c51:	00 
  400c52:	48 8d b4 24 00 68 00 	lea    0x6800(%rsp),%rsi
  400c59:	00 
  400c5a:	e8 c1 02 00 00       	callq  400f20 <des__>
  400c5f:	41 fe c7             	inc    %r15b
  400c62:	49 81 c5 00 08 00 00 	add    $0x800,%r13
  400c69:	41 80 ff 04          	cmp    $0x4,%r15b
  400c6d:	72 b9                	jb     400c28 <main+0x148>
  400c6f:	ff c3                	inc    %ebx
  400c71:	81 fb a0 86 01 00    	cmp    $0x186a0,%ebx
  400c77:	72 a9                	jb     400c22 <main+0x142>
  400c79:	4c 89 f1             	mov    %r14,%rcx
  400c7c:	0f 31                	rdtsc  
  400c7e:	48 c1 e2 20          	shl    $0x20,%rdx
  400c82:	48 0b c2             	or     %rdx,%rax
  400c85:	c5 f9 57 c0          	vxorpd %xmm0,%xmm0,%xmm0
  400c89:	48 2b c1             	sub    %rcx,%rax
  400c8c:	c4 e1 fb 2a c0       	vcvtsi2sd %rax,%xmm0,%xmm0
  400c91:	79 1a                	jns    400cad <main+0x1cd>
  400c93:	48 89 c2             	mov    %rax,%rdx
  400c96:	c5 f9 57 c0          	vxorpd %xmm0,%xmm0,%xmm0
  400c9a:	48 d1 e8             	shr    %rax
  400c9d:	48 83 e2 01          	and    $0x1,%rdx
  400ca1:	48 0b d0             	or     %rax,%rdx
  400ca4:	c4 e1 fb 2a c2       	vcvtsi2sd %rdx,%xmm0,%xmm0
  400ca9:	c5 fb 58 c0          	vaddsd %xmm0,%xmm0,%xmm0
  400cad:	c5 fb 5e 05 43 c7 00 	vdivsd 0xc743(%rip),%xmm0,%xmm0        # 40d3f8 <__dso_handle+0x10>
  400cb4:	00 
  400cb5:	bf 00 d4 40 00       	mov    $0x40d400,%edi
  400cba:	b8 01 00 00 00       	mov    $0x1,%eax
  400cbf:	c5 fb 59 05 29 c7 00 	vmulsd 0xc729(%rip),%xmm0,%xmm0        # 40d3f0 <__dso_handle+0x8>
  400cc6:	00 
  400cc7:	e8 54 fc ff ff       	callq  400920 <printf@plt>
  400ccc:	bf 14 d4 40 00       	mov    $0x40d414,%edi
  400cd1:	be 20 d4 40 00       	mov    $0x40d420,%esi
  400cd6:	e8 85 fc ff ff       	callq  400960 <fopen@plt>
  400cdb:	be 00 04 00 00       	mov    $0x400,%esi
  400ce0:	48 8d 3c 24          	lea    (%rsp),%rdi
  400ce4:	ba 01 00 00 00       	mov    $0x1,%edx
  400ce9:	48 89 c1             	mov    %rax,%rcx
  400cec:	e8 9f fc ff ff       	callq  400990 <fwrite@plt>
  400cf1:	33 c0                	xor    %eax,%eax
  400cf3:	48 81 c4 60 70 00 00 	add    $0x7060,%rsp
  400cfa:	5b                   	pop    %rbx
  400cfb:	41 5f                	pop    %r15
  400cfd:	41 5e                	pop    %r14
  400cff:	41 5d                	pop    %r13
  400d01:	48 89 ec             	mov    %rbp,%rsp
  400d04:	5d                   	pop    %rbp
  400d05:	c3                   	retq   
  400d06:	0f 1f 00             	nopl   (%rax)
  400d09:	0f 1f 80 00 00 00 00 	nopl   0x0(%rax)

0000000000400d10 <speed>:
  400d10:	55                   	push   %rbp
  400d11:	48 89 e5             	mov    %rsp,%rbp
  400d14:	48 83 e4 e0          	and    $0xffffffffffffffe0,%rsp
  400d18:	41 55                	push   %r13
  400d1a:	41 56                	push   %r14
  400d1c:	41 57                	push   %r15
  400d1e:	53                   	push   %rbx
  400d1f:	48 81 ec 00 70 00 00 	sub    $0x7000,%rsp
  400d26:	40 32 f6             	xor    %sil,%sil
  400d29:	c5 fd 76 c0          	vpcmpeqd %ymm0,%ymm0,%ymm0
  400d2d:	33 c9                	xor    %ecx,%ecx
  400d2f:	33 d2                	xor    %edx,%edx
  400d31:	48 b8 f1 df bc 9b 79 	movabs $0x133457799bbcdff1,%rax
  400d38:	57 34 13 
  400d3b:	c4 e2 f3 f7 f8       	shrx   %rcx,%rax,%rdi
  400d40:	48 f7 c7 01 00 00 00 	test   $0x1,%rdi
  400d47:	74 06                	je     400d4f <speed+0x3f>
  400d49:	c5 fd 6f c8          	vmovdqa %ymm0,%ymm1
  400d4d:	eb 04                	jmp    400d53 <speed+0x43>
  400d4f:	c5 f5 ef c9          	vpxor  %ymm1,%ymm1,%ymm1
  400d53:	c5 fe 7f 8c 14 e0 67 	vmovdqu %ymm1,0x67e0(%rsp,%rdx,1)
  400d5a:	00 00 
  400d5c:	8d 79 01             	lea    0x1(%rcx),%edi
  400d5f:	c5 fe 7f 8c 14 e0 6f 	vmovdqu %ymm1,0x6fe0(%rsp,%rdx,1)
  400d66:	00 00 
  400d68:	c4 62 c3 f7 c0       	shrx   %rdi,%rax,%r8
  400d6d:	49 f7 c0 01 00 00 00 	test   $0x1,%r8
  400d74:	74 06                	je     400d7c <speed+0x6c>
  400d76:	c5 fd 6f c8          	vmovdqa %ymm0,%ymm1
  400d7a:	eb 04                	jmp    400d80 <speed+0x70>
  400d7c:	c5 f5 ef c9          	vpxor  %ymm1,%ymm1,%ymm1
  400d80:	40 fe c6             	inc    %sil
  400d83:	83 c1 02             	add    $0x2,%ecx
  400d86:	c5 fe 7f 8c 14 c0 67 	vmovdqu %ymm1,0x67c0(%rsp,%rdx,1)
  400d8d:	00 00 
  400d8f:	c5 fe 7f 8c 14 c0 6f 	vmovdqu %ymm1,0x6fc0(%rsp,%rdx,1)
  400d96:	00 00 
  400d98:	48 83 c2 c0          	add    $0xffffffffffffffc0,%rdx
  400d9c:	40 80 fe 20          	cmp    $0x20,%sil
  400da0:	72 99                	jb     400d3b <speed+0x2b>
  400da2:	33 c0                	xor    %eax,%eax
  400da4:	48 89 c3             	mov    %rax,%rbx
  400da7:	c5 f8 77             	vzeroupper 
  400daa:	e8 21 fc ff ff       	callq  4009d0 <rand@plt>
  400daf:	48 63 c0             	movslq %eax,%rax
  400db2:	48 89 04 dc          	mov    %rax,(%rsp,%rbx,8)
  400db6:	48 ff c3             	inc    %rbx
  400db9:	48 81 fb 00 04 00 00 	cmp    $0x400,%rbx
  400dc0:	72 e5                	jb     400da7 <speed+0x97>
  400dc2:	33 c0                	xor    %eax,%eax
  400dc4:	41 89 c6             	mov    %eax,%r14d
  400dc7:	45 32 ff             	xor    %r15b,%r15b
  400dca:	33 db                	xor    %ebx,%ebx
  400dcc:	ba 00 08 00 00       	mov    $0x800,%edx
  400dd1:	48 8d bc 24 00 68 00 	lea    0x6800(%rsp),%rdi
  400dd8:	00 
  400dd9:	48 8d b4 24 00 60 00 	lea    0x6000(%rsp),%rsi
  400de0:	00 
  400de1:	e8 ba 96 00 00       	callq  40a4a0 <__intel_avx_rep_memcpy>
  400de6:	48 8d bc 1c 00 20 00 	lea    0x2000(%rsp,%rbx,1),%rdi
  400ded:	00 
  400dee:	48 8d 94 1c 00 40 00 	lea    0x4000(%rsp,%rbx,1),%rdx
  400df5:	00 
  400df6:	48 8d b4 24 00 68 00 	lea    0x6800(%rsp),%rsi
  400dfd:	00 
  400dfe:	e8 1d 01 00 00       	callq  400f20 <des__>
  400e03:	41 fe c7             	inc    %r15b
  400e06:	48 81 c3 00 08 00 00 	add    $0x800,%rbx
  400e0d:	41 80 ff 04          	cmp    $0x4,%r15b
  400e11:	72 b9                	jb     400dcc <speed+0xbc>
  400e13:	41 ff c6             	inc    %r14d
  400e16:	41 81 fe 10 27 00 00 	cmp    $0x2710,%r14d
  400e1d:	72 a8                	jb     400dc7 <speed+0xb7>
  400e1f:	0f 31                	rdtsc  
  400e21:	48 c1 e2 20          	shl    $0x20,%rdx
  400e25:	48 0b c2             	or     %rdx,%rax
  400e28:	48 89 c1             	mov    %rax,%rcx
  400e2b:	33 c0                	xor    %eax,%eax
  400e2d:	49 89 ce             	mov    %rcx,%r14
  400e30:	89 c3                	mov    %eax,%ebx
  400e32:	45 32 ff             	xor    %r15b,%r15b
  400e35:	45 33 ed             	xor    %r13d,%r13d
  400e38:	ba 00 08 00 00       	mov    $0x800,%edx
  400e3d:	48 8d bc 24 00 68 00 	lea    0x6800(%rsp),%rdi
  400e44:	00 
  400e45:	48 8d b4 24 00 60 00 	lea    0x6000(%rsp),%rsi
  400e4c:	00 
  400e4d:	e8 4e 96 00 00       	callq  40a4a0 <__intel_avx_rep_memcpy>
  400e52:	4a 8d bc 2c 00 20 00 	lea    0x2000(%rsp,%r13,1),%rdi
  400e59:	00 
  400e5a:	4a 8d 94 2c 00 40 00 	lea    0x4000(%rsp,%r13,1),%rdx
  400e61:	00 
  400e62:	48 8d b4 24 00 68 00 	lea    0x6800(%rsp),%rsi
  400e69:	00 
  400e6a:	e8 b1 00 00 00       	callq  400f20 <des__>
  400e6f:	41 fe c7             	inc    %r15b
  400e72:	49 81 c5 00 08 00 00 	add    $0x800,%r13
  400e79:	41 80 ff 04          	cmp    $0x4,%r15b
  400e7d:	72 b9                	jb     400e38 <speed+0x128>
  400e7f:	ff c3                	inc    %ebx
  400e81:	81 fb a0 86 01 00    	cmp    $0x186a0,%ebx
  400e87:	72 a9                	jb     400e32 <speed+0x122>
  400e89:	4c 89 f1             	mov    %r14,%rcx
  400e8c:	0f 31                	rdtsc  
  400e8e:	48 c1 e2 20          	shl    $0x20,%rdx
  400e92:	48 0b c2             	or     %rdx,%rax
  400e95:	c5 f9 57 c0          	vxorpd %xmm0,%xmm0,%xmm0
  400e99:	48 2b c1             	sub    %rcx,%rax
  400e9c:	c4 e1 fb 2a c0       	vcvtsi2sd %rax,%xmm0,%xmm0
  400ea1:	79 1a                	jns    400ebd <speed+0x1ad>
  400ea3:	48 89 c2             	mov    %rax,%rdx
  400ea6:	c5 f9 57 c0          	vxorpd %xmm0,%xmm0,%xmm0
  400eaa:	48 d1 e8             	shr    %rax
  400ead:	48 83 e2 01          	and    $0x1,%rdx
  400eb1:	48 0b d0             	or     %rax,%rdx
  400eb4:	c4 e1 fb 2a c2       	vcvtsi2sd %rdx,%xmm0,%xmm0
  400eb9:	c5 fb 58 c0          	vaddsd %xmm0,%xmm0,%xmm0
  400ebd:	c5 fb 5e 05 33 c5 00 	vdivsd 0xc533(%rip),%xmm0,%xmm0        # 40d3f8 <__dso_handle+0x10>
  400ec4:	00 
  400ec5:	bf 00 d4 40 00       	mov    $0x40d400,%edi
  400eca:	b8 01 00 00 00       	mov    $0x1,%eax
  400ecf:	c5 fb 59 05 19 c5 00 	vmulsd 0xc519(%rip),%xmm0,%xmm0        # 40d3f0 <__dso_handle+0x8>
  400ed6:	00 
  400ed7:	e8 44 fa ff ff       	callq  400920 <printf@plt>
  400edc:	bf 14 d4 40 00       	mov    $0x40d414,%edi
  400ee1:	be 20 d4 40 00       	mov    $0x40d420,%esi
  400ee6:	e8 75 fa ff ff       	callq  400960 <fopen@plt>
  400eeb:	be 00 04 00 00       	mov    $0x400,%esi
  400ef0:	48 8d 3c 24          	lea    (%rsp),%rdi
  400ef4:	ba 01 00 00 00       	mov    $0x1,%edx
  400ef9:	48 89 c1             	mov    %rax,%rcx
  400efc:	e8 8f fa ff ff       	callq  400990 <fwrite@plt>
  400f01:	48 81 c4 00 70 00 00 	add    $0x7000,%rsp
  400f08:	5b                   	pop    %rbx
  400f09:	41 5f                	pop    %r15
  400f0b:	41 5e                	pop    %r14
  400f0d:	41 5d                	pop    %r13
  400f0f:	48 89 ec             	mov    %rbp,%rsp
  400f12:	5d                   	pop    %rbp
  400f13:	c3                   	retq   
  400f14:	0f 1f 44 00 00       	nopl   0x0(%rax,%rax,1)
  400f19:	0f 1f 80 00 00 00 00 	nopl   0x0(%rax)

0000000000400f20 <des__>:
  400f20:	55                   	push   %rbp
  400f21:	48 89 e5             	mov    %rsp,%rbp
  400f24:	48 83 e4 e0          	and    $0xffffffffffffffe0,%rsp
  400f28:	41 54                	push   %r12
  400f2a:	41 55                	push   %r13
  400f2c:	41 56                	push   %r14
  400f2e:	41 57                	push   %r15
  400f30:	53                   	push   %rbx
  400f31:	48 81 ec 78 3a 00 00 	sub    $0x3a78,%rsp
  400f38:	49 89 f6             	mov    %rsi,%r14
  400f3b:	49 89 fd             	mov    %rdi,%r13
  400f3e:	49 89 d7             	mov    %rdx,%r15
  400f41:	48 8d 3c 24          	lea    (%rsp),%rdi
  400f45:	48 8d 74 24 20       	lea    0x20(%rsp),%rsi
  400f4a:	c4 41 7e 6f 8e 00 02 	vmovdqu 0x200(%r14),%ymm9
  400f51:	00 00 
  400f53:	49 8d 86 20 01 00 00 	lea    0x120(%r14),%rax
  400f5a:	c5 fe 6f 28          	vmovdqu (%rax),%ymm5
  400f5e:	c4 41 7e 6f 96 00 06 	vmovdqu 0x600(%r14),%ymm10
  400f65:	00 00 
  400f67:	c4 c1 55 ef 85 c0 00 	vpxor  0xc0(%r13),%ymm5,%ymm0
  400f6e:	00 00 
  400f70:	c4 c1 35 ef ad 00 03 	vpxor  0x300(%r13),%ymm9,%ymm5
  400f77:	00 00 
  400f79:	c4 c1 2d ef a5 00 04 	vpxor  0x400(%r13),%ymm10,%ymm4
  400f80:	00 00 
  400f82:	c5 fe 7f 07          	vmovdqu %ymm0,(%rdi)
  400f86:	48 89 86 30 3a 00 00 	mov    %rax,0x3a30(%rsi)
  400f8d:	4d 8d a6 40 06 00 00 	lea    0x640(%r14),%r12
  400f94:	c4 c1 7e 6f 34 24    	vmovdqu (%r12),%ymm6
  400f9a:	4d 8d 86 20 04 00 00 	lea    0x420(%r14),%r8
  400fa1:	c4 c1 7e 6f 38       	vmovdqu (%r8),%ymm7
  400fa6:	c4 c1 4d ef 8d 00 07 	vpxor  0x700(%r13),%ymm6,%ymm1
  400fad:	00 00 
  400faf:	c4 c1 45 ef 95 00 06 	vpxor  0x600(%r13),%ymm7,%ymm2
  400fb6:	00 00 
  400fb8:	c5 fe 7f 0e          	vmovdqu %ymm1,(%rsi)
  400fbc:	c5 fe 7f 56 20       	vmovdqu %ymm2,0x20(%rsi)
  400fc1:	4c 89 86 38 3a 00 00 	mov    %r8,0x3a38(%rsi)
  400fc8:	4d 8d 8e 60 07 00 00 	lea    0x760(%r14),%r9
  400fcf:	c4 41 7e 6f 01       	vmovdqu (%r9),%ymm8
  400fd4:	48 8d 54 24 40       	lea    0x40(%rsp),%rdx
  400fd9:	c4 c1 3d ef 9d 00 05 	vpxor  0x500(%r13),%ymm8,%ymm3
  400fe0:	00 00 
  400fe2:	48 8d 4c 24 60       	lea    0x60(%rsp),%rcx
  400fe7:	4c 89 8a c8 37 00 00 	mov    %r9,0x37c8(%rdx)
  400fee:	4d 8d 96 00 02 00 00 	lea    0x200(%r14),%r10
  400ff5:	c5 fe 7f 5a 20       	vmovdqu %ymm3,0x20(%rdx)
  400ffa:	4c 89 92 b8 39 00 00 	mov    %r10,0x39b8(%rdx)
  401001:	e8 1a 88 00 00       	callq  409820 <sbox__0>
  401006:	c5 fe 6f 2c 24       	vmovdqu (%rsp),%ymm5
  40100b:	49 8d 9e 00 04 00 00 	lea    0x400(%r14),%rbx
  401012:	c5 fe 6f 7c 24 20    	vmovdqu 0x20(%rsp),%ymm7
  401018:	c5 7e 6f 4c 24 40    	vmovdqu 0x40(%rsp),%ymm9
  40101e:	c5 7e 6f 5c 24 60    	vmovdqu 0x60(%rsp),%ymm11
  401024:	c4 c1 55 ef b5 60 07 	vpxor  0x760(%r13),%ymm5,%ymm6
  40102b:	00 00 
  40102d:	c4 41 45 ef 85 a0 07 	vpxor  0x7a0(%r13),%ymm7,%ymm8
  401034:	00 00 
  401036:	c4 41 35 ef 95 a0 01 	vpxor  0x1a0(%r13),%ymm9,%ymm10
  40103d:	00 00 
  40103f:	c4 41 25 ef a5 e0 01 	vpxor  0x1e0(%r13),%ymm11,%ymm12
  401046:	00 00 
  401048:	c4 c1 7e 7f b5 60 07 	vmovdqu %ymm6,0x760(%r13)
  40104f:	00 00 
  401051:	c4 41 7e 7f 85 a0 07 	vmovdqu %ymm8,0x7a0(%r13)
  401058:	00 00 
  40105a:	c4 41 7e 7f 95 a0 01 	vmovdqu %ymm10,0x1a0(%r13)
  401061:	00 00 
  401063:	c4 41 7e 7f a5 e0 01 	vmovdqu %ymm12,0x1e0(%r13)
  40106a:	00 00 
  40106c:	c4 41 7e 6f 7e 20    	vmovdqu 0x20(%r14),%ymm15
  401072:	48 8d bc 24 80 00 00 	lea    0x80(%rsp),%rdi
  401079:	00 
  40107a:	c4 c1 7e 6f a6 20 05 	vmovdqu 0x520(%r14),%ymm4
  401081:	00 00 
  401083:	c5 7e 6f 2b          	vmovdqu (%rbx),%ymm13
  401087:	c4 41 7e 6f b6 00 07 	vmovdqu 0x700(%r14),%ymm14
  40108e:	00 00 
  401090:	c4 c1 7e 6f 9e 00 01 	vmovdqu 0x100(%r14),%ymm3
  401097:	00 00 
  401099:	c4 c1 05 ef 95 00 02 	vpxor  0x200(%r13),%ymm15,%ymm2
  4010a0:	00 00 
  4010a2:	c4 c1 5d ef ad 40 07 	vpxor  0x740(%r13),%ymm4,%ymm5
  4010a9:	00 00 
  4010ab:	c4 c1 15 ef 85 00 04 	vpxor  0x400(%r13),%ymm13,%ymm0
  4010b2:	00 00 
  4010b4:	c4 c1 0d ef 8d 00 03 	vpxor  0x300(%r13),%ymm14,%ymm1
  4010bb:	00 00 
  4010bd:	c4 c1 65 ef 9d 00 01 	vpxor  0x100(%r13),%ymm3,%ymm3
  4010c4:	00 00 
  4010c6:	c4 41 7e 6f be 40 02 	vmovdqu 0x240(%r14),%ymm15
  4010cd:	00 00 
  4010cf:	c5 fe 7f 07          	vmovdqu %ymm0,(%rdi)
  4010d3:	c5 fe 7f 4f 20       	vmovdqu %ymm1,0x20(%rdi)
  4010d8:	c5 fe 7f 57 40       	vmovdqu %ymm2,0x40(%rdi)
  4010dd:	c5 fe 7f 5f 60       	vmovdqu %ymm3,0x60(%rdi)
  4010e2:	c4 c1 05 ef 65 00    	vpxor  0x0(%r13),%ymm15,%ymm4
  4010e8:	48 8d b4 24 a0 00 00 	lea    0xa0(%rsp),%rsi
  4010ef:	00 
  4010f0:	48 8d 94 24 c0 00 00 	lea    0xc0(%rsp),%rdx
  4010f7:	00 
  4010f8:	48 8d 8c 24 e0 00 00 	lea    0xe0(%rsp),%rcx
  4010ff:	00 
  401100:	49 8d 86 40 02 00 00 	lea    0x240(%r14),%rax
  401107:	48 89 82 40 37 00 00 	mov    %rax,0x3740(%rdx)
  40110e:	4d 8d 86 20 05 00 00 	lea    0x520(%r14),%r8
  401115:	4c 89 82 40 39 00 00 	mov    %r8,0x3940(%rdx)
  40111c:	e8 4f 88 00 00       	callq  409970 <sbox__1>
  401121:	c5 fe 6f ac 24 80 00 	vmovdqu 0x80(%rsp),%ymm5
  401128:	00 00 
  40112a:	48 8d bc 24 00 01 00 	lea    0x100(%rsp),%rdi
  401131:	00 
  401132:	c5 fe 6f 7f a0       	vmovdqu -0x60(%rdi),%ymm7
  401137:	c5 7e 6f 4f c0       	vmovdqu -0x40(%rdi),%ymm9
  40113c:	c5 7e 6f 5f e0       	vmovdqu -0x20(%rdi),%ymm11
  401141:	c4 c1 55 ef b5 60 03 	vpxor  0x360(%r13),%ymm5,%ymm6
  401148:	00 00 
  40114a:	c4 41 45 ef 85 e0 04 	vpxor  0x4e0(%r13),%ymm7,%ymm8
  401151:	00 00 
  401153:	c4 41 35 ef 95 20 06 	vpxor  0x620(%r13),%ymm9,%ymm10
  40115a:	00 00 
  40115c:	c4 41 25 ef a5 a0 06 	vpxor  0x6a0(%r13),%ymm11,%ymm12
  401163:	00 00 
  401165:	c4 c1 7e 7f b5 60 03 	vmovdqu %ymm6,0x360(%r13)
  40116c:	00 00 
  40116e:	c4 41 7e 7f 85 e0 04 	vmovdqu %ymm8,0x4e0(%r13)
  401175:	00 00 
  401177:	c4 41 7e 7f 95 20 06 	vmovdqu %ymm10,0x620(%r13)
  40117e:	00 00 
  401180:	c4 41 7e 7f a5 a0 06 	vmovdqu %ymm12,0x6a0(%r13)
  401187:	00 00 
  401189:	c4 41 7e 6f be 20 03 	vmovdqu 0x320(%r14),%ymm15
  401190:	00 00 
  401192:	48 8d b4 24 20 01 00 	lea    0x120(%rsp),%rsi
  401199:	00 
  40119a:	c4 c1 7e 6f a6 20 07 	vmovdqu 0x720(%r14),%ymm4
  4011a1:	00 00 
  4011a3:	c4 41 7e 6f 6e 40    	vmovdqu 0x40(%r14),%ymm13
  4011a9:	c4 41 7e 6f b6 40 04 	vmovdqu 0x440(%r14),%ymm14
  4011b0:	00 00 
  4011b2:	c4 c1 7e 6f 9e 00 03 	vmovdqu 0x300(%r14),%ymm3
  4011b9:	00 00 
  4011bb:	c4 c1 05 ef 95 40 06 	vpxor  0x640(%r13),%ymm15,%ymm2
  4011c2:	00 00 
  4011c4:	c4 c1 5d ef ad 40 03 	vpxor  0x340(%r13),%ymm4,%ymm5
  4011cb:	00 00 
  4011cd:	c4 c1 15 ef 45 00    	vpxor  0x0(%r13),%ymm13,%ymm0
  4011d3:	c4 c1 0d ef 8d 40 07 	vpxor  0x740(%r13),%ymm14,%ymm1
  4011da:	00 00 
  4011dc:	c4 c1 65 ef 9d 40 05 	vpxor  0x540(%r13),%ymm3,%ymm3
  4011e3:	00 00 
  4011e5:	c4 41 7e 6f be 60 05 	vmovdqu 0x560(%r14),%ymm15
  4011ec:	00 00 
  4011ee:	c5 fe 7f 46 e0       	vmovdqu %ymm0,-0x20(%rsi)
  4011f3:	c5 fe 7f 0e          	vmovdqu %ymm1,(%rsi)
  4011f7:	c5 fe 7f 56 20       	vmovdqu %ymm2,0x20(%rsi)
  4011fc:	c5 fe 7f 5e 40       	vmovdqu %ymm3,0x40(%rsi)
  401201:	c4 c1 05 ef a5 40 04 	vpxor  0x440(%r13),%ymm15,%ymm4
  401208:	00 00 
  40120a:	48 8d 94 24 40 01 00 	lea    0x140(%rsp),%rdx
  401211:	00 
  401212:	48 8d 8c 24 60 01 00 	lea    0x160(%rsp),%rcx
  401219:	00 
  40121a:	49 8d 46 40          	lea    0x40(%r14),%rax
  40121e:	48 89 82 c8 38 00 00 	mov    %rax,0x38c8(%rdx)
  401225:	4d 8d 86 20 07 00 00 	lea    0x720(%r14),%r8
  40122c:	4c 89 82 a0 36 00 00 	mov    %r8,0x36a0(%rdx)
  401233:	e8 48 88 00 00       	callq  409a80 <sbox__2>
  401238:	c5 fe 6f ac 24 00 01 	vmovdqu 0x100(%rsp),%ymm5
  40123f:	00 00 
  401241:	48 8d bc 24 80 01 00 	lea    0x180(%rsp),%rdi
  401248:	00 
  401249:	c5 fe 6f 7f a0       	vmovdqu -0x60(%rdi),%ymm7
  40124e:	c5 7e 6f 4f c0       	vmovdqu -0x40(%rdi),%ymm9
  401253:	c5 7e 6f 5f e0       	vmovdqu -0x20(%rdi),%ymm11
  401258:	c4 c1 55 ef b5 a0 00 	vpxor  0xa0(%r13),%ymm5,%ymm6
  40125f:	00 00 
  401261:	c4 41 45 ef 45 60    	vpxor  0x60(%r13),%ymm7,%ymm8
  401267:	c4 41 35 ef 95 e0 02 	vpxor  0x2e0(%r13),%ymm9,%ymm10
  40126e:	00 00 
  401270:	c4 41 25 ef a5 20 02 	vpxor  0x220(%r13),%ymm11,%ymm12
  401277:	00 00 
  401279:	c4 c1 7e 7f b5 a0 00 	vmovdqu %ymm6,0xa0(%r13)
  401280:	00 00 
  401282:	c4 41 7e 7f 45 60    	vmovdqu %ymm8,0x60(%r13)
  401288:	c4 41 7e 7f 95 e0 02 	vmovdqu %ymm10,0x2e0(%r13)
  40128f:	00 00 
  401291:	c4 41 7e 7f a5 20 02 	vmovdqu %ymm12,0x220(%r13)
  401298:	00 00 
  40129a:	c4 41 7e 6f be 60 04 	vmovdqu 0x460(%r14),%ymm15
  4012a1:	00 00 
  4012a3:	48 8d b4 24 a0 01 00 	lea    0x1a0(%rsp),%rsi
  4012aa:	00 
  4012ab:	c4 c1 7e 6f a6 00 05 	vmovdqu 0x500(%r14),%ymm4
  4012b2:	00 00 
  4012b4:	c4 41 7e 6f ae 40 07 	vmovdqu 0x740(%r14),%ymm13
  4012bb:	00 00 
  4012bd:	c4 41 7e 6f 36       	vmovdqu (%r14),%ymm14
  4012c2:	c4 c1 7e 6f 9e 40 03 	vmovdqu 0x340(%r14),%ymm3
  4012c9:	00 00 
  4012cb:	c4 c1 05 ef 95 40 02 	vpxor  0x240(%r13),%ymm15,%ymm2
  4012d2:	00 00 
  4012d4:	c4 c1 5d ef ad 80 07 	vpxor  0x780(%r13),%ymm4,%ymm5
  4012db:	00 00 
  4012dd:	c4 c1 15 ef 85 40 04 	vpxor  0x440(%r13),%ymm13,%ymm0
  4012e4:	00 00 
  4012e6:	c4 c1 0d ef 8d 40 03 	vpxor  0x340(%r13),%ymm14,%ymm1
  4012ed:	00 00 
  4012ef:	c4 c1 65 ef 9d 40 01 	vpxor  0x140(%r13),%ymm3,%ymm3
  4012f6:	00 00 
  4012f8:	c4 41 7e 6f be 20 02 	vmovdqu 0x220(%r14),%ymm15
  4012ff:	00 00 
  401301:	c5 fe 7f 46 e0       	vmovdqu %ymm0,-0x20(%rsi)
  401306:	c5 fe 7f 0e          	vmovdqu %ymm1,(%rsi)
  40130a:	c5 fe 7f 56 20       	vmovdqu %ymm2,0x20(%rsi)
  40130f:	c5 fe 7f 5e 40       	vmovdqu %ymm3,0x40(%rsi)
  401314:	c4 c1 05 ef 65 40    	vpxor  0x40(%r13),%ymm15,%ymm4
  40131a:	48 8d 94 24 c0 01 00 	lea    0x1c0(%rsp),%rdx
  401321:	00 
  401322:	48 8d 8c 24 e0 01 00 	lea    0x1e0(%rsp),%rcx
  401329:	00 
  40132a:	49 8d 86 40 07 00 00 	lea    0x740(%r14),%rax
  401331:	48 89 82 50 38 00 00 	mov    %rax,0x3850(%rdx)
  401338:	4d 8d 86 60 04 00 00 	lea    0x460(%r14),%r8
  40133f:	4c 89 82 30 38 00 00 	mov    %r8,0x3830(%rdx)
  401346:	4d 8d 8e 20 02 00 00 	lea    0x220(%r14),%r9
  40134d:	4c 89 8a 58 38 00 00 	mov    %r9,0x3858(%rdx)
  401354:	4d 8d 96 00 05 00 00 	lea    0x500(%r14),%r10
  40135b:	4c 89 92 28 38 00 00 	mov    %r10,0x3828(%rdx)
  401362:	e8 e9 8c 00 00       	callq  40a050 <sbox__3>
  401367:	c5 fe 6f ac 24 80 01 	vmovdqu 0x180(%rsp),%ymm5
  40136e:	00 00 
  401370:	48 8d bc 24 00 02 00 	lea    0x200(%rsp),%rdi
  401377:	00 
  401378:	c5 fe 6f 7f a0       	vmovdqu -0x60(%rdi),%ymm7
  40137d:	c5 7e 6f 4f c0       	vmovdqu -0x40(%rdi),%ymm9
  401382:	c5 7e 6f 5f e0       	vmovdqu -0x20(%rdi),%ymm11
  401387:	c4 c1 55 ef b5 e0 06 	vpxor  0x6e0(%r13),%ymm5,%ymm6
  40138e:	00 00 
  401390:	c4 41 45 ef 85 a0 04 	vpxor  0x4a0(%r13),%ymm7,%ymm8
  401397:	00 00 
  401399:	c4 41 35 ef 95 60 06 	vpxor  0x660(%r13),%ymm9,%ymm10
  4013a0:	00 00 
  4013a2:	c4 41 25 ef a5 20 07 	vpxor  0x720(%r13),%ymm11,%ymm12
  4013a9:	00 00 
  4013ab:	c4 c1 7e 7f b5 e0 06 	vmovdqu %ymm6,0x6e0(%r13)
  4013b2:	00 00 
  4013b4:	c4 41 7e 7f 85 a0 04 	vmovdqu %ymm8,0x4a0(%r13)
  4013bb:	00 00 
  4013bd:	c4 41 7e 7f 95 60 06 	vmovdqu %ymm10,0x660(%r13)
  4013c4:	00 00 
  4013c6:	c4 41 7e 7f a5 20 07 	vmovdqu %ymm12,0x720(%r13)
  4013cd:	00 00 
  4013cf:	c4 41 7e 6f be c0 04 	vmovdqu 0x4c0(%r14),%ymm15
  4013d6:	00 00 
  4013d8:	48 8d b4 24 20 02 00 	lea    0x220(%rsp),%rsi
  4013df:	00 
  4013e0:	c4 c1 7e 6f 66 60    	vmovdqu 0x60(%r14),%ymm4
  4013e6:	c4 41 7e 6f ae a0 02 	vmovdqu 0x2a0(%r14),%ymm13
  4013ed:	00 00 
  4013ef:	c4 41 7e 6f b6 60 03 	vmovdqu 0x360(%r14),%ymm14
  4013f6:	00 00 
  4013f8:	c4 c1 7e 6f 9e a0 06 	vmovdqu 0x6a0(%r14),%ymm3
  4013ff:	00 00 
  401401:	c4 c1 05 ef 95 80 06 	vpxor  0x680(%r13),%ymm15,%ymm2
  401408:	00 00 
  40140a:	c4 c1 5d ef ad 80 03 	vpxor  0x380(%r13),%ymm4,%ymm5
  401411:	00 00 
  401413:	c4 c1 15 ef 45 40    	vpxor  0x40(%r13),%ymm13,%ymm0
  401419:	c4 c1 0d ef 8d 80 07 	vpxor  0x780(%r13),%ymm14,%ymm1
  401420:	00 00 
  401422:	c4 c1 65 ef 9d 80 05 	vpxor  0x580(%r13),%ymm3,%ymm3
  401429:	00 00 
  40142b:	c4 41 7e 6f be 80 04 	vmovdqu 0x480(%r14),%ymm15
  401432:	00 00 
  401434:	c5 fe 7f 46 e0       	vmovdqu %ymm0,-0x20(%rsi)
  401439:	c5 fe 7f 0e          	vmovdqu %ymm1,(%rsi)
  40143d:	c5 fe 7f 56 20       	vmovdqu %ymm2,0x20(%rsi)
  401442:	c5 fe 7f 5e 40       	vmovdqu %ymm3,0x40(%rsi)
  401447:	c4 c1 05 ef a5 80 04 	vpxor  0x480(%r13),%ymm15,%ymm4
  40144e:	00 00 
  401450:	48 8d 94 24 40 02 00 	lea    0x240(%rsp),%rdx
  401457:	00 
  401458:	48 8d 8c 24 60 02 00 	lea    0x260(%rsp),%rcx
  40145f:	00 
  401460:	49 8d 86 a0 02 00 00 	lea    0x2a0(%r14),%rax
  401467:	48 89 82 e0 37 00 00 	mov    %rax,0x37e0(%rdx)
  40146e:	4d 8d 86 a0 06 00 00 	lea    0x6a0(%r14),%r8
  401475:	4c 89 82 e0 36 00 00 	mov    %r8,0x36e0(%rdx)
  40147c:	4d 8d 4e 60          	lea    0x60(%r14),%r9
  401480:	4c 89 8a 50 37 00 00 	mov    %r9,0x3750(%rdx)
  401487:	e8 14 87 00 00       	callq  409ba0 <sbox__4>
  40148c:	c5 fe 6f ac 24 00 02 	vmovdqu 0x200(%rsp),%ymm5
  401493:	00 00 
  401495:	48 8d bc 24 80 02 00 	lea    0x280(%rsp),%rdi
  40149c:	00 
  40149d:	c5 fe 6f 7f a0       	vmovdqu -0x60(%rdi),%ymm7
  4014a2:	c5 7e 6f 4f c0       	vmovdqu -0x40(%rdi),%ymm9
  4014a7:	c5 7e 6f 5f e0       	vmovdqu -0x20(%rdi),%ymm11
  4014ac:	c4 c1 55 ef 75 20    	vpxor  0x20(%r13),%ymm5,%ymm6
  4014b2:	c4 41 45 ef 85 60 02 	vpxor  0x260(%r13),%ymm7,%ymm8
  4014b9:	00 00 
  4014bb:	c4 41 35 ef 95 e0 07 	vpxor  0x7e0(%r13),%ymm9,%ymm10
  4014c2:	00 00 
  4014c4:	c4 41 25 ef a5 20 05 	vpxor  0x520(%r13),%ymm11,%ymm12
  4014cb:	00 00 
  4014cd:	c4 c1 7e 7f 75 20    	vmovdqu %ymm6,0x20(%r13)
  4014d3:	c4 41 7e 7f 85 60 02 	vmovdqu %ymm8,0x260(%r13)
  4014da:	00 00 
  4014dc:	c4 41 7e 7f 95 e0 07 	vmovdqu %ymm10,0x7e0(%r13)
  4014e3:	00 00 
  4014e5:	c4 41 7e 7f a5 20 05 	vmovdqu %ymm12,0x520(%r13)
  4014ec:	00 00 
  4014ee:	c4 41 7e 6f be 80 00 	vmovdqu 0x80(%r14),%ymm15
  4014f5:	00 00 
  4014f7:	48 8d b4 24 a0 02 00 	lea    0x2a0(%rsp),%rsi
  4014fe:	00 
  4014ff:	c4 c1 7e 6f a6 80 03 	vmovdqu 0x380(%r14),%ymm4
  401506:	00 00 
  401508:	c4 41 7e 6f b6 a0 03 	vmovdqu 0x3a0(%r14),%ymm14
  40150f:	00 00 
  401511:	c4 41 7e 6f ae c0 05 	vmovdqu 0x5c0(%r14),%ymm13
  401518:	00 00 
  40151a:	c4 c1 7e 6f 9e 80 06 	vmovdqu 0x680(%r14),%ymm3
  401521:	00 00 
  401523:	c4 c1 05 ef 95 80 02 	vpxor  0x280(%r13),%ymm15,%ymm2
  40152a:	00 00 
  40152c:	c4 c1 5d ef ad c0 07 	vpxor  0x7c0(%r13),%ymm4,%ymm5
  401533:	00 00 
  401535:	c4 c1 15 ef 85 80 04 	vpxor  0x480(%r13),%ymm13,%ymm0
  40153c:	00 00 
  40153e:	c4 c1 0d ef 8d 80 03 	vpxor  0x380(%r13),%ymm14,%ymm1
  401545:	00 00 
  401547:	c4 c1 65 ef 9d 80 01 	vpxor  0x180(%r13),%ymm3,%ymm3
  40154e:	00 00 
  401550:	c4 41 7e 6f be c0 02 	vmovdqu 0x2c0(%r14),%ymm15
  401557:	00 00 
  401559:	c5 fe 7f 46 e0       	vmovdqu %ymm0,-0x20(%rsi)
  40155e:	c5 fe 7f 0e          	vmovdqu %ymm1,(%rsi)
  401562:	c5 fe 7f 56 20       	vmovdqu %ymm2,0x20(%rsi)
  401567:	c5 fe 7f 5e 40       	vmovdqu %ymm3,0x40(%rsi)
  40156c:	c4 c1 05 ef a5 80 00 	vpxor  0x80(%r13),%ymm15,%ymm4
  401573:	00 00 
  401575:	48 8d 94 24 c0 02 00 	lea    0x2c0(%rsp),%rdx
  40157c:	00 
  40157d:	48 8d 8c 24 e0 02 00 	lea    0x2e0(%rsp),%rcx
  401584:	00 
  401585:	49 8d 86 c0 05 00 00 	lea    0x5c0(%r14),%rax
  40158c:	48 89 82 d8 36 00 00 	mov    %rax,0x36d8(%rdx)
  401593:	4d 8d 86 a0 03 00 00 	lea    0x3a0(%r14),%r8
  40159a:	4c 89 82 f0 36 00 00 	mov    %r8,0x36f0(%rdx)
  4015a1:	4d 8d 8e 80 00 00 00 	lea    0x80(%r14),%r9
  4015a8:	4c 89 8a e0 36 00 00 	mov    %r9,0x36e0(%rdx)
  4015af:	4d 8d 96 80 06 00 00 	lea    0x680(%r14),%r10
  4015b6:	4c 89 92 68 37 00 00 	mov    %r10,0x3768(%rdx)
  4015bd:	4d 8d 9e 80 03 00 00 	lea    0x380(%r14),%r11
  4015c4:	4c 89 9a 88 37 00 00 	mov    %r11,0x3788(%rdx)
  4015cb:	e8 20 87 00 00       	callq  409cf0 <sbox__5>
  4015d0:	c5 fe 6f ac 24 80 02 	vmovdqu 0x280(%rsp),%ymm5
  4015d7:	00 00 
  4015d9:	48 8d bc 24 00 03 00 	lea    0x300(%rsp),%rdi
  4015e0:	00 
  4015e1:	c5 fe 6f 7f a0       	vmovdqu -0x60(%rdi),%ymm7
  4015e6:	c5 7e 6f 4f c0       	vmovdqu -0x40(%rdi),%ymm9
  4015eb:	c5 7e 6f 5f e0       	vmovdqu -0x20(%rdi),%ymm11
  4015f0:	c4 c1 55 ef b5 20 04 	vpxor  0x420(%r13),%ymm5,%ymm6
  4015f7:	00 00 
  4015f9:	c4 41 45 ef 85 e0 03 	vpxor  0x3e0(%r13),%ymm7,%ymm8
  401600:	00 00 
  401602:	c4 41 35 ef 95 60 05 	vpxor  0x560(%r13),%ymm9,%ymm10
  401609:	00 00 
  40160b:	c4 41 25 ef a5 a0 05 	vpxor  0x5a0(%r13),%ymm11,%ymm12
  401612:	00 00 
  401614:	c4 c1 7e 7f b5 20 04 	vmovdqu %ymm6,0x420(%r13)
  40161b:	00 00 
  40161d:	c4 41 7e 7f 85 e0 03 	vmovdqu %ymm8,0x3e0(%r13)
  401624:	00 00 
  401626:	c4 41 7e 7f 95 60 05 	vmovdqu %ymm10,0x560(%r13)
  40162d:	00 00 
  40162f:	c4 41 7e 7f a5 a0 05 	vmovdqu %ymm12,0x5a0(%r13)
  401636:	00 00 
  401638:	c4 41 7e 6f be a0 04 	vmovdqu 0x4a0(%r14),%ymm15
  40163f:	00 00 
  401641:	48 8d b4 24 20 03 00 	lea    0x320(%rsp),%rsi
  401648:	00 
  401649:	c4 c1 7e 6f a6 60 02 	vmovdqu 0x260(%r14),%ymm4
  401650:	00 00 
  401652:	c4 41 7e 6f b6 80 02 	vmovdqu 0x280(%r14),%ymm14
  401659:	00 00 
  40165b:	c4 41 7e 6f ae 80 07 	vmovdqu 0x780(%r14),%ymm13
  401662:	00 00 
  401664:	c4 c1 7e 6f 9e c0 07 	vmovdqu 0x7c0(%r14),%ymm3
  40166b:	00 00 
  40166d:	c4 c1 05 ef 95 c0 06 	vpxor  0x6c0(%r13),%ymm15,%ymm2
  401674:	00 00 
  401676:	c4 c1 5d ef ad c0 03 	vpxor  0x3c0(%r13),%ymm4,%ymm5
  40167d:	00 00 
  40167f:	c4 c1 15 ef 85 80 00 	vpxor  0x80(%r13),%ymm13,%ymm0
  401686:	00 00 
  401688:	c4 c1 0d ef 8d c0 07 	vpxor  0x7c0(%r13),%ymm14,%ymm1
  40168f:	00 00 
  401691:	c4 c1 65 ef 9d c0 05 	vpxor  0x5c0(%r13),%ymm3,%ymm3
  401698:	00 00 
  40169a:	c4 41 7e 6f be c0 01 	vmovdqu 0x1c0(%r14),%ymm15
  4016a1:	00 00 
  4016a3:	c5 fe 7f 46 e0       	vmovdqu %ymm0,-0x20(%rsi)
  4016a8:	c5 fe 7f 0e          	vmovdqu %ymm1,(%rsi)
  4016ac:	c5 fe 7f 56 20       	vmovdqu %ymm2,0x20(%rsi)
  4016b1:	c5 fe 7f 5e 40       	vmovdqu %ymm3,0x40(%rsi)
  4016b6:	c4 c1 05 ef a5 c0 04 	vpxor  0x4c0(%r13),%ymm15,%ymm4
  4016bd:	00 00 
  4016bf:	48 8d 94 24 40 03 00 	lea    0x340(%rsp),%rdx
  4016c6:	00 
  4016c7:	48 8d 8c 24 60 03 00 	lea    0x360(%rsp),%rcx
  4016ce:	00 
  4016cf:	49 8d 86 80 07 00 00 	lea    0x780(%r14),%rax
  4016d6:	48 89 82 a0 36 00 00 	mov    %rax,0x36a0(%rdx)
  4016dd:	4d 8d 86 80 02 00 00 	lea    0x280(%r14),%r8
  4016e4:	4c 89 82 f0 36 00 00 	mov    %r8,0x36f0(%rdx)
  4016eb:	4d 8d 8e a0 04 00 00 	lea    0x4a0(%r14),%r9
  4016f2:	4c 89 8a 90 36 00 00 	mov    %r9,0x3690(%rdx)
  4016f9:	4d 8d 96 c0 01 00 00 	lea    0x1c0(%r14),%r10
  401700:	4c 89 92 00 37 00 00 	mov    %r10,0x3700(%rdx)
  401707:	4d 8d 9e 60 02 00 00 	lea    0x260(%r14),%r11
  40170e:	4c 89 9a 20 35 00 00 	mov    %r11,0x3520(%rdx)
  401715:	e8 06 87 00 00       	callq  409e20 <sbox__6>
  40171a:	c5 fe 6f ac 24 00 03 	vmovdqu 0x300(%rsp),%ymm5
  401721:	00 00 
  401723:	48 8d bc 24 80 03 00 	lea    0x380(%rsp),%rdi
  40172a:	00 
  40172b:	c5 fe 6f 7f a0       	vmovdqu -0x60(%rdi),%ymm7
  401730:	c5 7e 6f 4f c0       	vmovdqu -0x40(%rdi),%ymm9
  401735:	c5 7e 6f 5f e0       	vmovdqu -0x20(%rdi),%ymm11
  40173a:	c4 c1 55 ef b5 e0 00 	vpxor  0xe0(%r13),%ymm5,%ymm6
  401741:	00 00 
  401743:	c4 41 45 ef 85 60 04 	vpxor  0x460(%r13),%ymm7,%ymm8
  40174a:	00 00 
  40174c:	c4 41 35 ef 95 a0 02 	vpxor  0x2a0(%r13),%ymm9,%ymm10
  401753:	00 00 
  401755:	c4 41 25 ef a5 20 01 	vpxor  0x120(%r13),%ymm11,%ymm12
  40175c:	00 00 
  40175e:	c4 c1 7e 7f b5 e0 00 	vmovdqu %ymm6,0xe0(%r13)
  401765:	00 00 
  401767:	c4 41 7e 7f 85 60 04 	vmovdqu %ymm8,0x460(%r13)
  40176e:	00 00 
  401770:	c4 41 7e 7f 95 a0 02 	vmovdqu %ymm10,0x2a0(%r13)
  401777:	00 00 
  401779:	c4 41 7e 7f a5 20 01 	vmovdqu %ymm12,0x120(%r13)
  401780:	00 00 
  401782:	c4 41 7e 6f be 80 01 	vmovdqu 0x180(%r14),%ymm15
  401789:	00 00 
  40178b:	48 8d b4 24 a0 03 00 	lea    0x3a0(%rsp),%rsi
  401792:	00 
  401793:	c4 c1 7e 6f a6 c0 03 	vmovdqu 0x3c0(%r14),%ymm4
  40179a:	00 00 
  40179c:	c4 41 7e 6f ae 80 05 	vmovdqu 0x580(%r14),%ymm13
  4017a3:	00 00 
  4017a5:	c4 41 7e 6f b6 a0 01 	vmovdqu 0x1a0(%r14),%ymm14
  4017ac:	00 00 
  4017ae:	c4 c1 7e 6f 9e a0 07 	vmovdqu 0x7a0(%r14),%ymm3
  4017b5:	00 00 
  4017b7:	c4 c1 05 ef 95 c0 02 	vpxor  0x2c0(%r13),%ymm15,%ymm2
  4017be:	00 00 
  4017c0:	c4 c1 5d ef ad 00 07 	vpxor  0x700(%r13),%ymm4,%ymm5
  4017c7:	00 00 
  4017c9:	c4 c1 15 ef 85 c0 04 	vpxor  0x4c0(%r13),%ymm13,%ymm0
  4017d0:	00 00 
  4017d2:	c4 c1 0d ef 8d c0 03 	vpxor  0x3c0(%r13),%ymm14,%ymm1
  4017d9:	00 00 
  4017db:	c4 c1 65 ef 9d c0 01 	vpxor  0x1c0(%r13),%ymm3,%ymm3
  4017e2:	00 00 
  4017e4:	c4 41 7e 6f be c0 06 	vmovdqu 0x6c0(%r14),%ymm15
  4017eb:	00 00 
  4017ed:	c5 fe 7f 46 e0       	vmovdqu %ymm0,-0x20(%rsi)
  4017f2:	c5 fe 7f 0e          	vmovdqu %ymm1,(%rsi)
  4017f6:	c5 fe 7f 56 20       	vmovdqu %ymm2,0x20(%rsi)
  4017fb:	c5 fe 7f 5e 40       	vmovdqu %ymm3,0x40(%rsi)
  401800:	c4 c1 05 ef a5 c0 00 	vpxor  0xc0(%r13),%ymm15,%ymm4
  401807:	00 00 
  401809:	48 8d 94 24 c0 03 00 	lea    0x3c0(%rsp),%rdx
  401810:	00 
  401811:	48 8d 8c 24 e0 03 00 	lea    0x3e0(%rsp),%rcx
  401818:	00 
  401819:	49 8d 86 a0 01 00 00 	lea    0x1a0(%r14),%rax
  401820:	48 89 82 68 35 00 00 	mov    %rax,0x3568(%rdx)
  401827:	4d 8d 86 80 01 00 00 	lea    0x180(%r14),%r8
  40182e:	4c 89 82 18 36 00 00 	mov    %r8,0x3618(%rdx)
  401835:	4d 8d 8e a0 07 00 00 	lea    0x7a0(%r14),%r9
  40183c:	4c 89 8a c8 35 00 00 	mov    %r9,0x35c8(%rdx)
  401843:	4d 8d 96 c0 06 00 00 	lea    0x6c0(%r14),%r10
  40184a:	4c 89 92 f8 35 00 00 	mov    %r10,0x35f8(%rdx)
  401851:	e8 ea 86 00 00       	callq  409f40 <sbox__7>
  401856:	c5 fe 6f ac 24 80 03 	vmovdqu 0x380(%rsp),%ymm5
  40185d:	00 00 
  40185f:	48 8d bc 24 00 04 00 	lea    0x400(%rsp),%rdi
  401866:	00 
  401867:	c5 fe 6f 77 a0       	vmovdqu -0x60(%rdi),%ymm6
  40186c:	c5 7e 6f 47 c0       	vmovdqu -0x40(%rdi),%ymm8
  401871:	c5 7e 6f 57 e0       	vmovdqu -0x20(%rdi),%ymm10
  401876:	c4 c1 55 ef a5 20 03 	vpxor  0x320(%r13),%ymm5,%ymm4
  40187d:	00 00 
  40187f:	c4 c1 4d ef bd e0 05 	vpxor  0x5e0(%r13),%ymm6,%ymm7
  401886:	00 00 
  401888:	c4 41 3d ef 8d 60 01 	vpxor  0x160(%r13),%ymm8,%ymm9
  40188f:	00 00 
  401891:	c4 41 2d ef 9d a0 03 	vpxor  0x3a0(%r13),%ymm10,%ymm11
  401898:	00 00 
  40189a:	c4 c1 7e 7f a5 20 03 	vmovdqu %ymm4,0x320(%r13)
  4018a1:	00 00 
  4018a3:	c4 c1 7e 7f bd e0 05 	vmovdqu %ymm7,0x5e0(%r13)
  4018aa:	00 00 
  4018ac:	c4 41 7e 7f 8d 60 01 	vmovdqu %ymm9,0x160(%r13)
  4018b3:	00 00 
  4018b5:	c4 41 7e 7f 9d a0 03 	vmovdqu %ymm11,0x3a0(%r13)
  4018bc:	00 00 
  4018be:	c4 41 7e 6f be 60 06 	vmovdqu 0x660(%r14),%ymm15
  4018c5:	00 00 
  4018c7:	48 8d b4 24 20 04 00 	lea    0x420(%rsp),%rsi
  4018ce:	00 
  4018cf:	c4 41 7e 6f 66 20    	vmovdqu 0x20(%r14),%ymm12
  4018d5:	c4 41 7e 6f ae 40 05 	vmovdqu 0x540(%r14),%ymm13
  4018dc:	00 00 
  4018de:	c4 41 7e 6f b6 20 03 	vmovdqu 0x320(%r14),%ymm14
  4018e5:	00 00 
  4018e7:	c4 c1 05 ef 9d 20 05 	vpxor  0x520(%r13),%ymm15,%ymm3
  4018ee:	00 00 
  4018f0:	c4 c1 5d ef ae 00 01 	vpxor  0x100(%r14),%ymm4,%ymm5
  4018f7:	00 00 
  4018f9:	c4 c1 1d ef 85 e0 00 	vpxor  0xe0(%r13),%ymm12,%ymm0
  401900:	00 00 
  401902:	c4 c1 15 ef 8d 20 07 	vpxor  0x720(%r13),%ymm13,%ymm1
  401909:	00 00 
  40190b:	c4 c1 0d ef 95 20 06 	vpxor  0x620(%r13),%ymm14,%ymm2
  401912:	00 00 
  401914:	c4 41 7e 6f be 00 05 	vmovdqu 0x500(%r14),%ymm15
  40191b:	00 00 
  40191d:	c5 fe 7f 46 e0       	vmovdqu %ymm0,-0x20(%rsi)
  401922:	c5 fe 7f 0e          	vmovdqu %ymm1,(%rsi)
  401926:	c5 fe 7f 56 20       	vmovdqu %ymm2,0x20(%rsi)
  40192b:	c5 fe 7f 5e 40       	vmovdqu %ymm3,0x40(%rsi)
  401930:	c4 c1 05 ef a5 20 04 	vpxor  0x420(%r13),%ymm15,%ymm4
  401937:	00 00 
  401939:	48 8d 94 24 40 04 00 	lea    0x440(%rsp),%rdx
  401940:	00 
  401941:	48 8d 8c 24 60 04 00 	lea    0x460(%rsp),%rcx
  401948:	00 
  401949:	49 8d 86 40 05 00 00 	lea    0x540(%r14),%rax
  401950:	48 89 82 88 35 00 00 	mov    %rax,0x3588(%rdx)
  401957:	e8 c4 7e 00 00       	callq  409820 <sbox__0>
  40195c:	c5 fe 6f ac 24 00 04 	vmovdqu 0x400(%rsp),%ymm5
  401963:	00 00 
  401965:	48 8d bc 24 80 04 00 	lea    0x480(%rsp),%rdi
  40196c:	00 
  40196d:	c5 fe 6f 7f a0       	vmovdqu -0x60(%rdi),%ymm7
  401972:	c5 7e 6f 4f c0       	vmovdqu -0x40(%rdi),%ymm9
  401977:	c5 7e 6f 5f e0       	vmovdqu -0x20(%rdi),%ymm11
  40197c:	c4 c1 55 ef b5 40 07 	vpxor  0x740(%r13),%ymm5,%ymm6
  401983:	00 00 
  401985:	c4 41 45 ef 85 80 07 	vpxor  0x780(%r13),%ymm7,%ymm8
  40198c:	00 00 
  40198e:	c4 41 35 ef 95 80 01 	vpxor  0x180(%r13),%ymm9,%ymm10
  401995:	00 00 
  401997:	c4 41 25 ef a5 c0 01 	vpxor  0x1c0(%r13),%ymm11,%ymm12
  40199e:	00 00 
  4019a0:	c4 c1 7e 7f b5 40 07 	vmovdqu %ymm6,0x740(%r13)
  4019a7:	00 00 
  4019a9:	c4 41 7e 7f 85 80 07 	vmovdqu %ymm8,0x780(%r13)
  4019b0:	00 00 
  4019b2:	c4 41 7e 7f 95 80 01 	vmovdqu %ymm10,0x180(%r13)
  4019b9:	00 00 
  4019bb:	c4 41 7e 7f a5 c0 01 	vmovdqu %ymm12,0x1c0(%r13)
  4019c2:	00 00 
  4019c4:	c4 41 7e 6f be 40 07 	vmovdqu 0x740(%r14),%ymm15
  4019cb:	00 00 
  4019cd:	48 8d b4 24 a0 04 00 	lea    0x4a0(%rsp),%rsi
  4019d4:	00 
  4019d5:	c4 c1 7e 6f a6 20 04 	vmovdqu 0x420(%r14),%ymm4
  4019dc:	00 00 
  4019de:	c4 41 7e 6f ae 00 03 	vmovdqu 0x300(%r14),%ymm13
  4019e5:	00 00 
  4019e7:	c4 41 7e 6f b6 00 06 	vmovdqu 0x600(%r14),%ymm14
  4019ee:	00 00 
  4019f0:	c4 c1 7e 6f 1e       	vmovdqu (%r14),%ymm3
  4019f5:	c4 c1 05 ef 95 20 02 	vpxor  0x220(%r13),%ymm15,%ymm2
  4019fc:	00 00 
  4019fe:	c4 c1 5d ef ad 60 07 	vpxor  0x760(%r13),%ymm4,%ymm5
  401a05:	00 00 
  401a07:	c4 c1 15 ef 85 20 04 	vpxor  0x420(%r13),%ymm13,%ymm0
  401a0e:	00 00 
  401a10:	c4 c1 0d ef 8d 20 03 	vpxor  0x320(%r13),%ymm14,%ymm1
  401a17:	00 00 
  401a19:	c4 c1 65 ef 9d 20 01 	vpxor  0x120(%r13),%ymm3,%ymm3
  401a20:	00 00 
  401a22:	c4 41 7e 6f be 40 01 	vmovdqu 0x140(%r14),%ymm15
  401a29:	00 00 
  401a2b:	c5 fe 7f 46 e0       	vmovdqu %ymm0,-0x20(%rsi)
  401a30:	c5 fe 7f 0e          	vmovdqu %ymm1,(%rsi)
  401a34:	c5 fe 7f 56 20       	vmovdqu %ymm2,0x20(%rsi)
  401a39:	c5 fe 7f 5e 40       	vmovdqu %ymm3,0x40(%rsi)
  401a3e:	c4 c1 05 ef 65 20    	vpxor  0x20(%r13),%ymm15,%ymm4
  401a44:	48 8d 94 24 c0 04 00 	lea    0x4c0(%rsp),%rdx
  401a4b:	00 
  401a4c:	48 8d 8c 24 e0 04 00 	lea    0x4e0(%rsp),%rcx
  401a53:	00 
  401a54:	49 8d 86 40 01 00 00 	lea    0x140(%r14),%rax
  401a5b:	48 89 82 00 35 00 00 	mov    %rax,0x3500(%rdx)
  401a62:	e8 09 7f 00 00       	callq  409970 <sbox__1>
  401a67:	c5 fe 6f ac 24 80 04 	vmovdqu 0x480(%rsp),%ymm5
  401a6e:	00 00 
  401a70:	48 8d bc 24 00 05 00 	lea    0x500(%rsp),%rdi
  401a77:	00 
  401a78:	c5 fe 6f 7f a0       	vmovdqu -0x60(%rdi),%ymm7
  401a7d:	c5 7e 6f 4f c0       	vmovdqu -0x40(%rdi),%ymm9
  401a82:	c5 7e 6f 5f e0       	vmovdqu -0x20(%rdi),%ymm11
  401a87:	c4 c1 55 ef b5 40 03 	vpxor  0x340(%r13),%ymm5,%ymm6
  401a8e:	00 00 
  401a90:	c4 41 45 ef 85 c0 04 	vpxor  0x4c0(%r13),%ymm7,%ymm8
  401a97:	00 00 
  401a99:	c4 41 35 ef 95 00 06 	vpxor  0x600(%r13),%ymm9,%ymm10
  401aa0:	00 00 
  401aa2:	c4 41 25 ef a5 80 06 	vpxor  0x680(%r13),%ymm11,%ymm12
  401aa9:	00 00 
  401aab:	c4 c1 7e 7f b5 40 03 	vmovdqu %ymm6,0x340(%r13)
  401ab2:	00 00 
  401ab4:	c4 41 7e 7f 85 c0 04 	vmovdqu %ymm8,0x4c0(%r13)
  401abb:	00 00 
  401abd:	c4 41 7e 7f 95 00 06 	vmovdqu %ymm10,0x600(%r13)
  401ac4:	00 00 
  401ac6:	c4 41 7e 7f a5 80 06 	vmovdqu %ymm12,0x680(%r13)
  401acd:	00 00 
  401acf:	c4 41 7e 6f be 20 02 	vmovdqu 0x220(%r14),%ymm15
  401ad6:	00 00 
  401ad8:	48 8d b4 24 20 05 00 	lea    0x520(%rsp),%rsi
  401adf:	00 
  401ae0:	c4 c1 7e 6f a6 20 06 	vmovdqu 0x620(%r14),%ymm4
  401ae7:	00 00 
  401ae9:	c4 41 7e 6f ae 60 07 	vmovdqu 0x760(%r14),%ymm13
  401af0:	00 00 
  401af2:	c4 41 7e 6f b6 40 03 	vmovdqu 0x340(%r14),%ymm14
  401af9:	00 00 
  401afb:	c4 c1 7e 6f 9e 00 02 	vmovdqu 0x200(%r14),%ymm3
  401b02:	00 00 
  401b04:	c4 c1 05 ef 95 60 06 	vpxor  0x660(%r13),%ymm15,%ymm2
  401b0b:	00 00 
  401b0d:	c4 c1 5d ef ad 60 03 	vpxor  0x360(%r13),%ymm4,%ymm5
  401b14:	00 00 
  401b16:	c4 c1 15 ef 45 20    	vpxor  0x20(%r13),%ymm13,%ymm0
  401b1c:	c4 c1 0d ef 8d 60 07 	vpxor  0x760(%r13),%ymm14,%ymm1
  401b23:	00 00 
  401b25:	c4 c1 65 ef 9d 60 05 	vpxor  0x560(%r13),%ymm3,%ymm3
  401b2c:	00 00 
  401b2e:	c4 41 7e 6f be 60 04 	vmovdqu 0x460(%r14),%ymm15
  401b35:	00 00 
  401b37:	c5 fe 7f 46 e0       	vmovdqu %ymm0,-0x20(%rsi)
  401b3c:	c5 fe 7f 0e          	vmovdqu %ymm1,(%rsi)
  401b40:	c5 fe 7f 56 20       	vmovdqu %ymm2,0x20(%rsi)
  401b45:	c5 fe 7f 5e 40       	vmovdqu %ymm3,0x40(%rsi)
  401b4a:	c4 c1 05 ef a5 60 04 	vpxor  0x460(%r13),%ymm15,%ymm4
  401b51:	00 00 
  401b53:	48 8d 94 24 40 05 00 	lea    0x540(%rsp),%rdx
  401b5a:	00 
  401b5b:	48 8d 8c 24 60 05 00 	lea    0x560(%rsp),%rcx
  401b62:	00 
  401b63:	e8 18 7f 00 00       	callq  409a80 <sbox__2>
  401b68:	c5 fe 6f ac 24 00 05 	vmovdqu 0x500(%rsp),%ymm5
  401b6f:	00 00 
  401b71:	48 8d bc 24 80 05 00 	lea    0x580(%rsp),%rdi
  401b78:	00 
  401b79:	c5 fe 6f 7f a0       	vmovdqu -0x60(%rdi),%ymm7
  401b7e:	c5 7e 6f 4f c0       	vmovdqu -0x40(%rdi),%ymm9
  401b83:	c5 7e 6f 5f e0       	vmovdqu -0x20(%rdi),%ymm11
  401b88:	c4 c1 55 ef b5 80 00 	vpxor  0x80(%r13),%ymm5,%ymm6
  401b8f:	00 00 
  401b91:	c4 41 45 ef 45 40    	vpxor  0x40(%r13),%ymm7,%ymm8
  401b97:	c4 41 35 ef 95 c0 02 	vpxor  0x2c0(%r13),%ymm9,%ymm10
  401b9e:	00 00 
  401ba0:	c4 41 25 ef a5 00 02 	vpxor  0x200(%r13),%ymm11,%ymm12
  401ba7:	00 00 
  401ba9:	c4 c1 7e 7f b5 80 00 	vmovdqu %ymm6,0x80(%r13)
  401bb0:	00 00 
  401bb2:	c4 41 7e 7f 45 40    	vmovdqu %ymm8,0x40(%r13)
  401bb8:	c4 41 7e 7f 95 c0 02 	vmovdqu %ymm10,0x2c0(%r13)
  401bbf:	00 00 
  401bc1:	c4 41 7e 7f a5 00 02 	vmovdqu %ymm12,0x200(%r13)
  401bc8:	00 00 
  401bca:	c4 41 7e 6f be 00 07 	vmovdqu 0x700(%r14),%ymm15
  401bd1:	00 00 
  401bd3:	48 8d b4 24 a0 05 00 	lea    0x5a0(%rsp),%rsi
  401bda:	00 
  401bdb:	c4 c1 7e 6f a6 00 04 	vmovdqu 0x400(%r14),%ymm4
  401be2:	00 00 
  401be4:	c4 41 7e 6f ae 40 06 	vmovdqu 0x640(%r14),%ymm13
  401beb:	00 00 
  401bed:	c4 41 7e 6f b6 20 07 	vmovdqu 0x720(%r14),%ymm14
  401bf4:	00 00 
  401bf6:	c4 c1 7e 6f 9e 40 02 	vmovdqu 0x240(%r14),%ymm3
  401bfd:	00 00 
  401bff:	c4 c1 05 ef 95 60 02 	vpxor  0x260(%r13),%ymm15,%ymm2
  401c06:	00 00 
  401c08:	c4 c1 5d ef ad a0 07 	vpxor  0x7a0(%r13),%ymm4,%ymm5
  401c0f:	00 00 
  401c11:	c4 c1 15 ef 85 60 04 	vpxor  0x460(%r13),%ymm13,%ymm0
  401c18:	00 00 
  401c1a:	c4 c1 0d ef 8d 60 03 	vpxor  0x360(%r13),%ymm14,%ymm1
  401c21:	00 00 
  401c23:	c4 c1 65 ef 9d 60 01 	vpxor  0x160(%r13),%ymm3,%ymm3
  401c2a:	00 00 
  401c2c:	c4 41 7e 6f be 20 01 	vmovdqu 0x120(%r14),%ymm15
  401c33:	00 00 
  401c35:	c5 fe 7f 46 e0       	vmovdqu %ymm0,-0x20(%rsi)
  401c3a:	c5 fe 7f 0e          	vmovdqu %ymm1,(%rsi)
  401c3e:	c5 fe 7f 56 20       	vmovdqu %ymm2,0x20(%rsi)
  401c43:	c5 fe 7f 5e 40       	vmovdqu %ymm3,0x40(%rsi)
  401c48:	c4 c1 05 ef 65 60    	vpxor  0x60(%r13),%ymm15,%ymm4
  401c4e:	48 8d 94 24 c0 05 00 	lea    0x5c0(%rsp),%rdx
  401c55:	00 
  401c56:	48 8d 8c 24 e0 05 00 	lea    0x5e0(%rsp),%rcx
  401c5d:	00 
  401c5e:	e8 ed 83 00 00       	callq  40a050 <sbox__3>
  401c63:	c5 fe 6f ac 24 80 05 	vmovdqu 0x580(%rsp),%ymm5
  401c6a:	00 00 
  401c6c:	48 8d bc 24 00 06 00 	lea    0x600(%rsp),%rdi
  401c73:	00 
  401c74:	c5 fe 6f 7f a0       	vmovdqu -0x60(%rdi),%ymm7
  401c79:	c5 7e 6f 4f c0       	vmovdqu -0x40(%rdi),%ymm9
  401c7e:	c5 7e 6f 5f e0       	vmovdqu -0x20(%rdi),%ymm11
  401c83:	c4 c1 55 ef b5 c0 06 	vpxor  0x6c0(%r13),%ymm5,%ymm6
  401c8a:	00 00 
  401c8c:	c4 41 45 ef 85 80 04 	vpxor  0x480(%r13),%ymm7,%ymm8
  401c93:	00 00 
  401c95:	c4 41 35 ef 95 40 06 	vpxor  0x640(%r13),%ymm9,%ymm10
  401c9c:	00 00 
  401c9e:	c4 41 25 ef a5 00 07 	vpxor  0x700(%r13),%ymm11,%ymm12
  401ca5:	00 00 
  401ca7:	c4 c1 7e 7f b5 c0 06 	vmovdqu %ymm6,0x6c0(%r13)
  401cae:	00 00 
  401cb0:	c4 41 7e 7f 85 80 04 	vmovdqu %ymm8,0x480(%r13)
  401cb7:	00 00 
  401cb9:	c4 41 7e 7f 95 40 06 	vmovdqu %ymm10,0x640(%r13)
  401cc0:	00 00 
  401cc2:	c4 41 7e 7f a5 00 07 	vmovdqu %ymm12,0x700(%r13)
  401cc9:	00 00 
  401ccb:	c4 41 7e 6f be c0 03 	vmovdqu 0x3c0(%r14),%ymm15
  401cd2:	00 00 
  401cd4:	48 8d b4 24 20 06 00 	lea    0x620(%rsp),%rsi
  401cdb:	00 
  401cdc:	c4 c1 7e 6f a6 c0 07 	vmovdqu 0x7c0(%r14),%ymm4
  401ce3:	00 00 
  401ce5:	c4 41 7e 6f ae a0 01 	vmovdqu 0x1a0(%r14),%ymm13
  401cec:	00 00 
  401cee:	c4 41 7e 6f b6 60 02 	vmovdqu 0x260(%r14),%ymm14
  401cf5:	00 00 
  401cf7:	c4 c1 7e 6f 9e a0 05 	vmovdqu 0x5a0(%r14),%ymm3
  401cfe:	00 00 
  401d00:	c4 c1 05 ef 95 a0 06 	vpxor  0x6a0(%r13),%ymm15,%ymm2
  401d07:	00 00 
  401d09:	c4 c1 5d ef ad a0 03 	vpxor  0x3a0(%r13),%ymm4,%ymm5
  401d10:	00 00 
  401d12:	c4 c1 15 ef 45 60    	vpxor  0x60(%r13),%ymm13,%ymm0
  401d18:	c4 c1 0d ef 8d a0 07 	vpxor  0x7a0(%r13),%ymm14,%ymm1
  401d1f:	00 00 
  401d21:	c4 c1 65 ef 9d a0 05 	vpxor  0x5a0(%r13),%ymm3,%ymm3
  401d28:	00 00 
  401d2a:	c4 41 7e 6f be 80 03 	vmovdqu 0x380(%r14),%ymm15
  401d31:	00 00 
  401d33:	c5 fe 7f 46 e0       	vmovdqu %ymm0,-0x20(%rsi)
  401d38:	c5 fe 7f 0e          	vmovdqu %ymm1,(%rsi)
  401d3c:	c5 fe 7f 56 20       	vmovdqu %ymm2,0x20(%rsi)
  401d41:	c5 fe 7f 5e 40       	vmovdqu %ymm3,0x40(%rsi)
  401d46:	c4 c1 05 ef a5 a0 04 	vpxor  0x4a0(%r13),%ymm15,%ymm4
  401d4d:	00 00 
  401d4f:	48 8d 94 24 40 06 00 	lea    0x640(%rsp),%rdx
  401d56:	00 
  401d57:	48 8d 8c 24 60 06 00 	lea    0x660(%rsp),%rcx
  401d5e:	00 
  401d5f:	49 8d 86 a0 05 00 00 	lea    0x5a0(%r14),%rax
  401d66:	48 89 82 40 33 00 00 	mov    %rax,0x3340(%rdx)
  401d6d:	e8 2e 7e 00 00       	callq  409ba0 <sbox__4>
  401d72:	c5 fe 6f ac 24 00 06 	vmovdqu 0x600(%rsp),%ymm5
  401d79:	00 00 
  401d7b:	48 8d bc 24 80 06 00 	lea    0x680(%rsp),%rdi
  401d82:	00 
  401d83:	c5 fe 6f 7f a0       	vmovdqu -0x60(%rdi),%ymm7
  401d88:	c5 7e 6f 4f c0       	vmovdqu -0x40(%rdi),%ymm9
  401d8d:	c5 7e 6f 5f e0       	vmovdqu -0x20(%rdi),%ymm11
  401d92:	c4 c1 55 ef 75 00    	vpxor  0x0(%r13),%ymm5,%ymm6
  401d98:	c4 41 45 ef 85 40 02 	vpxor  0x240(%r13),%ymm7,%ymm8
  401d9f:	00 00 
  401da1:	c4 41 35 ef 95 c0 07 	vpxor  0x7c0(%r13),%ymm9,%ymm10
  401da8:	00 00 
  401daa:	c4 41 25 ef a5 00 05 	vpxor  0x500(%r13),%ymm11,%ymm12
  401db1:	00 00 
  401db3:	c4 c1 7e 7f 75 00    	vmovdqu %ymm6,0x0(%r13)
  401db9:	c4 41 7e 7f 85 40 02 	vmovdqu %ymm8,0x240(%r13)
  401dc0:	00 00 
  401dc2:	c4 41 7e 7f 95 c0 07 	vmovdqu %ymm10,0x7c0(%r13)
  401dc9:	00 00 
  401dcb:	c4 41 7e 7f a5 00 05 	vmovdqu %ymm12,0x500(%r13)
  401dd2:	00 00 
  401dd4:	c4 41 7e 6f be 60 03 	vmovdqu 0x360(%r14),%ymm15
  401ddb:	00 00 
  401ddd:	48 8d b4 24 a0 06 00 	lea    0x6a0(%rsp),%rsi
  401de4:	00 
  401de5:	c4 c1 7e 6f a6 80 02 	vmovdqu 0x280(%r14),%ymm4
  401dec:	00 00 
  401dee:	c4 41 7e 6f b6 a0 02 	vmovdqu 0x2a0(%r14),%ymm14
  401df5:	00 00 
  401df7:	c4 41 7e 6f ae c0 04 	vmovdqu 0x4c0(%r14),%ymm13
  401dfe:	00 00 
  401e00:	c4 c1 7e 6f 9e 80 05 	vmovdqu 0x580(%r14),%ymm3
  401e07:	00 00 
  401e09:	c4 c1 05 ef 95 a0 02 	vpxor  0x2a0(%r13),%ymm15,%ymm2
  401e10:	00 00 
  401e12:	c4 c1 5d ef ad e0 07 	vpxor  0x7e0(%r13),%ymm4,%ymm5
  401e19:	00 00 
  401e1b:	c4 c1 15 ef 85 a0 04 	vpxor  0x4a0(%r13),%ymm13,%ymm0
  401e22:	00 00 
  401e24:	c4 c1 0d ef 8d a0 03 	vpxor  0x3a0(%r13),%ymm14,%ymm1
  401e2b:	00 00 
  401e2d:	c4 c1 65 ef 9d a0 01 	vpxor  0x1a0(%r13),%ymm3,%ymm3
  401e34:	00 00 
  401e36:	c4 41 7e 6f be c0 01 	vmovdqu 0x1c0(%r14),%ymm15
  401e3d:	00 00 
  401e3f:	c5 fe 7f 46 e0       	vmovdqu %ymm0,-0x20(%rsi)
  401e44:	c5 fe 7f 0e          	vmovdqu %ymm1,(%rsi)
  401e48:	c5 fe 7f 56 20       	vmovdqu %ymm2,0x20(%rsi)
  401e4d:	c5 fe 7f 5e 40       	vmovdqu %ymm3,0x40(%rsi)
  401e52:	c4 c1 05 ef a5 a0 00 	vpxor  0xa0(%r13),%ymm15,%ymm4
  401e59:	00 00 
  401e5b:	48 8d 94 24 c0 06 00 	lea    0x6c0(%rsp),%rdx
  401e62:	00 
  401e63:	48 8d 8c 24 e0 06 00 	lea    0x6e0(%rsp),%rcx
  401e6a:	00 
  401e6b:	e8 80 7e 00 00       	callq  409cf0 <sbox__5>
  401e70:	c5 fe 6f ac 24 80 06 	vmovdqu 0x680(%rsp),%ymm5
  401e77:	00 00 
  401e79:	48 8d bc 24 00 07 00 	lea    0x700(%rsp),%rdi
  401e80:	00 
  401e81:	c5 fe 6f 7f a0       	vmovdqu -0x60(%rdi),%ymm7
  401e86:	c5 7e 6f 4f c0       	vmovdqu -0x40(%rdi),%ymm9
  401e8b:	c5 7e 6f 5f e0       	vmovdqu -0x20(%rdi),%ymm11
  401e90:	c4 c1 55 ef b5 00 04 	vpxor  0x400(%r13),%ymm5,%ymm6
  401e97:	00 00 
  401e99:	c4 41 45 ef 85 c0 03 	vpxor  0x3c0(%r13),%ymm7,%ymm8
  401ea0:	00 00 
  401ea2:	c4 41 35 ef 95 40 05 	vpxor  0x540(%r13),%ymm9,%ymm10
  401ea9:	00 00 
  401eab:	c4 41 25 ef a5 80 05 	vpxor  0x580(%r13),%ymm11,%ymm12
  401eb2:	00 00 
  401eb4:	c4 c1 7e 7f b5 00 04 	vmovdqu %ymm6,0x400(%r13)
  401ebb:	00 00 
  401ebd:	c4 41 7e 7f 85 c0 03 	vmovdqu %ymm8,0x3c0(%r13)
  401ec4:	00 00 
  401ec6:	c4 41 7e 7f 95 40 05 	vmovdqu %ymm10,0x540(%r13)
  401ecd:	00 00 
  401ecf:	c4 41 7e 7f a5 80 05 	vmovdqu %ymm12,0x580(%r13)
  401ed6:	00 00 
  401ed8:	c4 41 7e 6f be a0 03 	vmovdqu 0x3a0(%r14),%ymm15
  401edf:	00 00 
  401ee1:	48 8d b4 24 20 07 00 	lea    0x720(%rsp),%rsi
  401ee8:	00 
  401ee9:	c4 c1 7e 6f a6 60 01 	vmovdqu 0x160(%r14),%ymm4
  401ef0:	00 00 
  401ef2:	c4 41 7e 6f b6 80 01 	vmovdqu 0x180(%r14),%ymm14
  401ef9:	00 00 
  401efb:	c4 41 7e 6f ae 80 06 	vmovdqu 0x680(%r14),%ymm13
  401f02:	00 00 
  401f04:	c4 c1 7e 6f 9e c0 06 	vmovdqu 0x6c0(%r14),%ymm3
  401f0b:	00 00 
  401f0d:	c4 c1 05 ef 95 e0 06 	vpxor  0x6e0(%r13),%ymm15,%ymm2
  401f14:	00 00 
  401f16:	c4 c1 5d ef ad e0 03 	vpxor  0x3e0(%r13),%ymm4,%ymm5
  401f1d:	00 00 
  401f1f:	c4 c1 15 ef 85 a0 00 	vpxor  0xa0(%r13),%ymm13,%ymm0
  401f26:	00 00 
  401f28:	c4 c1 0d ef 8d e0 07 	vpxor  0x7e0(%r13),%ymm14,%ymm1
  401f2f:	00 00 
  401f31:	c4 c1 65 ef 9d e0 05 	vpxor  0x5e0(%r13),%ymm3,%ymm3
  401f38:	00 00 
  401f3a:	c4 41 7e 6f be c0 00 	vmovdqu 0xc0(%r14),%ymm15
  401f41:	00 00 
  401f43:	c5 fe 7f 46 e0       	vmovdqu %ymm0,-0x20(%rsi)
  401f48:	c5 fe 7f 0e          	vmovdqu %ymm1,(%rsi)
  401f4c:	c5 fe 7f 56 20       	vmovdqu %ymm2,0x20(%rsi)
  401f51:	c5 fe 7f 5e 40       	vmovdqu %ymm3,0x40(%rsi)
  401f56:	c4 c1 05 ef a5 e0 04 	vpxor  0x4e0(%r13),%ymm15,%ymm4
  401f5d:	00 00 
  401f5f:	48 8d 94 24 40 07 00 	lea    0x740(%rsp),%rdx
  401f66:	00 
  401f67:	48 8d 8c 24 60 07 00 	lea    0x760(%rsp),%rcx
  401f6e:	00 
  401f6f:	49 8d 86 c0 00 00 00 	lea    0xc0(%r14),%rax
  401f76:	48 89 82 f8 32 00 00 	mov    %rax,0x32f8(%rdx)
  401f7d:	e8 9e 7e 00 00       	callq  409e20 <sbox__6>
  401f82:	c5 fe 6f ac 24 00 07 	vmovdqu 0x700(%rsp),%ymm5
  401f89:	00 00 
  401f8b:	48 8d bc 24 80 07 00 	lea    0x780(%rsp),%rdi
  401f92:	00 
  401f93:	c5 fe 6f 7f a0       	vmovdqu -0x60(%rdi),%ymm7
  401f98:	c5 7e 6f 4f c0       	vmovdqu -0x40(%rdi),%ymm9
  401f9d:	c5 7e 6f 5f e0       	vmovdqu -0x20(%rdi),%ymm11
  401fa2:	c4 c1 55 ef b5 c0 00 	vpxor  0xc0(%r13),%ymm5,%ymm6
  401fa9:	00 00 
  401fab:	c4 41 45 ef 85 40 04 	vpxor  0x440(%r13),%ymm7,%ymm8
  401fb2:	00 00 
  401fb4:	c4 41 35 ef 95 80 02 	vpxor  0x280(%r13),%ymm9,%ymm10
  401fbb:	00 00 
  401fbd:	c4 41 25 ef a5 00 01 	vpxor  0x100(%r13),%ymm11,%ymm12
  401fc4:	00 00 
  401fc6:	c4 c1 7e 7f b5 c0 00 	vmovdqu %ymm6,0xc0(%r13)
  401fcd:	00 00 
  401fcf:	c4 41 7e 7f 85 40 04 	vmovdqu %ymm8,0x440(%r13)
  401fd6:	00 00 
  401fd8:	c4 41 7e 7f 95 80 02 	vmovdqu %ymm10,0x280(%r13)
  401fdf:	00 00 
  401fe1:	c4 41 7e 7f a5 00 01 	vmovdqu %ymm12,0x100(%r13)
  401fe8:	00 00 
  401fea:	c4 41 7e 6f be 80 00 	vmovdqu 0x80(%r14),%ymm15
  401ff1:	00 00 
  401ff3:	48 8d b4 24 a0 07 00 	lea    0x7a0(%rsp),%rsi
  401ffa:	00 
  401ffb:	c4 c1 7e 6f a6 c0 02 	vmovdqu 0x2c0(%r14),%ymm4
  402002:	00 00 
  402004:	c4 41 7e 6f ae 80 04 	vmovdqu 0x480(%r14),%ymm13
  40200b:	00 00 
  40200d:	c4 41 7e 6f b6 a0 00 	vmovdqu 0xa0(%r14),%ymm14
  402014:	00 00 
  402016:	c4 c1 7e 6f 9e a0 06 	vmovdqu 0x6a0(%r14),%ymm3
  40201d:	00 00 
  40201f:	c4 c1 05 ef 95 e0 02 	vpxor  0x2e0(%r13),%ymm15,%ymm2
  402026:	00 00 
  402028:	c4 c1 5d ef ad 20 07 	vpxor  0x720(%r13),%ymm4,%ymm5
  40202f:	00 00 
  402031:	c4 c1 15 ef 85 e0 04 	vpxor  0x4e0(%r13),%ymm13,%ymm0
  402038:	00 00 
  40203a:	c4 c1 0d ef 8d e0 03 	vpxor  0x3e0(%r13),%ymm14,%ymm1
  402041:	00 00 
  402043:	c4 c1 65 ef 9d e0 01 	vpxor  0x1e0(%r13),%ymm3,%ymm3
  40204a:	00 00 
  40204c:	c4 41 7e 6f be c0 05 	vmovdqu 0x5c0(%r14),%ymm15
  402053:	00 00 
  402055:	c5 fe 7f 46 e0       	vmovdqu %ymm0,-0x20(%rsi)
  40205a:	c5 fe 7f 0e          	vmovdqu %ymm1,(%rsi)
  40205e:	c5 fe 7f 56 20       	vmovdqu %ymm2,0x20(%rsi)
  402063:	c5 fe 7f 5e 40       	vmovdqu %ymm3,0x40(%rsi)
  402068:	c4 c1 05 ef a5 e0 00 	vpxor  0xe0(%r13),%ymm15,%ymm4
  40206f:	00 00 
  402071:	48 8d 94 24 c0 07 00 	lea    0x7c0(%rsp),%rdx
  402078:	00 
  402079:	48 8d 8c 24 e0 07 00 	lea    0x7e0(%rsp),%rcx
  402080:	00 
  402081:	49 8d 86 a0 00 00 00 	lea    0xa0(%r14),%rax
  402088:	48 89 82 e8 31 00 00 	mov    %rax,0x31e8(%rdx)
  40208f:	e8 ac 7e 00 00       	callq  409f40 <sbox__7>
  402094:	c5 fe 6f ac 24 80 07 	vmovdqu 0x780(%rsp),%ymm5
  40209b:	00 00 
  40209d:	48 8d bc 24 00 08 00 	lea    0x800(%rsp),%rdi
  4020a4:	00 
  4020a5:	c5 fe 6f 77 a0       	vmovdqu -0x60(%rdi),%ymm6
  4020aa:	c5 7e 6f 47 c0       	vmovdqu -0x40(%rdi),%ymm8
  4020af:	c5 7e 6f 57 e0       	vmovdqu -0x20(%rdi),%ymm10
  4020b4:	c4 c1 55 ef a5 00 03 	vpxor  0x300(%r13),%ymm5,%ymm4
  4020bb:	00 00 
  4020bd:	c4 c1 4d ef bd c0 05 	vpxor  0x5c0(%r13),%ymm6,%ymm7
  4020c4:	00 00 
  4020c6:	c4 41 3d ef 8d 40 01 	vpxor  0x140(%r13),%ymm8,%ymm9
  4020cd:	00 00 
  4020cf:	c4 41 2d ef 9d 80 03 	vpxor  0x380(%r13),%ymm10,%ymm11
  4020d6:	00 00 
  4020d8:	c4 c1 7e 7f a5 00 03 	vmovdqu %ymm4,0x300(%r13)
  4020df:	00 00 
  4020e1:	c4 c1 7e 7f bd c0 05 	vmovdqu %ymm7,0x5c0(%r13)
  4020e8:	00 00 
  4020ea:	c4 41 7e 7f 8d 40 01 	vmovdqu %ymm9,0x140(%r13)
  4020f1:	00 00 
  4020f3:	c4 41 7e 7f 9d 80 03 	vmovdqu %ymm11,0x380(%r13)
  4020fa:	00 00 
  4020fc:	c4 41 7e 6f be 60 04 	vmovdqu 0x460(%r14),%ymm15
  402103:	00 00 
  402105:	48 8d b4 24 20 08 00 	lea    0x820(%rsp),%rsi
  40210c:	00 
  40210d:	c4 41 7e 6f a6 40 06 	vmovdqu 0x640(%r14),%ymm12
  402114:	00 00 
  402116:	c4 41 7e 6f ae 40 03 	vmovdqu 0x340(%r14),%ymm13
  40211d:	00 00 
  40211f:	c4 41 7e 6f b6 20 01 	vmovdqu 0x120(%r14),%ymm14
  402126:	00 00 
  402128:	c4 c1 05 ef 9d 00 05 	vpxor  0x500(%r13),%ymm15,%ymm3
  40212f:	00 00 
  402131:	c4 c1 5d ef ae 20 07 	vpxor  0x720(%r14),%ymm4,%ymm5
  402138:	00 00 
  40213a:	c4 c1 1d ef 85 c0 00 	vpxor  0xc0(%r13),%ymm12,%ymm0
  402141:	00 00 
  402143:	c4 c1 15 ef 8d 00 07 	vpxor  0x700(%r13),%ymm13,%ymm1
  40214a:	00 00 
  40214c:	c4 c1 0d ef 95 00 06 	vpxor  0x600(%r13),%ymm14,%ymm2
  402153:	00 00 
  402155:	c4 41 7e 6f be 00 03 	vmovdqu 0x300(%r14),%ymm15
  40215c:	00 00 
  40215e:	c5 fe 7f 46 e0       	vmovdqu %ymm0,-0x20(%rsi)
  402163:	c5 fe 7f 0e          	vmovdqu %ymm1,(%rsi)
  402167:	c5 fe 7f 56 20       	vmovdqu %ymm2,0x20(%rsi)
  40216c:	c5 fe 7f 5e 40       	vmovdqu %ymm3,0x40(%rsi)
  402171:	c4 c1 05 ef a5 00 04 	vpxor  0x400(%r13),%ymm15,%ymm4
  402178:	00 00 
  40217a:	48 8d 94 24 40 08 00 	lea    0x840(%rsp),%rdx
  402181:	00 
  402182:	48 8d 8c 24 60 08 00 	lea    0x860(%rsp),%rcx
  402189:	00 
  40218a:	e8 91 76 00 00       	callq  409820 <sbox__0>
  40218f:	c5 fe 6f ac 24 00 08 	vmovdqu 0x800(%rsp),%ymm5
  402196:	00 00 
  402198:	48 8d bc 24 80 08 00 	lea    0x880(%rsp),%rdi
  40219f:	00 
  4021a0:	c5 fe 6f 7f a0       	vmovdqu -0x60(%rdi),%ymm7
  4021a5:	c5 7e 6f 4f c0       	vmovdqu -0x40(%rdi),%ymm9
  4021aa:	c5 7e 6f 5f e0       	vmovdqu -0x20(%rdi),%ymm11
  4021af:	c4 c1 55 ef b5 60 07 	vpxor  0x760(%r13),%ymm5,%ymm6
  4021b6:	00 00 
  4021b8:	c4 41 45 ef 85 a0 07 	vpxor  0x7a0(%r13),%ymm7,%ymm8
  4021bf:	00 00 
  4021c1:	c4 41 35 ef 95 a0 01 	vpxor  0x1a0(%r13),%ymm9,%ymm10
  4021c8:	00 00 
  4021ca:	c4 41 25 ef a5 e0 01 	vpxor  0x1e0(%r13),%ymm11,%ymm12
  4021d1:	00 00 
  4021d3:	c4 c1 7e 7f b5 60 07 	vmovdqu %ymm6,0x760(%r13)
  4021da:	00 00 
  4021dc:	c4 41 7e 7f 85 a0 07 	vmovdqu %ymm8,0x7a0(%r13)
  4021e3:	00 00 
  4021e5:	c4 41 7e 7f 95 a0 01 	vmovdqu %ymm10,0x1a0(%r13)
  4021ec:	00 00 
  4021ee:	c4 41 7e 7f a5 e0 01 	vmovdqu %ymm12,0x1e0(%r13)
  4021f5:	00 00 
  4021f7:	c4 41 7e 6f be 40 05 	vmovdqu 0x540(%r14),%ymm15
  4021fe:	00 00 
  402200:	48 8d b4 24 a0 08 00 	lea    0x8a0(%rsp),%rsi
  402207:	00 
  402208:	c4 c1 7e 6f a6 20 02 	vmovdqu 0x220(%r14),%ymm4
  40220f:	00 00 
  402211:	c4 41 7e 6f ae 00 01 	vmovdqu 0x100(%r14),%ymm13
  402218:	00 00 
  40221a:	c4 41 7e 6f b6 00 04 	vmovdqu 0x400(%r14),%ymm14
  402221:	00 00 
  402223:	c4 c1 7e 6f 9e 20 06 	vmovdqu 0x620(%r14),%ymm3
  40222a:	00 00 
  40222c:	c4 c1 05 ef 95 00 02 	vpxor  0x200(%r13),%ymm15,%ymm2
  402233:	00 00 
  402235:	c4 c1 5d ef ad 40 07 	vpxor  0x740(%r13),%ymm4,%ymm5
  40223c:	00 00 
  40223e:	c4 c1 15 ef 85 00 04 	vpxor  0x400(%r13),%ymm13,%ymm0
  402245:	00 00 
  402247:	c4 c1 0d ef 8d 00 03 	vpxor  0x300(%r13),%ymm14,%ymm1
  40224e:	00 00 
  402250:	c4 c1 65 ef 9d 00 01 	vpxor  0x100(%r13),%ymm3,%ymm3
  402257:	00 00 
  402259:	c4 41 7e 6f be 60 07 	vmovdqu 0x760(%r14),%ymm15
  402260:	00 00 
  402262:	c5 fe 7f 46 e0       	vmovdqu %ymm0,-0x20(%rsi)
  402267:	c5 fe 7f 0e          	vmovdqu %ymm1,(%rsi)
  40226b:	c5 fe 7f 56 20       	vmovdqu %ymm2,0x20(%rsi)
  402270:	c5 fe 7f 5e 40       	vmovdqu %ymm3,0x40(%rsi)
  402275:	c4 c1 05 ef 65 00    	vpxor  0x0(%r13),%ymm15,%ymm4
  40227b:	48 8d 94 24 c0 08 00 	lea    0x8c0(%rsp),%rdx
  402282:	00 
  402283:	48 8d 8c 24 e0 08 00 	lea    0x8e0(%rsp),%rcx
  40228a:	00 
  40228b:	e8 e0 76 00 00       	callq  409970 <sbox__1>
  402290:	c5 fe 6f ac 24 80 08 	vmovdqu 0x880(%rsp),%ymm5
  402297:	00 00 
  402299:	48 8d bc 24 00 09 00 	lea    0x900(%rsp),%rdi
  4022a0:	00 
  4022a1:	c5 fe 6f 7f a0       	vmovdqu -0x60(%rdi),%ymm7
  4022a6:	c5 7e 6f 4f c0       	vmovdqu -0x40(%rdi),%ymm9
  4022ab:	c5 7e 6f 5f e0       	vmovdqu -0x20(%rdi),%ymm11
  4022b0:	c4 c1 55 ef b5 60 03 	vpxor  0x360(%r13),%ymm5,%ymm6
  4022b7:	00 00 
  4022b9:	c4 41 45 ef 85 e0 04 	vpxor  0x4e0(%r13),%ymm7,%ymm8
  4022c0:	00 00 
  4022c2:	c4 41 35 ef 95 20 06 	vpxor  0x620(%r13),%ymm9,%ymm10
  4022c9:	00 00 
  4022cb:	c4 41 25 ef a5 a0 06 	vpxor  0x6a0(%r13),%ymm11,%ymm12
  4022d2:	00 00 
  4022d4:	c4 c1 7e 7f b5 60 03 	vmovdqu %ymm6,0x360(%r13)
  4022db:	00 00 
  4022dd:	c4 41 7e 7f 85 e0 04 	vmovdqu %ymm8,0x4e0(%r13)
  4022e4:	00 00 
  4022e6:	c4 41 7e 7f 95 20 06 	vmovdqu %ymm10,0x620(%r13)
  4022ed:	00 00 
  4022ef:	c4 41 7e 7f a5 a0 06 	vmovdqu %ymm12,0x6a0(%r13)
  4022f6:	00 00 
  4022f8:	c4 41 7e 6f 7e 20    	vmovdqu 0x20(%r14),%ymm15
  4022fe:	48 8d b4 24 20 09 00 	lea    0x920(%rsp),%rsi
  402305:	00 
  402306:	c4 c1 7e 6f a6 20 04 	vmovdqu 0x420(%r14),%ymm4
  40230d:	00 00 
  40230f:	c4 41 7e 6f ae 60 05 	vmovdqu 0x560(%r14),%ymm13
  402316:	00 00 
  402318:	c4 41 7e 6f b6 40 01 	vmovdqu 0x140(%r14),%ymm14
  40231f:	00 00 
  402321:	c4 c1 7e 6f 1e       	vmovdqu (%r14),%ymm3
  402326:	c4 c1 05 ef 95 40 06 	vpxor  0x640(%r13),%ymm15,%ymm2
  40232d:	00 00 
  40232f:	c4 c1 5d ef ad 40 03 	vpxor  0x340(%r13),%ymm4,%ymm5
  402336:	00 00 
  402338:	c4 c1 15 ef 45 00    	vpxor  0x0(%r13),%ymm13,%ymm0
  40233e:	c4 c1 0d ef 8d 40 07 	vpxor  0x740(%r13),%ymm14,%ymm1
  402345:	00 00 
  402347:	c4 c1 65 ef 9d 40 05 	vpxor  0x540(%r13),%ymm3,%ymm3
  40234e:	00 00 
  402350:	c4 41 7e 6f be 00 06 	vmovdqu 0x600(%r14),%ymm15
  402357:	00 00 
  402359:	c5 fe 7f 46 e0       	vmovdqu %ymm0,-0x20(%rsi)
  40235e:	c5 fe 7f 0e          	vmovdqu %ymm1,(%rsi)
  402362:	c5 fe 7f 56 20       	vmovdqu %ymm2,0x20(%rsi)
  402367:	c5 fe 7f 5e 40       	vmovdqu %ymm3,0x40(%rsi)
  40236c:	c4 c1 05 ef a5 40 04 	vpxor  0x440(%r13),%ymm15,%ymm4
  402373:	00 00 
  402375:	48 8d 94 24 40 09 00 	lea    0x940(%rsp),%rdx
  40237c:	00 
  40237d:	48 8d 8c 24 60 09 00 	lea    0x960(%rsp),%rcx
  402384:	00 
  402385:	e8 f6 76 00 00       	callq  409a80 <sbox__2>
  40238a:	c5 fe 6f ac 24 00 09 	vmovdqu 0x900(%rsp),%ymm5
  402391:	00 00 
  402393:	48 8d bc 24 80 09 00 	lea    0x980(%rsp),%rdi
  40239a:	00 
  40239b:	c5 fe 6f 7f a0       	vmovdqu -0x60(%rdi),%ymm7
  4023a0:	c5 7e 6f 4f c0       	vmovdqu -0x40(%rdi),%ymm9
  4023a5:	c5 7e 6f 5f e0       	vmovdqu -0x20(%rdi),%ymm11
  4023aa:	c4 c1 55 ef b5 a0 00 	vpxor  0xa0(%r13),%ymm5,%ymm6
  4023b1:	00 00 
  4023b3:	c4 41 45 ef 45 60    	vpxor  0x60(%r13),%ymm7,%ymm8
  4023b9:	c4 41 35 ef 95 e0 02 	vpxor  0x2e0(%r13),%ymm9,%ymm10
  4023c0:	00 00 
  4023c2:	c4 41 25 ef a5 20 02 	vpxor  0x220(%r13),%ymm11,%ymm12
  4023c9:	00 00 
  4023cb:	c4 c1 7e 7f b5 a0 00 	vmovdqu %ymm6,0xa0(%r13)
  4023d2:	00 00 
  4023d4:	c4 41 7e 7f 45 60    	vmovdqu %ymm8,0x60(%r13)
  4023da:	c4 41 7e 7f 95 e0 02 	vmovdqu %ymm10,0x2e0(%r13)
  4023e1:	00 00 
  4023e3:	c4 41 7e 7f a5 20 02 	vmovdqu %ymm12,0x220(%r13)
  4023ea:	00 00 
  4023ec:	c4 41 7e 6f be 00 05 	vmovdqu 0x500(%r14),%ymm15
  4023f3:	00 00 
  4023f5:	48 8d b4 24 a0 09 00 	lea    0x9a0(%rsp),%rsi
  4023fc:	00 
  4023fd:	c4 c1 7e 6f a6 00 02 	vmovdqu 0x200(%r14),%ymm4
  402404:	00 00 
  402406:	c4 41 7e 6f ae 40 04 	vmovdqu 0x440(%r14),%ymm13
  40240d:	00 00 
  40240f:	c4 41 7e 6f b6 20 05 	vmovdqu 0x520(%r14),%ymm14
  402416:	00 00 
  402418:	c4 c1 7e 6f 5e 40    	vmovdqu 0x40(%r14),%ymm3
  40241e:	c4 c1 05 ef 95 40 02 	vpxor  0x240(%r13),%ymm15,%ymm2
  402425:	00 00 
  402427:	c4 c1 5d ef ad 80 07 	vpxor  0x780(%r13),%ymm4,%ymm5
  40242e:	00 00 
  402430:	c4 c1 15 ef 85 40 04 	vpxor  0x440(%r13),%ymm13,%ymm0
  402437:	00 00 
  402439:	c4 c1 0d ef 8d 40 03 	vpxor  0x340(%r13),%ymm14,%ymm1
  402440:	00 00 
  402442:	c4 c1 65 ef 9d 40 01 	vpxor  0x140(%r13),%ymm3,%ymm3
  402449:	00 00 
  40244b:	c4 41 7e 6f be 40 07 	vmovdqu 0x740(%r14),%ymm15
  402452:	00 00 
  402454:	c5 fe 7f 46 e0       	vmovdqu %ymm0,-0x20(%rsi)
  402459:	c5 fe 7f 0e          	vmovdqu %ymm1,(%rsi)
  40245d:	c5 fe 7f 56 20       	vmovdqu %ymm2,0x20(%rsi)
  402462:	c5 fe 7f 5e 40       	vmovdqu %ymm3,0x40(%rsi)
  402467:	c4 c1 05 ef 65 40    	vpxor  0x40(%r13),%ymm15,%ymm4
  40246d:	48 8d 94 24 c0 09 00 	lea    0x9c0(%rsp),%rdx
  402474:	00 
  402475:	48 8d 8c 24 e0 09 00 	lea    0x9e0(%rsp),%rcx
  40247c:	00 
  40247d:	e8 ce 7b 00 00       	callq  40a050 <sbox__3>
  402482:	c5 fe 6f ac 24 80 09 	vmovdqu 0x980(%rsp),%ymm5
  402489:	00 00 
  40248b:	48 8d bc 24 00 0a 00 	lea    0xa00(%rsp),%rdi
  402492:	00 
  402493:	c5 fe 6f 7f a0       	vmovdqu -0x60(%rdi),%ymm7
  402498:	c5 7e 6f 4f c0       	vmovdqu -0x40(%rdi),%ymm9
  40249d:	c5 7e 6f 5f e0       	vmovdqu -0x20(%rdi),%ymm11
  4024a2:	c4 c1 55 ef b5 e0 06 	vpxor  0x6e0(%r13),%ymm5,%ymm6
  4024a9:	00 00 
  4024ab:	c4 41 45 ef 85 a0 04 	vpxor  0x4a0(%r13),%ymm7,%ymm8
  4024b2:	00 00 
  4024b4:	c4 41 35 ef 95 60 06 	vpxor  0x660(%r13),%ymm9,%ymm10
  4024bb:	00 00 
  4024bd:	c4 41 25 ef a5 20 07 	vpxor  0x720(%r13),%ymm11,%ymm12
  4024c4:	00 00 
  4024c6:	c4 c1 7e 7f b5 e0 06 	vmovdqu %ymm6,0x6e0(%r13)
  4024cd:	00 00 
  4024cf:	c4 41 7e 7f 85 a0 04 	vmovdqu %ymm8,0x4a0(%r13)
  4024d6:	00 00 
  4024d8:	c4 41 7e 7f 95 60 06 	vmovdqu %ymm10,0x660(%r13)
  4024df:	00 00 
  4024e1:	c4 41 7e 7f a5 20 07 	vmovdqu %ymm12,0x720(%r13)
  4024e8:	00 00 
  4024ea:	c4 41 7e 6f be c0 01 	vmovdqu 0x1c0(%r14),%ymm15
  4024f1:	00 00 
  4024f3:	48 8d b4 24 20 0a 00 	lea    0xa20(%rsp),%rsi
  4024fa:	00 
  4024fb:	c4 c1 7e 6f a6 c0 05 	vmovdqu 0x5c0(%r14),%ymm4
  402502:	00 00 
  402504:	c4 41 7e 6f ae 80 07 	vmovdqu 0x780(%r14),%ymm13
  40250b:	00 00 
  40250d:	c4 41 7e 6f 76 60    	vmovdqu 0x60(%r14),%ymm14
  402513:	c4 c1 7e 6f 9e a0 03 	vmovdqu 0x3a0(%r14),%ymm3
  40251a:	00 00 
  40251c:	c4 c1 05 ef 95 80 06 	vpxor  0x680(%r13),%ymm15,%ymm2
  402523:	00 00 
  402525:	c4 c1 5d ef ad 80 03 	vpxor  0x380(%r13),%ymm4,%ymm5
  40252c:	00 00 
  40252e:	c4 c1 15 ef 45 40    	vpxor  0x40(%r13),%ymm13,%ymm0
  402534:	c4 c1 0d ef 8d 80 07 	vpxor  0x780(%r13),%ymm14,%ymm1
  40253b:	00 00 
  40253d:	c4 c1 65 ef 9d 80 05 	vpxor  0x580(%r13),%ymm3,%ymm3
  402544:	00 00 
  402546:	c4 41 7e 6f be 80 01 	vmovdqu 0x180(%r14),%ymm15
  40254d:	00 00 
  40254f:	c5 fe 7f 46 e0       	vmovdqu %ymm0,-0x20(%rsi)
  402554:	c5 fe 7f 0e          	vmovdqu %ymm1,(%rsi)
  402558:	c5 fe 7f 56 20       	vmovdqu %ymm2,0x20(%rsi)
  40255d:	c5 fe 7f 5e 40       	vmovdqu %ymm3,0x40(%rsi)
  402562:	c4 c1 05 ef a5 80 04 	vpxor  0x480(%r13),%ymm15,%ymm4
  402569:	00 00 
  40256b:	48 8d 94 24 40 0a 00 	lea    0xa40(%rsp),%rdx
  402572:	00 
  402573:	48 8d 8c 24 60 0a 00 	lea    0xa60(%rsp),%rcx
  40257a:	00 
  40257b:	e8 20 76 00 00       	callq  409ba0 <sbox__4>
  402580:	c5 fe 6f ac 24 00 0a 	vmovdqu 0xa00(%rsp),%ymm5
  402587:	00 00 
  402589:	48 8d bc 24 80 0a 00 	lea    0xa80(%rsp),%rdi
  402590:	00 
  402591:	c5 fe 6f 7f a0       	vmovdqu -0x60(%rdi),%ymm7
  402596:	c5 7e 6f 4f c0       	vmovdqu -0x40(%rdi),%ymm9
  40259b:	c5 7e 6f 5f e0       	vmovdqu -0x20(%rdi),%ymm11
  4025a0:	c4 c1 55 ef 75 20    	vpxor  0x20(%r13),%ymm5,%ymm6
  4025a6:	c4 41 45 ef 85 60 02 	vpxor  0x260(%r13),%ymm7,%ymm8
  4025ad:	00 00 
  4025af:	c4 41 35 ef 95 e0 07 	vpxor  0x7e0(%r13),%ymm9,%ymm10
  4025b6:	00 00 
  4025b8:	c4 41 25 ef a5 20 05 	vpxor  0x520(%r13),%ymm11,%ymm12
  4025bf:	00 00 
  4025c1:	c4 c1 7e 7f 75 20    	vmovdqu %ymm6,0x20(%r13)
  4025c7:	c4 41 7e 7f 85 60 02 	vmovdqu %ymm8,0x260(%r13)
  4025ce:	00 00 
  4025d0:	c4 41 7e 7f 95 e0 07 	vmovdqu %ymm10,0x7e0(%r13)
  4025d7:	00 00 
  4025d9:	c4 41 7e 7f a5 20 05 	vmovdqu %ymm12,0x520(%r13)
  4025e0:	00 00 
  4025e2:	c4 41 7e 6f be 60 01 	vmovdqu 0x160(%r14),%ymm15
  4025e9:	00 00 
  4025eb:	48 8d b4 24 a0 0a 00 	lea    0xaa0(%rsp),%rsi
  4025f2:	00 
  4025f3:	c4 c1 7e 6f a6 80 00 	vmovdqu 0x80(%r14),%ymm4
  4025fa:	00 00 
  4025fc:	c4 41 7e 6f b6 a0 00 	vmovdqu 0xa0(%r14),%ymm14
  402603:	00 00 
  402605:	c4 41 7e 6f ae c0 02 	vmovdqu 0x2c0(%r14),%ymm13
  40260c:	00 00 
  40260e:	c4 c1 7e 6f 9e 80 03 	vmovdqu 0x380(%r14),%ymm3
  402615:	00 00 
  402617:	c4 c1 05 ef 95 80 02 	vpxor  0x280(%r13),%ymm15,%ymm2
  40261e:	00 00 
  402620:	c4 c1 5d ef ad c0 07 	vpxor  0x7c0(%r13),%ymm4,%ymm5
  402627:	00 00 
  402629:	c4 c1 15 ef 85 80 04 	vpxor  0x480(%r13),%ymm13,%ymm0
  402630:	00 00 
  402632:	c4 c1 0d ef 8d 80 03 	vpxor  0x380(%r13),%ymm14,%ymm1
  402639:	00 00 
  40263b:	c4 c1 65 ef 9d 80 01 	vpxor  0x180(%r13),%ymm3,%ymm3
  402642:	00 00 
  402644:	c4 41 7e 6f be a0 07 	vmovdqu 0x7a0(%r14),%ymm15
  40264b:	00 00 
  40264d:	c5 fe 7f 46 e0       	vmovdqu %ymm0,-0x20(%rsi)
  402652:	c5 fe 7f 0e          	vmovdqu %ymm1,(%rsi)
  402656:	c5 fe 7f 56 20       	vmovdqu %ymm2,0x20(%rsi)
  40265b:	c5 fe 7f 5e 40       	vmovdqu %ymm3,0x40(%rsi)
  402660:	c4 c1 05 ef a5 80 00 	vpxor  0x80(%r13),%ymm15,%ymm4
  402667:	00 00 
  402669:	48 8d 94 24 c0 0a 00 	lea    0xac0(%rsp),%rdx
  402670:	00 
  402671:	48 8d 8c 24 e0 0a 00 	lea    0xae0(%rsp),%rcx
  402678:	00 
  402679:	e8 72 76 00 00       	callq  409cf0 <sbox__5>
  40267e:	c5 fe 6f ac 24 80 0a 	vmovdqu 0xa80(%rsp),%ymm5
  402685:	00 00 
  402687:	48 8d bc 24 00 0b 00 	lea    0xb00(%rsp),%rdi
  40268e:	00 
  40268f:	c5 fe 6f 7f a0       	vmovdqu -0x60(%rdi),%ymm7
  402694:	c5 7e 6f 4f c0       	vmovdqu -0x40(%rdi),%ymm9
  402699:	c5 7e 6f 5f e0       	vmovdqu -0x20(%rdi),%ymm11
  40269e:	c4 c1 55 ef b5 20 04 	vpxor  0x420(%r13),%ymm5,%ymm6
  4026a5:	00 00 
  4026a7:	c4 41 45 ef 85 e0 03 	vpxor  0x3e0(%r13),%ymm7,%ymm8
  4026ae:	00 00 
  4026b0:	c4 41 35 ef 95 60 05 	vpxor  0x560(%r13),%ymm9,%ymm10
  4026b7:	00 00 
  4026b9:	c4 41 25 ef a5 a0 05 	vpxor  0x5a0(%r13),%ymm11,%ymm12
  4026c0:	00 00 
  4026c2:	c4 c1 7e 7f b5 20 04 	vmovdqu %ymm6,0x420(%r13)
  4026c9:	00 00 
  4026cb:	c4 41 7e 7f 85 e0 03 	vmovdqu %ymm8,0x3e0(%r13)
  4026d2:	00 00 
  4026d4:	c4 41 7e 7f 95 60 05 	vmovdqu %ymm10,0x560(%r13)
  4026db:	00 00 
  4026dd:	c4 41 7e 7f a5 a0 05 	vmovdqu %ymm12,0x5a0(%r13)
  4026e4:	00 00 
  4026e6:	c4 41 7e 6f be a0 01 	vmovdqu 0x1a0(%r14),%ymm15
  4026ed:	00 00 
  4026ef:	48 8d b4 24 20 0b 00 	lea    0xb20(%rsp),%rsi
  4026f6:	00 
  4026f7:	c4 c1 7e 6f a6 c0 07 	vmovdqu 0x7c0(%r14),%ymm4
  4026fe:	00 00 
  402700:	c4 41 7e 6f ae 80 04 	vmovdqu 0x480(%r14),%ymm13
  402707:	00 00 
  402709:	c4 c1 7e 6f 9e c0 04 	vmovdqu 0x4c0(%r14),%ymm3
  402710:	00 00 
  402712:	c4 41 7e 6f b6 60 03 	vmovdqu 0x360(%r14),%ymm14
  402719:	00 00 
  40271b:	c4 c1 05 ef 95 c0 06 	vpxor  0x6c0(%r13),%ymm15,%ymm2
  402722:	00 00 
  402724:	c4 c1 5d ef ad c0 03 	vpxor  0x3c0(%r13),%ymm4,%ymm5
  40272b:	00 00 
  40272d:	c4 c1 15 ef 85 80 00 	vpxor  0x80(%r13),%ymm13,%ymm0
  402734:	00 00 
  402736:	c4 c1 0d ef 8d c0 07 	vpxor  0x7c0(%r13),%ymm14,%ymm1
  40273d:	00 00 
  40273f:	c4 c1 65 ef 9d c0 05 	vpxor  0x5c0(%r13),%ymm3,%ymm3
  402746:	00 00 
  402748:	c4 41 7e 6f be a0 06 	vmovdqu 0x6a0(%r14),%ymm15
  40274f:	00 00 
  402751:	c5 fe 7f 46 e0       	vmovdqu %ymm0,-0x20(%rsi)
  402756:	c5 fe 7f 0e          	vmovdqu %ymm1,(%rsi)
  40275a:	c5 fe 7f 56 20       	vmovdqu %ymm2,0x20(%rsi)
  40275f:	c5 fe 7f 5e 40       	vmovdqu %ymm3,0x40(%rsi)
  402764:	c4 c1 05 ef a5 c0 04 	vpxor  0x4c0(%r13),%ymm15,%ymm4
  40276b:	00 00 
  40276d:	48 8d 94 24 40 0b 00 	lea    0xb40(%rsp),%rdx
  402774:	00 
  402775:	48 8d 8c 24 60 0b 00 	lea    0xb60(%rsp),%rcx
  40277c:	00 
  40277d:	e8 9e 76 00 00       	callq  409e20 <sbox__6>
  402782:	c5 fe 6f ac 24 00 0b 	vmovdqu 0xb00(%rsp),%ymm5
  402789:	00 00 
  40278b:	48 8d bc 24 80 0b 00 	lea    0xb80(%rsp),%rdi
  402792:	00 
  402793:	c5 fe 6f 7f a0       	vmovdqu -0x60(%rdi),%ymm7
  402798:	c5 7e 6f 4f c0       	vmovdqu -0x40(%rdi),%ymm9
  40279d:	c5 7e 6f 5f e0       	vmovdqu -0x20(%rdi),%ymm11
  4027a2:	c4 c1 55 ef b5 e0 00 	vpxor  0xe0(%r13),%ymm5,%ymm6
  4027a9:	00 00 
  4027ab:	c4 41 45 ef 85 60 04 	vpxor  0x460(%r13),%ymm7,%ymm8
  4027b2:	00 00 
  4027b4:	c4 41 35 ef 95 a0 02 	vpxor  0x2a0(%r13),%ymm9,%ymm10
  4027bb:	00 00 
  4027bd:	c4 41 25 ef a5 20 01 	vpxor  0x120(%r13),%ymm11,%ymm12
  4027c4:	00 00 
  4027c6:	c4 c1 7e 7f b5 e0 00 	vmovdqu %ymm6,0xe0(%r13)
  4027cd:	00 00 
  4027cf:	c4 41 7e 7f 85 60 04 	vmovdqu %ymm8,0x460(%r13)
  4027d6:	00 00 
  4027d8:	c4 41 7e 7f 95 a0 02 	vmovdqu %ymm10,0x2a0(%r13)
  4027df:	00 00 
  4027e1:	c4 41 7e 7f a5 20 01 	vmovdqu %ymm12,0x120(%r13)
  4027e8:	00 00 
  4027ea:	c4 41 7e 6f be 60 02 	vmovdqu 0x260(%r14),%ymm15
  4027f1:	00 00 
  4027f3:	48 8d b4 24 a0 0b 00 	lea    0xba0(%rsp),%rsi
  4027fa:	00 
  4027fb:	c4 c1 7e 6f a6 c0 00 	vmovdqu 0xc0(%r14),%ymm4
  402802:	00 00 
  402804:	c4 41 7e 6f ae 80 02 	vmovdqu 0x280(%r14),%ymm13
  40280b:	00 00 
  40280d:	c4 41 7e 6f b6 80 06 	vmovdqu 0x680(%r14),%ymm14
  402814:	00 00 
  402816:	c4 c1 7e 6f 9e a0 04 	vmovdqu 0x4a0(%r14),%ymm3
  40281d:	00 00 
  40281f:	c4 c1 05 ef 95 c0 02 	vpxor  0x2c0(%r13),%ymm15,%ymm2
  402826:	00 00 
  402828:	c4 c1 5d ef ad 00 07 	vpxor  0x700(%r13),%ymm4,%ymm5
  40282f:	00 00 
  402831:	c4 c1 15 ef 85 c0 04 	vpxor  0x4c0(%r13),%ymm13,%ymm0
  402838:	00 00 
  40283a:	c4 c1 0d ef 8d c0 03 	vpxor  0x3c0(%r13),%ymm14,%ymm1
  402841:	00 00 
  402843:	c4 c1 65 ef 9d c0 01 	vpxor  0x1c0(%r13),%ymm3,%ymm3
  40284a:	00 00 
  40284c:	c4 41 7e 6f be c0 03 	vmovdqu 0x3c0(%r14),%ymm15
  402853:	00 00 
  402855:	c5 fe 7f 46 e0       	vmovdqu %ymm0,-0x20(%rsi)
  40285a:	c5 fe 7f 0e          	vmovdqu %ymm1,(%rsi)
  40285e:	c5 fe 7f 56 20       	vmovdqu %ymm2,0x20(%rsi)
  402863:	c5 fe 7f 5e 40       	vmovdqu %ymm3,0x40(%rsi)
  402868:	c4 c1 05 ef a5 c0 00 	vpxor  0xc0(%r13),%ymm15,%ymm4
  40286f:	00 00 
  402871:	48 8d 94 24 c0 0b 00 	lea    0xbc0(%rsp),%rdx
  402878:	00 
  402879:	48 8d 8c 24 e0 0b 00 	lea    0xbe0(%rsp),%rcx
  402880:	00 
  402881:	e8 ba 76 00 00       	callq  409f40 <sbox__7>
  402886:	c5 fe 6f ac 24 80 0b 	vmovdqu 0xb80(%rsp),%ymm5
  40288d:	00 00 
  40288f:	48 8d bc 24 00 0c 00 	lea    0xc00(%rsp),%rdi
  402896:	00 
  402897:	c5 fe 6f 77 a0       	vmovdqu -0x60(%rdi),%ymm6
  40289c:	c5 7e 6f 47 c0       	vmovdqu -0x40(%rdi),%ymm8
  4028a1:	c5 7e 6f 57 e0       	vmovdqu -0x20(%rdi),%ymm10
  4028a6:	c4 c1 55 ef a5 20 03 	vpxor  0x320(%r13),%ymm5,%ymm4
  4028ad:	00 00 
  4028af:	c4 c1 4d ef bd e0 05 	vpxor  0x5e0(%r13),%ymm6,%ymm7
  4028b6:	00 00 
  4028b8:	c4 41 3d ef 8d 60 01 	vpxor  0x160(%r13),%ymm8,%ymm9
  4028bf:	00 00 
  4028c1:	c4 41 2d ef 9d a0 03 	vpxor  0x3a0(%r13),%ymm10,%ymm11
  4028c8:	00 00 
  4028ca:	c4 c1 7e 7f a5 20 03 	vmovdqu %ymm4,0x320(%r13)
  4028d1:	00 00 
  4028d3:	c4 c1 7e 7f bd e0 05 	vmovdqu %ymm7,0x5e0(%r13)
  4028da:	00 00 
  4028dc:	c4 41 7e 7f 8d 60 01 	vmovdqu %ymm9,0x160(%r13)
  4028e3:	00 00 
  4028e5:	c4 41 7e 7f 9d a0 03 	vmovdqu %ymm11,0x3a0(%r13)
  4028ec:	00 00 
  4028ee:	c4 41 7e 6f be 00 06 	vmovdqu 0x600(%r14),%ymm15
  4028f5:	00 00 
  4028f7:	48 8d b4 24 20 0c 00 	lea    0xc20(%rsp),%rsi
  4028fe:	00 
  4028ff:	c4 41 7e 6f a6 40 04 	vmovdqu 0x440(%r14),%ymm12
  402906:	00 00 
  402908:	c4 41 7e 6f ae 40 01 	vmovdqu 0x140(%r14),%ymm13
  40290f:	00 00 
  402911:	c4 41 7e 6f b6 40 07 	vmovdqu 0x740(%r14),%ymm14
  402918:	00 00 
  40291a:	c4 c1 05 ef 9d 20 05 	vpxor  0x520(%r13),%ymm15,%ymm3
  402921:	00 00 
  402923:	c4 c1 5d ef ae 20 05 	vpxor  0x520(%r14),%ymm4,%ymm5
  40292a:	00 00 
  40292c:	c4 c1 1d ef 85 e0 00 	vpxor  0xe0(%r13),%ymm12,%ymm0
  402933:	00 00 
  402935:	c4 c1 15 ef 8d 20 07 	vpxor  0x720(%r13),%ymm13,%ymm1
  40293c:	00 00 
  40293e:	c4 c1 0d ef 95 20 06 	vpxor  0x620(%r13),%ymm14,%ymm2
  402945:	00 00 
  402947:	c4 41 7e 6f be 00 01 	vmovdqu 0x100(%r14),%ymm15
  40294e:	00 00 
  402950:	c5 fe 7f 46 e0       	vmovdqu %ymm0,-0x20(%rsi)
  402955:	c5 fe 7f 0e          	vmovdqu %ymm1,(%rsi)
  402959:	c5 fe 7f 56 20       	vmovdqu %ymm2,0x20(%rsi)
  40295e:	c5 fe 7f 5e 40       	vmovdqu %ymm3,0x40(%rsi)
  402963:	c4 c1 05 ef a5 20 04 	vpxor  0x420(%r13),%ymm15,%ymm4
  40296a:	00 00 
  40296c:	48 8d 94 24 40 0c 00 	lea    0xc40(%rsp),%rdx
  402973:	00 
  402974:	48 8d 8c 24 60 0c 00 	lea    0xc60(%rsp),%rcx
  40297b:	00 
  40297c:	e8 9f 6e 00 00       	callq  409820 <sbox__0>
  402981:	c5 fe 6f ac 24 00 0c 	vmovdqu 0xc00(%rsp),%ymm5
  402988:	00 00 
  40298a:	48 8d bc 24 80 0c 00 	lea    0xc80(%rsp),%rdi
  402991:	00 
  402992:	c5 fe 6f 7f a0       	vmovdqu -0x60(%rdi),%ymm7
  402997:	c5 7e 6f 4f c0       	vmovdqu -0x40(%rdi),%ymm9
  40299c:	c5 7e 6f 5f e0       	vmovdqu -0x20(%rdi),%ymm11
  4029a1:	c4 c1 55 ef b5 40 07 	vpxor  0x740(%r13),%ymm5,%ymm6
  4029a8:	00 00 
  4029aa:	c4 41 45 ef 85 80 07 	vpxor  0x780(%r13),%ymm7,%ymm8
  4029b1:	00 00 
  4029b3:	c4 41 35 ef 95 80 01 	vpxor  0x180(%r13),%ymm9,%ymm10
  4029ba:	00 00 
  4029bc:	c4 41 25 ef a5 c0 01 	vpxor  0x1c0(%r13),%ymm11,%ymm12
  4029c3:	00 00 
  4029c5:	c4 c1 7e 7f b5 40 07 	vmovdqu %ymm6,0x740(%r13)
  4029cc:	00 00 
  4029ce:	c4 41 7e 7f 85 80 07 	vmovdqu %ymm8,0x780(%r13)
  4029d5:	00 00 
  4029d7:	c4 41 7e 7f 95 80 01 	vmovdqu %ymm10,0x180(%r13)
  4029de:	00 00 
  4029e0:	c4 41 7e 7f a5 c0 01 	vmovdqu %ymm12,0x1c0(%r13)
  4029e7:	00 00 
  4029e9:	c4 41 7e 6f be 40 03 	vmovdqu 0x340(%r14),%ymm15
  4029f0:	00 00 
  4029f2:	48 8d b4 24 a0 0c 00 	lea    0xca0(%rsp),%rsi
  4029f9:	00 
  4029fa:	c4 c1 7e 6f 66 20    	vmovdqu 0x20(%r14),%ymm4
  402a00:	c4 41 7e 6f ae 20 07 	vmovdqu 0x720(%r14),%ymm13
  402a07:	00 00 
  402a09:	c4 41 7e 6f b6 00 02 	vmovdqu 0x200(%r14),%ymm14
  402a10:	00 00 
  402a12:	c4 c1 7e 6f 9e 20 04 	vmovdqu 0x420(%r14),%ymm3
  402a19:	00 00 
  402a1b:	c4 c1 05 ef 95 20 02 	vpxor  0x220(%r13),%ymm15,%ymm2
  402a22:	00 00 
  402a24:	c4 c1 5d ef ad 60 07 	vpxor  0x760(%r13),%ymm4,%ymm5
  402a2b:	00 00 
  402a2d:	c4 c1 15 ef 85 20 04 	vpxor  0x420(%r13),%ymm13,%ymm0
  402a34:	00 00 
  402a36:	c4 c1 0d ef 8d 20 03 	vpxor  0x320(%r13),%ymm14,%ymm1
  402a3d:	00 00 
  402a3f:	c4 c1 65 ef 9d 20 01 	vpxor  0x120(%r13),%ymm3,%ymm3
  402a46:	00 00 
  402a48:	c4 41 7e 6f be 60 05 	vmovdqu 0x560(%r14),%ymm15
  402a4f:	00 00 
  402a51:	c5 fe 7f 46 e0       	vmovdqu %ymm0,-0x20(%rsi)
  402a56:	c5 fe 7f 0e          	vmovdqu %ymm1,(%rsi)
  402a5a:	c5 fe 7f 56 20       	vmovdqu %ymm2,0x20(%rsi)
  402a5f:	c5 fe 7f 5e 40       	vmovdqu %ymm3,0x40(%rsi)
  402a64:	c4 c1 05 ef 65 20    	vpxor  0x20(%r13),%ymm15,%ymm4
  402a6a:	48 8d 94 24 c0 0c 00 	lea    0xcc0(%rsp),%rdx
  402a71:	00 
  402a72:	48 8d 8c 24 e0 0c 00 	lea    0xce0(%rsp),%rcx
  402a79:	00 
  402a7a:	e8 f1 6e 00 00       	callq  409970 <sbox__1>
  402a7f:	c5 fe 6f ac 24 80 0c 	vmovdqu 0xc80(%rsp),%ymm5
  402a86:	00 00 
  402a88:	48 8d bc 24 00 0d 00 	lea    0xd00(%rsp),%rdi
  402a8f:	00 
  402a90:	c5 fe 6f 7f a0       	vmovdqu -0x60(%rdi),%ymm7
  402a95:	c5 7e 6f 4f c0       	vmovdqu -0x40(%rdi),%ymm9
  402a9a:	c5 7e 6f 5f e0       	vmovdqu -0x20(%rdi),%ymm11
  402a9f:	c4 c1 55 ef b5 40 03 	vpxor  0x340(%r13),%ymm5,%ymm6
  402aa6:	00 00 
  402aa8:	c4 41 45 ef 85 c0 04 	vpxor  0x4c0(%r13),%ymm7,%ymm8
  402aaf:	00 00 
  402ab1:	c4 41 35 ef 95 00 06 	vpxor  0x600(%r13),%ymm9,%ymm10
  402ab8:	00 00 
  402aba:	c4 41 25 ef a5 80 06 	vpxor  0x680(%r13),%ymm11,%ymm12
  402ac1:	00 00 
  402ac3:	c4 c1 7e 7f b5 40 03 	vmovdqu %ymm6,0x340(%r13)
  402aca:	00 00 
  402acc:	c4 41 7e 7f 85 c0 04 	vmovdqu %ymm8,0x4c0(%r13)
  402ad3:	00 00 
  402ad5:	c4 41 7e 7f 95 00 06 	vmovdqu %ymm10,0x600(%r13)
  402adc:	00 00 
  402ade:	c4 41 7e 7f a5 80 06 	vmovdqu %ymm12,0x680(%r13)
  402ae5:	00 00 
  402ae7:	c4 41 7e 6f be 40 06 	vmovdqu 0x640(%r14),%ymm15
  402aee:	00 00 
  402af0:	48 8d b4 24 20 0d 00 	lea    0xd20(%rsp),%rsi
  402af7:	00 
  402af8:	c4 c1 7e 6f a6 20 02 	vmovdqu 0x220(%r14),%ymm4
  402aff:	00 00 
  402b01:	c4 41 7e 6f ae 00 07 	vmovdqu 0x700(%r14),%ymm13
  402b08:	00 00 
  402b0a:	c4 41 7e 6f b6 60 07 	vmovdqu 0x760(%r14),%ymm14
  402b11:	00 00 
  402b13:	c4 c1 7e 6f 9e 20 06 	vmovdqu 0x620(%r14),%ymm3
  402b1a:	00 00 
  402b1c:	c4 c1 05 ef 95 60 06 	vpxor  0x660(%r13),%ymm15,%ymm2
  402b23:	00 00 
  402b25:	c4 c1 5d ef ad 60 03 	vpxor  0x360(%r13),%ymm4,%ymm5
  402b2c:	00 00 
  402b2e:	c4 c1 15 ef 45 20    	vpxor  0x20(%r13),%ymm13,%ymm0
  402b34:	c4 c1 0d ef 8d 60 07 	vpxor  0x760(%r13),%ymm14,%ymm1
  402b3b:	00 00 
  402b3d:	c4 c1 65 ef 9d 60 05 	vpxor  0x560(%r13),%ymm3,%ymm3
  402b44:	00 00 
  402b46:	c4 41 7e 6f be 00 04 	vmovdqu 0x400(%r14),%ymm15
  402b4d:	00 00 
  402b4f:	c5 fe 7f 46 e0       	vmovdqu %ymm0,-0x20(%rsi)
  402b54:	c5 fe 7f 0e          	vmovdqu %ymm1,(%rsi)
  402b58:	c5 fe 7f 56 20       	vmovdqu %ymm2,0x20(%rsi)
  402b5d:	c5 fe 7f 5e 40       	vmovdqu %ymm3,0x40(%rsi)
  402b62:	c4 c1 05 ef a5 60 04 	vpxor  0x460(%r13),%ymm15,%ymm4
  402b69:	00 00 
  402b6b:	48 8d 94 24 40 0d 00 	lea    0xd40(%rsp),%rdx
  402b72:	00 
  402b73:	48 8d 8c 24 60 0d 00 	lea    0xd60(%rsp),%rcx
  402b7a:	00 
  402b7b:	e8 00 6f 00 00       	callq  409a80 <sbox__2>
  402b80:	c5 fe 6f ac 24 00 0d 	vmovdqu 0xd00(%rsp),%ymm5
  402b87:	00 00 
  402b89:	48 8d bc 24 80 0d 00 	lea    0xd80(%rsp),%rdi
  402b90:	00 
  402b91:	c5 fe 6f 7f a0       	vmovdqu -0x60(%rdi),%ymm7
  402b96:	c5 7e 6f 4f c0       	vmovdqu -0x40(%rdi),%ymm9
  402b9b:	c5 7e 6f 5f e0       	vmovdqu -0x20(%rdi),%ymm11
  402ba0:	c4 c1 55 ef b5 80 00 	vpxor  0x80(%r13),%ymm5,%ymm6
  402ba7:	00 00 
  402ba9:	c4 41 45 ef 45 40    	vpxor  0x40(%r13),%ymm7,%ymm8
  402baf:	c4 41 35 ef 95 c0 02 	vpxor  0x2c0(%r13),%ymm9,%ymm10
  402bb6:	00 00 
  402bb8:	c4 41 25 ef a5 00 02 	vpxor  0x200(%r13),%ymm11,%ymm12
  402bbf:	00 00 
  402bc1:	c4 c1 7e 7f b5 80 00 	vmovdqu %ymm6,0x80(%r13)
  402bc8:	00 00 
  402bca:	c4 41 7e 7f 45 40    	vmovdqu %ymm8,0x40(%r13)
  402bd0:	c4 41 7e 7f 95 c0 02 	vmovdqu %ymm10,0x2c0(%r13)
  402bd7:	00 00 
  402bd9:	c4 41 7e 7f a5 00 02 	vmovdqu %ymm12,0x200(%r13)
  402be0:	00 00 
  402be2:	c4 41 7e 6f be 00 03 	vmovdqu 0x300(%r14),%ymm15
  402be9:	00 00 
  402beb:	48 8d b4 24 a0 0d 00 	lea    0xda0(%rsp),%rsi
  402bf2:	00 
  402bf3:	c4 c1 7e 6f 26       	vmovdqu (%r14),%ymm4
  402bf8:	c4 41 7e 6f ae 40 02 	vmovdqu 0x240(%r14),%ymm13
  402bff:	00 00 
  402c01:	c4 41 7e 6f b6 20 03 	vmovdqu 0x320(%r14),%ymm14
  402c08:	00 00 
  402c0a:	c4 c1 7e 6f 9e 60 06 	vmovdqu 0x660(%r14),%ymm3
  402c11:	00 00 
  402c13:	c4 c1 05 ef 95 60 02 	vpxor  0x260(%r13),%ymm15,%ymm2
  402c1a:	00 00 
  402c1c:	c4 c1 5d ef ad a0 07 	vpxor  0x7a0(%r13),%ymm4,%ymm5
  402c23:	00 00 
  402c25:	c4 c1 15 ef 85 60 04 	vpxor  0x460(%r13),%ymm13,%ymm0
  402c2c:	00 00 
  402c2e:	c4 c1 0d ef 8d 60 03 	vpxor  0x360(%r13),%ymm14,%ymm1
  402c35:	00 00 
  402c37:	c4 c1 65 ef 9d 60 01 	vpxor  0x160(%r13),%ymm3,%ymm3
  402c3e:	00 00 
  402c40:	c4 41 7e 6f be 40 05 	vmovdqu 0x540(%r14),%ymm15
  402c47:	00 00 
  402c49:	c5 fe 7f 46 e0       	vmovdqu %ymm0,-0x20(%rsi)
  402c4e:	c5 fe 7f 0e          	vmovdqu %ymm1,(%rsi)
  402c52:	c5 fe 7f 56 20       	vmovdqu %ymm2,0x20(%rsi)
  402c57:	c5 fe 7f 5e 40       	vmovdqu %ymm3,0x40(%rsi)
  402c5c:	c4 c1 05 ef 65 60    	vpxor  0x60(%r13),%ymm15,%ymm4
  402c62:	48 8d 94 24 c0 0d 00 	lea    0xdc0(%rsp),%rdx
  402c69:	00 
  402c6a:	48 8d 8c 24 e0 0d 00 	lea    0xde0(%rsp),%rcx
  402c71:	00 
  402c72:	e8 d9 73 00 00       	callq  40a050 <sbox__3>
  402c77:	c5 fe 6f ac 24 80 0d 	vmovdqu 0xd80(%rsp),%ymm5
  402c7e:	00 00 
  402c80:	48 8d bc 24 00 0e 00 	lea    0xe00(%rsp),%rdi
  402c87:	00 
  402c88:	c5 fe 6f 7f a0       	vmovdqu -0x60(%rdi),%ymm7
  402c8d:	c5 7e 6f 4f c0       	vmovdqu -0x40(%rdi),%ymm9
  402c92:	c5 7e 6f 5f e0       	vmovdqu -0x20(%rdi),%ymm11
  402c97:	c4 c1 55 ef b5 c0 06 	vpxor  0x6c0(%r13),%ymm5,%ymm6
  402c9e:	00 00 
  402ca0:	c4 41 45 ef 85 80 04 	vpxor  0x480(%r13),%ymm7,%ymm8
  402ca7:	00 00 
  402ca9:	c4 41 35 ef 95 40 06 	vpxor  0x640(%r13),%ymm9,%ymm10
  402cb0:	00 00 
  402cb2:	c4 41 25 ef a5 00 07 	vpxor  0x700(%r13),%ymm11,%ymm12
  402cb9:	00 00 
  402cbb:	c4 c1 7e 7f b5 c0 06 	vmovdqu %ymm6,0x6c0(%r13)
  402cc2:	00 00 
  402cc4:	c4 41 7e 7f 85 80 04 	vmovdqu %ymm8,0x480(%r13)
  402ccb:	00 00 
  402ccd:	c4 41 7e 7f 95 40 06 	vmovdqu %ymm10,0x640(%r13)
  402cd4:	00 00 
  402cd6:	c4 41 7e 7f a5 00 07 	vmovdqu %ymm12,0x700(%r13)
  402cdd:	00 00 
  402cdf:	c4 41 7e 6f be a0 07 	vmovdqu 0x7a0(%r14),%ymm15
  402ce6:	00 00 
  402ce8:	48 8d b4 24 20 0e 00 	lea    0xe20(%rsp),%rsi
  402cef:	00 
  402cf0:	c4 c1 7e 6f a6 c0 03 	vmovdqu 0x3c0(%r14),%ymm4
  402cf7:	00 00 
  402cf9:	c4 41 7e 6f ae 80 05 	vmovdqu 0x580(%r14),%ymm13
  402d00:	00 00 
  402d02:	c4 41 7e 6f b6 c0 06 	vmovdqu 0x6c0(%r14),%ymm14
  402d09:	00 00 
  402d0b:	c4 c1 7e 6f 9e a0 01 	vmovdqu 0x1a0(%r14),%ymm3
  402d12:	00 00 
  402d14:	c4 c1 05 ef 95 a0 06 	vpxor  0x6a0(%r13),%ymm15,%ymm2
  402d1b:	00 00 
  402d1d:	c4 c1 5d ef ad a0 03 	vpxor  0x3a0(%r13),%ymm4,%ymm5
  402d24:	00 00 
  402d26:	c4 c1 15 ef 45 60    	vpxor  0x60(%r13),%ymm13,%ymm0
  402d2c:	c4 c1 0d ef 8d a0 07 	vpxor  0x7a0(%r13),%ymm14,%ymm1
  402d33:	00 00 
  402d35:	c4 c1 65 ef 9d a0 05 	vpxor  0x5a0(%r13),%ymm3,%ymm3
  402d3c:	00 00 
  402d3e:	c4 41 7e 6f be 60 03 	vmovdqu 0x360(%r14),%ymm15
  402d45:	00 00 
  402d47:	c5 fe 7f 46 e0       	vmovdqu %ymm0,-0x20(%rsi)
  402d4c:	c5 fe 7f 0e          	vmovdqu %ymm1,(%rsi)
  402d50:	c5 fe 7f 56 20       	vmovdqu %ymm2,0x20(%rsi)
  402d55:	c5 fe 7f 5e 40       	vmovdqu %ymm3,0x40(%rsi)
  402d5a:	c4 c1 05 ef a5 a0 04 	vpxor  0x4a0(%r13),%ymm15,%ymm4
  402d61:	00 00 
  402d63:	48 8d 94 24 40 0e 00 	lea    0xe40(%rsp),%rdx
  402d6a:	00 
  402d6b:	48 8d 8c 24 60 0e 00 	lea    0xe60(%rsp),%rcx
  402d72:	00 
  402d73:	e8 28 6e 00 00       	callq  409ba0 <sbox__4>
  402d78:	c5 fe 6f ac 24 00 0e 	vmovdqu 0xe00(%rsp),%ymm5
  402d7f:	00 00 
  402d81:	48 8d bc 24 80 0e 00 	lea    0xe80(%rsp),%rdi
  402d88:	00 
  402d89:	c5 fe 6f 7f a0       	vmovdqu -0x60(%rdi),%ymm7
  402d8e:	c5 7e 6f 4f c0       	vmovdqu -0x40(%rdi),%ymm9
  402d93:	c5 7e 6f 5f e0       	vmovdqu -0x20(%rdi),%ymm11
  402d98:	c4 c1 55 ef 75 00    	vpxor  0x0(%r13),%ymm5,%ymm6
  402d9e:	c4 41 45 ef 85 40 02 	vpxor  0x240(%r13),%ymm7,%ymm8
  402da5:	00 00 
  402da7:	c4 41 35 ef 95 c0 07 	vpxor  0x7c0(%r13),%ymm9,%ymm10
  402dae:	00 00 
  402db0:	c4 41 25 ef a5 00 05 	vpxor  0x500(%r13),%ymm11,%ymm12
  402db7:	00 00 
  402db9:	c4 c1 7e 7f 75 00    	vmovdqu %ymm6,0x0(%r13)
  402dbf:	c4 41 7e 7f 85 40 02 	vmovdqu %ymm8,0x240(%r13)
  402dc6:	00 00 
  402dc8:	c4 41 7e 7f 95 c0 07 	vmovdqu %ymm10,0x7c0(%r13)
  402dcf:	00 00 
  402dd1:	c4 41 7e 7f a5 00 05 	vmovdqu %ymm12,0x500(%r13)
  402dd8:	00 00 
  402dda:	c4 41 7e 6f be c0 07 	vmovdqu 0x7c0(%r14),%ymm15
  402de1:	00 00 
  402de3:	48 8d b4 24 a0 0e 00 	lea    0xea0(%rsp),%rsi
  402dea:	00 
  402deb:	c4 c1 7e 6f a6 60 02 	vmovdqu 0x260(%r14),%ymm4
  402df2:	00 00 
  402df4:	c4 41 7e 6f ae c0 00 	vmovdqu 0xc0(%r14),%ymm13
  402dfb:	00 00 
  402dfd:	c4 41 7e 6f b6 80 06 	vmovdqu 0x680(%r14),%ymm14
  402e04:	00 00 
  402e06:	c4 c1 7e 6f 9e 80 01 	vmovdqu 0x180(%r14),%ymm3
  402e0d:	00 00 
  402e0f:	c4 c1 05 ef 95 a0 02 	vpxor  0x2a0(%r13),%ymm15,%ymm2
  402e16:	00 00 
  402e18:	c4 c1 5d ef ad e0 07 	vpxor  0x7e0(%r13),%ymm4,%ymm5
  402e1f:	00 00 
  402e21:	c4 c1 15 ef 85 a0 04 	vpxor  0x4a0(%r13),%ymm13,%ymm0
  402e28:	00 00 
  402e2a:	c4 c1 0d ef 8d a0 03 	vpxor  0x3a0(%r13),%ymm14,%ymm1
  402e31:	00 00 
  402e33:	c4 c1 65 ef 9d a0 01 	vpxor  0x1a0(%r13),%ymm3,%ymm3
  402e3a:	00 00 
  402e3c:	c4 41 7e 6f be a0 05 	vmovdqu 0x5a0(%r14),%ymm15
  402e43:	00 00 
  402e45:	c5 fe 7f 46 e0       	vmovdqu %ymm0,-0x20(%rsi)
  402e4a:	c5 fe 7f 0e          	vmovdqu %ymm1,(%rsi)
  402e4e:	c5 fe 7f 56 20       	vmovdqu %ymm2,0x20(%rsi)
  402e53:	c5 fe 7f 5e 40       	vmovdqu %ymm3,0x40(%rsi)
  402e58:	c4 c1 05 ef a5 a0 00 	vpxor  0xa0(%r13),%ymm15,%ymm4
  402e5f:	00 00 
  402e61:	48 8d 94 24 c0 0e 00 	lea    0xec0(%rsp),%rdx
  402e68:	00 
  402e69:	48 8d 8c 24 e0 0e 00 	lea    0xee0(%rsp),%rcx
  402e70:	00 
  402e71:	e8 7a 6e 00 00       	callq  409cf0 <sbox__5>
  402e76:	c5 fe 6f ac 24 80 0e 	vmovdqu 0xe80(%rsp),%ymm5
  402e7d:	00 00 
  402e7f:	48 8d bc 24 00 0f 00 	lea    0xf00(%rsp),%rdi
  402e86:	00 
  402e87:	c5 fe 6f 7f a0       	vmovdqu -0x60(%rdi),%ymm7
  402e8c:	c5 7e 6f 4f c0       	vmovdqu -0x40(%rdi),%ymm9
  402e91:	c5 7e 6f 5f e0       	vmovdqu -0x20(%rdi),%ymm11
  402e96:	c4 c1 55 ef b5 00 04 	vpxor  0x400(%r13),%ymm5,%ymm6
  402e9d:	00 00 
  402e9f:	c4 41 45 ef 85 c0 03 	vpxor  0x3c0(%r13),%ymm7,%ymm8
  402ea6:	00 00 
  402ea8:	c4 41 35 ef 95 40 05 	vpxor  0x540(%r13),%ymm9,%ymm10
  402eaf:	00 00 
  402eb1:	c4 41 25 ef a5 80 05 	vpxor  0x580(%r13),%ymm11,%ymm12
  402eb8:	00 00 
  402eba:	c4 c1 7e 7f b5 00 04 	vmovdqu %ymm6,0x400(%r13)
  402ec1:	00 00 
  402ec3:	c4 41 7e 7f 85 c0 03 	vmovdqu %ymm8,0x3c0(%r13)
  402eca:	00 00 
  402ecc:	c4 41 7e 7f 95 40 05 	vmovdqu %ymm10,0x540(%r13)
  402ed3:	00 00 
  402ed5:	c4 41 7e 7f a5 80 05 	vmovdqu %ymm12,0x580(%r13)
  402edc:	00 00 
  402ede:	c4 41 7e 6f be 80 07 	vmovdqu 0x780(%r14),%ymm15
  402ee5:	00 00 
  402ee7:	48 8d b4 24 20 0f 00 	lea    0xf20(%rsp),%rsi
  402eee:	00 
  402eef:	c4 c1 7e 6f a6 c0 05 	vmovdqu 0x5c0(%r14),%ymm4
  402ef6:	00 00 
  402ef8:	c4 41 7e 6f ae 80 02 	vmovdqu 0x280(%r14),%ymm13
  402eff:	00 00 
  402f01:	c4 c1 7e 6f 9e c0 02 	vmovdqu 0x2c0(%r14),%ymm3
  402f08:	00 00 
  402f0a:	c4 41 7e 6f b6 60 01 	vmovdqu 0x160(%r14),%ymm14
  402f11:	00 00 
  402f13:	c4 c1 05 ef 95 e0 06 	vpxor  0x6e0(%r13),%ymm15,%ymm2
  402f1a:	00 00 
  402f1c:	c4 c1 5d ef ad e0 03 	vpxor  0x3e0(%r13),%ymm4,%ymm5
  402f23:	00 00 
  402f25:	c4 c1 15 ef 85 a0 00 	vpxor  0xa0(%r13),%ymm13,%ymm0
  402f2c:	00 00 
  402f2e:	c4 c1 0d ef 8d e0 07 	vpxor  0x7e0(%r13),%ymm14,%ymm1
  402f35:	00 00 
  402f37:	c4 c1 65 ef 9d e0 05 	vpxor  0x5e0(%r13),%ymm3,%ymm3
  402f3e:	00 00 
  402f40:	c4 41 7e 6f be a0 04 	vmovdqu 0x4a0(%r14),%ymm15
  402f47:	00 00 
  402f49:	c5 fe 7f 46 e0       	vmovdqu %ymm0,-0x20(%rsi)
  402f4e:	c5 fe 7f 0e          	vmovdqu %ymm1,(%rsi)
  402f52:	c5 fe 7f 56 20       	vmovdqu %ymm2,0x20(%rsi)
  402f57:	c5 fe 7f 5e 40       	vmovdqu %ymm3,0x40(%rsi)
  402f5c:	c4 c1 05 ef a5 e0 04 	vpxor  0x4e0(%r13),%ymm15,%ymm4
  402f63:	00 00 
  402f65:	48 8d 94 24 40 0f 00 	lea    0xf40(%rsp),%rdx
  402f6c:	00 
  402f6d:	48 8d 8c 24 60 0f 00 	lea    0xf60(%rsp),%rcx
  402f74:	00 
  402f75:	e8 a6 6e 00 00       	callq  409e20 <sbox__6>
  402f7a:	c5 fe 6f ac 24 00 0f 	vmovdqu 0xf00(%rsp),%ymm5
  402f81:	00 00 
  402f83:	48 8d bc 24 80 0f 00 	lea    0xf80(%rsp),%rdi
  402f8a:	00 
  402f8b:	c5 fe 6f 7f a0       	vmovdqu -0x60(%rdi),%ymm7
  402f90:	c5 7e 6f 4f c0       	vmovdqu -0x40(%rdi),%ymm9
  402f95:	c5 7e 6f 5f e0       	vmovdqu -0x20(%rdi),%ymm11
  402f9a:	c4 c1 55 ef b5 c0 00 	vpxor  0xc0(%r13),%ymm5,%ymm6
  402fa1:	00 00 
  402fa3:	c4 41 45 ef 85 40 04 	vpxor  0x440(%r13),%ymm7,%ymm8
  402faa:	00 00 
  402fac:	c4 41 35 ef 95 80 02 	vpxor  0x280(%r13),%ymm9,%ymm10
  402fb3:	00 00 
  402fb5:	c4 41 25 ef a5 00 01 	vpxor  0x100(%r13),%ymm11,%ymm12
  402fbc:	00 00 
  402fbe:	c4 c1 7e 7f b5 c0 00 	vmovdqu %ymm6,0xc0(%r13)
  402fc5:	00 00 
  402fc7:	c4 41 7e 7f 85 40 04 	vmovdqu %ymm8,0x440(%r13)
  402fce:	00 00 
  402fd0:	c4 41 7e 7f 95 80 02 	vmovdqu %ymm10,0x280(%r13)
  402fd7:	00 00 
  402fd9:	c4 41 7e 7f a5 00 01 	vmovdqu %ymm12,0x100(%r13)
  402fe0:	00 00 
  402fe2:	c4 41 7e 6f 7e 60    	vmovdqu 0x60(%r14),%ymm15
  402fe8:	48 8d b4 24 a0 0f 00 	lea    0xfa0(%rsp),%rsi
  402fef:	00 
  402ff0:	c4 c1 7e 6f a6 a0 06 	vmovdqu 0x6a0(%r14),%ymm4
  402ff7:	00 00 
  402ff9:	c4 41 7e 6f ae 80 00 	vmovdqu 0x80(%r14),%ymm13
  403000:	00 00 
  403002:	c4 41 7e 6f b6 80 04 	vmovdqu 0x480(%r14),%ymm14
  403009:	00 00 
  40300b:	c4 c1 7e 6f 9e a0 02 	vmovdqu 0x2a0(%r14),%ymm3
  403012:	00 00 
  403014:	c4 c1 05 ef 95 e0 02 	vpxor  0x2e0(%r13),%ymm15,%ymm2
  40301b:	00 00 
  40301d:	c4 c1 5d ef ad 20 07 	vpxor  0x720(%r13),%ymm4,%ymm5
  403024:	00 00 
  403026:	c4 c1 15 ef 85 e0 04 	vpxor  0x4e0(%r13),%ymm13,%ymm0
  40302d:	00 00 
  40302f:	c4 c1 0d ef 8d e0 03 	vpxor  0x3e0(%r13),%ymm14,%ymm1
  403036:	00 00 
  403038:	c4 c1 65 ef 9d e0 01 	vpxor  0x1e0(%r13),%ymm3,%ymm3
  40303f:	00 00 
  403041:	c4 41 7e 6f be c0 01 	vmovdqu 0x1c0(%r14),%ymm15
  403048:	00 00 
  40304a:	c5 fe 7f 46 e0       	vmovdqu %ymm0,-0x20(%rsi)
  40304f:	c5 fe 7f 0e          	vmovdqu %ymm1,(%rsi)
  403053:	c5 fe 7f 56 20       	vmovdqu %ymm2,0x20(%rsi)
  403058:	c5 fe 7f 5e 40       	vmovdqu %ymm3,0x40(%rsi)
  40305d:	c4 c1 05 ef a5 e0 00 	vpxor  0xe0(%r13),%ymm15,%ymm4
  403064:	00 00 
  403066:	48 8d 94 24 c0 0f 00 	lea    0xfc0(%rsp),%rdx
  40306d:	00 
  40306e:	48 8d 8c 24 e0 0f 00 	lea    0xfe0(%rsp),%rcx
  403075:	00 
  403076:	e8 c5 6e 00 00       	callq  409f40 <sbox__7>
  40307b:	c5 fe 6f ac 24 80 0f 	vmovdqu 0xf80(%rsp),%ymm5
  403082:	00 00 
  403084:	48 8d bc 24 00 10 00 	lea    0x1000(%rsp),%rdi
  40308b:	00 
  40308c:	c5 fe 6f 77 a0       	vmovdqu -0x60(%rdi),%ymm6
  403091:	c5 7e 6f 47 c0       	vmovdqu -0x40(%rdi),%ymm8
  403096:	c5 7e 6f 57 e0       	vmovdqu -0x20(%rdi),%ymm10
  40309b:	c4 c1 55 ef a5 00 03 	vpxor  0x300(%r13),%ymm5,%ymm4
  4030a2:	00 00 
  4030a4:	c4 c1 4d ef bd c0 05 	vpxor  0x5c0(%r13),%ymm6,%ymm7
  4030ab:	00 00 
  4030ad:	c4 41 3d ef 8d 40 01 	vpxor  0x140(%r13),%ymm8,%ymm9
  4030b4:	00 00 
  4030b6:	c4 41 2d ef 9d 80 03 	vpxor  0x380(%r13),%ymm10,%ymm11
  4030bd:	00 00 
  4030bf:	c4 c1 7e 7f a5 00 03 	vmovdqu %ymm4,0x300(%r13)
  4030c6:	00 00 
  4030c8:	c4 c1 7e 7f bd c0 05 	vmovdqu %ymm7,0x5c0(%r13)
  4030cf:	00 00 
  4030d1:	c4 41 7e 7f 8d 40 01 	vmovdqu %ymm9,0x140(%r13)
  4030d8:	00 00 
  4030da:	c4 41 7e 7f 9d 80 03 	vmovdqu %ymm11,0x380(%r13)
  4030e1:	00 00 
  4030e3:	c4 41 7e 6f be 00 04 	vmovdqu 0x400(%r14),%ymm15
  4030ea:	00 00 
  4030ec:	48 8d b4 24 20 10 00 	lea    0x1020(%rsp),%rsi
  4030f3:	00 
  4030f4:	c4 41 7e 6f a6 40 02 	vmovdqu 0x240(%r14),%ymm12
  4030fb:	00 00 
  4030fd:	c4 41 7e 6f ae 60 07 	vmovdqu 0x760(%r14),%ymm13
  403104:	00 00 
  403106:	c4 41 7e 6f b6 40 05 	vmovdqu 0x540(%r14),%ymm14
  40310d:	00 00 
  40310f:	c4 c1 05 ef 9d 00 05 	vpxor  0x500(%r13),%ymm15,%ymm3
  403116:	00 00 
  403118:	c4 c1 5d ef ae 20 03 	vpxor  0x320(%r14),%ymm4,%ymm5
  40311f:	00 00 
  403121:	c4 c1 1d ef 85 c0 00 	vpxor  0xc0(%r13),%ymm12,%ymm0
  403128:	00 00 
  40312a:	c4 c1 15 ef 8d 00 07 	vpxor  0x700(%r13),%ymm13,%ymm1
  403131:	00 00 
  403133:	c4 c1 0d ef 95 00 06 	vpxor  0x600(%r13),%ymm14,%ymm2
  40313a:	00 00 
  40313c:	c4 41 7e 6f be 20 07 	vmovdqu 0x720(%r14),%ymm15
  403143:	00 00 
  403145:	c5 fe 7f 46 e0       	vmovdqu %ymm0,-0x20(%rsi)
  40314a:	c5 fe 7f 0e          	vmovdqu %ymm1,(%rsi)
  40314e:	c5 fe 7f 56 20       	vmovdqu %ymm2,0x20(%rsi)
  403153:	c5 fe 7f 5e 40       	vmovdqu %ymm3,0x40(%rsi)
  403158:	c4 c1 05 ef a5 00 04 	vpxor  0x400(%r13),%ymm15,%ymm4
  40315f:	00 00 
  403161:	48 8d 94 24 40 10 00 	lea    0x1040(%rsp),%rdx
  403168:	00 
  403169:	48 8d 8c 24 60 10 00 	lea    0x1060(%rsp),%rcx
  403170:	00 
  403171:	e8 aa 66 00 00       	callq  409820 <sbox__0>
  403176:	c5 fe 6f ac 24 00 10 	vmovdqu 0x1000(%rsp),%ymm5
  40317d:	00 00 
  40317f:	48 8d bc 24 80 10 00 	lea    0x1080(%rsp),%rdi
  403186:	00 
  403187:	c5 fe 6f 7f a0       	vmovdqu -0x60(%rdi),%ymm7
  40318c:	c5 7e 6f 4f c0       	vmovdqu -0x40(%rdi),%ymm9
  403191:	c5 7e 6f 5f e0       	vmovdqu -0x20(%rdi),%ymm11
  403196:	c4 c1 55 ef b5 60 07 	vpxor  0x760(%r13),%ymm5,%ymm6
  40319d:	00 00 
  40319f:	c4 41 45 ef 85 a0 07 	vpxor  0x7a0(%r13),%ymm7,%ymm8
  4031a6:	00 00 
  4031a8:	c4 41 35 ef 95 a0 01 	vpxor  0x1a0(%r13),%ymm9,%ymm10
  4031af:	00 00 
  4031b1:	c4 41 25 ef a5 e0 01 	vpxor  0x1e0(%r13),%ymm11,%ymm12
  4031b8:	00 00 
  4031ba:	c4 c1 7e 7f b5 60 07 	vmovdqu %ymm6,0x760(%r13)
  4031c1:	00 00 
  4031c3:	c4 41 7e 7f 85 a0 07 	vmovdqu %ymm8,0x7a0(%r13)
  4031ca:	00 00 
  4031cc:	c4 41 7e 7f 95 a0 01 	vmovdqu %ymm10,0x1a0(%r13)
  4031d3:	00 00 
  4031d5:	c4 41 7e 7f a5 e0 01 	vmovdqu %ymm12,0x1e0(%r13)
  4031dc:	00 00 
  4031de:	c4 41 7e 6f be 40 01 	vmovdqu 0x140(%r14),%ymm15
  4031e5:	00 00 
  4031e7:	48 8d b4 24 a0 10 00 	lea    0x10a0(%rsp),%rsi
  4031ee:	00 
  4031ef:	c4 c1 7e 6f a6 40 06 	vmovdqu 0x640(%r14),%ymm4
  4031f6:	00 00 
  4031f8:	c4 41 7e 6f ae 20 05 	vmovdqu 0x520(%r14),%ymm13
  4031ff:	00 00 
  403201:	c4 41 7e 6f 36       	vmovdqu (%r14),%ymm14
  403206:	c4 c1 7e 6f 9e 20 02 	vmovdqu 0x220(%r14),%ymm3
  40320d:	00 00 
  40320f:	c4 c1 05 ef 95 00 02 	vpxor  0x200(%r13),%ymm15,%ymm2
  403216:	00 00 
  403218:	c4 c1 5d ef ad 40 07 	vpxor  0x740(%r13),%ymm4,%ymm5
  40321f:	00 00 
  403221:	c4 c1 15 ef 85 00 04 	vpxor  0x400(%r13),%ymm13,%ymm0
  403228:	00 00 
  40322a:	c4 c1 0d ef 8d 00 03 	vpxor  0x300(%r13),%ymm14,%ymm1
  403231:	00 00 
  403233:	c4 c1 65 ef 9d 00 01 	vpxor  0x100(%r13),%ymm3,%ymm3
  40323a:	00 00 
  40323c:	c4 41 7e 6f be 00 07 	vmovdqu 0x700(%r14),%ymm15
  403243:	00 00 
  403245:	c5 fe 7f 46 e0       	vmovdqu %ymm0,-0x20(%rsi)
  40324a:	c5 fe 7f 0e          	vmovdqu %ymm1,(%rsi)
  40324e:	c5 fe 7f 56 20       	vmovdqu %ymm2,0x20(%rsi)
  403253:	c5 fe 7f 5e 40       	vmovdqu %ymm3,0x40(%rsi)
  403258:	c4 c1 05 ef 65 00    	vpxor  0x0(%r13),%ymm15,%ymm4
  40325e:	48 8d 94 24 c0 10 00 	lea    0x10c0(%rsp),%rdx
  403265:	00 
  403266:	48 8d 8c 24 e0 10 00 	lea    0x10e0(%rsp),%rcx
  40326d:	00 
  40326e:	e8 fd 66 00 00       	callq  409970 <sbox__1>
  403273:	c5 fe 6f ac 24 80 10 	vmovdqu 0x1080(%rsp),%ymm5
  40327a:	00 00 
  40327c:	48 8d bc 24 00 11 00 	lea    0x1100(%rsp),%rdi
  403283:	00 
  403284:	c5 fe 6f 7f a0       	vmovdqu -0x60(%rdi),%ymm7
  403289:	c5 7e 6f 4f c0       	vmovdqu -0x40(%rdi),%ymm9
  40328e:	c5 7e 6f 5f e0       	vmovdqu -0x20(%rdi),%ymm11
  403293:	c4 c1 55 ef b5 60 03 	vpxor  0x360(%r13),%ymm5,%ymm6
  40329a:	00 00 
  40329c:	c4 41 45 ef 85 e0 04 	vpxor  0x4e0(%r13),%ymm7,%ymm8
  4032a3:	00 00 
  4032a5:	c4 41 35 ef 95 20 06 	vpxor  0x620(%r13),%ymm9,%ymm10
  4032ac:	00 00 
  4032ae:	c4 41 25 ef a5 a0 06 	vpxor  0x6a0(%r13),%ymm11,%ymm12
  4032b5:	00 00 
  4032b7:	c4 c1 7e 7f b5 60 03 	vmovdqu %ymm6,0x360(%r13)
  4032be:	00 00 
  4032c0:	c4 41 7e 7f 85 e0 04 	vmovdqu %ymm8,0x4e0(%r13)
  4032c7:	00 00 
  4032c9:	c4 41 7e 7f 95 20 06 	vmovdqu %ymm10,0x620(%r13)
  4032d0:	00 00 
  4032d2:	c4 41 7e 7f a5 a0 06 	vmovdqu %ymm12,0x6a0(%r13)
  4032d9:	00 00 
  4032db:	c4 41 7e 6f be 40 04 	vmovdqu 0x440(%r14),%ymm15
  4032e2:	00 00 
  4032e4:	48 8d b4 24 20 11 00 	lea    0x1120(%rsp),%rsi
  4032eb:	00 
  4032ec:	c4 c1 7e 6f 66 20    	vmovdqu 0x20(%r14),%ymm4
  4032f2:	c4 41 7e 6f ae 00 05 	vmovdqu 0x500(%r14),%ymm13
  4032f9:	00 00 
  4032fb:	c4 41 7e 6f b6 60 05 	vmovdqu 0x560(%r14),%ymm14
  403302:	00 00 
  403304:	c4 c1 7e 6f 9e 20 04 	vmovdqu 0x420(%r14),%ymm3
  40330b:	00 00 
  40330d:	c4 c1 05 ef 95 40 06 	vpxor  0x640(%r13),%ymm15,%ymm2
  403314:	00 00 
  403316:	c4 c1 5d ef ad 40 03 	vpxor  0x340(%r13),%ymm4,%ymm5
  40331d:	00 00 
  40331f:	c4 c1 15 ef 45 00    	vpxor  0x0(%r13),%ymm13,%ymm0
  403325:	c4 c1 0d ef 8d 40 07 	vpxor  0x740(%r13),%ymm14,%ymm1
  40332c:	00 00 
  40332e:	c4 c1 65 ef 9d 40 05 	vpxor  0x540(%r13),%ymm3,%ymm3
  403335:	00 00 
  403337:	c4 41 7e 6f be 00 02 	vmovdqu 0x200(%r14),%ymm15
  40333e:	00 00 
  403340:	c5 fe 7f 46 e0       	vmovdqu %ymm0,-0x20(%rsi)
  403345:	c5 fe 7f 0e          	vmovdqu %ymm1,(%rsi)
  403349:	c5 fe 7f 56 20       	vmovdqu %ymm2,0x20(%rsi)
  40334e:	c5 fe 7f 5e 40       	vmovdqu %ymm3,0x40(%rsi)
  403353:	c4 c1 05 ef a5 40 04 	vpxor  0x440(%r13),%ymm15,%ymm4
  40335a:	00 00 
  40335c:	48 8d 94 24 40 11 00 	lea    0x1140(%rsp),%rdx
  403363:	00 
  403364:	48 8d 8c 24 60 11 00 	lea    0x1160(%rsp),%rcx
  40336b:	00 
  40336c:	e8 0f 67 00 00       	callq  409a80 <sbox__2>
  403371:	c5 fe 6f ac 24 00 11 	vmovdqu 0x1100(%rsp),%ymm5
  403378:	00 00 
  40337a:	48 8d bc 24 80 11 00 	lea    0x1180(%rsp),%rdi
  403381:	00 
  403382:	c5 fe 6f 7f a0       	vmovdqu -0x60(%rdi),%ymm7
  403387:	c5 7e 6f 4f c0       	vmovdqu -0x40(%rdi),%ymm9
  40338c:	c5 7e 6f 5f e0       	vmovdqu -0x20(%rdi),%ymm11
  403391:	c4 c1 55 ef b5 a0 00 	vpxor  0xa0(%r13),%ymm5,%ymm6
  403398:	00 00 
  40339a:	c4 41 45 ef 45 60    	vpxor  0x60(%r13),%ymm7,%ymm8
  4033a0:	c4 41 35 ef 95 e0 02 	vpxor  0x2e0(%r13),%ymm9,%ymm10
  4033a7:	00 00 
  4033a9:	c4 41 25 ef a5 20 02 	vpxor  0x220(%r13),%ymm11,%ymm12
  4033b0:	00 00 
  4033b2:	c4 c1 7e 7f b5 a0 00 	vmovdqu %ymm6,0xa0(%r13)
  4033b9:	00 00 
  4033bb:	c4 41 7e 7f 45 60    	vmovdqu %ymm8,0x60(%r13)
  4033c1:	c4 41 7e 7f 95 e0 02 	vmovdqu %ymm10,0x2e0(%r13)
  4033c8:	00 00 
  4033ca:	c4 41 7e 7f a5 20 02 	vmovdqu %ymm12,0x220(%r13)
  4033d1:	00 00 
  4033d3:	c4 41 7e 6f be 00 01 	vmovdqu 0x100(%r14),%ymm15
  4033da:	00 00 
  4033dc:	48 8d b4 24 a0 11 00 	lea    0x11a0(%rsp),%rsi
  4033e3:	00 
  4033e4:	c4 c1 7e 6f a6 20 06 	vmovdqu 0x620(%r14),%ymm4
  4033eb:	00 00 
  4033ed:	c4 41 7e 6f 6e 40    	vmovdqu 0x40(%r14),%ymm13
  4033f3:	c4 41 7e 6f b6 20 01 	vmovdqu 0x120(%r14),%ymm14
  4033fa:	00 00 
  4033fc:	c4 c1 7e 6f 9e 60 04 	vmovdqu 0x460(%r14),%ymm3
  403403:	00 00 
  403405:	c4 c1 05 ef 95 40 02 	vpxor  0x240(%r13),%ymm15,%ymm2
  40340c:	00 00 
  40340e:	c4 c1 5d ef ad 80 07 	vpxor  0x780(%r13),%ymm4,%ymm5
  403415:	00 00 
  403417:	c4 c1 15 ef 85 40 04 	vpxor  0x440(%r13),%ymm13,%ymm0
  40341e:	00 00 
  403420:	c4 c1 0d ef 8d 40 03 	vpxor  0x340(%r13),%ymm14,%ymm1
  403427:	00 00 
  403429:	c4 c1 65 ef 9d 40 01 	vpxor  0x140(%r13),%ymm3,%ymm3
  403430:	00 00 
  403432:	c4 41 7e 6f be 40 03 	vmovdqu 0x340(%r14),%ymm15
  403439:	00 00 
  40343b:	c5 fe 7f 46 e0       	vmovdqu %ymm0,-0x20(%rsi)
  403440:	c5 fe 7f 0e          	vmovdqu %ymm1,(%rsi)
  403444:	c5 fe 7f 56 20       	vmovdqu %ymm2,0x20(%rsi)
  403449:	c5 fe 7f 5e 40       	vmovdqu %ymm3,0x40(%rsi)
  40344e:	c4 c1 05 ef 65 40    	vpxor  0x40(%r13),%ymm15,%ymm4
  403454:	48 8d 94 24 c0 11 00 	lea    0x11c0(%rsp),%rdx
  40345b:	00 
  40345c:	48 8d 8c 24 e0 11 00 	lea    0x11e0(%rsp),%rcx
  403463:	00 
  403464:	e8 e7 6b 00 00       	callq  40a050 <sbox__3>
  403469:	c5 fe 6f ac 24 80 11 	vmovdqu 0x1180(%rsp),%ymm5
  403470:	00 00 
  403472:	48 8d bc 24 00 12 00 	lea    0x1200(%rsp),%rdi
  403479:	00 
  40347a:	c5 fe 6f 7f a0       	vmovdqu -0x60(%rdi),%ymm7
  40347f:	c5 7e 6f 4f c0       	vmovdqu -0x40(%rdi),%ymm9
  403484:	c5 7e 6f 5f e0       	vmovdqu -0x20(%rdi),%ymm11
  403489:	c4 c1 55 ef b5 e0 06 	vpxor  0x6e0(%r13),%ymm5,%ymm6
  403490:	00 00 
  403492:	c4 41 45 ef 85 a0 04 	vpxor  0x4a0(%r13),%ymm7,%ymm8
  403499:	00 00 
  40349b:	c4 41 35 ef 95 60 06 	vpxor  0x660(%r13),%ymm9,%ymm10
  4034a2:	00 00 
  4034a4:	c4 41 25 ef a5 20 07 	vpxor  0x720(%r13),%ymm11,%ymm12
  4034ab:	00 00 
  4034ad:	c4 c1 7e 7f b5 e0 06 	vmovdqu %ymm6,0x6e0(%r13)
  4034b4:	00 00 
  4034b6:	c4 41 7e 7f 85 a0 04 	vmovdqu %ymm8,0x4a0(%r13)
  4034bd:	00 00 
  4034bf:	c4 41 7e 7f 95 60 06 	vmovdqu %ymm10,0x660(%r13)
  4034c6:	00 00 
  4034c8:	c4 41 7e 7f a5 20 07 	vmovdqu %ymm12,0x720(%r13)
  4034cf:	00 00 
  4034d1:	c4 41 7e 6f be a0 05 	vmovdqu 0x5a0(%r14),%ymm15
  4034d8:	00 00 
  4034da:	48 8d b4 24 20 12 00 	lea    0x1220(%rsp),%rsi
  4034e1:	00 
  4034e2:	c4 c1 7e 6f a6 c0 01 	vmovdqu 0x1c0(%r14),%ymm4
  4034e9:	00 00 
  4034eb:	c4 41 7e 6f ae 80 03 	vmovdqu 0x380(%r14),%ymm13
  4034f2:	00 00 
  4034f4:	c4 41 7e 6f b6 c0 04 	vmovdqu 0x4c0(%r14),%ymm14
  4034fb:	00 00 
  4034fd:	c4 c1 7e 6f 9e 80 07 	vmovdqu 0x780(%r14),%ymm3
  403504:	00 00 
  403506:	c4 c1 05 ef 95 80 06 	vpxor  0x680(%r13),%ymm15,%ymm2
  40350d:	00 00 
  40350f:	c4 c1 5d ef ad 80 03 	vpxor  0x380(%r13),%ymm4,%ymm5
  403516:	00 00 
  403518:	c4 c1 15 ef 45 40    	vpxor  0x40(%r13),%ymm13,%ymm0
  40351e:	c4 c1 0d ef 8d 80 07 	vpxor  0x780(%r13),%ymm14,%ymm1
  403525:	00 00 
  403527:	c4 c1 65 ef 9d 80 05 	vpxor  0x580(%r13),%ymm3,%ymm3
  40352e:	00 00 
  403530:	c4 41 7e 6f be 60 01 	vmovdqu 0x160(%r14),%ymm15
  403537:	00 00 
  403539:	c5 fe 7f 46 e0       	vmovdqu %ymm0,-0x20(%rsi)
  40353e:	c5 fe 7f 0e          	vmovdqu %ymm1,(%rsi)
  403542:	c5 fe 7f 56 20       	vmovdqu %ymm2,0x20(%rsi)
  403547:	c5 fe 7f 5e 40       	vmovdqu %ymm3,0x40(%rsi)
  40354c:	c4 c1 05 ef a5 80 04 	vpxor  0x480(%r13),%ymm15,%ymm4
  403553:	00 00 
  403555:	48 8d 94 24 40 12 00 	lea    0x1240(%rsp),%rdx
  40355c:	00 
  40355d:	48 8d 8c 24 60 12 00 	lea    0x1260(%rsp),%rcx
  403564:	00 
  403565:	e8 36 66 00 00       	callq  409ba0 <sbox__4>
  40356a:	c5 fe 6f ac 24 00 12 	vmovdqu 0x1200(%rsp),%ymm5
  403571:	00 00 
  403573:	48 8d bc 24 80 12 00 	lea    0x1280(%rsp),%rdi
  40357a:	00 
  40357b:	c5 fe 6f 7f a0       	vmovdqu -0x60(%rdi),%ymm7
  403580:	c5 7e 6f 4f c0       	vmovdqu -0x40(%rdi),%ymm9
  403585:	c5 7e 6f 5f e0       	vmovdqu -0x20(%rdi),%ymm11
  40358a:	c4 c1 55 ef 75 20    	vpxor  0x20(%r13),%ymm5,%ymm6
  403590:	c4 41 45 ef 85 60 02 	vpxor  0x260(%r13),%ymm7,%ymm8
  403597:	00 00 
  403599:	c4 41 35 ef 95 e0 07 	vpxor  0x7e0(%r13),%ymm9,%ymm10
  4035a0:	00 00 
  4035a2:	c4 41 25 ef a5 20 05 	vpxor  0x520(%r13),%ymm11,%ymm12
  4035a9:	00 00 
  4035ab:	c4 c1 7e 7f 75 20    	vmovdqu %ymm6,0x20(%r13)
  4035b1:	c4 41 7e 7f 85 60 02 	vmovdqu %ymm8,0x260(%r13)
  4035b8:	00 00 
  4035ba:	c4 41 7e 7f 95 e0 07 	vmovdqu %ymm10,0x7e0(%r13)
  4035c1:	00 00 
  4035c3:	c4 41 7e 7f a5 20 05 	vmovdqu %ymm12,0x520(%r13)
  4035ca:	00 00 
  4035cc:	c4 41 7e 6f be c0 05 	vmovdqu 0x5c0(%r14),%ymm15
  4035d3:	00 00 
  4035d5:	48 8d b4 24 a0 12 00 	lea    0x12a0(%rsp),%rsi
  4035dc:	00 
  4035dd:	c4 c1 7e 6f 66 60    	vmovdqu 0x60(%r14),%ymm4
  4035e3:	c4 41 7e 6f ae a0 06 	vmovdqu 0x6a0(%r14),%ymm13
  4035ea:	00 00 
  4035ec:	c4 41 7e 6f b6 80 04 	vmovdqu 0x480(%r14),%ymm14
  4035f3:	00 00 
  4035f5:	c4 c1 7e 6f 9e 60 03 	vmovdqu 0x360(%r14),%ymm3
  4035fc:	00 00 
  4035fe:	c4 c1 05 ef 95 80 02 	vpxor  0x280(%r13),%ymm15,%ymm2
  403605:	00 00 
  403607:	c4 c1 5d ef ad c0 07 	vpxor  0x7c0(%r13),%ymm4,%ymm5
  40360e:	00 00 
  403610:	c4 c1 15 ef 85 80 04 	vpxor  0x480(%r13),%ymm13,%ymm0
  403617:	00 00 
  403619:	c4 c1 0d ef 8d 80 03 	vpxor  0x380(%r13),%ymm14,%ymm1
  403620:	00 00 
  403622:	c4 c1 65 ef 9d 80 01 	vpxor  0x180(%r13),%ymm3,%ymm3
  403629:	00 00 
  40362b:	c4 41 7e 6f be a0 03 	vmovdqu 0x3a0(%r14),%ymm15
  403632:	00 00 
  403634:	c5 fe 7f 46 e0       	vmovdqu %ymm0,-0x20(%rsi)
  403639:	c5 fe 7f 0e          	vmovdqu %ymm1,(%rsi)
  40363d:	c5 fe 7f 56 20       	vmovdqu %ymm2,0x20(%rsi)
  403642:	c5 fe 7f 5e 40       	vmovdqu %ymm3,0x40(%rsi)
  403647:	c4 c1 05 ef a5 80 00 	vpxor  0x80(%r13),%ymm15,%ymm4
  40364e:	00 00 
  403650:	48 8d 94 24 c0 12 00 	lea    0x12c0(%rsp),%rdx
  403657:	00 
  403658:	48 8d 8c 24 e0 12 00 	lea    0x12e0(%rsp),%rcx
  40365f:	00 
  403660:	e8 8b 66 00 00       	callq  409cf0 <sbox__5>
  403665:	c5 fe 6f ac 24 80 12 	vmovdqu 0x1280(%rsp),%ymm5
  40366c:	00 00 
  40366e:	48 8d bc 24 00 13 00 	lea    0x1300(%rsp),%rdi
  403675:	00 
  403676:	c5 fe 6f 7f a0       	vmovdqu -0x60(%rdi),%ymm7
  40367b:	c5 7e 6f 4f c0       	vmovdqu -0x40(%rdi),%ymm9
  403680:	c5 7e 6f 5f e0       	vmovdqu -0x20(%rdi),%ymm11
  403685:	c4 c1 55 ef b5 20 04 	vpxor  0x420(%r13),%ymm5,%ymm6
  40368c:	00 00 
  40368e:	c4 41 45 ef 85 e0 03 	vpxor  0x3e0(%r13),%ymm7,%ymm8
  403695:	00 00 
  403697:	c4 41 35 ef 95 60 05 	vpxor  0x560(%r13),%ymm9,%ymm10
  40369e:	00 00 
  4036a0:	c4 41 25 ef a5 a0 05 	vpxor  0x5a0(%r13),%ymm11,%ymm12
  4036a7:	00 00 
  4036a9:	c4 c1 7e 7f b5 20 04 	vmovdqu %ymm6,0x420(%r13)
  4036b0:	00 00 
  4036b2:	c4 41 7e 7f 85 e0 03 	vmovdqu %ymm8,0x3e0(%r13)
  4036b9:	00 00 
  4036bb:	c4 41 7e 7f 95 60 05 	vmovdqu %ymm10,0x560(%r13)
  4036c2:	00 00 
  4036c4:	c4 41 7e 7f a5 a0 05 	vmovdqu %ymm12,0x5a0(%r13)
  4036cb:	00 00 
  4036cd:	c4 41 7e 6f be 80 05 	vmovdqu 0x580(%r14),%ymm15
  4036d4:	00 00 
  4036d6:	48 8d b4 24 20 13 00 	lea    0x1320(%rsp),%rsi
  4036dd:	00 
  4036de:	c4 c1 7e 6f a6 c0 03 	vmovdqu 0x3c0(%r14),%ymm4
  4036e5:	00 00 
  4036e7:	c4 41 7e 6f ae 80 00 	vmovdqu 0x80(%r14),%ymm13
  4036ee:	00 00 
  4036f0:	c4 c1 7e 6f 9e c0 00 	vmovdqu 0xc0(%r14),%ymm3
  4036f7:	00 00 
  4036f9:	c4 41 7e 6f b6 c0 07 	vmovdqu 0x7c0(%r14),%ymm14
  403700:	00 00 
  403702:	c4 c1 05 ef 95 c0 06 	vpxor  0x6c0(%r13),%ymm15,%ymm2
  403709:	00 00 
  40370b:	c4 c1 5d ef ad c0 03 	vpxor  0x3c0(%r13),%ymm4,%ymm5
  403712:	00 00 
  403714:	c4 c1 15 ef 85 80 00 	vpxor  0x80(%r13),%ymm13,%ymm0
  40371b:	00 00 
  40371d:	c4 c1 0d ef 8d c0 07 	vpxor  0x7c0(%r13),%ymm14,%ymm1
  403724:	00 00 
  403726:	c4 c1 65 ef 9d c0 05 	vpxor  0x5c0(%r13),%ymm3,%ymm3
  40372d:	00 00 
  40372f:	c4 41 7e 6f be a0 02 	vmovdqu 0x2a0(%r14),%ymm15
  403736:	00 00 
  403738:	c5 fe 7f 46 e0       	vmovdqu %ymm0,-0x20(%rsi)
  40373d:	c5 fe 7f 0e          	vmovdqu %ymm1,(%rsi)
  403741:	c5 fe 7f 56 20       	vmovdqu %ymm2,0x20(%rsi)
  403746:	c5 fe 7f 5e 40       	vmovdqu %ymm3,0x40(%rsi)
  40374b:	c4 c1 05 ef a5 c0 04 	vpxor  0x4c0(%r13),%ymm15,%ymm4
  403752:	00 00 
  403754:	48 8d 94 24 40 13 00 	lea    0x1340(%rsp),%rdx
  40375b:	00 
  40375c:	48 8d 8c 24 60 13 00 	lea    0x1360(%rsp),%rcx
  403763:	00 
  403764:	e8 b7 66 00 00       	callq  409e20 <sbox__6>
  403769:	c5 fe 6f ac 24 00 13 	vmovdqu 0x1300(%rsp),%ymm5
  403770:	00 00 
  403772:	48 8d bc 24 80 13 00 	lea    0x1380(%rsp),%rdi
  403779:	00 
  40377a:	c5 fe 6f 7f a0       	vmovdqu -0x60(%rdi),%ymm7
  40377f:	c5 7e 6f 4f c0       	vmovdqu -0x40(%rdi),%ymm9
  403784:	c5 7e 6f 5f e0       	vmovdqu -0x20(%rdi),%ymm11
  403789:	c4 c1 55 ef b5 e0 00 	vpxor  0xe0(%r13),%ymm5,%ymm6
  403790:	00 00 
  403792:	c4 41 45 ef 85 60 04 	vpxor  0x460(%r13),%ymm7,%ymm8
  403799:	00 00 
  40379b:	c4 41 35 ef 95 a0 02 	vpxor  0x2a0(%r13),%ymm9,%ymm10
  4037a2:	00 00 
  4037a4:	c4 41 25 ef a5 20 01 	vpxor  0x120(%r13),%ymm11,%ymm12
  4037ab:	00 00 
  4037ad:	c4 c1 7e 7f b5 e0 00 	vmovdqu %ymm6,0xe0(%r13)
  4037b4:	00 00 
  4037b6:	c4 41 7e 7f 85 60 04 	vmovdqu %ymm8,0x460(%r13)
  4037bd:	00 00 
  4037bf:	c4 41 7e 7f 95 a0 02 	vmovdqu %ymm10,0x2a0(%r13)
  4037c6:	00 00 
  4037c8:	c4 41 7e 7f a5 20 01 	vmovdqu %ymm12,0x120(%r13)
  4037cf:	00 00 
  4037d1:	c4 41 7e 6f be c0 06 	vmovdqu 0x6c0(%r14),%ymm15
  4037d8:	00 00 
  4037da:	48 8d b4 24 a0 13 00 	lea    0x13a0(%rsp),%rsi
  4037e1:	00 
  4037e2:	c4 c1 7e 6f a6 a0 04 	vmovdqu 0x4a0(%r14),%ymm4
  4037e9:	00 00 
  4037eb:	c4 41 7e 6f ae 60 02 	vmovdqu 0x260(%r14),%ymm13
  4037f2:	00 00 
  4037f4:	c4 41 7e 6f b6 80 02 	vmovdqu 0x280(%r14),%ymm14
  4037fb:	00 00 
  4037fd:	c4 c1 7e 6f 9e a0 00 	vmovdqu 0xa0(%r14),%ymm3
  403804:	00 00 
  403806:	c4 c1 05 ef 95 c0 02 	vpxor  0x2c0(%r13),%ymm15,%ymm2
  40380d:	00 00 
  40380f:	c4 c1 5d ef ad 00 07 	vpxor  0x700(%r13),%ymm4,%ymm5
  403816:	00 00 
  403818:	c4 c1 15 ef 85 c0 04 	vpxor  0x4c0(%r13),%ymm13,%ymm0
  40381f:	00 00 
  403821:	c4 c1 0d ef 8d c0 03 	vpxor  0x3c0(%r13),%ymm14,%ymm1
  403828:	00 00 
  40382a:	c4 c1 65 ef 9d c0 01 	vpxor  0x1c0(%r13),%ymm3,%ymm3
  403831:	00 00 
  403833:	c4 41 7e 6f be a0 07 	vmovdqu 0x7a0(%r14),%ymm15
  40383a:	00 00 
  40383c:	c5 fe 7f 46 e0       	vmovdqu %ymm0,-0x20(%rsi)
  403841:	c5 fe 7f 0e          	vmovdqu %ymm1,(%rsi)
  403845:	c5 fe 7f 56 20       	vmovdqu %ymm2,0x20(%rsi)
  40384a:	c5 fe 7f 5e 40       	vmovdqu %ymm3,0x40(%rsi)
  40384f:	c4 c1 05 ef a5 c0 00 	vpxor  0xc0(%r13),%ymm15,%ymm4
  403856:	00 00 
  403858:	48 8d 94 24 c0 13 00 	lea    0x13c0(%rsp),%rdx
  40385f:	00 
  403860:	48 8d 8c 24 e0 13 00 	lea    0x13e0(%rsp),%rcx
  403867:	00 
  403868:	e8 d3 66 00 00       	callq  409f40 <sbox__7>
  40386d:	c5 fe 6f ac 24 80 13 	vmovdqu 0x1380(%rsp),%ymm5
  403874:	00 00 
  403876:	48 8d bc 24 00 14 00 	lea    0x1400(%rsp),%rdi
  40387d:	00 
  40387e:	c5 fe 6f 77 a0       	vmovdqu -0x60(%rdi),%ymm6
  403883:	c5 7e 6f 47 c0       	vmovdqu -0x40(%rdi),%ymm8
  403888:	c5 7e 6f 57 e0       	vmovdqu -0x20(%rdi),%ymm10
  40388d:	c4 c1 55 ef a5 20 03 	vpxor  0x320(%r13),%ymm5,%ymm4
  403894:	00 00 
  403896:	c4 c1 4d ef bd e0 05 	vpxor  0x5e0(%r13),%ymm6,%ymm7
  40389d:	00 00 
  40389f:	c4 41 3d ef 8d 60 01 	vpxor  0x160(%r13),%ymm8,%ymm9
  4038a6:	00 00 
  4038a8:	c4 41 2d ef 9d a0 03 	vpxor  0x3a0(%r13),%ymm10,%ymm11
  4038af:	00 00 
  4038b1:	c4 c1 7e 7f a5 20 03 	vmovdqu %ymm4,0x320(%r13)
  4038b8:	00 00 
  4038ba:	c4 c1 7e 7f bd e0 05 	vmovdqu %ymm7,0x5e0(%r13)
  4038c1:	00 00 
  4038c3:	c4 41 7e 7f 8d 60 01 	vmovdqu %ymm9,0x160(%r13)
  4038ca:	00 00 
  4038cc:	c4 41 7e 7f 9d a0 03 	vmovdqu %ymm11,0x3a0(%r13)
  4038d3:	00 00 
  4038d5:	c4 41 7e 6f be 00 02 	vmovdqu 0x200(%r14),%ymm15
  4038dc:	00 00 
  4038de:	48 8d b4 24 20 14 00 	lea    0x1420(%rsp),%rsi
  4038e5:	00 
  4038e6:	c4 41 7e 6f 66 40    	vmovdqu 0x40(%r14),%ymm12
  4038ec:	c4 41 7e 6f ae 60 05 	vmovdqu 0x560(%r14),%ymm13
  4038f3:	00 00 
  4038f5:	c4 41 7e 6f b6 40 03 	vmovdqu 0x340(%r14),%ymm14
  4038fc:	00 00 
  4038fe:	c4 c1 05 ef 9d 20 05 	vpxor  0x520(%r13),%ymm15,%ymm3
  403905:	00 00 
  403907:	c4 c1 5d ef ae 20 01 	vpxor  0x120(%r14),%ymm4,%ymm5
  40390e:	00 00 
  403910:	c4 c1 1d ef 85 e0 00 	vpxor  0xe0(%r13),%ymm12,%ymm0
  403917:	00 00 
  403919:	c4 c1 15 ef 8d 20 07 	vpxor  0x720(%r13),%ymm13,%ymm1
  403920:	00 00 
  403922:	c4 c1 0d ef 95 20 06 	vpxor  0x620(%r13),%ymm14,%ymm2
  403929:	00 00 
  40392b:	c4 41 7e 6f be 20 05 	vmovdqu 0x520(%r14),%ymm15
  403932:	00 00 
  403934:	c5 fe 7f 46 e0       	vmovdqu %ymm0,-0x20(%rsi)
  403939:	c5 fe 7f 0e          	vmovdqu %ymm1,(%rsi)
  40393d:	c5 fe 7f 56 20       	vmovdqu %ymm2,0x20(%rsi)
  403942:	c5 fe 7f 5e 40       	vmovdqu %ymm3,0x40(%rsi)
  403947:	c4 c1 05 ef a5 20 04 	vpxor  0x420(%r13),%ymm15,%ymm4
  40394e:	00 00 
  403950:	48 8d 94 24 40 14 00 	lea    0x1440(%rsp),%rdx
  403957:	00 
  403958:	48 8d 8c 24 60 14 00 	lea    0x1460(%rsp),%rcx
  40395f:	00 
  403960:	e8 bb 5e 00 00       	callq  409820 <sbox__0>
  403965:	c5 fe 6f ac 24 00 14 	vmovdqu 0x1400(%rsp),%ymm5
  40396c:	00 00 
  40396e:	48 8d bc 24 80 14 00 	lea    0x1480(%rsp),%rdi
  403975:	00 
  403976:	c5 fe 6f 7f a0       	vmovdqu -0x60(%rdi),%ymm7
  40397b:	c5 7e 6f 4f c0       	vmovdqu -0x40(%rdi),%ymm9
  403980:	c5 7e 6f 5f e0       	vmovdqu -0x20(%rdi),%ymm11
  403985:	c4 c1 55 ef b5 40 07 	vpxor  0x740(%r13),%ymm5,%ymm6
  40398c:	00 00 
  40398e:	c4 41 45 ef 85 80 07 	vpxor  0x780(%r13),%ymm7,%ymm8
  403995:	00 00 
  403997:	c4 41 35 ef 95 80 01 	vpxor  0x180(%r13),%ymm9,%ymm10
  40399e:	00 00 
  4039a0:	c4 41 25 ef a5 c0 01 	vpxor  0x1c0(%r13),%ymm11,%ymm12
  4039a7:	00 00 
  4039a9:	c4 c1 7e 7f b5 40 07 	vmovdqu %ymm6,0x740(%r13)
  4039b0:	00 00 
  4039b2:	c4 41 7e 7f 85 80 07 	vmovdqu %ymm8,0x780(%r13)
  4039b9:	00 00 
  4039bb:	c4 41 7e 7f 95 80 01 	vmovdqu %ymm10,0x180(%r13)
  4039c2:	00 00 
  4039c4:	c4 41 7e 7f a5 c0 01 	vmovdqu %ymm12,0x1c0(%r13)
  4039cb:	00 00 
  4039cd:	c4 41 7e 6f be 60 07 	vmovdqu 0x760(%r14),%ymm15
  4039d4:	00 00 
  4039d6:	48 8d b4 24 a0 14 00 	lea    0x14a0(%rsp),%rsi
  4039dd:	00 
  4039de:	c4 c1 7e 6f a6 40 04 	vmovdqu 0x440(%r14),%ymm4
  4039e5:	00 00 
  4039e7:	c4 41 7e 6f ae 20 03 	vmovdqu 0x320(%r14),%ymm13
  4039ee:	00 00 
  4039f0:	c4 41 7e 6f b6 20 06 	vmovdqu 0x620(%r14),%ymm14
  4039f7:	00 00 
  4039f9:	c4 c1 7e 6f 5e 20    	vmovdqu 0x20(%r14),%ymm3
  4039ff:	c4 c1 05 ef 95 20 02 	vpxor  0x220(%r13),%ymm15,%ymm2
  403a06:	00 00 
  403a08:	c4 c1 5d ef ad 60 07 	vpxor  0x760(%r13),%ymm4,%ymm5
  403a0f:	00 00 
  403a11:	c4 c1 15 ef 85 20 04 	vpxor  0x420(%r13),%ymm13,%ymm0
  403a18:	00 00 
  403a1a:	c4 c1 0d ef 8d 20 03 	vpxor  0x320(%r13),%ymm14,%ymm1
  403a21:	00 00 
  403a23:	c4 c1 65 ef 9d 20 01 	vpxor  0x120(%r13),%ymm3,%ymm3
  403a2a:	00 00 
  403a2c:	c4 41 7e 6f be 00 05 	vmovdqu 0x500(%r14),%ymm15
  403a33:	00 00 
  403a35:	c5 fe 7f 46 e0       	vmovdqu %ymm0,-0x20(%rsi)
  403a3a:	c5 fe 7f 0e          	vmovdqu %ymm1,(%rsi)
  403a3e:	c5 fe 7f 56 20       	vmovdqu %ymm2,0x20(%rsi)
  403a43:	c5 fe 7f 5e 40       	vmovdqu %ymm3,0x40(%rsi)
  403a48:	c4 c1 05 ef 65 20    	vpxor  0x20(%r13),%ymm15,%ymm4
  403a4e:	48 8d 94 24 c0 14 00 	lea    0x14c0(%rsp),%rdx
  403a55:	00 
  403a56:	48 8d 8c 24 e0 14 00 	lea    0x14e0(%rsp),%rcx
  403a5d:	00 
  403a5e:	e8 0d 5f 00 00       	callq  409970 <sbox__1>
  403a63:	c5 fe 6f ac 24 80 14 	vmovdqu 0x1480(%rsp),%ymm5
  403a6a:	00 00 
  403a6c:	48 8d bc 24 00 15 00 	lea    0x1500(%rsp),%rdi
  403a73:	00 
  403a74:	c5 fe 6f 7f a0       	vmovdqu -0x60(%rdi),%ymm7
  403a79:	c5 7e 6f 4f c0       	vmovdqu -0x40(%rdi),%ymm9
  403a7e:	c5 7e 6f 5f e0       	vmovdqu -0x20(%rdi),%ymm11
  403a83:	c4 c1 55 ef b5 40 03 	vpxor  0x340(%r13),%ymm5,%ymm6
  403a8a:	00 00 
  403a8c:	c4 41 45 ef 85 c0 04 	vpxor  0x4c0(%r13),%ymm7,%ymm8
  403a93:	00 00 
  403a95:	c4 41 35 ef 95 00 06 	vpxor  0x600(%r13),%ymm9,%ymm10
  403a9c:	00 00 
  403a9e:	c4 41 25 ef a5 80 06 	vpxor  0x680(%r13),%ymm11,%ymm12
  403aa5:	00 00 
  403aa7:	c4 c1 7e 7f b5 40 03 	vmovdqu %ymm6,0x340(%r13)
  403aae:	00 00 
  403ab0:	c4 41 7e 7f 85 c0 04 	vmovdqu %ymm8,0x4c0(%r13)
  403ab7:	00 00 
  403ab9:	c4 41 7e 7f 95 00 06 	vmovdqu %ymm10,0x600(%r13)
  403ac0:	00 00 
  403ac2:	c4 41 7e 7f a5 80 06 	vmovdqu %ymm12,0x680(%r13)
  403ac9:	00 00 
  403acb:	c4 41 7e 6f be 40 02 	vmovdqu 0x240(%r14),%ymm15
  403ad2:	00 00 
  403ad4:	48 8d b4 24 20 15 00 	lea    0x1520(%rsp),%rsi
  403adb:	00 
  403adc:	c4 c1 7e 6f a6 40 06 	vmovdqu 0x640(%r14),%ymm4
  403ae3:	00 00 
  403ae5:	c4 41 7e 6f ae 00 03 	vmovdqu 0x300(%r14),%ymm13
  403aec:	00 00 
  403aee:	c4 41 7e 6f b6 00 07 	vmovdqu 0x700(%r14),%ymm14
  403af5:	00 00 
  403af7:	c4 c1 7e 6f 9e 20 02 	vmovdqu 0x220(%r14),%ymm3
  403afe:	00 00 
  403b00:	c4 c1 05 ef 95 60 06 	vpxor  0x660(%r13),%ymm15,%ymm2
  403b07:	00 00 
  403b09:	c4 c1 5d ef ad 60 03 	vpxor  0x360(%r13),%ymm4,%ymm5
  403b10:	00 00 
  403b12:	c4 c1 15 ef 45 20    	vpxor  0x20(%r13),%ymm13,%ymm0
  403b18:	c4 c1 0d ef 8d 60 07 	vpxor  0x760(%r13),%ymm14,%ymm1
  403b1f:	00 00 
  403b21:	c4 c1 65 ef 9d 60 05 	vpxor  0x560(%r13),%ymm3,%ymm3
  403b28:	00 00 
  403b2a:	c4 41 7e 6f 3e       	vmovdqu (%r14),%ymm15
  403b2f:	c5 fe 7f 46 e0       	vmovdqu %ymm0,-0x20(%rsi)
  403b34:	c5 fe 7f 0e          	vmovdqu %ymm1,(%rsi)
  403b38:	c5 fe 7f 56 20       	vmovdqu %ymm2,0x20(%rsi)
  403b3d:	c5 fe 7f 5e 40       	vmovdqu %ymm3,0x40(%rsi)
  403b42:	c4 c1 05 ef a5 60 04 	vpxor  0x460(%r13),%ymm15,%ymm4
  403b49:	00 00 
  403b4b:	48 8d 94 24 40 15 00 	lea    0x1540(%rsp),%rdx
  403b52:	00 
  403b53:	48 8d 8c 24 60 15 00 	lea    0x1560(%rsp),%rcx
  403b5a:	00 
  403b5b:	e8 20 5f 00 00       	callq  409a80 <sbox__2>
  403b60:	c5 fe 6f ac 24 00 15 	vmovdqu 0x1500(%rsp),%ymm5
  403b67:	00 00 
  403b69:	48 8d bc 24 80 15 00 	lea    0x1580(%rsp),%rdi
  403b70:	00 
  403b71:	c5 fe 6f 7f a0       	vmovdqu -0x60(%rdi),%ymm7
  403b76:	c5 7e 6f 4f c0       	vmovdqu -0x40(%rdi),%ymm9
  403b7b:	c5 7e 6f 5f e0       	vmovdqu -0x20(%rdi),%ymm11
  403b80:	c4 c1 55 ef b5 80 00 	vpxor  0x80(%r13),%ymm5,%ymm6
  403b87:	00 00 
  403b89:	c4 41 45 ef 45 40    	vpxor  0x40(%r13),%ymm7,%ymm8
  403b8f:	c4 41 35 ef 95 c0 02 	vpxor  0x2c0(%r13),%ymm9,%ymm10
  403b96:	00 00 
  403b98:	c4 41 25 ef a5 00 02 	vpxor  0x200(%r13),%ymm11,%ymm12
  403b9f:	00 00 
  403ba1:	c4 c1 7e 7f b5 80 00 	vmovdqu %ymm6,0x80(%r13)
  403ba8:	00 00 
  403baa:	c4 41 7e 7f 45 40    	vmovdqu %ymm8,0x40(%r13)
  403bb0:	c4 41 7e 7f 95 c0 02 	vmovdqu %ymm10,0x2c0(%r13)
  403bb7:	00 00 
  403bb9:	c4 41 7e 7f a5 00 02 	vmovdqu %ymm12,0x200(%r13)
  403bc0:	00 00 
  403bc2:	c4 41 7e 6f be 20 07 	vmovdqu 0x720(%r14),%ymm15
  403bc9:	00 00 
  403bcb:	48 8d b4 24 a0 15 00 	lea    0x15a0(%rsp),%rsi
  403bd2:	00 
  403bd3:	c4 c1 7e 6f a6 20 04 	vmovdqu 0x420(%r14),%ymm4
  403bda:	00 00 
  403bdc:	c4 41 7e 6f ae 60 06 	vmovdqu 0x660(%r14),%ymm13
  403be3:	00 00 
  403be5:	c4 41 7e 6f b6 40 07 	vmovdqu 0x740(%r14),%ymm14
  403bec:	00 00 
  403bee:	c4 c1 7e 6f 9e 00 06 	vmovdqu 0x600(%r14),%ymm3
  403bf5:	00 00 
  403bf7:	c4 c1 05 ef 95 60 02 	vpxor  0x260(%r13),%ymm15,%ymm2
  403bfe:	00 00 
  403c00:	c4 c1 5d ef ad a0 07 	vpxor  0x7a0(%r13),%ymm4,%ymm5
  403c07:	00 00 
  403c09:	c4 c1 15 ef 85 60 04 	vpxor  0x460(%r13),%ymm13,%ymm0
  403c10:	00 00 
  403c12:	c4 c1 0d ef 8d 60 03 	vpxor  0x360(%r13),%ymm14,%ymm1
  403c19:	00 00 
  403c1b:	c4 c1 65 ef 9d 60 01 	vpxor  0x160(%r13),%ymm3,%ymm3
  403c22:	00 00 
  403c24:	c4 41 7e 6f be 40 01 	vmovdqu 0x140(%r14),%ymm15
  403c2b:	00 00 
  403c2d:	c5 fe 7f 46 e0       	vmovdqu %ymm0,-0x20(%rsi)
  403c32:	c5 fe 7f 0e          	vmovdqu %ymm1,(%rsi)
  403c36:	c5 fe 7f 56 20       	vmovdqu %ymm2,0x20(%rsi)
  403c3b:	c5 fe 7f 5e 40       	vmovdqu %ymm3,0x40(%rsi)
  403c40:	c4 c1 05 ef 65 60    	vpxor  0x60(%r13),%ymm15,%ymm4
  403c46:	48 8d 94 24 c0 15 00 	lea    0x15c0(%rsp),%rdx
  403c4d:	00 
  403c4e:	48 8d 8c 24 e0 15 00 	lea    0x15e0(%rsp),%rcx
  403c55:	00 
  403c56:	e8 f5 63 00 00       	callq  40a050 <sbox__3>
  403c5b:	c5 fe 6f ac 24 80 15 	vmovdqu 0x1580(%rsp),%ymm5
  403c62:	00 00 
  403c64:	48 8d bc 24 00 16 00 	lea    0x1600(%rsp),%rdi
  403c6b:	00 
  403c6c:	c5 fe 6f 7f a0       	vmovdqu -0x60(%rdi),%ymm7
  403c71:	c5 7e 6f 4f c0       	vmovdqu -0x40(%rdi),%ymm9
  403c76:	c5 7e 6f 5f e0       	vmovdqu -0x20(%rdi),%ymm11
  403c7b:	c4 c1 55 ef b5 c0 06 	vpxor  0x6c0(%r13),%ymm5,%ymm6
  403c82:	00 00 
  403c84:	c4 41 45 ef 85 80 04 	vpxor  0x480(%r13),%ymm7,%ymm8
  403c8b:	00 00 
  403c8d:	c4 41 35 ef 95 40 06 	vpxor  0x640(%r13),%ymm9,%ymm10
  403c94:	00 00 
  403c96:	c4 41 25 ef a5 00 07 	vpxor  0x700(%r13),%ymm11,%ymm12
  403c9d:	00 00 
  403c9f:	c4 c1 7e 7f b5 c0 06 	vmovdqu %ymm6,0x6c0(%r13)
  403ca6:	00 00 
  403ca8:	c4 41 7e 7f 85 80 04 	vmovdqu %ymm8,0x480(%r13)
  403caf:	00 00 
  403cb1:	c4 41 7e 7f 95 40 06 	vmovdqu %ymm10,0x640(%r13)
  403cb8:	00 00 
  403cba:	c4 41 7e 7f a5 00 07 	vmovdqu %ymm12,0x700(%r13)
  403cc1:	00 00 
  403cc3:	c4 41 7e 6f be a0 03 	vmovdqu 0x3a0(%r14),%ymm15
  403cca:	00 00 
  403ccc:	48 8d b4 24 20 16 00 	lea    0x1620(%rsp),%rsi
  403cd3:	00 
  403cd4:	c4 c1 7e 6f a6 a0 07 	vmovdqu 0x7a0(%r14),%ymm4
  403cdb:	00 00 
  403cdd:	c4 41 7e 6f ae 80 01 	vmovdqu 0x180(%r14),%ymm13
  403ce4:	00 00 
  403ce6:	c4 41 7e 6f b6 c0 02 	vmovdqu 0x2c0(%r14),%ymm14
  403ced:	00 00 
  403cef:	c4 c1 7e 6f 9e 80 05 	vmovdqu 0x580(%r14),%ymm3
  403cf6:	00 00 
  403cf8:	c4 c1 05 ef 95 a0 06 	vpxor  0x6a0(%r13),%ymm15,%ymm2
  403cff:	00 00 
  403d01:	c4 c1 5d ef ad a0 03 	vpxor  0x3a0(%r13),%ymm4,%ymm5
  403d08:	00 00 
  403d0a:	c4 c1 15 ef 45 60    	vpxor  0x60(%r13),%ymm13,%ymm0
  403d10:	c4 c1 0d ef 8d a0 07 	vpxor  0x7a0(%r13),%ymm14,%ymm1
  403d17:	00 00 
  403d19:	c4 c1 65 ef 9d a0 05 	vpxor  0x5a0(%r13),%ymm3,%ymm3
  403d20:	00 00 
  403d22:	c4 41 7e 6f be c0 07 	vmovdqu 0x7c0(%r14),%ymm15
  403d29:	00 00 
  403d2b:	c5 fe 7f 46 e0       	vmovdqu %ymm0,-0x20(%rsi)
  403d30:	c5 fe 7f 0e          	vmovdqu %ymm1,(%rsi)
  403d34:	c5 fe 7f 56 20       	vmovdqu %ymm2,0x20(%rsi)
  403d39:	c5 fe 7f 5e 40       	vmovdqu %ymm3,0x40(%rsi)
  403d3e:	c4 c1 05 ef a5 a0 04 	vpxor  0x4a0(%r13),%ymm15,%ymm4
  403d45:	00 00 
  403d47:	48 8d 94 24 40 16 00 	lea    0x1640(%rsp),%rdx
  403d4e:	00 
  403d4f:	48 8d 8c 24 60 16 00 	lea    0x1660(%rsp),%rcx
  403d56:	00 
  403d57:	e8 44 5e 00 00       	callq  409ba0 <sbox__4>
  403d5c:	c5 fe 6f ac 24 00 16 	vmovdqu 0x1600(%rsp),%ymm5
  403d63:	00 00 
  403d65:	48 8d bc 24 80 16 00 	lea    0x1680(%rsp),%rdi
  403d6c:	00 
  403d6d:	c5 fe 6f 7f a0       	vmovdqu -0x60(%rdi),%ymm7
  403d72:	c5 7e 6f 4f c0       	vmovdqu -0x40(%rdi),%ymm9
  403d77:	c5 7e 6f 5f e0       	vmovdqu -0x20(%rdi),%ymm11
  403d7c:	c4 c1 55 ef 75 00    	vpxor  0x0(%r13),%ymm5,%ymm6
  403d82:	c4 41 45 ef 85 40 02 	vpxor  0x240(%r13),%ymm7,%ymm8
  403d89:	00 00 
  403d8b:	c4 41 35 ef 95 c0 07 	vpxor  0x7c0(%r13),%ymm9,%ymm10
  403d92:	00 00 
  403d94:	c4 41 25 ef a5 00 05 	vpxor  0x500(%r13),%ymm11,%ymm12
  403d9b:	00 00 
  403d9d:	c4 c1 7e 7f 75 00    	vmovdqu %ymm6,0x0(%r13)
  403da3:	c4 41 7e 7f 85 40 02 	vmovdqu %ymm8,0x240(%r13)
  403daa:	00 00 
  403dac:	c4 41 7e 7f 95 c0 07 	vmovdqu %ymm10,0x7c0(%r13)
  403db3:	00 00 
  403db5:	c4 41 7e 7f a5 00 05 	vmovdqu %ymm12,0x500(%r13)
  403dbc:	00 00 
  403dbe:	c4 41 7e 6f be c0 03 	vmovdqu 0x3c0(%r14),%ymm15
  403dc5:	00 00 
  403dc7:	48 8d b4 24 a0 16 00 	lea    0x16a0(%rsp),%rsi
  403dce:	00 
  403dcf:	c4 c1 7e 6f a6 c0 06 	vmovdqu 0x6c0(%r14),%ymm4
  403dd6:	00 00 
  403dd8:	c4 41 7e 6f ae a0 04 	vmovdqu 0x4a0(%r14),%ymm13
  403ddf:	00 00 
  403de1:	c4 41 7e 6f b6 80 02 	vmovdqu 0x280(%r14),%ymm14
  403de8:	00 00 
  403dea:	c4 c1 7e 6f 9e 60 01 	vmovdqu 0x160(%r14),%ymm3
  403df1:	00 00 
  403df3:	c4 c1 05 ef 95 a0 02 	vpxor  0x2a0(%r13),%ymm15,%ymm2
  403dfa:	00 00 
  403dfc:	c4 c1 5d ef ad e0 07 	vpxor  0x7e0(%r13),%ymm4,%ymm5
  403e03:	00 00 
  403e05:	c4 c1 15 ef 85 a0 04 	vpxor  0x4a0(%r13),%ymm13,%ymm0
  403e0c:	00 00 
  403e0e:	c4 c1 0d ef 8d a0 03 	vpxor  0x3a0(%r13),%ymm14,%ymm1
  403e15:	00 00 
  403e17:	c4 c1 65 ef 9d a0 01 	vpxor  0x1a0(%r13),%ymm3,%ymm3
  403e1e:	00 00 
  403e20:	c4 41 7e 6f be a0 01 	vmovdqu 0x1a0(%r14),%ymm15
  403e27:	00 00 
  403e29:	c5 fe 7f 46 e0       	vmovdqu %ymm0,-0x20(%rsi)
  403e2e:	c5 fe 7f 0e          	vmovdqu %ymm1,(%rsi)
  403e32:	c5 fe 7f 56 20       	vmovdqu %ymm2,0x20(%rsi)
  403e37:	c5 fe 7f 5e 40       	vmovdqu %ymm3,0x40(%rsi)
  403e3c:	c4 c1 05 ef a5 a0 00 	vpxor  0xa0(%r13),%ymm15,%ymm4
  403e43:	00 00 
  403e45:	48 8d 94 24 c0 16 00 	lea    0x16c0(%rsp),%rdx
  403e4c:	00 
  403e4d:	48 8d 8c 24 e0 16 00 	lea    0x16e0(%rsp),%rcx
  403e54:	00 
  403e55:	e8 96 5e 00 00       	callq  409cf0 <sbox__5>
  403e5a:	c5 fe 6f ac 24 80 16 	vmovdqu 0x1680(%rsp),%ymm5
  403e61:	00 00 
  403e63:	48 8d bc 24 00 17 00 	lea    0x1700(%rsp),%rdi
  403e6a:	00 
  403e6b:	c5 fe 6f 7f a0       	vmovdqu -0x60(%rdi),%ymm7
  403e70:	c5 7e 6f 4f c0       	vmovdqu -0x40(%rdi),%ymm9
  403e75:	c5 7e 6f 5f e0       	vmovdqu -0x20(%rdi),%ymm11
  403e7a:	c4 c1 55 ef b5 00 04 	vpxor  0x400(%r13),%ymm5,%ymm6
  403e81:	00 00 
  403e83:	c4 41 45 ef 85 c0 03 	vpxor  0x3c0(%r13),%ymm7,%ymm8
  403e8a:	00 00 
  403e8c:	c4 41 35 ef 95 40 05 	vpxor  0x540(%r13),%ymm9,%ymm10
  403e93:	00 00 
  403e95:	c4 41 25 ef a5 80 05 	vpxor  0x580(%r13),%ymm11,%ymm12
  403e9c:	00 00 
  403e9e:	c4 c1 7e 7f b5 00 04 	vmovdqu %ymm6,0x400(%r13)
  403ea5:	00 00 
  403ea7:	c4 41 7e 7f 85 c0 03 	vmovdqu %ymm8,0x3c0(%r13)
  403eae:	00 00 
  403eb0:	c4 41 7e 7f 95 40 05 	vmovdqu %ymm10,0x540(%r13)
  403eb7:	00 00 
  403eb9:	c4 41 7e 7f a5 80 05 	vmovdqu %ymm12,0x580(%r13)
  403ec0:	00 00 
  403ec2:	c4 41 7e 6f be 80 03 	vmovdqu 0x380(%r14),%ymm15
  403ec9:	00 00 
  403ecb:	48 8d b4 24 20 17 00 	lea    0x1720(%rsp),%rsi
  403ed2:	00 
  403ed3:	c4 c1 7e 6f a6 c0 01 	vmovdqu 0x1c0(%r14),%ymm4
  403eda:	00 00 
  403edc:	c4 41 7e 6f ae 60 02 	vmovdqu 0x260(%r14),%ymm13
  403ee3:	00 00 
  403ee5:	c4 41 7e 6f b6 c0 05 	vmovdqu 0x5c0(%r14),%ymm14
  403eec:	00 00 
  403eee:	c4 c1 7e 6f 9e a0 06 	vmovdqu 0x6a0(%r14),%ymm3
  403ef5:	00 00 
  403ef7:	c4 c1 05 ef 95 e0 06 	vpxor  0x6e0(%r13),%ymm15,%ymm2
  403efe:	00 00 
  403f00:	c4 c1 5d ef ad e0 03 	vpxor  0x3e0(%r13),%ymm4,%ymm5
  403f07:	00 00 
  403f09:	c4 c1 15 ef 85 a0 00 	vpxor  0xa0(%r13),%ymm13,%ymm0
  403f10:	00 00 
  403f12:	c4 c1 0d ef 8d e0 07 	vpxor  0x7e0(%r13),%ymm14,%ymm1
  403f19:	00 00 
  403f1b:	c4 c1 65 ef 9d e0 05 	vpxor  0x5e0(%r13),%ymm3,%ymm3
  403f22:	00 00 
  403f24:	c4 41 7e 6f be a0 00 	vmovdqu 0xa0(%r14),%ymm15
  403f2b:	00 00 
  403f2d:	c5 fe 7f 46 e0       	vmovdqu %ymm0,-0x20(%rsi)
  403f32:	c5 fe 7f 0e          	vmovdqu %ymm1,(%rsi)
  403f36:	c5 fe 7f 56 20       	vmovdqu %ymm2,0x20(%rsi)
  403f3b:	c5 fe 7f 5e 40       	vmovdqu %ymm3,0x40(%rsi)
  403f40:	c4 c1 05 ef a5 e0 04 	vpxor  0x4e0(%r13),%ymm15,%ymm4
  403f47:	00 00 
  403f49:	48 8d 94 24 40 17 00 	lea    0x1740(%rsp),%rdx
  403f50:	00 
  403f51:	48 8d 8c 24 60 17 00 	lea    0x1760(%rsp),%rcx
  403f58:	00 
  403f59:	e8 c2 5e 00 00       	callq  409e20 <sbox__6>
  403f5e:	c5 fe 6f ac 24 00 17 	vmovdqu 0x1700(%rsp),%ymm5
  403f65:	00 00 
  403f67:	48 8d bc 24 80 17 00 	lea    0x1780(%rsp),%rdi
  403f6e:	00 
  403f6f:	c5 fe 6f 7f a0       	vmovdqu -0x60(%rdi),%ymm7
  403f74:	c5 7e 6f 4f c0       	vmovdqu -0x40(%rdi),%ymm9
  403f79:	c5 7e 6f 5f e0       	vmovdqu -0x20(%rdi),%ymm11
  403f7e:	c4 c1 55 ef b5 c0 00 	vpxor  0xc0(%r13),%ymm5,%ymm6
  403f85:	00 00 
  403f87:	c4 41 45 ef 85 40 04 	vpxor  0x440(%r13),%ymm7,%ymm8
  403f8e:	00 00 
  403f90:	c4 41 35 ef 95 80 02 	vpxor  0x280(%r13),%ymm9,%ymm10
  403f97:	00 00 
  403f99:	c4 41 25 ef a5 00 01 	vpxor  0x100(%r13),%ymm11,%ymm12
  403fa0:	00 00 
  403fa2:	c4 c1 7e 7f b5 c0 00 	vmovdqu %ymm6,0xc0(%r13)
  403fa9:	00 00 
  403fab:	c4 41 7e 7f 85 40 04 	vmovdqu %ymm8,0x440(%r13)
  403fb2:	00 00 
  403fb4:	c4 41 7e 7f 95 80 02 	vmovdqu %ymm10,0x280(%r13)
  403fbb:	00 00 
  403fbd:	c4 41 7e 7f a5 00 01 	vmovdqu %ymm12,0x100(%r13)
  403fc4:	00 00 
  403fc6:	c4 41 7e 6f be c0 04 	vmovdqu 0x4c0(%r14),%ymm15
  403fcd:	00 00 
  403fcf:	48 8d b4 24 a0 17 00 	lea    0x17a0(%rsp),%rsi
  403fd6:	00 
  403fd7:	c4 c1 7e 6f a6 a0 02 	vmovdqu 0x2a0(%r14),%ymm4
  403fde:	00 00 
  403fe0:	c4 41 7e 6f 6e 60    	vmovdqu 0x60(%r14),%ymm13
  403fe6:	c4 41 7e 6f b6 80 00 	vmovdqu 0x80(%r14),%ymm14
  403fed:	00 00 
  403fef:	c4 c1 7e 6f 9e 80 06 	vmovdqu 0x680(%r14),%ymm3
  403ff6:	00 00 
  403ff8:	c4 c1 05 ef 95 e0 02 	vpxor  0x2e0(%r13),%ymm15,%ymm2
  403fff:	00 00 
  404001:	c4 c1 5d ef ad 20 07 	vpxor  0x720(%r13),%ymm4,%ymm5
  404008:	00 00 
  40400a:	c4 c1 15 ef 85 e0 04 	vpxor  0x4e0(%r13),%ymm13,%ymm0
  404011:	00 00 
  404013:	c4 c1 0d ef 8d e0 03 	vpxor  0x3e0(%r13),%ymm14,%ymm1
  40401a:	00 00 
  40401c:	c4 c1 65 ef 9d e0 01 	vpxor  0x1e0(%r13),%ymm3,%ymm3
  404023:	00 00 
  404025:	c4 41 7e 6f be a0 05 	vmovdqu 0x5a0(%r14),%ymm15
  40402c:	00 00 
  40402e:	c5 fe 7f 46 e0       	vmovdqu %ymm0,-0x20(%rsi)
  404033:	c5 fe 7f 0e          	vmovdqu %ymm1,(%rsi)
  404037:	c5 fe 7f 56 20       	vmovdqu %ymm2,0x20(%rsi)
  40403c:	c5 fe 7f 5e 40       	vmovdqu %ymm3,0x40(%rsi)
  404041:	c4 c1 05 ef a5 e0 00 	vpxor  0xe0(%r13),%ymm15,%ymm4
  404048:	00 00 
  40404a:	48 8d 94 24 c0 17 00 	lea    0x17c0(%rsp),%rdx
  404051:	00 
  404052:	48 8d 8c 24 e0 17 00 	lea    0x17e0(%rsp),%rcx
  404059:	00 
  40405a:	e8 e1 5e 00 00       	callq  409f40 <sbox__7>
  40405f:	c5 fe 6f ac 24 80 17 	vmovdqu 0x1780(%rsp),%ymm5
  404066:	00 00 
  404068:	48 8d bc 24 00 18 00 	lea    0x1800(%rsp),%rdi
  40406f:	00 
  404070:	c5 fe 6f 77 a0       	vmovdqu -0x60(%rdi),%ymm6
  404075:	c5 7e 6f 47 c0       	vmovdqu -0x40(%rdi),%ymm8
  40407a:	c5 7e 6f 57 e0       	vmovdqu -0x20(%rdi),%ymm10
  40407f:	c4 c1 55 ef a5 00 03 	vpxor  0x300(%r13),%ymm5,%ymm4
  404086:	00 00 
  404088:	c4 c1 4d ef bd c0 05 	vpxor  0x5c0(%r13),%ymm6,%ymm7
  40408f:	00 00 
  404091:	c4 41 3d ef 8d 40 01 	vpxor  0x140(%r13),%ymm8,%ymm9
  404098:	00 00 
  40409a:	c4 41 2d ef 9d 80 03 	vpxor  0x380(%r13),%ymm10,%ymm11
  4040a1:	00 00 
  4040a3:	c4 c1 7e 7f a5 00 03 	vmovdqu %ymm4,0x300(%r13)
  4040aa:	00 00 
  4040ac:	c4 c1 7e 7f bd c0 05 	vmovdqu %ymm7,0x5c0(%r13)
  4040b3:	00 00 
  4040b5:	c4 41 7e 7f 8d 40 01 	vmovdqu %ymm9,0x140(%r13)
  4040bc:	00 00 
  4040be:	c4 41 7e 7f 9d 80 03 	vmovdqu %ymm11,0x380(%r13)
  4040c5:	00 00 
  4040c7:	c4 41 7e 6f 3e       	vmovdqu (%r14),%ymm15
  4040cc:	48 8d b4 24 20 18 00 	lea    0x1820(%rsp),%rsi
  4040d3:	00 
  4040d4:	c4 41 7e 6f a6 60 06 	vmovdqu 0x660(%r14),%ymm12
  4040db:	00 00 
  4040dd:	c4 41 7e 6f ae 00 07 	vmovdqu 0x700(%r14),%ymm13
  4040e4:	00 00 
  4040e6:	c4 41 7e 6f b6 40 01 	vmovdqu 0x140(%r14),%ymm14
  4040ed:	00 00 
  4040ef:	c4 c1 05 ef 9d 00 05 	vpxor  0x500(%r13),%ymm15,%ymm3
  4040f6:	00 00 
  4040f8:	c4 c1 5d ef ae 40 07 	vpxor  0x740(%r14),%ymm4,%ymm5
  4040ff:	00 00 
  404101:	c4 c1 1d ef 85 c0 00 	vpxor  0xc0(%r13),%ymm12,%ymm0
  404108:	00 00 
  40410a:	c4 c1 15 ef 8d 00 07 	vpxor  0x700(%r13),%ymm13,%ymm1
  404111:	00 00 
  404113:	c4 c1 0d ef 95 00 06 	vpxor  0x600(%r13),%ymm14,%ymm2
  40411a:	00 00 
  40411c:	c4 41 7e 6f be 20 03 	vmovdqu 0x320(%r14),%ymm15
  404123:	00 00 
  404125:	c5 fe 7f 46 e0       	vmovdqu %ymm0,-0x20(%rsi)
  40412a:	c5 fe 7f 0e          	vmovdqu %ymm1,(%rsi)
  40412e:	c5 fe 7f 56 20       	vmovdqu %ymm2,0x20(%rsi)
  404133:	c5 fe 7f 5e 40       	vmovdqu %ymm3,0x40(%rsi)
  404138:	c4 c1 05 ef a5 00 04 	vpxor  0x400(%r13),%ymm15,%ymm4
  40413f:	00 00 
  404141:	48 8d 94 24 40 18 00 	lea    0x1840(%rsp),%rdx
  404148:	00 
  404149:	48 8d 8c 24 60 18 00 	lea    0x1860(%rsp),%rcx
  404150:	00 
  404151:	e8 ca 56 00 00       	callq  409820 <sbox__0>
  404156:	c5 fe 6f ac 24 00 18 	vmovdqu 0x1800(%rsp),%ymm5
  40415d:	00 00 
  40415f:	48 8d bc 24 80 18 00 	lea    0x1880(%rsp),%rdi
  404166:	00 
  404167:	c5 fe 6f 7f a0       	vmovdqu -0x60(%rdi),%ymm7
  40416c:	c5 7e 6f 4f c0       	vmovdqu -0x40(%rdi),%ymm9
  404171:	c5 7e 6f 5f e0       	vmovdqu -0x20(%rdi),%ymm11
  404176:	c4 c1 55 ef b5 60 07 	vpxor  0x760(%r13),%ymm5,%ymm6
  40417d:	00 00 
  40417f:	c4 41 45 ef 85 a0 07 	vpxor  0x7a0(%r13),%ymm7,%ymm8
  404186:	00 00 
  404188:	c4 41 35 ef 95 a0 01 	vpxor  0x1a0(%r13),%ymm9,%ymm10
  40418f:	00 00 
  404191:	c4 41 25 ef a5 e0 01 	vpxor  0x1e0(%r13),%ymm11,%ymm12
  404198:	00 00 
  40419a:	c4 c1 7e 7f b5 60 07 	vmovdqu %ymm6,0x760(%r13)
  4041a1:	00 00 
  4041a3:	c4 41 7e 7f 85 a0 07 	vmovdqu %ymm8,0x7a0(%r13)
  4041aa:	00 00 
  4041ac:	c4 41 7e 7f 95 a0 01 	vmovdqu %ymm10,0x1a0(%r13)
  4041b3:	00 00 
  4041b5:	c4 41 7e 7f a5 e0 01 	vmovdqu %ymm12,0x1e0(%r13)
  4041bc:	00 00 
  4041be:	c4 41 7e 6f be 60 05 	vmovdqu 0x560(%r14),%ymm15
  4041c5:	00 00 
  4041c7:	48 8d b4 24 a0 18 00 	lea    0x18a0(%rsp),%rsi
  4041ce:	00 
  4041cf:	c4 c1 7e 6f a6 40 02 	vmovdqu 0x240(%r14),%ymm4
  4041d6:	00 00 
  4041d8:	c4 41 7e 6f ae 20 01 	vmovdqu 0x120(%r14),%ymm13
  4041df:	00 00 
  4041e1:	c4 41 7e 6f b6 20 04 	vmovdqu 0x420(%r14),%ymm14
  4041e8:	00 00 
  4041ea:	c4 c1 7e 6f 9e 40 06 	vmovdqu 0x640(%r14),%ymm3
  4041f1:	00 00 
  4041f3:	c4 c1 05 ef 95 00 02 	vpxor  0x200(%r13),%ymm15,%ymm2
  4041fa:	00 00 
  4041fc:	c4 c1 5d ef ad 40 07 	vpxor  0x740(%r13),%ymm4,%ymm5
  404203:	00 00 
  404205:	c4 c1 15 ef 85 00 04 	vpxor  0x400(%r13),%ymm13,%ymm0
  40420c:	00 00 
  40420e:	c4 c1 0d ef 8d 00 03 	vpxor  0x300(%r13),%ymm14,%ymm1
  404215:	00 00 
  404217:	c4 c1 65 ef 9d 00 01 	vpxor  0x100(%r13),%ymm3,%ymm3
  40421e:	00 00 
  404220:	c4 41 7e 6f be 00 03 	vmovdqu 0x300(%r14),%ymm15
  404227:	00 00 
  404229:	c5 fe 7f 46 e0       	vmovdqu %ymm0,-0x20(%rsi)
  40422e:	c5 fe 7f 0e          	vmovdqu %ymm1,(%rsi)
  404232:	c5 fe 7f 56 20       	vmovdqu %ymm2,0x20(%rsi)
  404237:	c5 fe 7f 5e 40       	vmovdqu %ymm3,0x40(%rsi)
  40423c:	c4 c1 05 ef 65 00    	vpxor  0x0(%r13),%ymm15,%ymm4
  404242:	48 8d 94 24 c0 18 00 	lea    0x18c0(%rsp),%rdx
  404249:	00 
  40424a:	48 8d 8c 24 e0 18 00 	lea    0x18e0(%rsp),%rcx
  404251:	00 
  404252:	e8 19 57 00 00       	callq  409970 <sbox__1>
  404257:	c5 fe 6f ac 24 80 18 	vmovdqu 0x1880(%rsp),%ymm5
  40425e:	00 00 
  404260:	48 8d bc 24 00 19 00 	lea    0x1900(%rsp),%rdi
  404267:	00 
  404268:	c5 fe 6f 7f a0       	vmovdqu -0x60(%rdi),%ymm7
  40426d:	c5 7e 6f 4f c0       	vmovdqu -0x40(%rdi),%ymm9
  404272:	c5 7e 6f 5f e0       	vmovdqu -0x20(%rdi),%ymm11
  404277:	c4 c1 55 ef b5 60 03 	vpxor  0x360(%r13),%ymm5,%ymm6
  40427e:	00 00 
  404280:	c4 41 45 ef 85 e0 04 	vpxor  0x4e0(%r13),%ymm7,%ymm8
  404287:	00 00 
  404289:	c4 41 35 ef 95 20 06 	vpxor  0x620(%r13),%ymm9,%ymm10
  404290:	00 00 
  404292:	c4 41 25 ef a5 a0 06 	vpxor  0x6a0(%r13),%ymm11,%ymm12
  404299:	00 00 
  40429b:	c4 c1 7e 7f b5 60 03 	vmovdqu %ymm6,0x360(%r13)
  4042a2:	00 00 
  4042a4:	c4 41 7e 7f 85 e0 04 	vmovdqu %ymm8,0x4e0(%r13)
  4042ab:	00 00 
  4042ad:	c4 41 7e 7f 95 20 06 	vmovdqu %ymm10,0x620(%r13)
  4042b4:	00 00 
  4042b6:	c4 41 7e 7f a5 a0 06 	vmovdqu %ymm12,0x6a0(%r13)
  4042bd:	00 00 
  4042bf:	c4 41 7e 6f 7e 40    	vmovdqu 0x40(%r14),%ymm15
  4042c5:	48 8d b4 24 20 19 00 	lea    0x1920(%rsp),%rsi
  4042cc:	00 
  4042cd:	c4 c1 7e 6f a6 40 04 	vmovdqu 0x440(%r14),%ymm4
  4042d4:	00 00 
  4042d6:	c4 41 7e 6f ae 00 01 	vmovdqu 0x100(%r14),%ymm13
  4042dd:	00 00 
  4042df:	c4 41 7e 6f b6 00 05 	vmovdqu 0x500(%r14),%ymm14
  4042e6:	00 00 
  4042e8:	c4 c1 7e 6f 5e 20    	vmovdqu 0x20(%r14),%ymm3
  4042ee:	c4 c1 05 ef 95 40 06 	vpxor  0x640(%r13),%ymm15,%ymm2
  4042f5:	00 00 
  4042f7:	c4 c1 5d ef ad 40 03 	vpxor  0x340(%r13),%ymm4,%ymm5
  4042fe:	00 00 
  404300:	c4 c1 15 ef 45 00    	vpxor  0x0(%r13),%ymm13,%ymm0
  404306:	c4 c1 0d ef 8d 40 07 	vpxor  0x740(%r13),%ymm14,%ymm1
  40430d:	00 00 
  40430f:	c4 c1 65 ef 9d 40 05 	vpxor  0x540(%r13),%ymm3,%ymm3
  404316:	00 00 
  404318:	c4 41 7e 6f be 20 06 	vmovdqu 0x620(%r14),%ymm15
  40431f:	00 00 
  404321:	c5 fe 7f 46 e0       	vmovdqu %ymm0,-0x20(%rsi)
  404326:	c5 fe 7f 0e          	vmovdqu %ymm1,(%rsi)
  40432a:	c5 fe 7f 56 20       	vmovdqu %ymm2,0x20(%rsi)
  40432f:	c5 fe 7f 5e 40       	vmovdqu %ymm3,0x40(%rsi)
  404334:	c4 c1 05 ef a5 40 04 	vpxor  0x440(%r13),%ymm15,%ymm4
  40433b:	00 00 
  40433d:	48 8d 94 24 40 19 00 	lea    0x1940(%rsp),%rdx
  404344:	00 
  404345:	48 8d 8c 24 60 19 00 	lea    0x1960(%rsp),%rcx
  40434c:	00 
  40434d:	e8 2e 57 00 00       	callq  409a80 <sbox__2>
  404352:	c5 fe 6f ac 24 00 19 	vmovdqu 0x1900(%rsp),%ymm5
  404359:	00 00 
  40435b:	48 8d bc 24 80 19 00 	lea    0x1980(%rsp),%rdi
  404362:	00 
  404363:	c5 fe 6f 7f a0       	vmovdqu -0x60(%rdi),%ymm7
  404368:	c5 7e 6f 4f c0       	vmovdqu -0x40(%rdi),%ymm9
  40436d:	c5 7e 6f 5f e0       	vmovdqu -0x20(%rdi),%ymm11
  404372:	c4 c1 55 ef b5 a0 00 	vpxor  0xa0(%r13),%ymm5,%ymm6
  404379:	00 00 
  40437b:	c4 41 45 ef 45 60    	vpxor  0x60(%r13),%ymm7,%ymm8
  404381:	c4 41 35 ef 95 e0 02 	vpxor  0x2e0(%r13),%ymm9,%ymm10
  404388:	00 00 
  40438a:	c4 41 25 ef a5 20 02 	vpxor  0x220(%r13),%ymm11,%ymm12
  404391:	00 00 
  404393:	c4 c1 7e 7f b5 a0 00 	vmovdqu %ymm6,0xa0(%r13)
  40439a:	00 00 
  40439c:	c4 41 7e 7f 45 60    	vmovdqu %ymm8,0x60(%r13)
  4043a2:	c4 41 7e 7f 95 e0 02 	vmovdqu %ymm10,0x2e0(%r13)
  4043a9:	00 00 
  4043ab:	c4 41 7e 7f a5 20 02 	vmovdqu %ymm12,0x220(%r13)
  4043b2:	00 00 
  4043b4:	c4 41 7e 6f be 20 05 	vmovdqu 0x520(%r14),%ymm15
  4043bb:	00 00 
  4043bd:	48 8d b4 24 a0 19 00 	lea    0x19a0(%rsp),%rsi
  4043c4:	00 
  4043c5:	c4 c1 7e 6f a6 20 02 	vmovdqu 0x220(%r14),%ymm4
  4043cc:	00 00 
  4043ce:	c4 41 7e 6f ae 60 04 	vmovdqu 0x460(%r14),%ymm13
  4043d5:	00 00 
  4043d7:	c4 41 7e 6f b6 40 05 	vmovdqu 0x540(%r14),%ymm14
  4043de:	00 00 
  4043e0:	c4 c1 7e 6f 9e 00 04 	vmovdqu 0x400(%r14),%ymm3
  4043e7:	00 00 
  4043e9:	c4 c1 05 ef 95 40 02 	vpxor  0x240(%r13),%ymm15,%ymm2
  4043f0:	00 00 
  4043f2:	c4 c1 5d ef ad 80 07 	vpxor  0x780(%r13),%ymm4,%ymm5
  4043f9:	00 00 
  4043fb:	c4 c1 15 ef 85 40 04 	vpxor  0x440(%r13),%ymm13,%ymm0
  404402:	00 00 
  404404:	c4 c1 0d ef 8d 40 03 	vpxor  0x340(%r13),%ymm14,%ymm1
  40440b:	00 00 
  40440d:	c4 c1 65 ef 9d 40 01 	vpxor  0x140(%r13),%ymm3,%ymm3
  404414:	00 00 
  404416:	c4 41 7e 6f be 60 07 	vmovdqu 0x760(%r14),%ymm15
  40441d:	00 00 
  40441f:	c5 fe 7f 46 e0       	vmovdqu %ymm0,-0x20(%rsi)
  404424:	c5 fe 7f 0e          	vmovdqu %ymm1,(%rsi)
  404428:	c5 fe 7f 56 20       	vmovdqu %ymm2,0x20(%rsi)
  40442d:	c5 fe 7f 5e 40       	vmovdqu %ymm3,0x40(%rsi)
  404432:	c4 c1 05 ef 65 40    	vpxor  0x40(%r13),%ymm15,%ymm4
  404438:	48 8d 94 24 c0 19 00 	lea    0x19c0(%rsp),%rdx
  40443f:	00 
  404440:	48 8d 8c 24 e0 19 00 	lea    0x19e0(%rsp),%rcx
  404447:	00 
  404448:	e8 03 5c 00 00       	callq  40a050 <sbox__3>
  40444d:	c5 fe 6f ac 24 80 19 	vmovdqu 0x1980(%rsp),%ymm5
  404454:	00 00 
  404456:	48 8d bc 24 00 1a 00 	lea    0x1a00(%rsp),%rdi
  40445d:	00 
  40445e:	c5 fe 6f 7f a0       	vmovdqu -0x60(%rdi),%ymm7
  404463:	c5 7e 6f 4f c0       	vmovdqu -0x40(%rdi),%ymm9
  404468:	c5 7e 6f 5f e0       	vmovdqu -0x20(%rdi),%ymm11
  40446d:	c4 c1 55 ef b5 e0 06 	vpxor  0x6e0(%r13),%ymm5,%ymm6
  404474:	00 00 
  404476:	c4 41 45 ef 85 a0 04 	vpxor  0x4a0(%r13),%ymm7,%ymm8
  40447d:	00 00 
  40447f:	c4 41 35 ef 95 60 06 	vpxor  0x660(%r13),%ymm9,%ymm10
  404486:	00 00 
  404488:	c4 41 25 ef a5 20 07 	vpxor  0x720(%r13),%ymm11,%ymm12
  40448f:	00 00 
  404491:	c4 c1 7e 7f b5 e0 06 	vmovdqu %ymm6,0x6e0(%r13)
  404498:	00 00 
  40449a:	c4 41 7e 7f 85 a0 04 	vmovdqu %ymm8,0x4a0(%r13)
  4044a1:	00 00 
  4044a3:	c4 41 7e 7f 95 60 06 	vmovdqu %ymm10,0x660(%r13)
  4044aa:	00 00 
  4044ac:	c4 41 7e 7f a5 20 07 	vmovdqu %ymm12,0x720(%r13)
  4044b3:	00 00 
  4044b5:	c4 41 7e 6f be a0 01 	vmovdqu 0x1a0(%r14),%ymm15
  4044bc:	00 00 
  4044be:	48 8d b4 24 20 1a 00 	lea    0x1a20(%rsp),%rsi
  4044c5:	00 
  4044c6:	c4 c1 7e 6f a6 a0 05 	vmovdqu 0x5a0(%r14),%ymm4
  4044cd:	00 00 
  4044cf:	c4 41 7e 6f ae 60 03 	vmovdqu 0x360(%r14),%ymm13
  4044d6:	00 00 
  4044d8:	c4 c1 7e 6f 9e 80 03 	vmovdqu 0x380(%r14),%ymm3
  4044df:	00 00 
  4044e1:	c4 41 7e 6f b6 c0 00 	vmovdqu 0xc0(%r14),%ymm14
  4044e8:	00 00 
  4044ea:	c4 c1 05 ef 95 80 06 	vpxor  0x680(%r13),%ymm15,%ymm2
  4044f1:	00 00 
  4044f3:	c4 c1 5d ef ad 80 03 	vpxor  0x380(%r13),%ymm4,%ymm5
  4044fa:	00 00 
  4044fc:	c4 c1 15 ef 45 40    	vpxor  0x40(%r13),%ymm13,%ymm0
  404502:	c4 c1 0d ef 8d 80 07 	vpxor  0x780(%r13),%ymm14,%ymm1
  404509:	00 00 
  40450b:	c4 c1 65 ef 9d 80 05 	vpxor  0x580(%r13),%ymm3,%ymm3
  404512:	00 00 
  404514:	c4 41 7e 6f be c0 05 	vmovdqu 0x5c0(%r14),%ymm15
  40451b:	00 00 
  40451d:	c5 fe 7f 46 e0       	vmovdqu %ymm0,-0x20(%rsi)
  404522:	c5 fe 7f 0e          	vmovdqu %ymm1,(%rsi)
  404526:	c5 fe 7f 56 20       	vmovdqu %ymm2,0x20(%rsi)
  40452b:	c5 fe 7f 5e 40       	vmovdqu %ymm3,0x40(%rsi)
  404530:	c4 c1 05 ef a5 80 04 	vpxor  0x480(%r13),%ymm15,%ymm4
  404537:	00 00 
  404539:	48 8d 94 24 40 1a 00 	lea    0x1a40(%rsp),%rdx
  404540:	00 
  404541:	48 8d 8c 24 60 1a 00 	lea    0x1a60(%rsp),%rcx
  404548:	00 
  404549:	e8 52 56 00 00       	callq  409ba0 <sbox__4>
  40454e:	c5 fe 6f ac 24 00 1a 	vmovdqu 0x1a00(%rsp),%ymm5
  404555:	00 00 
  404557:	48 8d bc 24 80 1a 00 	lea    0x1a80(%rsp),%rdi
  40455e:	00 
  40455f:	c5 fe 6f 7f a0       	vmovdqu -0x60(%rdi),%ymm7
  404564:	c5 7e 6f 4f c0       	vmovdqu -0x40(%rdi),%ymm9
  404569:	c5 7e 6f 5f e0       	vmovdqu -0x20(%rdi),%ymm11
  40456e:	c4 c1 55 ef 75 20    	vpxor  0x20(%r13),%ymm5,%ymm6
  404574:	c4 41 45 ef 85 60 02 	vpxor  0x260(%r13),%ymm7,%ymm8
  40457b:	00 00 
  40457d:	c4 41 35 ef 95 e0 07 	vpxor  0x7e0(%r13),%ymm9,%ymm10
  404584:	00 00 
  404586:	c4 41 25 ef a5 20 05 	vpxor  0x520(%r13),%ymm11,%ymm12
  40458d:	00 00 
  40458f:	c4 c1 7e 7f 75 20    	vmovdqu %ymm6,0x20(%r13)
  404595:	c4 41 7e 7f 85 60 02 	vmovdqu %ymm8,0x260(%r13)
  40459c:	00 00 
  40459e:	c4 41 7e 7f 95 e0 07 	vmovdqu %ymm10,0x7e0(%r13)
  4045a5:	00 00 
  4045a7:	c4 41 7e 7f a5 20 05 	vmovdqu %ymm12,0x520(%r13)
  4045ae:	00 00 
  4045b0:	c4 41 7e 6f be c0 01 	vmovdqu 0x1c0(%r14),%ymm15
  4045b7:	00 00 
  4045b9:	48 8d b4 24 a0 1a 00 	lea    0x1aa0(%rsp),%rsi
  4045c0:	00 
  4045c1:	c4 c1 7e 6f a6 c0 04 	vmovdqu 0x4c0(%r14),%ymm4
  4045c8:	00 00 
  4045ca:	c4 41 7e 6f ae a0 02 	vmovdqu 0x2a0(%r14),%ymm13
  4045d1:	00 00 
  4045d3:	c4 41 7e 6f b6 80 00 	vmovdqu 0x80(%r14),%ymm14
  4045da:	00 00 
  4045dc:	c4 c1 7e 6f 9e c0 07 	vmovdqu 0x7c0(%r14),%ymm3
  4045e3:	00 00 
  4045e5:	c4 c1 05 ef 95 80 02 	vpxor  0x280(%r13),%ymm15,%ymm2
  4045ec:	00 00 
  4045ee:	c4 c1 5d ef ad c0 07 	vpxor  0x7c0(%r13),%ymm4,%ymm5
  4045f5:	00 00 
  4045f7:	c4 c1 15 ef 85 80 04 	vpxor  0x480(%r13),%ymm13,%ymm0
  4045fe:	00 00 
  404600:	c4 c1 0d ef 8d 80 03 	vpxor  0x380(%r13),%ymm14,%ymm1
  404607:	00 00 
  404609:	c4 c1 65 ef 9d 80 01 	vpxor  0x180(%r13),%ymm3,%ymm3
  404610:	00 00 
  404612:	c4 41 7e 6f be 80 07 	vmovdqu 0x780(%r14),%ymm15
  404619:	00 00 
  40461b:	c5 fe 7f 46 e0       	vmovdqu %ymm0,-0x20(%rsi)
  404620:	c5 fe 7f 0e          	vmovdqu %ymm1,(%rsi)
  404624:	c5 fe 7f 56 20       	vmovdqu %ymm2,0x20(%rsi)
  404629:	c5 fe 7f 5e 40       	vmovdqu %ymm3,0x40(%rsi)
  40462e:	c4 c1 05 ef a5 80 00 	vpxor  0x80(%r13),%ymm15,%ymm4
  404635:	00 00 
  404637:	48 8d 94 24 c0 1a 00 	lea    0x1ac0(%rsp),%rdx
  40463e:	00 
  40463f:	48 8d 8c 24 e0 1a 00 	lea    0x1ae0(%rsp),%rcx
  404646:	00 
  404647:	e8 a4 56 00 00       	callq  409cf0 <sbox__5>
  40464c:	c5 fe 6f ac 24 80 1a 	vmovdqu 0x1a80(%rsp),%ymm5
  404653:	00 00 
  404655:	48 8d bc 24 00 1b 00 	lea    0x1b00(%rsp),%rdi
  40465c:	00 
  40465d:	c5 fe 6f 7f a0       	vmovdqu -0x60(%rdi),%ymm7
  404662:	c5 7e 6f 4f c0       	vmovdqu -0x40(%rdi),%ymm9
  404667:	c5 7e 6f 5f e0       	vmovdqu -0x20(%rdi),%ymm11
  40466c:	c4 c1 55 ef b5 20 04 	vpxor  0x420(%r13),%ymm5,%ymm6
  404673:	00 00 
  404675:	c4 41 45 ef 85 e0 03 	vpxor  0x3e0(%r13),%ymm7,%ymm8
  40467c:	00 00 
  40467e:	c4 41 35 ef 95 60 05 	vpxor  0x560(%r13),%ymm9,%ymm10
  404685:	00 00 
  404687:	c4 41 25 ef a5 a0 05 	vpxor  0x5a0(%r13),%ymm11,%ymm12
  40468e:	00 00 
  404690:	c4 c1 7e 7f b5 20 04 	vmovdqu %ymm6,0x420(%r13)
  404697:	00 00 
  404699:	c4 41 7e 7f 85 e0 03 	vmovdqu %ymm8,0x3e0(%r13)
  4046a0:	00 00 
  4046a2:	c4 41 7e 7f 95 60 05 	vmovdqu %ymm10,0x560(%r13)
  4046a9:	00 00 
  4046ab:	c4 41 7e 7f a5 a0 05 	vmovdqu %ymm12,0x5a0(%r13)
  4046b2:	00 00 
  4046b4:	c4 41 7e 6f be 80 01 	vmovdqu 0x180(%r14),%ymm15
  4046bb:	00 00 
  4046bd:	48 8d b4 24 20 1b 00 	lea    0x1b20(%rsp),%rsi
  4046c4:	00 
  4046c5:	c4 c1 7e 6f a6 a0 07 	vmovdqu 0x7a0(%r14),%ymm4
  4046cc:	00 00 
  4046ce:	c4 41 7e 6f 6e 60    	vmovdqu 0x60(%r14),%ymm13
  4046d4:	c4 41 7e 6f b6 c0 03 	vmovdqu 0x3c0(%r14),%ymm14
  4046db:	00 00 
  4046dd:	c4 c1 7e 6f 9e a0 04 	vmovdqu 0x4a0(%r14),%ymm3
  4046e4:	00 00 
  4046e6:	c4 c1 05 ef 95 c0 06 	vpxor  0x6c0(%r13),%ymm15,%ymm2
  4046ed:	00 00 
  4046ef:	c4 c1 5d ef ad c0 03 	vpxor  0x3c0(%r13),%ymm4,%ymm5
  4046f6:	00 00 
  4046f8:	c4 c1 15 ef 85 80 00 	vpxor  0x80(%r13),%ymm13,%ymm0
  4046ff:	00 00 
  404701:	c4 c1 0d ef 8d c0 07 	vpxor  0x7c0(%r13),%ymm14,%ymm1
  404708:	00 00 
  40470a:	c4 c1 65 ef 9d c0 05 	vpxor  0x5c0(%r13),%ymm3,%ymm3
  404711:	00 00 
  404713:	c4 41 7e 6f be 80 06 	vmovdqu 0x680(%r14),%ymm15
  40471a:	00 00 
  40471c:	c5 fe 7f 46 e0       	vmovdqu %ymm0,-0x20(%rsi)
  404721:	c5 fe 7f 0e          	vmovdqu %ymm1,(%rsi)
  404725:	c5 fe 7f 56 20       	vmovdqu %ymm2,0x20(%rsi)
  40472a:	c5 fe 7f 5e 40       	vmovdqu %ymm3,0x40(%rsi)
  40472f:	c4 c1 05 ef a5 c0 04 	vpxor  0x4c0(%r13),%ymm15,%ymm4
  404736:	00 00 
  404738:	48 8d 94 24 40 1b 00 	lea    0x1b40(%rsp),%rdx
  40473f:	00 
  404740:	48 8d 8c 24 60 1b 00 	lea    0x1b60(%rsp),%rcx
  404747:	00 
  404748:	e8 d3 56 00 00       	callq  409e20 <sbox__6>
  40474d:	c5 fe 6f ac 24 00 1b 	vmovdqu 0x1b00(%rsp),%ymm5
  404754:	00 00 
  404756:	48 8d bc 24 80 1b 00 	lea    0x1b80(%rsp),%rdi
  40475d:	00 
  40475e:	c5 fe 6f 7f a0       	vmovdqu -0x60(%rdi),%ymm7
  404763:	c5 7e 6f 4f c0       	vmovdqu -0x40(%rdi),%ymm9
  404768:	c5 7e 6f 5f e0       	vmovdqu -0x20(%rdi),%ymm11
  40476d:	c4 c1 55 ef b5 e0 00 	vpxor  0xe0(%r13),%ymm5,%ymm6
  404774:	00 00 
  404776:	c4 41 45 ef 85 60 04 	vpxor  0x460(%r13),%ymm7,%ymm8
  40477d:	00 00 
  40477f:	c4 41 35 ef 95 a0 02 	vpxor  0x2a0(%r13),%ymm9,%ymm10
  404786:	00 00 
  404788:	c4 41 25 ef a5 20 01 	vpxor  0x120(%r13),%ymm11,%ymm12
  40478f:	00 00 
  404791:	c4 c1 7e 7f b5 e0 00 	vmovdqu %ymm6,0xe0(%r13)
  404798:	00 00 
  40479a:	c4 41 7e 7f 85 60 04 	vmovdqu %ymm8,0x460(%r13)
  4047a1:	00 00 
  4047a3:	c4 41 7e 7f 95 a0 02 	vmovdqu %ymm10,0x2a0(%r13)
  4047aa:	00 00 
  4047ac:	c4 41 7e 7f a5 20 01 	vmovdqu %ymm12,0x120(%r13)
  4047b3:	00 00 
  4047b5:	c4 41 7e 6f be c0 02 	vmovdqu 0x2c0(%r14),%ymm15
  4047bc:	00 00 
  4047be:	48 8d b4 24 a0 1b 00 	lea    0x1ba0(%rsp),%rsi
  4047c5:	00 
  4047c6:	c4 c1 7e 6f a6 a0 00 	vmovdqu 0xa0(%r14),%ymm4
  4047cd:	00 00 
  4047cf:	c4 41 7e 6f ae c0 06 	vmovdqu 0x6c0(%r14),%ymm13
  4047d6:	00 00 
  4047d8:	c4 41 7e 6f b6 60 02 	vmovdqu 0x260(%r14),%ymm14
  4047df:	00 00 
  4047e1:	c4 c1 7e 6f 9e 80 04 	vmovdqu 0x480(%r14),%ymm3
  4047e8:	00 00 
  4047ea:	c4 c1 05 ef 95 c0 02 	vpxor  0x2c0(%r13),%ymm15,%ymm2
  4047f1:	00 00 
  4047f3:	c4 c1 5d ef ad 00 07 	vpxor  0x700(%r13),%ymm4,%ymm5
  4047fa:	00 00 
  4047fc:	c4 c1 15 ef 85 c0 04 	vpxor  0x4c0(%r13),%ymm13,%ymm0
  404803:	00 00 
  404805:	c4 c1 0d ef 8d c0 03 	vpxor  0x3c0(%r13),%ymm14,%ymm1
  40480c:	00 00 
  40480e:	c4 c1 65 ef 9d c0 01 	vpxor  0x1c0(%r13),%ymm3,%ymm3
  404815:	00 00 
  404817:	c4 41 7e 6f be a0 03 	vmovdqu 0x3a0(%r14),%ymm15
  40481e:	00 00 
  404820:	c5 fe 7f 46 e0       	vmovdqu %ymm0,-0x20(%rsi)
  404825:	c5 fe 7f 0e          	vmovdqu %ymm1,(%rsi)
  404829:	c5 fe 7f 56 20       	vmovdqu %ymm2,0x20(%rsi)
  40482e:	c5 fe 7f 5e 40       	vmovdqu %ymm3,0x40(%rsi)
  404833:	c4 c1 05 ef a5 c0 00 	vpxor  0xc0(%r13),%ymm15,%ymm4
  40483a:	00 00 
  40483c:	48 8d 94 24 c0 1b 00 	lea    0x1bc0(%rsp),%rdx
  404843:	00 
  404844:	48 8d 8c 24 e0 1b 00 	lea    0x1be0(%rsp),%rcx
  40484b:	00 
  40484c:	e8 ef 56 00 00       	callq  409f40 <sbox__7>
  404851:	c5 fe 6f ac 24 80 1b 	vmovdqu 0x1b80(%rsp),%ymm5
  404858:	00 00 
  40485a:	48 8d bc 24 00 1c 00 	lea    0x1c00(%rsp),%rdi
  404861:	00 
  404862:	c5 fe 6f 77 a0       	vmovdqu -0x60(%rdi),%ymm6
  404867:	c5 7e 6f 47 c0       	vmovdqu -0x40(%rdi),%ymm8
  40486c:	c5 7e 6f 57 e0       	vmovdqu -0x20(%rdi),%ymm10
  404871:	c4 c1 55 ef a5 20 03 	vpxor  0x320(%r13),%ymm5,%ymm4
  404878:	00 00 
  40487a:	c4 c1 4d ef bd e0 05 	vpxor  0x5e0(%r13),%ymm6,%ymm7
  404881:	00 00 
  404883:	c4 41 3d ef 8d 60 01 	vpxor  0x160(%r13),%ymm8,%ymm9
  40488a:	00 00 
  40488c:	c4 41 2d ef 9d a0 03 	vpxor  0x3a0(%r13),%ymm10,%ymm11
  404893:	00 00 
  404895:	c4 c1 7e 7f a5 20 03 	vmovdqu %ymm4,0x320(%r13)
  40489c:	00 00 
  40489e:	c4 c1 7e 7f bd e0 05 	vmovdqu %ymm7,0x5e0(%r13)
  4048a5:	00 00 
  4048a7:	c4 41 7e 7f 8d 60 01 	vmovdqu %ymm9,0x160(%r13)
  4048ae:	00 00 
  4048b0:	c4 41 7e 7f 9d a0 03 	vmovdqu %ymm11,0x3a0(%r13)
  4048b7:	00 00 
  4048b9:	c4 41 7e 6f be 20 06 	vmovdqu 0x620(%r14),%ymm15
  4048c0:	00 00 
  4048c2:	48 8d b4 24 20 1c 00 	lea    0x1c20(%rsp),%rsi
  4048c9:	00 
  4048ca:	c4 41 7e 6f a6 60 04 	vmovdqu 0x460(%r14),%ymm12
  4048d1:	00 00 
  4048d3:	c4 41 7e 6f ae 00 05 	vmovdqu 0x500(%r14),%ymm13
  4048da:	00 00 
  4048dc:	c4 41 7e 6f b6 60 07 	vmovdqu 0x760(%r14),%ymm14
  4048e3:	00 00 
  4048e5:	c4 c1 05 ef 9d 20 05 	vpxor  0x520(%r13),%ymm15,%ymm3
  4048ec:	00 00 
  4048ee:	c4 c1 5d ef ae 40 05 	vpxor  0x540(%r14),%ymm4,%ymm5
  4048f5:	00 00 
  4048f7:	c4 c1 1d ef 85 e0 00 	vpxor  0xe0(%r13),%ymm12,%ymm0
  4048fe:	00 00 
  404900:	c4 c1 15 ef 8d 20 07 	vpxor  0x720(%r13),%ymm13,%ymm1
  404907:	00 00 
  404909:	c4 c1 0d ef 95 20 06 	vpxor  0x620(%r13),%ymm14,%ymm2
  404910:	00 00 
  404912:	c4 41 7e 6f be 20 01 	vmovdqu 0x120(%r14),%ymm15
  404919:	00 00 
  40491b:	c5 fe 7f 46 e0       	vmovdqu %ymm0,-0x20(%rsi)
  404920:	c5 fe 7f 0e          	vmovdqu %ymm1,(%rsi)
  404924:	c5 fe 7f 56 20       	vmovdqu %ymm2,0x20(%rsi)
  404929:	c5 fe 7f 5e 40       	vmovdqu %ymm3,0x40(%rsi)
  40492e:	c4 c1 05 ef a5 20 04 	vpxor  0x420(%r13),%ymm15,%ymm4
  404935:	00 00 
  404937:	48 8d 94 24 40 1c 00 	lea    0x1c40(%rsp),%rdx
  40493e:	00 
  40493f:	48 8d 8c 24 60 1c 00 	lea    0x1c60(%rsp),%rcx
  404946:	00 
  404947:	e8 d4 4e 00 00       	callq  409820 <sbox__0>
  40494c:	c5 fe 6f ac 24 00 1c 	vmovdqu 0x1c00(%rsp),%ymm5
  404953:	00 00 
  404955:	48 8d bc 24 80 1c 00 	lea    0x1c80(%rsp),%rdi
  40495c:	00 
  40495d:	c5 fe 6f 7f a0       	vmovdqu -0x60(%rdi),%ymm7
  404962:	c5 7e 6f 4f c0       	vmovdqu -0x40(%rdi),%ymm9
  404967:	c5 7e 6f 5f e0       	vmovdqu -0x20(%rdi),%ymm11
  40496c:	c4 c1 55 ef b5 40 07 	vpxor  0x740(%r13),%ymm5,%ymm6
  404973:	00 00 
  404975:	c4 41 45 ef 85 80 07 	vpxor  0x780(%r13),%ymm7,%ymm8
  40497c:	00 00 
  40497e:	c4 41 35 ef 95 80 01 	vpxor  0x180(%r13),%ymm9,%ymm10
  404985:	00 00 
  404987:	c4 41 25 ef a5 c0 01 	vpxor  0x1c0(%r13),%ymm11,%ymm12
  40498e:	00 00 
  404990:	c4 c1 7e 7f b5 40 07 	vmovdqu %ymm6,0x740(%r13)
  404997:	00 00 
  404999:	c4 41 7e 7f 85 80 07 	vmovdqu %ymm8,0x780(%r13)
  4049a0:	00 00 
  4049a2:	c4 41 7e 7f 95 80 01 	vmovdqu %ymm10,0x180(%r13)
  4049a9:	00 00 
  4049ab:	c4 41 7e 7f a5 c0 01 	vmovdqu %ymm12,0x1c0(%r13)
  4049b2:	00 00 
  4049b4:	c4 41 7e 6f be 00 07 	vmovdqu 0x700(%r14),%ymm15
  4049bb:	00 00 
  4049bd:	48 8d b4 24 a0 1c 00 	lea    0x1ca0(%rsp),%rsi
  4049c4:	00 
  4049c5:	c4 c1 7e 6f 66 40    	vmovdqu 0x40(%r14),%ymm4
  4049cb:	c4 41 7e 6f ae 40 07 	vmovdqu 0x740(%r14),%ymm13
  4049d2:	00 00 
  4049d4:	c4 41 7e 6f b6 20 02 	vmovdqu 0x220(%r14),%ymm14
  4049db:	00 00 
  4049dd:	c4 c1 7e 6f 9e 40 04 	vmovdqu 0x440(%r14),%ymm3
  4049e4:	00 00 
  4049e6:	c4 c1 05 ef 95 20 02 	vpxor  0x220(%r13),%ymm15,%ymm2
  4049ed:	00 00 
  4049ef:	c4 c1 5d ef ad 60 07 	vpxor  0x760(%r13),%ymm4,%ymm5
  4049f6:	00 00 
  4049f8:	c4 c1 15 ef 85 20 04 	vpxor  0x420(%r13),%ymm13,%ymm0
  4049ff:	00 00 
  404a01:	c4 c1 0d ef 8d 20 03 	vpxor  0x320(%r13),%ymm14,%ymm1
  404a08:	00 00 
  404a0a:	c4 c1 65 ef 9d 20 01 	vpxor  0x120(%r13),%ymm3,%ymm3
  404a11:	00 00 
  404a13:	c4 41 7e 6f be 00 01 	vmovdqu 0x100(%r14),%ymm15
  404a1a:	00 00 
  404a1c:	c5 fe 7f 46 e0       	vmovdqu %ymm0,-0x20(%rsi)
  404a21:	c5 fe 7f 0e          	vmovdqu %ymm1,(%rsi)
  404a25:	c5 fe 7f 56 20       	vmovdqu %ymm2,0x20(%rsi)
  404a2a:	c5 fe 7f 5e 40       	vmovdqu %ymm3,0x40(%rsi)
  404a2f:	c4 c1 05 ef 65 20    	vpxor  0x20(%r13),%ymm15,%ymm4
  404a35:	48 8d 94 24 c0 1c 00 	lea    0x1cc0(%rsp),%rdx
  404a3c:	00 
  404a3d:	48 8d 8c 24 e0 1c 00 	lea    0x1ce0(%rsp),%rcx
  404a44:	00 
  404a45:	e8 26 4f 00 00       	callq  409970 <sbox__1>
  404a4a:	c5 fe 6f ac 24 80 1c 	vmovdqu 0x1c80(%rsp),%ymm5
  404a51:	00 00 
  404a53:	48 8d bc 24 00 1d 00 	lea    0x1d00(%rsp),%rdi
  404a5a:	00 
  404a5b:	c5 fe 6f 7f a0       	vmovdqu -0x60(%rdi),%ymm7
  404a60:	c5 7e 6f 4f c0       	vmovdqu -0x40(%rdi),%ymm9
  404a65:	c5 7e 6f 5f e0       	vmovdqu -0x20(%rdi),%ymm11
  404a6a:	c4 c1 55 ef b5 40 03 	vpxor  0x340(%r13),%ymm5,%ymm6
  404a71:	00 00 
  404a73:	c4 41 45 ef 85 c0 04 	vpxor  0x4c0(%r13),%ymm7,%ymm8
  404a7a:	00 00 
  404a7c:	c4 41 35 ef 95 00 06 	vpxor  0x600(%r13),%ymm9,%ymm10
  404a83:	00 00 
  404a85:	c4 41 25 ef a5 80 06 	vpxor  0x680(%r13),%ymm11,%ymm12
  404a8c:	00 00 
  404a8e:	c4 c1 7e 7f b5 40 03 	vmovdqu %ymm6,0x340(%r13)
  404a95:	00 00 
  404a97:	c4 41 7e 7f 85 c0 04 	vmovdqu %ymm8,0x4c0(%r13)
  404a9e:	00 00 
  404aa0:	c4 41 7e 7f 95 00 06 	vmovdqu %ymm10,0x600(%r13)
  404aa7:	00 00 
  404aa9:	c4 41 7e 7f a5 80 06 	vmovdqu %ymm12,0x680(%r13)
  404ab0:	00 00 
  404ab2:	c4 41 7e 6f be 60 06 	vmovdqu 0x660(%r14),%ymm15
  404ab9:	00 00 
  404abb:	48 8d b4 24 20 1d 00 	lea    0x1d20(%rsp),%rsi
  404ac2:	00 
  404ac3:	c4 c1 7e 6f a6 40 02 	vmovdqu 0x240(%r14),%ymm4
  404aca:	00 00 
  404acc:	c4 41 7e 6f ae 20 07 	vmovdqu 0x720(%r14),%ymm13
  404ad3:	00 00 
  404ad5:	c4 41 7e 6f b6 00 03 	vmovdqu 0x300(%r14),%ymm14
  404adc:	00 00 
  404ade:	c4 c1 7e 6f 9e 40 06 	vmovdqu 0x640(%r14),%ymm3
  404ae5:	00 00 
  404ae7:	c4 c1 05 ef 95 60 06 	vpxor  0x660(%r13),%ymm15,%ymm2
  404aee:	00 00 
  404af0:	c4 c1 5d ef ad 60 03 	vpxor  0x360(%r13),%ymm4,%ymm5
  404af7:	00 00 
  404af9:	c4 c1 15 ef 45 20    	vpxor  0x20(%r13),%ymm13,%ymm0
  404aff:	c4 c1 0d ef 8d 60 07 	vpxor  0x760(%r13),%ymm14,%ymm1
  404b06:	00 00 
  404b08:	c4 c1 65 ef 9d 60 05 	vpxor  0x560(%r13),%ymm3,%ymm3
  404b0f:	00 00 
  404b11:	c4 41 7e 6f be 20 04 	vmovdqu 0x420(%r14),%ymm15
  404b18:	00 00 
  404b1a:	c5 fe 7f 46 e0       	vmovdqu %ymm0,-0x20(%rsi)
  404b1f:	c5 fe 7f 0e          	vmovdqu %ymm1,(%rsi)
  404b23:	c5 fe 7f 56 20       	vmovdqu %ymm2,0x20(%rsi)
  404b28:	c5 fe 7f 5e 40       	vmovdqu %ymm3,0x40(%rsi)
  404b2d:	c4 c1 05 ef a5 60 04 	vpxor  0x460(%r13),%ymm15,%ymm4
  404b34:	00 00 
  404b36:	48 8d 94 24 40 1d 00 	lea    0x1d40(%rsp),%rdx
  404b3d:	00 
  404b3e:	48 8d 8c 24 60 1d 00 	lea    0x1d60(%rsp),%rcx
  404b45:	00 
  404b46:	e8 35 4f 00 00       	callq  409a80 <sbox__2>
  404b4b:	c5 fe 6f ac 24 00 1d 	vmovdqu 0x1d00(%rsp),%ymm5
  404b52:	00 00 
  404b54:	48 8d bc 24 80 1d 00 	lea    0x1d80(%rsp),%rdi
  404b5b:	00 
  404b5c:	c5 fe 6f 7f a0       	vmovdqu -0x60(%rdi),%ymm7
  404b61:	c5 7e 6f 4f c0       	vmovdqu -0x40(%rdi),%ymm9
  404b66:	c5 7e 6f 5f e0       	vmovdqu -0x20(%rdi),%ymm11
  404b6b:	c4 c1 55 ef b5 80 00 	vpxor  0x80(%r13),%ymm5,%ymm6
  404b72:	00 00 
  404b74:	c4 41 45 ef 45 40    	vpxor  0x40(%r13),%ymm7,%ymm8
  404b7a:	c4 41 35 ef 95 c0 02 	vpxor  0x2c0(%r13),%ymm9,%ymm10
  404b81:	00 00 
  404b83:	c4 41 25 ef a5 00 02 	vpxor  0x200(%r13),%ymm11,%ymm12
  404b8a:	00 00 
  404b8c:	c4 c1 7e 7f b5 80 00 	vmovdqu %ymm6,0x80(%r13)
  404b93:	00 00 
  404b95:	c4 41 7e 7f 45 40    	vmovdqu %ymm8,0x40(%r13)
  404b9b:	c4 41 7e 7f 95 c0 02 	vmovdqu %ymm10,0x2c0(%r13)
  404ba2:	00 00 
  404ba4:	c4 41 7e 7f a5 00 02 	vmovdqu %ymm12,0x200(%r13)
  404bab:	00 00 
  404bad:	c4 41 7e 6f be 20 03 	vmovdqu 0x320(%r14),%ymm15
  404bb4:	00 00 
  404bb6:	48 8d b4 24 a0 1d 00 	lea    0x1da0(%rsp),%rsi
  404bbd:	00 
  404bbe:	c4 c1 7e 6f 66 20    	vmovdqu 0x20(%r14),%ymm4
  404bc4:	c4 41 7e 6f ae 00 06 	vmovdqu 0x600(%r14),%ymm13
  404bcb:	00 00 
  404bcd:	c4 41 7e 6f b6 40 03 	vmovdqu 0x340(%r14),%ymm14
  404bd4:	00 00 
  404bd6:	c4 c1 7e 6f 9e 00 02 	vmovdqu 0x200(%r14),%ymm3
  404bdd:	00 00 
  404bdf:	c4 c1 05 ef 95 60 02 	vpxor  0x260(%r13),%ymm15,%ymm2
  404be6:	00 00 
  404be8:	c4 c1 5d ef ad a0 07 	vpxor  0x7a0(%r13),%ymm4,%ymm5
  404bef:	00 00 
  404bf1:	c4 c1 15 ef 85 60 04 	vpxor  0x460(%r13),%ymm13,%ymm0
  404bf8:	00 00 
  404bfa:	c4 c1 0d ef 8d 60 03 	vpxor  0x360(%r13),%ymm14,%ymm1
  404c01:	00 00 
  404c03:	c4 c1 65 ef 9d 60 01 	vpxor  0x160(%r13),%ymm3,%ymm3
  404c0a:	00 00 
  404c0c:	c4 41 7e 6f be 60 05 	vmovdqu 0x560(%r14),%ymm15
  404c13:	00 00 
  404c15:	c5 fe 7f 46 e0       	vmovdqu %ymm0,-0x20(%rsi)
  404c1a:	c5 fe 7f 0e          	vmovdqu %ymm1,(%rsi)
  404c1e:	c5 fe 7f 56 20       	vmovdqu %ymm2,0x20(%rsi)
  404c23:	c5 fe 7f 5e 40       	vmovdqu %ymm3,0x40(%rsi)
  404c28:	c4 c1 05 ef 65 60    	vpxor  0x60(%r13),%ymm15,%ymm4
  404c2e:	48 8d 94 24 c0 1d 00 	lea    0x1dc0(%rsp),%rdx
  404c35:	00 
  404c36:	48 8d 8c 24 e0 1d 00 	lea    0x1de0(%rsp),%rcx
  404c3d:	00 
  404c3e:	e8 0d 54 00 00       	callq  40a050 <sbox__3>
  404c43:	c5 fe 6f ac 24 80 1d 	vmovdqu 0x1d80(%rsp),%ymm5
  404c4a:	00 00 
  404c4c:	48 8d bc 24 00 1e 00 	lea    0x1e00(%rsp),%rdi
  404c53:	00 
  404c54:	c5 fe 6f 7f a0       	vmovdqu -0x60(%rdi),%ymm7
  404c59:	c5 7e 6f 4f c0       	vmovdqu -0x40(%rdi),%ymm9
  404c5e:	c5 7e 6f 5f e0       	vmovdqu -0x20(%rdi),%ymm11
  404c63:	c4 c1 55 ef b5 c0 06 	vpxor  0x6c0(%r13),%ymm5,%ymm6
  404c6a:	00 00 
  404c6c:	c4 41 45 ef 85 80 04 	vpxor  0x480(%r13),%ymm7,%ymm8
  404c73:	00 00 
  404c75:	c4 41 35 ef 95 40 06 	vpxor  0x640(%r13),%ymm9,%ymm10
  404c7c:	00 00 
  404c7e:	c4 41 25 ef a5 00 07 	vpxor  0x700(%r13),%ymm11,%ymm12
  404c85:	00 00 
  404c87:	c4 c1 7e 7f b5 c0 06 	vmovdqu %ymm6,0x6c0(%r13)
  404c8e:	00 00 
  404c90:	c4 41 7e 7f 85 80 04 	vmovdqu %ymm8,0x480(%r13)
  404c97:	00 00 
  404c99:	c4 41 7e 7f 95 40 06 	vmovdqu %ymm10,0x640(%r13)
  404ca0:	00 00 
  404ca2:	c4 41 7e 7f a5 00 07 	vmovdqu %ymm12,0x700(%r13)
  404ca9:	00 00 
  404cab:	c4 41 7e 6f be 80 07 	vmovdqu 0x780(%r14),%ymm15
  404cb2:	00 00 
  404cb4:	48 8d b4 24 20 1e 00 	lea    0x1e20(%rsp),%rsi
  404cbb:	00 
  404cbc:	c4 c1 7e 6f a6 a0 03 	vmovdqu 0x3a0(%r14),%ymm4
  404cc3:	00 00 
  404cc5:	c4 41 7e 6f ae 60 01 	vmovdqu 0x160(%r14),%ymm13
  404ccc:	00 00 
  404cce:	c4 c1 7e 6f 9e 80 01 	vmovdqu 0x180(%r14),%ymm3
  404cd5:	00 00 
  404cd7:	c4 41 7e 6f b6 a0 06 	vmovdqu 0x6a0(%r14),%ymm14
  404cde:	00 00 
  404ce0:	c4 c1 05 ef 95 a0 06 	vpxor  0x6a0(%r13),%ymm15,%ymm2
  404ce7:	00 00 
  404ce9:	c4 c1 5d ef ad a0 03 	vpxor  0x3a0(%r13),%ymm4,%ymm5
  404cf0:	00 00 
  404cf2:	c4 c1 15 ef 45 60    	vpxor  0x60(%r13),%ymm13,%ymm0
  404cf8:	c4 c1 0d ef 8d a0 07 	vpxor  0x7a0(%r13),%ymm14,%ymm1
  404cff:	00 00 
  404d01:	c4 c1 65 ef 9d a0 05 	vpxor  0x5a0(%r13),%ymm3,%ymm3
  404d08:	00 00 
  404d0a:	c4 41 7e 6f be c0 03 	vmovdqu 0x3c0(%r14),%ymm15
  404d11:	00 00 
  404d13:	c5 fe 7f 46 e0       	vmovdqu %ymm0,-0x20(%rsi)
  404d18:	c5 fe 7f 0e          	vmovdqu %ymm1,(%rsi)
  404d1c:	c5 fe 7f 56 20       	vmovdqu %ymm2,0x20(%rsi)
  404d21:	c5 fe 7f 5e 40       	vmovdqu %ymm3,0x40(%rsi)
  404d26:	c4 c1 05 ef a5 a0 04 	vpxor  0x4a0(%r13),%ymm15,%ymm4
  404d2d:	00 00 
  404d2f:	48 8d 94 24 40 1e 00 	lea    0x1e40(%rsp),%rdx
  404d36:	00 
  404d37:	48 8d 8c 24 60 1e 00 	lea    0x1e60(%rsp),%rcx
  404d3e:	00 
  404d3f:	e8 5c 4e 00 00       	callq  409ba0 <sbox__4>
  404d44:	c5 fe 6f ac 24 00 1e 	vmovdqu 0x1e00(%rsp),%ymm5
  404d4b:	00 00 
  404d4d:	48 8d bc 24 80 1e 00 	lea    0x1e80(%rsp),%rdi
  404d54:	00 
  404d55:	c5 fe 6f 7f a0       	vmovdqu -0x60(%rdi),%ymm7
  404d5a:	c5 7e 6f 4f c0       	vmovdqu -0x40(%rdi),%ymm9
  404d5f:	c5 7e 6f 5f e0       	vmovdqu -0x20(%rdi),%ymm11
  404d64:	c4 c1 55 ef 75 00    	vpxor  0x0(%r13),%ymm5,%ymm6
  404d6a:	c4 41 45 ef 85 40 02 	vpxor  0x240(%r13),%ymm7,%ymm8
  404d71:	00 00 
  404d73:	c4 41 35 ef 95 c0 07 	vpxor  0x7c0(%r13),%ymm9,%ymm10
  404d7a:	00 00 
  404d7c:	c4 41 25 ef a5 00 05 	vpxor  0x500(%r13),%ymm11,%ymm12
  404d83:	00 00 
  404d85:	c4 c1 7e 7f 75 00    	vmovdqu %ymm6,0x0(%r13)
  404d8b:	c4 41 7e 7f 85 40 02 	vmovdqu %ymm8,0x240(%r13)
  404d92:	00 00 
  404d94:	c4 41 7e 7f 95 c0 07 	vmovdqu %ymm10,0x7c0(%r13)
  404d9b:	00 00 
  404d9d:	c4 41 7e 7f a5 00 05 	vmovdqu %ymm12,0x500(%r13)
  404da4:	00 00 
  404da6:	c4 41 7e 6f be a0 07 	vmovdqu 0x7a0(%r14),%ymm15
  404dad:	00 00 
  404daf:	48 8d b4 24 a0 1e 00 	lea    0x1ea0(%rsp),%rsi
  404db6:	00 
  404db7:	c4 c1 7e 6f a6 c0 02 	vmovdqu 0x2c0(%r14),%ymm4
  404dbe:	00 00 
  404dc0:	c4 41 7e 6f ae a0 00 	vmovdqu 0xa0(%r14),%ymm13
  404dc7:	00 00 
  404dc9:	c4 41 7e 6f b6 60 02 	vmovdqu 0x260(%r14),%ymm14
  404dd0:	00 00 
  404dd2:	c4 c1 7e 6f 9e c0 05 	vmovdqu 0x5c0(%r14),%ymm3
  404dd9:	00 00 
  404ddb:	c4 c1 05 ef 95 a0 02 	vpxor  0x2a0(%r13),%ymm15,%ymm2
  404de2:	00 00 
  404de4:	c4 c1 5d ef ad e0 07 	vpxor  0x7e0(%r13),%ymm4,%ymm5
  404deb:	00 00 
  404ded:	c4 c1 15 ef 85 a0 04 	vpxor  0x4a0(%r13),%ymm13,%ymm0
  404df4:	00 00 
  404df6:	c4 c1 0d ef 8d a0 03 	vpxor  0x3a0(%r13),%ymm14,%ymm1
  404dfd:	00 00 
  404dff:	c4 c1 65 ef 9d a0 01 	vpxor  0x1a0(%r13),%ymm3,%ymm3
  404e06:	00 00 
  404e08:	c4 41 7e 6f be 80 05 	vmovdqu 0x580(%r14),%ymm15
  404e0f:	00 00 
  404e11:	c5 fe 7f 46 e0       	vmovdqu %ymm0,-0x20(%rsi)
  404e16:	c5 fe 7f 0e          	vmovdqu %ymm1,(%rsi)
  404e1a:	c5 fe 7f 56 20       	vmovdqu %ymm2,0x20(%rsi)
  404e1f:	c5 fe 7f 5e 40       	vmovdqu %ymm3,0x40(%rsi)
  404e24:	c4 c1 05 ef a5 a0 00 	vpxor  0xa0(%r13),%ymm15,%ymm4
  404e2b:	00 00 
  404e2d:	48 8d 94 24 c0 1e 00 	lea    0x1ec0(%rsp),%rdx
  404e34:	00 
  404e35:	48 8d 8c 24 e0 1e 00 	lea    0x1ee0(%rsp),%rcx
  404e3c:	00 
  404e3d:	e8 ae 4e 00 00       	callq  409cf0 <sbox__5>
  404e42:	c5 fe 6f ac 24 80 1e 	vmovdqu 0x1e80(%rsp),%ymm5
  404e49:	00 00 
  404e4b:	48 8d bc 24 00 1f 00 	lea    0x1f00(%rsp),%rdi
  404e52:	00 
  404e53:	c5 fe 6f 7f a0       	vmovdqu -0x60(%rdi),%ymm7
  404e58:	c5 7e 6f 4f c0       	vmovdqu -0x40(%rdi),%ymm9
  404e5d:	c5 7e 6f 5f e0       	vmovdqu -0x20(%rdi),%ymm11
  404e62:	c4 c1 55 ef b5 00 04 	vpxor  0x400(%r13),%ymm5,%ymm6
  404e69:	00 00 
  404e6b:	c4 41 45 ef 85 c0 03 	vpxor  0x3c0(%r13),%ymm7,%ymm8
  404e72:	00 00 
  404e74:	c4 41 35 ef 95 40 05 	vpxor  0x540(%r13),%ymm9,%ymm10
  404e7b:	00 00 
  404e7d:	c4 41 25 ef a5 80 05 	vpxor  0x580(%r13),%ymm11,%ymm12
  404e84:	00 00 
  404e86:	c4 c1 7e 7f b5 00 04 	vmovdqu %ymm6,0x400(%r13)
  404e8d:	00 00 
  404e8f:	c4 41 7e 7f 85 c0 03 	vmovdqu %ymm8,0x3c0(%r13)
  404e96:	00 00 
  404e98:	c4 41 7e 7f 95 40 05 	vmovdqu %ymm10,0x540(%r13)
  404e9f:	00 00 
  404ea1:	c4 41 7e 7f a5 80 05 	vmovdqu %ymm12,0x580(%r13)
  404ea8:	00 00 
  404eaa:	c4 41 7e 6f be 60 03 	vmovdqu 0x360(%r14),%ymm15
  404eb1:	00 00 
  404eb3:	48 8d b4 24 20 1f 00 	lea    0x1f20(%rsp),%rsi
  404eba:	00 
  404ebb:	c4 c1 7e 6f a6 a0 05 	vmovdqu 0x5a0(%r14),%ymm4
  404ec2:	00 00 
  404ec4:	c4 41 7e 6f ae c0 06 	vmovdqu 0x6c0(%r14),%ymm13
  404ecb:	00 00 
  404ecd:	c4 41 7e 6f b6 c0 01 	vmovdqu 0x1c0(%r14),%ymm14
  404ed4:	00 00 
  404ed6:	c4 c1 7e 6f 9e a0 02 	vmovdqu 0x2a0(%r14),%ymm3
  404edd:	00 00 
  404edf:	c4 c1 05 ef 95 e0 06 	vpxor  0x6e0(%r13),%ymm15,%ymm2
  404ee6:	00 00 
  404ee8:	c4 c1 5d ef ad e0 03 	vpxor  0x3e0(%r13),%ymm4,%ymm5
  404eef:	00 00 
  404ef1:	c4 c1 15 ef 85 a0 00 	vpxor  0xa0(%r13),%ymm13,%ymm0
  404ef8:	00 00 
  404efa:	c4 c1 0d ef 8d e0 07 	vpxor  0x7e0(%r13),%ymm14,%ymm1
  404f01:	00 00 
  404f03:	c4 c1 65 ef 9d e0 05 	vpxor  0x5e0(%r13),%ymm3,%ymm3
  404f0a:	00 00 
  404f0c:	c4 41 7e 6f be 80 04 	vmovdqu 0x480(%r14),%ymm15
  404f13:	00 00 
  404f15:	c5 fe 7f 46 e0       	vmovdqu %ymm0,-0x20(%rsi)
  404f1a:	c5 fe 7f 0e          	vmovdqu %ymm1,(%rsi)
  404f1e:	c5 fe 7f 56 20       	vmovdqu %ymm2,0x20(%rsi)
  404f23:	c5 fe 7f 5e 40       	vmovdqu %ymm3,0x40(%rsi)
  404f28:	c4 c1 05 ef a5 e0 04 	vpxor  0x4e0(%r13),%ymm15,%ymm4
  404f2f:	00 00 
  404f31:	48 8d 94 24 40 1f 00 	lea    0x1f40(%rsp),%rdx
  404f38:	00 
  404f39:	48 8d 8c 24 60 1f 00 	lea    0x1f60(%rsp),%rcx
  404f40:	00 
  404f41:	e8 da 4e 00 00       	callq  409e20 <sbox__6>
  404f46:	c5 fe 6f ac 24 00 1f 	vmovdqu 0x1f00(%rsp),%ymm5
  404f4d:	00 00 
  404f4f:	48 8d bc 24 80 1f 00 	lea    0x1f80(%rsp),%rdi
  404f56:	00 
  404f57:	c5 fe 6f 7f a0       	vmovdqu -0x60(%rdi),%ymm7
  404f5c:	c5 7e 6f 4f c0       	vmovdqu -0x40(%rdi),%ymm9
  404f61:	c5 7e 6f 5f e0       	vmovdqu -0x20(%rdi),%ymm11
  404f66:	c4 c1 55 ef b5 c0 00 	vpxor  0xc0(%r13),%ymm5,%ymm6
  404f6d:	00 00 
  404f6f:	c4 41 45 ef 85 40 04 	vpxor  0x440(%r13),%ymm7,%ymm8
  404f76:	00 00 
  404f78:	c4 41 35 ef 95 80 02 	vpxor  0x280(%r13),%ymm9,%ymm10
  404f7f:	00 00 
  404f81:	c4 41 25 ef a5 00 01 	vpxor  0x100(%r13),%ymm11,%ymm12
  404f88:	00 00 
  404f8a:	c4 c1 7e 7f b5 c0 00 	vmovdqu %ymm6,0xc0(%r13)
  404f91:	00 00 
  404f93:	c4 41 7e 7f 85 40 04 	vmovdqu %ymm8,0x440(%r13)
  404f9a:	00 00 
  404f9c:	c4 41 7e 7f 95 80 02 	vmovdqu %ymm10,0x280(%r13)
  404fa3:	00 00 
  404fa5:	c4 41 7e 7f a5 00 01 	vmovdqu %ymm12,0x100(%r13)
  404fac:	00 00 
  404fae:	c4 41 7e 6f be c0 00 	vmovdqu 0xc0(%r14),%ymm15
  404fb5:	00 00 
  404fb7:	48 8d b4 24 a0 1f 00 	lea    0x1fa0(%rsp),%rsi
  404fbe:	00 
  404fbf:	c4 c1 7e 6f a6 80 06 	vmovdqu 0x680(%r14),%ymm4
  404fc6:	00 00 
  404fc8:	c4 41 7e 6f ae c0 04 	vmovdqu 0x4c0(%r14),%ymm13
  404fcf:	00 00 
  404fd1:	c4 41 7e 6f 76 60    	vmovdqu 0x60(%r14),%ymm14
  404fd7:	c4 c1 7e 6f 9e 80 02 	vmovdqu 0x280(%r14),%ymm3
  404fde:	00 00 
  404fe0:	c4 c1 05 ef 95 e0 02 	vpxor  0x2e0(%r13),%ymm15,%ymm2
  404fe7:	00 00 
  404fe9:	c4 c1 5d ef ad 20 07 	vpxor  0x720(%r13),%ymm4,%ymm5
  404ff0:	00 00 
  404ff2:	c4 c1 15 ef 85 e0 04 	vpxor  0x4e0(%r13),%ymm13,%ymm0
  404ff9:	00 00 
  404ffb:	c4 c1 0d ef 8d e0 03 	vpxor  0x3e0(%r13),%ymm14,%ymm1
  405002:	00 00 
  405004:	c4 c1 65 ef 9d e0 01 	vpxor  0x1e0(%r13),%ymm3,%ymm3
  40500b:	00 00 
  40500d:	c4 41 7e 6f be a0 01 	vmovdqu 0x1a0(%r14),%ymm15
  405014:	00 00 
  405016:	c5 fe 7f 46 e0       	vmovdqu %ymm0,-0x20(%rsi)
  40501b:	c5 fe 7f 0e          	vmovdqu %ymm1,(%rsi)
  40501f:	c5 fe 7f 56 20       	vmovdqu %ymm2,0x20(%rsi)
  405024:	c5 fe 7f 5e 40       	vmovdqu %ymm3,0x40(%rsi)
  405029:	c4 c1 05 ef a5 e0 00 	vpxor  0xe0(%r13),%ymm15,%ymm4
  405030:	00 00 
  405032:	48 8d 94 24 c0 1f 00 	lea    0x1fc0(%rsp),%rdx
  405039:	00 
  40503a:	48 8d 8c 24 e0 1f 00 	lea    0x1fe0(%rsp),%rcx
  405041:	00 
  405042:	e8 f9 4e 00 00       	callq  409f40 <sbox__7>
  405047:	c5 fe 6f ac 24 80 1f 	vmovdqu 0x1f80(%rsp),%ymm5
  40504e:	00 00 
  405050:	48 8d bc 24 00 20 00 	lea    0x2000(%rsp),%rdi
  405057:	00 
  405058:	c5 fe 6f 77 a0       	vmovdqu -0x60(%rdi),%ymm6
  40505d:	c5 7e 6f 47 c0       	vmovdqu -0x40(%rdi),%ymm8
  405062:	c5 7e 6f 57 e0       	vmovdqu -0x20(%rdi),%ymm10
  405067:	c4 c1 55 ef a5 00 03 	vpxor  0x300(%r13),%ymm5,%ymm4
  40506e:	00 00 
  405070:	c4 c1 4d ef bd c0 05 	vpxor  0x5c0(%r13),%ymm6,%ymm7
  405077:	00 00 
  405079:	c4 41 3d ef 8d 40 01 	vpxor  0x140(%r13),%ymm8,%ymm9
  405080:	00 00 
  405082:	c4 41 2d ef 9d 80 03 	vpxor  0x380(%r13),%ymm10,%ymm11
  405089:	00 00 
  40508b:	c4 c1 7e 7f a5 00 03 	vmovdqu %ymm4,0x300(%r13)
  405092:	00 00 
  405094:	c4 c1 7e 7f bd c0 05 	vmovdqu %ymm7,0x5c0(%r13)
  40509b:	00 00 
  40509d:	c4 41 7e 7f 8d 40 01 	vmovdqu %ymm9,0x140(%r13)
  4050a4:	00 00 
  4050a6:	c4 41 7e 7f 9d 80 03 	vmovdqu %ymm11,0x380(%r13)
  4050ad:	00 00 
  4050af:	c4 41 7e 6f be 20 05 	vmovdqu 0x520(%r14),%ymm15
  4050b6:	00 00 
  4050b8:	48 8d b4 24 20 20 00 	lea    0x2020(%rsp),%rsi
  4050bf:	00 
  4050c0:	c4 41 7e 6f a6 00 07 	vmovdqu 0x700(%r14),%ymm12
  4050c7:	00 00 
  4050c9:	c4 41 7e 6f ae 00 04 	vmovdqu 0x400(%r14),%ymm13
  4050d0:	00 00 
  4050d2:	c4 41 7e 6f b6 60 06 	vmovdqu 0x660(%r14),%ymm14
  4050d9:	00 00 
  4050db:	c4 c1 05 ef 9d 00 05 	vpxor  0x500(%r13),%ymm15,%ymm3
  4050e2:	00 00 
  4050e4:	c4 c1 5d ef ae 40 04 	vpxor  0x440(%r14),%ymm4,%ymm5
  4050eb:	00 00 
  4050ed:	c4 c1 1d ef 85 c0 00 	vpxor  0xc0(%r13),%ymm12,%ymm0
  4050f4:	00 00 
  4050f6:	c4 c1 15 ef 8d 00 07 	vpxor  0x700(%r13),%ymm13,%ymm1
  4050fd:	00 00 
  4050ff:	c4 c1 0d ef 95 00 06 	vpxor  0x600(%r13),%ymm14,%ymm2
  405106:	00 00 
  405108:	c4 41 7e 6f 7e 20    	vmovdqu 0x20(%r14),%ymm15
  40510e:	c5 fe 7f 46 e0       	vmovdqu %ymm0,-0x20(%rsi)
  405113:	c5 fe 7f 0e          	vmovdqu %ymm1,(%rsi)
  405117:	c5 fe 7f 56 20       	vmovdqu %ymm2,0x20(%rsi)
  40511c:	c5 fe 7f 5e 40       	vmovdqu %ymm3,0x40(%rsi)
  405121:	c4 c1 05 ef a5 00 04 	vpxor  0x400(%r13),%ymm15,%ymm4
  405128:	00 00 
  40512a:	48 8d 94 24 40 20 00 	lea    0x2040(%rsp),%rdx
  405131:	00 
  405132:	48 8d 8c 24 60 20 00 	lea    0x2060(%rsp),%rcx
  405139:	00 
  40513a:	e8 e1 46 00 00       	callq  409820 <sbox__0>
  40513f:	c5 fe 6f ac 24 00 20 	vmovdqu 0x2000(%rsp),%ymm5
  405146:	00 00 
  405148:	48 8d bc 24 80 20 00 	lea    0x2080(%rsp),%rdi
  40514f:	00 
  405150:	c5 fe 6f 7f a0       	vmovdqu -0x60(%rdi),%ymm7
  405155:	c5 7e 6f 4f c0       	vmovdqu -0x40(%rdi),%ymm9
  40515a:	c5 7e 6f 5f e0       	vmovdqu -0x20(%rdi),%ymm11
  40515f:	c4 c1 55 ef b5 60 07 	vpxor  0x760(%r13),%ymm5,%ymm6
  405166:	00 00 
  405168:	c4 41 45 ef 85 a0 07 	vpxor  0x7a0(%r13),%ymm7,%ymm8
  40516f:	00 00 
  405171:	c4 41 35 ef 95 a0 01 	vpxor  0x1a0(%r13),%ymm9,%ymm10
  405178:	00 00 
  40517a:	c4 41 25 ef a5 e0 01 	vpxor  0x1e0(%r13),%ymm11,%ymm12
  405181:	00 00 
  405183:	c4 c1 7e 7f b5 60 07 	vmovdqu %ymm6,0x760(%r13)
  40518a:	00 00 
  40518c:	c4 41 7e 7f 85 a0 07 	vmovdqu %ymm8,0x7a0(%r13)
  405193:	00 00 
  405195:	c4 41 7e 7f 95 a0 01 	vmovdqu %ymm10,0x1a0(%r13)
  40519c:	00 00 
  40519e:	c4 41 7e 7f a5 e0 01 	vmovdqu %ymm12,0x1e0(%r13)
  4051a5:	00 00 
  4051a7:	c4 41 7e 6f be 00 06 	vmovdqu 0x600(%r14),%ymm15
  4051ae:	00 00 
  4051b0:	48 8d b4 24 a0 20 00 	lea    0x20a0(%rsp),%rsi
  4051b7:	00 
  4051b8:	c4 c1 7e 6f a6 60 07 	vmovdqu 0x760(%r14),%ymm4
  4051bf:	00 00 
  4051c1:	c4 41 7e 6f ae 40 06 	vmovdqu 0x640(%r14),%ymm13
  4051c8:	00 00 
  4051ca:	c4 41 7e 6f b6 20 01 	vmovdqu 0x120(%r14),%ymm14
  4051d1:	00 00 
  4051d3:	c4 c1 7e 6f 9e 40 03 	vmovdqu 0x340(%r14),%ymm3
  4051da:	00 00 
  4051dc:	c4 c1 05 ef 95 00 02 	vpxor  0x200(%r13),%ymm15,%ymm2
  4051e3:	00 00 
  4051e5:	c4 c1 5d ef ad 40 07 	vpxor  0x740(%r13),%ymm4,%ymm5
  4051ec:	00 00 
  4051ee:	c4 c1 15 ef 85 00 04 	vpxor  0x400(%r13),%ymm13,%ymm0
  4051f5:	00 00 
  4051f7:	c4 c1 0d ef 8d 00 03 	vpxor  0x300(%r13),%ymm14,%ymm1
  4051fe:	00 00 
  405200:	c4 c1 65 ef 9d 00 01 	vpxor  0x100(%r13),%ymm3,%ymm3
  405207:	00 00 
  405209:	c4 41 7e 6f 3e       	vmovdqu (%r14),%ymm15
  40520e:	c5 fe 7f 46 e0       	vmovdqu %ymm0,-0x20(%rsi)
  405213:	c5 fe 7f 0e          	vmovdqu %ymm1,(%rsi)
  405217:	c5 fe 7f 56 20       	vmovdqu %ymm2,0x20(%rsi)
  40521c:	c5 fe 7f 5e 40       	vmovdqu %ymm3,0x40(%rsi)
  405221:	c4 c1 05 ef 65 00    	vpxor  0x0(%r13),%ymm15,%ymm4
  405227:	48 8d 94 24 c0 20 00 	lea    0x20c0(%rsp),%rdx
  40522e:	00 
  40522f:	48 8d 8c 24 e0 20 00 	lea    0x20e0(%rsp),%rcx
  405236:	00 
  405237:	e8 34 47 00 00       	callq  409970 <sbox__1>
  40523c:	c5 fe 6f ac 24 80 20 	vmovdqu 0x2080(%rsp),%ymm5
  405243:	00 00 
  405245:	48 8d bc 24 00 21 00 	lea    0x2100(%rsp),%rdi
  40524c:	00 
  40524d:	c5 fe 6f 7f a0       	vmovdqu -0x60(%rdi),%ymm7
  405252:	c5 7e 6f 4f c0       	vmovdqu -0x40(%rdi),%ymm9
  405257:	c5 7e 6f 5f e0       	vmovdqu -0x20(%rdi),%ymm11
  40525c:	c4 c1 55 ef b5 60 03 	vpxor  0x360(%r13),%ymm5,%ymm6
  405263:	00 00 
  405265:	c4 41 45 ef 85 e0 04 	vpxor  0x4e0(%r13),%ymm7,%ymm8
  40526c:	00 00 
  40526e:	c4 41 35 ef 95 20 06 	vpxor  0x620(%r13),%ymm9,%ymm10
  405275:	00 00 
  405277:	c4 41 25 ef a5 a0 06 	vpxor  0x6a0(%r13),%ymm11,%ymm12
  40527e:	00 00 
  405280:	c4 c1 7e 7f b5 60 03 	vmovdqu %ymm6,0x360(%r13)
  405287:	00 00 
  405289:	c4 41 7e 7f 85 e0 04 	vmovdqu %ymm8,0x4e0(%r13)
  405290:	00 00 
  405292:	c4 41 7e 7f 95 20 06 	vmovdqu %ymm10,0x620(%r13)
  405299:	00 00 
  40529b:	c4 41 7e 7f a5 a0 06 	vmovdqu %ymm12,0x6a0(%r13)
  4052a2:	00 00 
  4052a4:	c4 41 7e 6f be 60 05 	vmovdqu 0x560(%r14),%ymm15
  4052ab:	00 00 
  4052ad:	48 8d b4 24 20 21 00 	lea    0x2120(%rsp),%rsi
  4052b4:	00 
  4052b5:	c4 c1 7e 6f a6 40 01 	vmovdqu 0x140(%r14),%ymm4
  4052bc:	00 00 
  4052be:	c4 41 7e 6f ae 20 06 	vmovdqu 0x620(%r14),%ymm13
  4052c5:	00 00 
  4052c7:	c4 41 7e 6f b6 00 02 	vmovdqu 0x200(%r14),%ymm14
  4052ce:	00 00 
  4052d0:	c4 c1 7e 6f 9e 40 05 	vmovdqu 0x540(%r14),%ymm3
  4052d7:	00 00 
  4052d9:	c4 c1 05 ef 95 40 06 	vpxor  0x640(%r13),%ymm15,%ymm2
  4052e0:	00 00 
  4052e2:	c4 c1 5d ef ad 40 03 	vpxor  0x340(%r13),%ymm4,%ymm5
  4052e9:	00 00 
  4052eb:	c4 c1 15 ef 45 00    	vpxor  0x0(%r13),%ymm13,%ymm0
  4052f1:	c4 c1 0d ef 8d 40 07 	vpxor  0x740(%r13),%ymm14,%ymm1
  4052f8:	00 00 
  4052fa:	c4 c1 65 ef 9d 40 05 	vpxor  0x540(%r13),%ymm3,%ymm3
  405301:	00 00 
  405303:	c4 41 7e 6f be 20 03 	vmovdqu 0x320(%r14),%ymm15
  40530a:	00 00 
  40530c:	c5 fe 7f 46 e0       	vmovdqu %ymm0,-0x20(%rsi)
  405311:	c5 fe 7f 0e          	vmovdqu %ymm1,(%rsi)
  405315:	c5 fe 7f 56 20       	vmovdqu %ymm2,0x20(%rsi)
  40531a:	c5 fe 7f 5e 40       	vmovdqu %ymm3,0x40(%rsi)
  40531f:	c4 c1 05 ef a5 40 04 	vpxor  0x440(%r13),%ymm15,%ymm4
  405326:	00 00 
  405328:	48 8d 94 24 40 21 00 	lea    0x2140(%rsp),%rdx
  40532f:	00 
  405330:	48 8d 8c 24 60 21 00 	lea    0x2160(%rsp),%rcx
  405337:	00 
  405338:	e8 43 47 00 00       	callq  409a80 <sbox__2>
  40533d:	c5 fe 6f ac 24 00 21 	vmovdqu 0x2100(%rsp),%ymm5
  405344:	00 00 
  405346:	48 8d bc 24 80 21 00 	lea    0x2180(%rsp),%rdi
  40534d:	00 
  40534e:	c5 fe 6f 7f a0       	vmovdqu -0x60(%rdi),%ymm7
  405353:	c5 7e 6f 4f c0       	vmovdqu -0x40(%rdi),%ymm9
  405358:	c5 7e 6f 5f e0       	vmovdqu -0x20(%rdi),%ymm11
  40535d:	c4 c1 55 ef b5 a0 00 	vpxor  0xa0(%r13),%ymm5,%ymm6
  405364:	00 00 
  405366:	c4 41 45 ef 45 60    	vpxor  0x60(%r13),%ymm7,%ymm8
  40536c:	c4 41 35 ef 95 e0 02 	vpxor  0x2e0(%r13),%ymm9,%ymm10
  405373:	00 00 
  405375:	c4 41 25 ef a5 20 02 	vpxor  0x220(%r13),%ymm11,%ymm12
  40537c:	00 00 
  40537e:	c4 c1 7e 7f b5 a0 00 	vmovdqu %ymm6,0xa0(%r13)
  405385:	00 00 
  405387:	c4 41 7e 7f 45 60    	vmovdqu %ymm8,0x60(%r13)
  40538d:	c4 41 7e 7f 95 e0 02 	vmovdqu %ymm10,0x2e0(%r13)
  405394:	00 00 
  405396:	c4 41 7e 7f a5 20 02 	vmovdqu %ymm12,0x220(%r13)
  40539d:	00 00 
  40539f:	c4 41 7e 6f be 20 02 	vmovdqu 0x220(%r14),%ymm15
  4053a6:	00 00 
  4053a8:	48 8d b4 24 a0 21 00 	lea    0x21a0(%rsp),%rsi
  4053af:	00 
  4053b0:	c4 c1 7e 6f a6 40 07 	vmovdqu 0x740(%r14),%ymm4
  4053b7:	00 00 
  4053b9:	c4 41 7e 6f ae 00 05 	vmovdqu 0x500(%r14),%ymm13
  4053c0:	00 00 
  4053c2:	c4 41 7e 6f b6 40 02 	vmovdqu 0x240(%r14),%ymm14
  4053c9:	00 00 
  4053cb:	c4 c1 7e 6f 9e 00 01 	vmovdqu 0x100(%r14),%ymm3
  4053d2:	00 00 
  4053d4:	c4 c1 05 ef 95 40 02 	vpxor  0x240(%r13),%ymm15,%ymm2
  4053db:	00 00 
  4053dd:	c4 c1 5d ef ad 80 07 	vpxor  0x780(%r13),%ymm4,%ymm5
  4053e4:	00 00 
  4053e6:	c4 c1 15 ef 85 40 04 	vpxor  0x440(%r13),%ymm13,%ymm0
  4053ed:	00 00 
  4053ef:	c4 c1 0d ef 8d 40 03 	vpxor  0x340(%r13),%ymm14,%ymm1
  4053f6:	00 00 
  4053f8:	c4 c1 65 ef 9d 40 01 	vpxor  0x140(%r13),%ymm3,%ymm3
  4053ff:	00 00 
  405401:	c4 41 7e 6f be 60 04 	vmovdqu 0x460(%r14),%ymm15
  405408:	00 00 
  40540a:	c5 fe 7f 46 e0       	vmovdqu %ymm0,-0x20(%rsi)
  40540f:	c5 fe 7f 0e          	vmovdqu %ymm1,(%rsi)
  405413:	c5 fe 7f 56 20       	vmovdqu %ymm2,0x20(%rsi)
  405418:	c5 fe 7f 5e 40       	vmovdqu %ymm3,0x40(%rsi)
  40541d:	c4 c1 05 ef 65 40    	vpxor  0x40(%r13),%ymm15,%ymm4
  405423:	48 8d 94 24 c0 21 00 	lea    0x21c0(%rsp),%rdx
  40542a:	00 
  40542b:	48 8d 8c 24 e0 21 00 	lea    0x21e0(%rsp),%rcx
  405432:	00 
  405433:	e8 18 4c 00 00       	callq  40a050 <sbox__3>
  405438:	c5 fe 6f ac 24 80 21 	vmovdqu 0x2180(%rsp),%ymm5
  40543f:	00 00 
  405441:	48 8d bc 24 00 22 00 	lea    0x2200(%rsp),%rdi
  405448:	00 
  405449:	c5 fe 6f 7f a0       	vmovdqu -0x60(%rdi),%ymm7
  40544e:	c5 7e 6f 4f c0       	vmovdqu -0x40(%rdi),%ymm9
  405453:	c5 7e 6f 5f e0       	vmovdqu -0x20(%rdi),%ymm11
  405458:	c4 c1 55 ef b5 e0 06 	vpxor  0x6e0(%r13),%ymm5,%ymm6
  40545f:	00 00 
  405461:	c4 41 45 ef 85 a0 04 	vpxor  0x4a0(%r13),%ymm7,%ymm8
  405468:	00 00 
  40546a:	c4 41 35 ef 95 60 06 	vpxor  0x660(%r13),%ymm9,%ymm10
  405471:	00 00 
  405473:	c4 41 25 ef a5 20 07 	vpxor  0x720(%r13),%ymm11,%ymm12
  40547a:	00 00 
  40547c:	c4 c1 7e 7f b5 e0 06 	vmovdqu %ymm6,0x6e0(%r13)
  405483:	00 00 
  405485:	c4 41 7e 7f 85 a0 04 	vmovdqu %ymm8,0x4a0(%r13)
  40548c:	00 00 
  40548e:	c4 41 7e 7f 95 60 06 	vmovdqu %ymm10,0x660(%r13)
  405495:	00 00 
  405497:	c4 41 7e 7f a5 20 07 	vmovdqu %ymm12,0x720(%r13)
  40549e:	00 00 
  4054a0:	c4 41 7e 6f be 80 06 	vmovdqu 0x680(%r14),%ymm15
  4054a7:	00 00 
  4054a9:	48 8d b4 24 20 22 00 	lea    0x2220(%rsp),%rsi
  4054b0:	00 
  4054b1:	c4 c1 7e 6f a6 a0 02 	vmovdqu 0x2a0(%r14),%ymm4
  4054b8:	00 00 
  4054ba:	c4 41 7e 6f 6e 60    	vmovdqu 0x60(%r14),%ymm13
  4054c0:	c4 c1 7e 6f 9e 80 00 	vmovdqu 0x80(%r14),%ymm3
  4054c7:	00 00 
  4054c9:	c4 41 7e 6f b6 a0 05 	vmovdqu 0x5a0(%r14),%ymm14
  4054d0:	00 00 
  4054d2:	c4 c1 05 ef 95 80 06 	vpxor  0x680(%r13),%ymm15,%ymm2
  4054d9:	00 00 
  4054db:	c4 c1 5d ef ad 80 03 	vpxor  0x380(%r13),%ymm4,%ymm5
  4054e2:	00 00 
  4054e4:	c4 c1 15 ef 45 40    	vpxor  0x40(%r13),%ymm13,%ymm0
  4054ea:	c4 c1 0d ef 8d 80 07 	vpxor  0x780(%r13),%ymm14,%ymm1
  4054f1:	00 00 
  4054f3:	c4 c1 65 ef 9d 80 05 	vpxor  0x580(%r13),%ymm3,%ymm3
  4054fa:	00 00 
  4054fc:	c4 41 7e 6f be c0 02 	vmovdqu 0x2c0(%r14),%ymm15
  405503:	00 00 
  405505:	c5 fe 7f 46 e0       	vmovdqu %ymm0,-0x20(%rsi)
  40550a:	c5 fe 7f 0e          	vmovdqu %ymm1,(%rsi)
  40550e:	c5 fe 7f 56 20       	vmovdqu %ymm2,0x20(%rsi)
  405513:	c5 fe 7f 5e 40       	vmovdqu %ymm3,0x40(%rsi)
  405518:	c4 c1 05 ef a5 80 04 	vpxor  0x480(%r13),%ymm15,%ymm4
  40551f:	00 00 
  405521:	48 8d 94 24 40 22 00 	lea    0x2240(%rsp),%rdx
  405528:	00 
  405529:	48 8d 8c 24 60 22 00 	lea    0x2260(%rsp),%rcx
  405530:	00 
  405531:	e8 6a 46 00 00       	callq  409ba0 <sbox__4>
  405536:	c5 fe 6f ac 24 00 22 	vmovdqu 0x2200(%rsp),%ymm5
  40553d:	00 00 
  40553f:	48 8d bc 24 80 22 00 	lea    0x2280(%rsp),%rdi
  405546:	00 
  405547:	c5 fe 6f 7f a0       	vmovdqu -0x60(%rdi),%ymm7
  40554c:	c5 7e 6f 4f c0       	vmovdqu -0x40(%rdi),%ymm9
  405551:	c5 7e 6f 5f e0       	vmovdqu -0x20(%rdi),%ymm11
  405556:	c4 c1 55 ef 75 20    	vpxor  0x20(%r13),%ymm5,%ymm6
  40555c:	c4 41 45 ef 85 60 02 	vpxor  0x260(%r13),%ymm7,%ymm8
  405563:	00 00 
  405565:	c4 41 35 ef 95 e0 07 	vpxor  0x7e0(%r13),%ymm9,%ymm10
  40556c:	00 00 
  40556e:	c4 41 25 ef a5 20 05 	vpxor  0x520(%r13),%ymm11,%ymm12
  405575:	00 00 
  405577:	c4 c1 7e 7f 75 20    	vmovdqu %ymm6,0x20(%r13)
  40557d:	c4 41 7e 7f 85 60 02 	vmovdqu %ymm8,0x260(%r13)
  405584:	00 00 
  405586:	c4 41 7e 7f 95 e0 07 	vmovdqu %ymm10,0x7e0(%r13)
  40558d:	00 00 
  40558f:	c4 41 7e 7f a5 20 05 	vmovdqu %ymm12,0x520(%r13)
  405596:	00 00 
  405598:	c4 41 7e 6f be a0 06 	vmovdqu 0x6a0(%r14),%ymm15
  40559f:	00 00 
  4055a1:	48 8d b4 24 a0 22 00 	lea    0x22a0(%rsp),%rsi
  4055a8:	00 
  4055a9:	c4 c1 7e 6f a6 c0 01 	vmovdqu 0x1c0(%r14),%ymm4
  4055b0:	00 00 
  4055b2:	c4 41 7e 6f ae 80 07 	vmovdqu 0x780(%r14),%ymm13
  4055b9:	00 00 
  4055bb:	c4 41 7e 6f b6 60 01 	vmovdqu 0x160(%r14),%ymm14
  4055c2:	00 00 
  4055c4:	c4 c1 7e 6f 9e c0 04 	vmovdqu 0x4c0(%r14),%ymm3
  4055cb:	00 00 
  4055cd:	c4 c1 05 ef 95 80 02 	vpxor  0x280(%r13),%ymm15,%ymm2
  4055d4:	00 00 
  4055d6:	c4 c1 5d ef ad c0 07 	vpxor  0x7c0(%r13),%ymm4,%ymm5
  4055dd:	00 00 
  4055df:	c4 c1 15 ef 85 80 04 	vpxor  0x480(%r13),%ymm13,%ymm0
  4055e6:	00 00 
  4055e8:	c4 c1 0d ef 8d 80 03 	vpxor  0x380(%r13),%ymm14,%ymm1
  4055ef:	00 00 
  4055f1:	c4 c1 65 ef 9d 80 01 	vpxor  0x180(%r13),%ymm3,%ymm3
  4055f8:	00 00 
  4055fa:	c4 41 7e 6f be 80 04 	vmovdqu 0x480(%r14),%ymm15
  405601:	00 00 
  405603:	c5 fe 7f 46 e0       	vmovdqu %ymm0,-0x20(%rsi)
  405608:	c5 fe 7f 0e          	vmovdqu %ymm1,(%rsi)
  40560c:	c5 fe 7f 56 20       	vmovdqu %ymm2,0x20(%rsi)
  405611:	c5 fe 7f 5e 40       	vmovdqu %ymm3,0x40(%rsi)
  405616:	c4 c1 05 ef a5 80 00 	vpxor  0x80(%r13),%ymm15,%ymm4
  40561d:	00 00 
  40561f:	48 8d 94 24 c0 22 00 	lea    0x22c0(%rsp),%rdx
  405626:	00 
  405627:	48 8d 8c 24 e0 22 00 	lea    0x22e0(%rsp),%rcx
  40562e:	00 
  40562f:	e8 bc 46 00 00       	callq  409cf0 <sbox__5>
  405634:	c5 fe 6f ac 24 80 22 	vmovdqu 0x2280(%rsp),%ymm5
  40563b:	00 00 
  40563d:	48 8d bc 24 00 23 00 	lea    0x2300(%rsp),%rdi
  405644:	00 
  405645:	c5 fe 6f 7f a0       	vmovdqu -0x60(%rdi),%ymm7
  40564a:	c5 7e 6f 4f c0       	vmovdqu -0x40(%rdi),%ymm9
  40564f:	c5 7e 6f 5f e0       	vmovdqu -0x20(%rdi),%ymm11
  405654:	c4 c1 55 ef b5 20 04 	vpxor  0x420(%r13),%ymm5,%ymm6
  40565b:	00 00 
  40565d:	c4 41 45 ef 85 e0 03 	vpxor  0x3e0(%r13),%ymm7,%ymm8
  405664:	00 00 
  405666:	c4 41 35 ef 95 60 05 	vpxor  0x560(%r13),%ymm9,%ymm10
  40566d:	00 00 
  40566f:	c4 41 25 ef a5 a0 05 	vpxor  0x5a0(%r13),%ymm11,%ymm12
  405676:	00 00 
  405678:	c4 c1 7e 7f b5 20 04 	vmovdqu %ymm6,0x420(%r13)
  40567f:	00 00 
  405681:	c4 41 7e 7f 85 e0 03 	vmovdqu %ymm8,0x3e0(%r13)
  405688:	00 00 
  40568a:	c4 41 7e 7f 95 60 05 	vmovdqu %ymm10,0x560(%r13)
  405691:	00 00 
  405693:	c4 41 7e 7f a5 a0 05 	vmovdqu %ymm12,0x5a0(%r13)
  40569a:	00 00 
  40569c:	c4 41 7e 6f be 60 02 	vmovdqu 0x260(%r14),%ymm15
  4056a3:	00 00 
  4056a5:	48 8d b4 24 20 23 00 	lea    0x2320(%rsp),%rsi
  4056ac:	00 
  4056ad:	c4 c1 7e 6f a6 a0 04 	vmovdqu 0x4a0(%r14),%ymm4
  4056b4:	00 00 
  4056b6:	c4 41 7e 6f ae c0 05 	vmovdqu 0x5c0(%r14),%ymm13
  4056bd:	00 00 
  4056bf:	c4 41 7e 6f b6 c0 00 	vmovdqu 0xc0(%r14),%ymm14
  4056c6:	00 00 
  4056c8:	c4 c1 7e 6f 9e a0 01 	vmovdqu 0x1a0(%r14),%ymm3
  4056cf:	00 00 
  4056d1:	c4 c1 05 ef 95 c0 06 	vpxor  0x6c0(%r13),%ymm15,%ymm2
  4056d8:	00 00 
  4056da:	c4 c1 5d ef ad c0 03 	vpxor  0x3c0(%r13),%ymm4,%ymm5
  4056e1:	00 00 
  4056e3:	c4 c1 15 ef 85 80 00 	vpxor  0x80(%r13),%ymm13,%ymm0
  4056ea:	00 00 
  4056ec:	c4 c1 0d ef 8d c0 07 	vpxor  0x7c0(%r13),%ymm14,%ymm1
  4056f3:	00 00 
  4056f5:	c4 c1 65 ef 9d c0 05 	vpxor  0x5c0(%r13),%ymm3,%ymm3
  4056fc:	00 00 
  4056fe:	c4 41 7e 6f be 80 03 	vmovdqu 0x380(%r14),%ymm15
  405705:	00 00 
  405707:	c5 fe 7f 46 e0       	vmovdqu %ymm0,-0x20(%rsi)
  40570c:	c5 fe 7f 0e          	vmovdqu %ymm1,(%rsi)
  405710:	c5 fe 7f 56 20       	vmovdqu %ymm2,0x20(%rsi)
  405715:	c5 fe 7f 5e 40       	vmovdqu %ymm3,0x40(%rsi)
  40571a:	c4 c1 05 ef a5 c0 04 	vpxor  0x4c0(%r13),%ymm15,%ymm4
  405721:	00 00 
  405723:	48 8d 94 24 40 23 00 	lea    0x2340(%rsp),%rdx
  40572a:	00 
  40572b:	48 8d 8c 24 60 23 00 	lea    0x2360(%rsp),%rcx
  405732:	00 
  405733:	e8 e8 46 00 00       	callq  409e20 <sbox__6>
  405738:	c5 fe 6f ac 24 00 23 	vmovdqu 0x2300(%rsp),%ymm5
  40573f:	00 00 
  405741:	48 8d bc 24 80 23 00 	lea    0x2380(%rsp),%rdi
  405748:	00 
  405749:	c5 fe 6f 7f a0       	vmovdqu -0x60(%rdi),%ymm7
  40574e:	c5 7e 6f 4f c0       	vmovdqu -0x40(%rdi),%ymm9
  405753:	c5 7e 6f 5f e0       	vmovdqu -0x20(%rdi),%ymm11
  405758:	c4 c1 55 ef b5 e0 00 	vpxor  0xe0(%r13),%ymm5,%ymm6
  40575f:	00 00 
  405761:	c4 41 45 ef 85 60 04 	vpxor  0x460(%r13),%ymm7,%ymm8
  405768:	00 00 
  40576a:	c4 41 35 ef 95 a0 02 	vpxor  0x2a0(%r13),%ymm9,%ymm10
  405771:	00 00 
  405773:	c4 41 25 ef a5 20 01 	vpxor  0x120(%r13),%ymm11,%ymm12
  40577a:	00 00 
  40577c:	c4 c1 7e 7f b5 e0 00 	vmovdqu %ymm6,0xe0(%r13)
  405783:	00 00 
  405785:	c4 41 7e 7f 85 60 04 	vmovdqu %ymm8,0x460(%r13)
  40578c:	00 00 
  40578e:	c4 41 7e 7f 95 a0 02 	vmovdqu %ymm10,0x2a0(%r13)
  405795:	00 00 
  405797:	c4 41 7e 7f a5 20 01 	vmovdqu %ymm12,0x120(%r13)
  40579e:	00 00 
  4057a0:	c4 41 7e 6f be a0 07 	vmovdqu 0x7a0(%r14),%ymm15
  4057a7:	00 00 
  4057a9:	48 8d b4 24 a0 23 00 	lea    0x23a0(%rsp),%rsi
  4057b0:	00 
  4057b1:	c4 c1 7e 6f a6 80 05 	vmovdqu 0x580(%r14),%ymm4
  4057b8:	00 00 
  4057ba:	c4 41 7e 6f ae c0 03 	vmovdqu 0x3c0(%r14),%ymm13
  4057c1:	00 00 
  4057c3:	c4 41 7e 6f b6 c0 07 	vmovdqu 0x7c0(%r14),%ymm14
  4057ca:	00 00 
  4057cc:	c4 c1 7e 6f 9e 80 01 	vmovdqu 0x180(%r14),%ymm3
  4057d3:	00 00 
  4057d5:	c4 c1 05 ef 95 c0 02 	vpxor  0x2c0(%r13),%ymm15,%ymm2
  4057dc:	00 00 
  4057de:	c4 c1 5d ef ad 00 07 	vpxor  0x700(%r13),%ymm4,%ymm5
  4057e5:	00 00 
  4057e7:	c4 c1 15 ef 85 c0 04 	vpxor  0x4c0(%r13),%ymm13,%ymm0
  4057ee:	00 00 
  4057f0:	c4 c1 0d ef 8d c0 03 	vpxor  0x3c0(%r13),%ymm14,%ymm1
  4057f7:	00 00 
  4057f9:	c4 c1 65 ef 9d c0 01 	vpxor  0x1c0(%r13),%ymm3,%ymm3
  405800:	00 00 
  405802:	c4 41 7e 6f be a0 00 	vmovdqu 0xa0(%r14),%ymm15
  405809:	00 00 
  40580b:	c5 fe 7f 46 e0       	vmovdqu %ymm0,-0x20(%rsi)
  405810:	c5 fe 7f 0e          	vmovdqu %ymm1,(%rsi)
  405814:	c5 fe 7f 56 20       	vmovdqu %ymm2,0x20(%rsi)
  405819:	c5 fe 7f 5e 40       	vmovdqu %ymm3,0x40(%rsi)
  40581e:	c4 c1 05 ef a5 c0 00 	vpxor  0xc0(%r13),%ymm15,%ymm4
  405825:	00 00 
  405827:	48 8d 94 24 c0 23 00 	lea    0x23c0(%rsp),%rdx
  40582e:	00 
  40582f:	48 8d 8c 24 e0 23 00 	lea    0x23e0(%rsp),%rcx
  405836:	00 
  405837:	e8 04 47 00 00       	callq  409f40 <sbox__7>
  40583c:	c5 fe 6f ac 24 80 23 	vmovdqu 0x2380(%rsp),%ymm5
  405843:	00 00 
  405845:	48 8d bc 24 00 24 00 	lea    0x2400(%rsp),%rdi
  40584c:	00 
  40584d:	c5 fe 6f 77 a0       	vmovdqu -0x60(%rdi),%ymm6
  405852:	c5 7e 6f 47 c0       	vmovdqu -0x40(%rdi),%ymm8
  405857:	c5 7e 6f 57 e0       	vmovdqu -0x20(%rdi),%ymm10
  40585c:	c4 c1 55 ef a5 20 03 	vpxor  0x320(%r13),%ymm5,%ymm4
  405863:	00 00 
  405865:	c4 c1 4d ef bd e0 05 	vpxor  0x5e0(%r13),%ymm6,%ymm7
  40586c:	00 00 
  40586e:	c4 41 3d ef 8d 60 01 	vpxor  0x160(%r13),%ymm8,%ymm9
  405875:	00 00 
  405877:	c4 41 2d ef 9d a0 03 	vpxor  0x3a0(%r13),%ymm10,%ymm11
  40587e:	00 00 
  405880:	c4 c1 7e 7f a5 20 03 	vmovdqu %ymm4,0x320(%r13)
  405887:	00 00 
  405889:	c4 c1 7e 7f bd e0 05 	vmovdqu %ymm7,0x5e0(%r13)
  405890:	00 00 
  405892:	c4 41 7e 7f 8d 60 01 	vmovdqu %ymm9,0x160(%r13)
  405899:	00 00 
  40589b:	c4 41 7e 7f 9d a0 03 	vmovdqu %ymm11,0x3a0(%r13)
  4058a2:	00 00 
  4058a4:	c4 41 7e 6f be 20 03 	vmovdqu 0x320(%r14),%ymm15
  4058ab:	00 00 
  4058ad:	48 8d b4 24 20 24 00 	lea    0x2420(%rsp),%rsi
  4058b4:	00 
  4058b5:	c4 41 7e 6f a6 00 05 	vmovdqu 0x500(%r14),%ymm12
  4058bc:	00 00 
  4058be:	c4 41 7e 6f ae 00 02 	vmovdqu 0x200(%r14),%ymm13
  4058c5:	00 00 
  4058c7:	c4 41 7e 6f b6 60 04 	vmovdqu 0x460(%r14),%ymm14
  4058ce:	00 00 
  4058d0:	c4 c1 05 ef 9d 20 05 	vpxor  0x520(%r13),%ymm15,%ymm3
  4058d7:	00 00 
  4058d9:	c4 c1 5d ef ae 40 02 	vpxor  0x240(%r14),%ymm4,%ymm5
  4058e0:	00 00 
  4058e2:	c4 c1 1d ef 85 e0 00 	vpxor  0xe0(%r13),%ymm12,%ymm0
  4058e9:	00 00 
  4058eb:	c4 c1 15 ef 8d 20 07 	vpxor  0x720(%r13),%ymm13,%ymm1
  4058f2:	00 00 
  4058f4:	c4 c1 0d ef 95 20 06 	vpxor  0x620(%r13),%ymm14,%ymm2
  4058fb:	00 00 
  4058fd:	c4 41 7e 6f be 40 06 	vmovdqu 0x640(%r14),%ymm15
  405904:	00 00 
  405906:	c5 fe 7f 46 e0       	vmovdqu %ymm0,-0x20(%rsi)
  40590b:	c5 fe 7f 0e          	vmovdqu %ymm1,(%rsi)
  40590f:	c5 fe 7f 56 20       	vmovdqu %ymm2,0x20(%rsi)
  405914:	c5 fe 7f 5e 40       	vmovdqu %ymm3,0x40(%rsi)
  405919:	c4 c1 05 ef a5 20 04 	vpxor  0x420(%r13),%ymm15,%ymm4
  405920:	00 00 
  405922:	48 8d 94 24 40 24 00 	lea    0x2440(%rsp),%rdx
  405929:	00 
  40592a:	48 8d 8c 24 60 24 00 	lea    0x2460(%rsp),%rcx
  405931:	00 
  405932:	e8 e9 3e 00 00       	callq  409820 <sbox__0>
  405937:	c5 fe 6f ac 24 00 24 	vmovdqu 0x2400(%rsp),%ymm5
  40593e:	00 00 
  405940:	48 8d bc 24 80 24 00 	lea    0x2480(%rsp),%rdi
  405947:	00 
  405948:	c5 fe 6f 7f a0       	vmovdqu -0x60(%rdi),%ymm7
  40594d:	c5 7e 6f 4f c0       	vmovdqu -0x40(%rdi),%ymm9
  405952:	c5 7e 6f 5f e0       	vmovdqu -0x20(%rdi),%ymm11
  405957:	c4 c1 55 ef b5 40 07 	vpxor  0x740(%r13),%ymm5,%ymm6
  40595e:	00 00 
  405960:	c4 41 45 ef 85 80 07 	vpxor  0x780(%r13),%ymm7,%ymm8
  405967:	00 00 
  405969:	c4 41 35 ef 95 80 01 	vpxor  0x180(%r13),%ymm9,%ymm10
  405970:	00 00 
  405972:	c4 41 25 ef a5 c0 01 	vpxor  0x1c0(%r13),%ymm11,%ymm12
  405979:	00 00 
  40597b:	c4 c1 7e 7f b5 40 07 	vmovdqu %ymm6,0x740(%r13)
  405982:	00 00 
  405984:	c4 41 7e 7f 85 80 07 	vmovdqu %ymm8,0x780(%r13)
  40598b:	00 00 
  40598d:	c4 41 7e 7f 95 80 01 	vmovdqu %ymm10,0x180(%r13)
  405994:	00 00 
  405996:	c4 41 7e 7f a5 c0 01 	vmovdqu %ymm12,0x1c0(%r13)
  40599d:	00 00 
  40599f:	c4 41 7e 6f be 00 04 	vmovdqu 0x400(%r14),%ymm15
  4059a6:	00 00 
  4059a8:	48 8d b4 24 a0 24 00 	lea    0x24a0(%rsp),%rsi
  4059af:	00 
  4059b0:	c4 c1 7e 6f a6 60 05 	vmovdqu 0x560(%r14),%ymm4
  4059b7:	00 00 
  4059b9:	c4 41 7e 6f ae 40 04 	vmovdqu 0x440(%r14),%ymm13
  4059c0:	00 00 
  4059c2:	c4 41 7e 6f b6 40 07 	vmovdqu 0x740(%r14),%ymm14
  4059c9:	00 00 
  4059cb:	c4 c1 7e 6f 9e 40 01 	vmovdqu 0x140(%r14),%ymm3
  4059d2:	00 00 
  4059d4:	c4 c1 05 ef 95 20 02 	vpxor  0x220(%r13),%ymm15,%ymm2
  4059db:	00 00 
  4059dd:	c4 c1 5d ef ad 60 07 	vpxor  0x760(%r13),%ymm4,%ymm5
  4059e4:	00 00 
  4059e6:	c4 c1 15 ef 85 20 04 	vpxor  0x420(%r13),%ymm13,%ymm0
  4059ed:	00 00 
  4059ef:	c4 c1 0d ef 8d 20 03 	vpxor  0x320(%r13),%ymm14,%ymm1
  4059f6:	00 00 
  4059f8:	c4 c1 65 ef 9d 20 01 	vpxor  0x120(%r13),%ymm3,%ymm3
  4059ff:	00 00 
  405a01:	c4 41 7e 6f be 20 06 	vmovdqu 0x620(%r14),%ymm15
  405a08:	00 00 
  405a0a:	c5 fe 7f 46 e0       	vmovdqu %ymm0,-0x20(%rsi)
  405a0f:	c5 fe 7f 0e          	vmovdqu %ymm1,(%rsi)
  405a13:	c5 fe 7f 56 20       	vmovdqu %ymm2,0x20(%rsi)
  405a18:	c5 fe 7f 5e 40       	vmovdqu %ymm3,0x40(%rsi)
  405a1d:	c4 c1 05 ef 65 20    	vpxor  0x20(%r13),%ymm15,%ymm4
  405a23:	48 8d 94 24 c0 24 00 	lea    0x24c0(%rsp),%rdx
  405a2a:	00 
  405a2b:	48 8d 8c 24 e0 24 00 	lea    0x24e0(%rsp),%rcx
  405a32:	00 
  405a33:	e8 38 3f 00 00       	callq  409970 <sbox__1>
  405a38:	c5 fe 6f ac 24 80 24 	vmovdqu 0x2480(%rsp),%ymm5
  405a3f:	00 00 
  405a41:	48 8d bc 24 00 25 00 	lea    0x2500(%rsp),%rdi
  405a48:	00 
  405a49:	c5 fe 6f 7f a0       	vmovdqu -0x60(%rdi),%ymm7
  405a4e:	c5 7e 6f 4f c0       	vmovdqu -0x40(%rdi),%ymm9
  405a53:	c5 7e 6f 5f e0       	vmovdqu -0x20(%rdi),%ymm11
  405a58:	c4 c1 55 ef b5 40 03 	vpxor  0x340(%r13),%ymm5,%ymm6
  405a5f:	00 00 
  405a61:	c4 41 45 ef 85 c0 04 	vpxor  0x4c0(%r13),%ymm7,%ymm8
  405a68:	00 00 
  405a6a:	c4 41 35 ef 95 00 06 	vpxor  0x600(%r13),%ymm9,%ymm10
  405a71:	00 00 
  405a73:	c4 41 25 ef a5 80 06 	vpxor  0x680(%r13),%ymm11,%ymm12
  405a7a:	00 00 
  405a7c:	c4 c1 7e 7f b5 40 03 	vmovdqu %ymm6,0x340(%r13)
  405a83:	00 00 
  405a85:	c4 41 7e 7f 85 c0 04 	vmovdqu %ymm8,0x4c0(%r13)
  405a8c:	00 00 
  405a8e:	c4 41 7e 7f 95 00 06 	vmovdqu %ymm10,0x600(%r13)
  405a95:	00 00 
  405a97:	c4 41 7e 7f a5 80 06 	vmovdqu %ymm12,0x680(%r13)
  405a9e:	00 00 
  405aa0:	c4 41 7e 6f be 00 07 	vmovdqu 0x700(%r14),%ymm15
  405aa7:	00 00 
  405aa9:	48 8d b4 24 20 25 00 	lea    0x2520(%rsp),%rsi
  405ab0:	00 
  405ab1:	c4 c1 7e 6f a6 60 07 	vmovdqu 0x760(%r14),%ymm4
  405ab8:	00 00 
  405aba:	c4 41 7e 6f ae 20 04 	vmovdqu 0x420(%r14),%ymm13
  405ac1:	00 00 
  405ac3:	c4 41 7e 6f 36       	vmovdqu (%r14),%ymm14
  405ac8:	c4 c1 7e 6f 9e 40 03 	vmovdqu 0x340(%r14),%ymm3
  405acf:	00 00 
  405ad1:	c4 c1 05 ef 95 60 06 	vpxor  0x660(%r13),%ymm15,%ymm2
  405ad8:	00 00 
  405ada:	c4 c1 5d ef ad 60 03 	vpxor  0x360(%r13),%ymm4,%ymm5
  405ae1:	00 00 
  405ae3:	c4 c1 15 ef 45 20    	vpxor  0x20(%r13),%ymm13,%ymm0
  405ae9:	c4 c1 0d ef 8d 60 07 	vpxor  0x760(%r13),%ymm14,%ymm1
  405af0:	00 00 
  405af2:	c4 c1 65 ef 9d 60 05 	vpxor  0x560(%r13),%ymm3,%ymm3
  405af9:	00 00 
  405afb:	c4 41 7e 6f be 20 01 	vmovdqu 0x120(%r14),%ymm15
  405b02:	00 00 
  405b04:	c5 fe 7f 46 e0       	vmovdqu %ymm0,-0x20(%rsi)
  405b09:	c5 fe 7f 0e          	vmovdqu %ymm1,(%rsi)
  405b0d:	c5 fe 7f 56 20       	vmovdqu %ymm2,0x20(%rsi)
  405b12:	c5 fe 7f 5e 40       	vmovdqu %ymm3,0x40(%rsi)
  405b17:	c4 c1 05 ef a5 60 04 	vpxor  0x460(%r13),%ymm15,%ymm4
  405b1e:	00 00 
  405b20:	48 8d 94 24 40 25 00 	lea    0x2540(%rsp),%rdx
  405b27:	00 
  405b28:	48 8d 8c 24 60 25 00 	lea    0x2560(%rsp),%rcx
  405b2f:	00 
  405b30:	e8 4b 3f 00 00       	callq  409a80 <sbox__2>
  405b35:	c5 fe 6f ac 24 00 25 	vmovdqu 0x2500(%rsp),%ymm5
  405b3c:	00 00 
  405b3e:	48 8d bc 24 80 25 00 	lea    0x2580(%rsp),%rdi
  405b45:	00 
  405b46:	c5 fe 6f 7f a0       	vmovdqu -0x60(%rdi),%ymm7
  405b4b:	c5 7e 6f 4f c0       	vmovdqu -0x40(%rdi),%ymm9
  405b50:	c5 7e 6f 5f e0       	vmovdqu -0x20(%rdi),%ymm11
  405b55:	c4 c1 55 ef b5 80 00 	vpxor  0x80(%r13),%ymm5,%ymm6
  405b5c:	00 00 
  405b5e:	c4 41 45 ef 45 40    	vpxor  0x40(%r13),%ymm7,%ymm8
  405b64:	c4 41 35 ef 95 c0 02 	vpxor  0x2c0(%r13),%ymm9,%ymm10
  405b6b:	00 00 
  405b6d:	c4 41 25 ef a5 00 02 	vpxor  0x200(%r13),%ymm11,%ymm12
  405b74:	00 00 
  405b76:	c4 c1 7e 7f b5 80 00 	vmovdqu %ymm6,0x80(%r13)
  405b7d:	00 00 
  405b7f:	c4 41 7e 7f 45 40    	vmovdqu %ymm8,0x40(%r13)
  405b85:	c4 41 7e 7f 95 c0 02 	vmovdqu %ymm10,0x2c0(%r13)
  405b8c:	00 00 
  405b8e:	c4 41 7e 7f a5 00 02 	vmovdqu %ymm12,0x200(%r13)
  405b95:	00 00 
  405b97:	c4 41 7e 6f 7e 20    	vmovdqu 0x20(%r14),%ymm15
  405b9d:	48 8d b4 24 a0 25 00 	lea    0x25a0(%rsp),%rsi
  405ba4:	00 
  405ba5:	c4 c1 7e 6f a6 40 05 	vmovdqu 0x540(%r14),%ymm4
  405bac:	00 00 
  405bae:	c4 41 7e 6f ae 00 03 	vmovdqu 0x300(%r14),%ymm13
  405bb5:	00 00 
  405bb7:	c4 41 7e 6f 76 40    	vmovdqu 0x40(%r14),%ymm14
  405bbd:	c4 c1 7e 6f 9e 20 07 	vmovdqu 0x720(%r14),%ymm3
  405bc4:	00 00 
  405bc6:	c4 c1 05 ef 95 60 02 	vpxor  0x260(%r13),%ymm15,%ymm2
  405bcd:	00 00 
  405bcf:	c4 c1 5d ef ad a0 07 	vpxor  0x7a0(%r13),%ymm4,%ymm5
  405bd6:	00 00 
  405bd8:	c4 c1 15 ef 85 60 04 	vpxor  0x460(%r13),%ymm13,%ymm0
  405bdf:	00 00 
  405be1:	c4 c1 0d ef 8d 60 03 	vpxor  0x360(%r13),%ymm14,%ymm1
  405be8:	00 00 
  405bea:	c4 c1 65 ef 9d 60 01 	vpxor  0x160(%r13),%ymm3,%ymm3
  405bf1:	00 00 
  405bf3:	c4 41 7e 6f be 00 06 	vmovdqu 0x600(%r14),%ymm15
  405bfa:	00 00 
  405bfc:	c5 fe 7f 46 e0       	vmovdqu %ymm0,-0x20(%rsi)
  405c01:	c5 fe 7f 0e          	vmovdqu %ymm1,(%rsi)
  405c05:	c5 fe 7f 56 20       	vmovdqu %ymm2,0x20(%rsi)
  405c0a:	c5 fe 7f 5e 40       	vmovdqu %ymm3,0x40(%rsi)
  405c0f:	c4 c1 05 ef 65 60    	vpxor  0x60(%r13),%ymm15,%ymm4
  405c15:	48 8d 94 24 c0 25 00 	lea    0x25c0(%rsp),%rdx
  405c1c:	00 
  405c1d:	48 8d 8c 24 e0 25 00 	lea    0x25e0(%rsp),%rcx
  405c24:	00 
  405c25:	e8 26 44 00 00       	callq  40a050 <sbox__3>
  405c2a:	c5 fe 6f ac 24 80 25 	vmovdqu 0x2580(%rsp),%ymm5
  405c31:	00 00 
  405c33:	48 8d bc 24 00 26 00 	lea    0x2600(%rsp),%rdi
  405c3a:	00 
  405c3b:	c5 fe 6f 7f a0       	vmovdqu -0x60(%rdi),%ymm7
  405c40:	c5 7e 6f 4f c0       	vmovdqu -0x40(%rdi),%ymm9
  405c45:	c5 7e 6f 5f e0       	vmovdqu -0x20(%rdi),%ymm11
  405c4a:	c4 c1 55 ef b5 c0 06 	vpxor  0x6c0(%r13),%ymm5,%ymm6
  405c51:	00 00 
  405c53:	c4 41 45 ef 85 80 04 	vpxor  0x480(%r13),%ymm7,%ymm8
  405c5a:	00 00 
  405c5c:	c4 41 35 ef 95 40 06 	vpxor  0x640(%r13),%ymm9,%ymm10
  405c63:	00 00 
  405c65:	c4 41 25 ef a5 00 07 	vpxor  0x700(%r13),%ymm11,%ymm12
  405c6c:	00 00 
  405c6e:	c4 c1 7e 7f b5 c0 06 	vmovdqu %ymm6,0x6c0(%r13)
  405c75:	00 00 
  405c77:	c4 41 7e 7f 85 80 04 	vmovdqu %ymm8,0x480(%r13)
  405c7e:	00 00 
  405c80:	c4 41 7e 7f 95 40 06 	vmovdqu %ymm10,0x640(%r13)
  405c87:	00 00 
  405c89:	c4 41 7e 7f a5 00 07 	vmovdqu %ymm12,0x700(%r13)
  405c90:	00 00 
  405c92:	c4 41 7e 6f be 80 04 	vmovdqu 0x480(%r14),%ymm15
  405c99:	00 00 
  405c9b:	48 8d b4 24 20 26 00 	lea    0x2620(%rsp),%rsi
  405ca2:	00 
  405ca3:	c4 c1 7e 6f a6 a0 00 	vmovdqu 0xa0(%r14),%ymm4
  405caa:	00 00 
  405cac:	c4 41 7e 6f ae c0 06 	vmovdqu 0x6c0(%r14),%ymm13
  405cb3:	00 00 
  405cb5:	c4 41 7e 6f b6 a0 03 	vmovdqu 0x3a0(%r14),%ymm14
  405cbc:	00 00 
  405cbe:	c4 c1 7e 6f 9e 60 02 	vmovdqu 0x260(%r14),%ymm3
  405cc5:	00 00 
  405cc7:	c4 c1 05 ef 95 a0 06 	vpxor  0x6a0(%r13),%ymm15,%ymm2
  405cce:	00 00 
  405cd0:	c4 c1 5d ef ad a0 03 	vpxor  0x3a0(%r13),%ymm4,%ymm5
  405cd7:	00 00 
  405cd9:	c4 c1 15 ef 45 60    	vpxor  0x60(%r13),%ymm13,%ymm0
  405cdf:	c4 c1 0d ef 8d a0 07 	vpxor  0x7a0(%r13),%ymm14,%ymm1
  405ce6:	00 00 
  405ce8:	c4 c1 65 ef 9d a0 05 	vpxor  0x5a0(%r13),%ymm3,%ymm3
  405cef:	00 00 
  405cf1:	c4 41 7e 6f be c0 00 	vmovdqu 0xc0(%r14),%ymm15
  405cf8:	00 00 
  405cfa:	c5 fe 7f 46 e0       	vmovdqu %ymm0,-0x20(%rsi)
  405cff:	c5 fe 7f 0e          	vmovdqu %ymm1,(%rsi)
  405d03:	c5 fe 7f 56 20       	vmovdqu %ymm2,0x20(%rsi)
  405d08:	c5 fe 7f 5e 40       	vmovdqu %ymm3,0x40(%rsi)
  405d0d:	c4 c1 05 ef a5 a0 04 	vpxor  0x4a0(%r13),%ymm15,%ymm4
  405d14:	00 00 
  405d16:	48 8d 94 24 40 26 00 	lea    0x2640(%rsp),%rdx
  405d1d:	00 
  405d1e:	48 8d 8c 24 60 26 00 	lea    0x2660(%rsp),%rcx
  405d25:	00 
  405d26:	e8 75 3e 00 00       	callq  409ba0 <sbox__4>
  405d2b:	c5 fe 6f ac 24 00 26 	vmovdqu 0x2600(%rsp),%ymm5
  405d32:	00 00 
  405d34:	48 8d bc 24 80 26 00 	lea    0x2680(%rsp),%rdi
  405d3b:	00 
  405d3c:	c5 fe 6f 7f a0       	vmovdqu -0x60(%rdi),%ymm7
  405d41:	c5 7e 6f 4f c0       	vmovdqu -0x40(%rdi),%ymm9
  405d46:	c5 7e 6f 5f e0       	vmovdqu -0x20(%rdi),%ymm11
  405d4b:	c4 c1 55 ef 75 00    	vpxor  0x0(%r13),%ymm5,%ymm6
  405d51:	c4 41 45 ef 85 40 02 	vpxor  0x240(%r13),%ymm7,%ymm8
  405d58:	00 00 
  405d5a:	c4 41 35 ef 95 c0 07 	vpxor  0x7c0(%r13),%ymm9,%ymm10
  405d61:	00 00 
  405d63:	c4 41 25 ef a5 00 05 	vpxor  0x500(%r13),%ymm11,%ymm12
  405d6a:	00 00 
  405d6c:	c4 c1 7e 7f 75 00    	vmovdqu %ymm6,0x0(%r13)
  405d72:	c4 41 7e 7f 85 40 02 	vmovdqu %ymm8,0x240(%r13)
  405d79:	00 00 
  405d7b:	c4 41 7e 7f 95 c0 07 	vmovdqu %ymm10,0x7c0(%r13)
  405d82:	00 00 
  405d84:	c4 41 7e 7f a5 00 05 	vmovdqu %ymm12,0x500(%r13)
  405d8b:	00 00 
  405d8d:	c4 41 7e 6f be a0 04 	vmovdqu 0x4a0(%r14),%ymm15
  405d94:	00 00 
  405d96:	48 8d b4 24 a0 26 00 	lea    0x26a0(%rsp),%rsi
  405d9d:	00 
  405d9e:	c4 c1 7e 6f a6 a0 07 	vmovdqu 0x7a0(%r14),%ymm4
  405da5:	00 00 
  405da7:	c4 41 7e 6f b6 c0 07 	vmovdqu 0x7c0(%r14),%ymm14
  405dae:	00 00 
  405db0:	c4 41 7e 6f ae 80 05 	vmovdqu 0x580(%r14),%ymm13
  405db7:	00 00 
  405db9:	c4 c1 7e 6f 9e c0 02 	vmovdqu 0x2c0(%r14),%ymm3
  405dc0:	00 00 
  405dc2:	c4 c1 05 ef 95 a0 02 	vpxor  0x2a0(%r13),%ymm15,%ymm2
  405dc9:	00 00 
  405dcb:	c4 c1 5d ef ad e0 07 	vpxor  0x7e0(%r13),%ymm4,%ymm5
  405dd2:	00 00 
  405dd4:	c4 c1 15 ef 85 a0 04 	vpxor  0x4a0(%r13),%ymm13,%ymm0
  405ddb:	00 00 
  405ddd:	c4 c1 0d ef 8d a0 03 	vpxor  0x3a0(%r13),%ymm14,%ymm1
  405de4:	00 00 
  405de6:	c4 c1 65 ef 9d a0 01 	vpxor  0x1a0(%r13),%ymm3,%ymm3
  405ded:	00 00 
  405def:	c4 41 7e 6f be 80 02 	vmovdqu 0x280(%r14),%ymm15
  405df6:	00 00 
  405df8:	c5 fe 7f 46 e0       	vmovdqu %ymm0,-0x20(%rsi)
  405dfd:	c5 fe 7f 0e          	vmovdqu %ymm1,(%rsi)
  405e01:	c5 fe 7f 56 20       	vmovdqu %ymm2,0x20(%rsi)
  405e06:	c5 fe 7f 5e 40       	vmovdqu %ymm3,0x40(%rsi)
  405e0b:	c4 c1 05 ef a5 a0 00 	vpxor  0xa0(%r13),%ymm15,%ymm4
  405e12:	00 00 
  405e14:	48 8d 94 24 c0 26 00 	lea    0x26c0(%rsp),%rdx
  405e1b:	00 
  405e1c:	48 8d 8c 24 e0 26 00 	lea    0x26e0(%rsp),%rcx
  405e23:	00 
  405e24:	e8 c7 3e 00 00       	callq  409cf0 <sbox__5>
  405e29:	c5 fe 6f ac 24 80 26 	vmovdqu 0x2680(%rsp),%ymm5
  405e30:	00 00 
  405e32:	48 8d bc 24 00 27 00 	lea    0x2700(%rsp),%rdi
  405e39:	00 
  405e3a:	c5 fe 6f 7f a0       	vmovdqu -0x60(%rdi),%ymm7
  405e3f:	c5 7e 6f 4f c0       	vmovdqu -0x40(%rdi),%ymm9
  405e44:	c5 7e 6f 5f e0       	vmovdqu -0x20(%rdi),%ymm11
  405e49:	c4 c1 55 ef b5 00 04 	vpxor  0x400(%r13),%ymm5,%ymm6
  405e50:	00 00 
  405e52:	c4 41 45 ef 85 c0 03 	vpxor  0x3c0(%r13),%ymm7,%ymm8
  405e59:	00 00 
  405e5b:	c4 41 35 ef 95 40 05 	vpxor  0x540(%r13),%ymm9,%ymm10
  405e62:	00 00 
  405e64:	c4 41 25 ef a5 80 05 	vpxor  0x580(%r13),%ymm11,%ymm12
  405e6b:	00 00 
  405e6d:	c4 c1 7e 7f b5 00 04 	vmovdqu %ymm6,0x400(%r13)
  405e74:	00 00 
  405e76:	c4 41 7e 7f 85 c0 03 	vmovdqu %ymm8,0x3c0(%r13)
  405e7d:	00 00 
  405e7f:	c4 41 7e 7f 95 40 05 	vmovdqu %ymm10,0x540(%r13)
  405e86:	00 00 
  405e88:	c4 41 7e 7f a5 80 05 	vmovdqu %ymm12,0x580(%r13)
  405e8f:	00 00 
  405e91:	c4 41 7e 6f 7e 60    	vmovdqu 0x60(%r14),%ymm15
  405e97:	48 8d b4 24 20 27 00 	lea    0x2720(%rsp),%rsi
  405e9e:	00 
  405e9f:	c4 c1 7e 6f a6 a0 02 	vmovdqu 0x2a0(%r14),%ymm4
  405ea6:	00 00 
  405ea8:	c4 41 7e 6f ae c0 03 	vmovdqu 0x3c0(%r14),%ymm13
  405eaf:	00 00 
  405eb1:	c4 41 7e 6f b6 a0 06 	vmovdqu 0x6a0(%r14),%ymm14
  405eb8:	00 00 
  405eba:	c4 c1 7e 6f 9e 80 07 	vmovdqu 0x780(%r14),%ymm3
  405ec1:	00 00 
  405ec3:	c4 c1 05 ef 95 e0 06 	vpxor  0x6e0(%r13),%ymm15,%ymm2
  405eca:	00 00 
  405ecc:	c4 c1 5d ef ad e0 03 	vpxor  0x3e0(%r13),%ymm4,%ymm5
  405ed3:	00 00 
  405ed5:	c4 c1 15 ef 85 a0 00 	vpxor  0xa0(%r13),%ymm13,%ymm0
  405edc:	00 00 
  405ede:	c4 c1 0d ef 8d e0 07 	vpxor  0x7e0(%r13),%ymm14,%ymm1
  405ee5:	00 00 
  405ee7:	c4 c1 65 ef 9d e0 05 	vpxor  0x5e0(%r13),%ymm3,%ymm3
  405eee:	00 00 
  405ef0:	c4 41 7e 6f be 80 01 	vmovdqu 0x180(%r14),%ymm15
  405ef7:	00 00 
  405ef9:	c5 fe 7f 46 e0       	vmovdqu %ymm0,-0x20(%rsi)
  405efe:	c5 fe 7f 0e          	vmovdqu %ymm1,(%rsi)
  405f02:	c5 fe 7f 56 20       	vmovdqu %ymm2,0x20(%rsi)
  405f07:	c5 fe 7f 5e 40       	vmovdqu %ymm3,0x40(%rsi)
  405f0c:	c4 c1 05 ef a5 e0 04 	vpxor  0x4e0(%r13),%ymm15,%ymm4
  405f13:	00 00 
  405f15:	48 8d 94 24 40 27 00 	lea    0x2740(%rsp),%rdx
  405f1c:	00 
  405f1d:	48 8d 8c 24 60 27 00 	lea    0x2760(%rsp),%rcx
  405f24:	00 
  405f25:	e8 f6 3e 00 00       	callq  409e20 <sbox__6>
  405f2a:	c5 fe 6f ac 24 00 27 	vmovdqu 0x2700(%rsp),%ymm5
  405f31:	00 00 
  405f33:	48 8d bc 24 80 27 00 	lea    0x2780(%rsp),%rdi
  405f3a:	00 
  405f3b:	c5 fe 6f 7f a0       	vmovdqu -0x60(%rdi),%ymm7
  405f40:	c5 7e 6f 4f c0       	vmovdqu -0x40(%rdi),%ymm9
  405f45:	c5 7e 6f 5f e0       	vmovdqu -0x20(%rdi),%ymm11
  405f4a:	c4 c1 55 ef b5 c0 00 	vpxor  0xc0(%r13),%ymm5,%ymm6
  405f51:	00 00 
  405f53:	c4 41 45 ef 85 40 04 	vpxor  0x440(%r13),%ymm7,%ymm8
  405f5a:	00 00 
  405f5c:	c4 41 35 ef 95 80 02 	vpxor  0x280(%r13),%ymm9,%ymm10
  405f63:	00 00 
  405f65:	c4 41 25 ef a5 00 01 	vpxor  0x100(%r13),%ymm11,%ymm12
  405f6c:	00 00 
  405f6e:	c4 c1 7e 7f b5 c0 00 	vmovdqu %ymm6,0xc0(%r13)
  405f75:	00 00 
  405f77:	c4 41 7e 7f 85 40 04 	vmovdqu %ymm8,0x440(%r13)
  405f7e:	00 00 
  405f80:	c4 41 7e 7f 95 80 02 	vmovdqu %ymm10,0x280(%r13)
  405f87:	00 00 
  405f89:	c4 41 7e 7f a5 00 01 	vmovdqu %ymm12,0x100(%r13)
  405f90:	00 00 
  405f92:	c4 41 7e 6f be a0 05 	vmovdqu 0x5a0(%r14),%ymm15
  405f99:	00 00 
  405f9b:	48 8d b4 24 a0 27 00 	lea    0x27a0(%rsp),%rsi
  405fa2:	00 
  405fa3:	c4 c1 7e 6f a6 80 03 	vmovdqu 0x380(%r14),%ymm4
  405faa:	00 00 
  405fac:	c4 c1 7e 6f 9e 60 03 	vmovdqu 0x360(%r14),%ymm3
  405fb3:	00 00 
  405fb5:	c4 41 7e 6f ae c0 01 	vmovdqu 0x1c0(%r14),%ymm13
  405fbc:	00 00 
  405fbe:	c4 41 7e 6f b6 c0 05 	vmovdqu 0x5c0(%r14),%ymm14
  405fc5:	00 00 
  405fc7:	c4 c1 05 ef 95 e0 02 	vpxor  0x2e0(%r13),%ymm15,%ymm2
  405fce:	00 00 
  405fd0:	c4 c1 5d ef ad 20 07 	vpxor  0x720(%r13),%ymm4,%ymm5
  405fd7:	00 00 
  405fd9:	c4 c1 15 ef 85 e0 04 	vpxor  0x4e0(%r13),%ymm13,%ymm0
  405fe0:	00 00 
  405fe2:	c4 c1 0d ef 8d e0 03 	vpxor  0x3e0(%r13),%ymm14,%ymm1
  405fe9:	00 00 
  405feb:	c4 c1 65 ef 9d e0 01 	vpxor  0x1e0(%r13),%ymm3,%ymm3
  405ff2:	00 00 
  405ff4:	c4 41 7e 6f be 80 06 	vmovdqu 0x680(%r14),%ymm15
  405ffb:	00 00 
  405ffd:	c5 fe 7f 46 e0       	vmovdqu %ymm0,-0x20(%rsi)
  406002:	c5 fe 7f 0e          	vmovdqu %ymm1,(%rsi)
  406006:	c5 fe 7f 56 20       	vmovdqu %ymm2,0x20(%rsi)
  40600b:	c5 fe 7f 5e 40       	vmovdqu %ymm3,0x40(%rsi)
  406010:	c4 c1 05 ef a5 e0 00 	vpxor  0xe0(%r13),%ymm15,%ymm4
  406017:	00 00 
  406019:	48 8d 94 24 c0 27 00 	lea    0x27c0(%rsp),%rdx
  406020:	00 
  406021:	48 8d 8c 24 e0 27 00 	lea    0x27e0(%rsp),%rcx
  406028:	00 
  406029:	e8 12 3f 00 00       	callq  409f40 <sbox__7>
  40602e:	c5 fe 6f ac 24 80 27 	vmovdqu 0x2780(%rsp),%ymm5
  406035:	00 00 
  406037:	48 8d bc 24 00 28 00 	lea    0x2800(%rsp),%rdi
  40603e:	00 
  40603f:	c5 fe 6f 77 a0       	vmovdqu -0x60(%rdi),%ymm6
  406044:	c5 7e 6f 47 c0       	vmovdqu -0x40(%rdi),%ymm8
  406049:	c5 7e 6f 57 e0       	vmovdqu -0x20(%rdi),%ymm10
  40604e:	c4 c1 55 ef a5 00 03 	vpxor  0x300(%r13),%ymm5,%ymm4
  406055:	00 00 
  406057:	c4 c1 4d ef bd c0 05 	vpxor  0x5c0(%r13),%ymm6,%ymm7
  40605e:	00 00 
  406060:	c4 41 3d ef 8d 40 01 	vpxor  0x140(%r13),%ymm8,%ymm9
  406067:	00 00 
  406069:	c4 41 2d ef 9d 80 03 	vpxor  0x380(%r13),%ymm10,%ymm11
  406070:	00 00 
  406072:	c4 c1 7e 7f a5 00 03 	vmovdqu %ymm4,0x300(%r13)
  406079:	00 00 
  40607b:	c4 c1 7e 7f bd c0 05 	vmovdqu %ymm7,0x5c0(%r13)
  406082:	00 00 
  406084:	c4 41 7e 7f 8d 40 01 	vmovdqu %ymm9,0x140(%r13)
  40608b:	00 00 
  40608d:	c4 41 7e 7f 9d 80 03 	vmovdqu %ymm11,0x380(%r13)
  406094:	00 00 
  406096:	c4 41 7e 6f be 20 01 	vmovdqu 0x120(%r14),%ymm15
  40609d:	00 00 
  40609f:	48 8d b4 24 20 28 00 	lea    0x2820(%rsp),%rsi
  4060a6:	00 
  4060a7:	c4 41 7e 6f a6 00 03 	vmovdqu 0x300(%r14),%ymm12
  4060ae:	00 00 
  4060b0:	c4 41 7e 6f 2e       	vmovdqu (%r14),%ymm13
  4060b5:	c4 41 7e 6f b6 00 06 	vmovdqu 0x600(%r14),%ymm14
  4060bc:	00 00 
  4060be:	c4 c1 05 ef 9d 00 05 	vpxor  0x500(%r13),%ymm15,%ymm3
  4060c5:	00 00 
  4060c7:	c4 c1 5d ef 6e 40    	vpxor  0x40(%r14),%ymm4,%ymm5
  4060cd:	c4 c1 1d ef 85 c0 00 	vpxor  0xc0(%r13),%ymm12,%ymm0
  4060d4:	00 00 
  4060d6:	c4 c1 15 ef 8d 00 07 	vpxor  0x700(%r13),%ymm13,%ymm1
  4060dd:	00 00 
  4060df:	c4 c1 0d ef 95 00 06 	vpxor  0x600(%r13),%ymm14,%ymm2
  4060e6:	00 00 
  4060e8:	c4 41 7e 6f be 40 04 	vmovdqu 0x440(%r14),%ymm15
  4060ef:	00 00 
  4060f1:	c5 fe 7f 46 e0       	vmovdqu %ymm0,-0x20(%rsi)
  4060f6:	c5 fe 7f 0e          	vmovdqu %ymm1,(%rsi)
  4060fa:	c5 fe 7f 56 20       	vmovdqu %ymm2,0x20(%rsi)
  4060ff:	c5 fe 7f 5e 40       	vmovdqu %ymm3,0x40(%rsi)
  406104:	c4 c1 05 ef a5 00 04 	vpxor  0x400(%r13),%ymm15,%ymm4
  40610b:	00 00 
  40610d:	48 8d 94 24 40 28 00 	lea    0x2840(%rsp),%rdx
  406114:	00 
  406115:	48 8d 8c 24 60 28 00 	lea    0x2860(%rsp),%rcx
  40611c:	00 
  40611d:	e8 fe 36 00 00       	callq  409820 <sbox__0>
  406122:	c5 fe 6f ac 24 00 28 	vmovdqu 0x2800(%rsp),%ymm5
  406129:	00 00 
  40612b:	48 8d bc 24 80 28 00 	lea    0x2880(%rsp),%rdi
  406132:	00 
  406133:	c5 fe 6f 7f a0       	vmovdqu -0x60(%rdi),%ymm7
  406138:	c5 7e 6f 4f c0       	vmovdqu -0x40(%rdi),%ymm9
  40613d:	c5 7e 6f 5f e0       	vmovdqu -0x20(%rdi),%ymm11
  406142:	c4 c1 55 ef b5 60 07 	vpxor  0x760(%r13),%ymm5,%ymm6
  406149:	00 00 
  40614b:	c4 41 45 ef 85 a0 07 	vpxor  0x7a0(%r13),%ymm7,%ymm8
  406152:	00 00 
  406154:	c4 41 35 ef 95 a0 01 	vpxor  0x1a0(%r13),%ymm9,%ymm10
  40615b:	00 00 
  40615d:	c4 41 25 ef a5 e0 01 	vpxor  0x1e0(%r13),%ymm11,%ymm12
  406164:	00 00 
  406166:	c4 c1 7e 7f b5 60 07 	vmovdqu %ymm6,0x760(%r13)
  40616d:	00 00 
  40616f:	c4 41 7e 7f 85 a0 07 	vmovdqu %ymm8,0x7a0(%r13)
  406176:	00 00 
  406178:	c4 41 7e 7f 95 a0 01 	vmovdqu %ymm10,0x1a0(%r13)
  40617f:	00 00 
  406181:	c4 41 7e 7f a5 e0 01 	vmovdqu %ymm12,0x1e0(%r13)
  406188:	00 00 
  40618a:	c4 41 7e 6f be 00 02 	vmovdqu 0x200(%r14),%ymm15
  406191:	00 00 
  406193:	48 8d b4 24 a0 28 00 	lea    0x28a0(%rsp),%rsi
  40619a:	00 
  40619b:	c4 c1 7e 6f a6 00 07 	vmovdqu 0x700(%r14),%ymm4
  4061a2:	00 00 
  4061a4:	c4 41 7e 6f ae 40 02 	vmovdqu 0x240(%r14),%ymm13
  4061ab:	00 00 
  4061ad:	c4 41 7e 6f b6 40 05 	vmovdqu 0x540(%r14),%ymm14
  4061b4:	00 00 
  4061b6:	c4 c1 7e 6f 9e 60 07 	vmovdqu 0x760(%r14),%ymm3
  4061bd:	00 00 
  4061bf:	c4 c1 05 ef 95 00 02 	vpxor  0x200(%r13),%ymm15,%ymm2
  4061c6:	00 00 
  4061c8:	c4 c1 5d ef ad 40 07 	vpxor  0x740(%r13),%ymm4,%ymm5
  4061cf:	00 00 
  4061d1:	c4 c1 15 ef 85 00 04 	vpxor  0x400(%r13),%ymm13,%ymm0
  4061d8:	00 00 
  4061da:	c4 c1 0d ef 8d 00 03 	vpxor  0x300(%r13),%ymm14,%ymm1
  4061e1:	00 00 
  4061e3:	c4 c1 65 ef 9d 00 01 	vpxor  0x100(%r13),%ymm3,%ymm3
  4061ea:	00 00 
  4061ec:	c4 41 7e 6f be 20 04 	vmovdqu 0x420(%r14),%ymm15
  4061f3:	00 00 
  4061f5:	c5 fe 7f 46 e0       	vmovdqu %ymm0,-0x20(%rsi)
  4061fa:	c5 fe 7f 0e          	vmovdqu %ymm1,(%rsi)
  4061fe:	c5 fe 7f 56 20       	vmovdqu %ymm2,0x20(%rsi)
  406203:	c5 fe 7f 5e 40       	vmovdqu %ymm3,0x40(%rsi)
  406208:	c4 c1 05 ef 65 00    	vpxor  0x0(%r13),%ymm15,%ymm4
  40620e:	48 8d 94 24 c0 28 00 	lea    0x28c0(%rsp),%rdx
  406215:	00 
  406216:	48 8d 8c 24 e0 28 00 	lea    0x28e0(%rsp),%rcx
  40621d:	00 
  40621e:	e8 4d 37 00 00       	callq  409970 <sbox__1>
  406223:	c5 fe 6f ac 24 80 28 	vmovdqu 0x2880(%rsp),%ymm5
  40622a:	00 00 
  40622c:	48 8d bc 24 00 29 00 	lea    0x2900(%rsp),%rdi
  406233:	00 
  406234:	c5 fe 6f 7f a0       	vmovdqu -0x60(%rdi),%ymm7
  406239:	c5 7e 6f 4f c0       	vmovdqu -0x40(%rdi),%ymm9
  40623e:	c5 7e 6f 5f e0       	vmovdqu -0x20(%rdi),%ymm11
  406243:	c4 c1 55 ef b5 60 03 	vpxor  0x360(%r13),%ymm5,%ymm6
  40624a:	00 00 
  40624c:	c4 41 45 ef 85 e0 04 	vpxor  0x4e0(%r13),%ymm7,%ymm8
  406253:	00 00 
  406255:	c4 41 35 ef 95 20 06 	vpxor  0x620(%r13),%ymm9,%ymm10
  40625c:	00 00 
  40625e:	c4 41 25 ef a5 a0 06 	vpxor  0x6a0(%r13),%ymm11,%ymm12
  406265:	00 00 
  406267:	c4 c1 7e 7f b5 60 03 	vmovdqu %ymm6,0x360(%r13)
  40626e:	00 00 
  406270:	c4 41 7e 7f 85 e0 04 	vmovdqu %ymm8,0x4e0(%r13)
  406277:	00 00 
  406279:	c4 41 7e 7f 95 20 06 	vmovdqu %ymm10,0x620(%r13)
  406280:	00 00 
  406282:	c4 41 7e 7f a5 a0 06 	vmovdqu %ymm12,0x6a0(%r13)
  406289:	00 00 
  40628b:	c4 41 7e 6f be 00 05 	vmovdqu 0x500(%r14),%ymm15
  406292:	00 00 
  406294:	48 8d b4 24 20 29 00 	lea    0x2920(%rsp),%rsi
  40629b:	00 
  40629c:	c4 c1 7e 6f a6 60 05 	vmovdqu 0x560(%r14),%ymm4
  4062a3:	00 00 
  4062a5:	c4 41 7e 6f ae 20 02 	vmovdqu 0x220(%r14),%ymm13
  4062ac:	00 00 
  4062ae:	c4 41 7e 6f b6 20 06 	vmovdqu 0x620(%r14),%ymm14
  4062b5:	00 00 
  4062b7:	c4 c1 7e 6f 9e 40 01 	vmovdqu 0x140(%r14),%ymm3
  4062be:	00 00 
  4062c0:	c4 c1 05 ef 95 40 06 	vpxor  0x640(%r13),%ymm15,%ymm2
  4062c7:	00 00 
  4062c9:	c4 c1 5d ef ad 40 03 	vpxor  0x340(%r13),%ymm4,%ymm5
  4062d0:	00 00 
  4062d2:	c4 c1 15 ef 45 00    	vpxor  0x0(%r13),%ymm13,%ymm0
  4062d8:	c4 c1 0d ef 8d 40 07 	vpxor  0x740(%r13),%ymm14,%ymm1
  4062df:	00 00 
  4062e1:	c4 c1 65 ef 9d 40 05 	vpxor  0x540(%r13),%ymm3,%ymm3
  4062e8:	00 00 
  4062ea:	c4 41 7e 6f be 40 07 	vmovdqu 0x740(%r14),%ymm15
  4062f1:	00 00 
  4062f3:	c5 fe 7f 46 e0       	vmovdqu %ymm0,-0x20(%rsi)
  4062f8:	c5 fe 7f 0e          	vmovdqu %ymm1,(%rsi)
  4062fc:	c5 fe 7f 56 20       	vmovdqu %ymm2,0x20(%rsi)
  406301:	c5 fe 7f 5e 40       	vmovdqu %ymm3,0x40(%rsi)
  406306:	c4 c1 05 ef a5 40 04 	vpxor  0x440(%r13),%ymm15,%ymm4
  40630d:	00 00 
  40630f:	48 8d 94 24 40 29 00 	lea    0x2940(%rsp),%rdx
  406316:	00 
  406317:	48 8d 8c 24 60 29 00 	lea    0x2960(%rsp),%rcx
  40631e:	00 
  40631f:	e8 5c 37 00 00       	callq  409a80 <sbox__2>
  406324:	c5 fe 6f ac 24 00 29 	vmovdqu 0x2900(%rsp),%ymm5
  40632b:	00 00 
  40632d:	48 8d bc 24 80 29 00 	lea    0x2980(%rsp),%rdi
  406334:	00 
  406335:	c5 fe 6f 7f a0       	vmovdqu -0x60(%rdi),%ymm7
  40633a:	c5 7e 6f 4f c0       	vmovdqu -0x40(%rdi),%ymm9
  40633f:	c5 7e 6f 5f e0       	vmovdqu -0x20(%rdi),%ymm11
  406344:	c4 c1 55 ef b5 a0 00 	vpxor  0xa0(%r13),%ymm5,%ymm6
  40634b:	00 00 
  40634d:	c4 41 45 ef 45 60    	vpxor  0x60(%r13),%ymm7,%ymm8
  406353:	c4 41 35 ef 95 e0 02 	vpxor  0x2e0(%r13),%ymm9,%ymm10
  40635a:	00 00 
  40635c:	c4 41 25 ef a5 20 02 	vpxor  0x220(%r13),%ymm11,%ymm12
  406363:	00 00 
  406365:	c4 c1 7e 7f b5 a0 00 	vmovdqu %ymm6,0xa0(%r13)
  40636c:	00 00 
  40636e:	c4 41 7e 7f 45 60    	vmovdqu %ymm8,0x60(%r13)
  406374:	c4 41 7e 7f 95 e0 02 	vmovdqu %ymm10,0x2e0(%r13)
  40637b:	00 00 
  40637d:	c4 41 7e 7f a5 20 02 	vmovdqu %ymm12,0x220(%r13)
  406384:	00 00 
  406386:	c4 41 7e 6f be 40 06 	vmovdqu 0x640(%r14),%ymm15
  40638d:	00 00 
  40638f:	48 8d b4 24 a0 29 00 	lea    0x29a0(%rsp),%rsi
  406396:	00 
  406397:	c4 c1 7e 6f a6 40 03 	vmovdqu 0x340(%r14),%ymm4
  40639e:	00 00 
  4063a0:	c4 41 7e 6f ae 00 01 	vmovdqu 0x100(%r14),%ymm13
  4063a7:	00 00 
  4063a9:	c4 41 7e 6f b6 60 06 	vmovdqu 0x660(%r14),%ymm14
  4063b0:	00 00 
  4063b2:	c4 c1 7e 6f 9e 20 05 	vmovdqu 0x520(%r14),%ymm3
  4063b9:	00 00 
  4063bb:	c4 c1 05 ef 95 40 02 	vpxor  0x240(%r13),%ymm15,%ymm2
  4063c2:	00 00 
  4063c4:	c4 c1 5d ef ad 80 07 	vpxor  0x780(%r13),%ymm4,%ymm5
  4063cb:	00 00 
  4063cd:	c4 c1 15 ef 85 40 04 	vpxor  0x440(%r13),%ymm13,%ymm0
  4063d4:	00 00 
  4063d6:	c4 c1 0d ef 8d 40 03 	vpxor  0x340(%r13),%ymm14,%ymm1
  4063dd:	00 00 
  4063df:	c4 c1 65 ef 9d 40 01 	vpxor  0x140(%r13),%ymm3,%ymm3
  4063e6:	00 00 
  4063e8:	c4 41 7e 6f be 00 04 	vmovdqu 0x400(%r14),%ymm15
  4063ef:	00 00 
  4063f1:	c5 fe 7f 46 e0       	vmovdqu %ymm0,-0x20(%rsi)
  4063f6:	c5 fe 7f 0e          	vmovdqu %ymm1,(%rsi)
  4063fa:	c5 fe 7f 56 20       	vmovdqu %ymm2,0x20(%rsi)
  4063ff:	c5 fe 7f 5e 40       	vmovdqu %ymm3,0x40(%rsi)
  406404:	c4 c1 05 ef 65 40    	vpxor  0x40(%r13),%ymm15,%ymm4
  40640a:	48 8d 94 24 c0 29 00 	lea    0x29c0(%rsp),%rdx
  406411:	00 
  406412:	48 8d 8c 24 e0 29 00 	lea    0x29e0(%rsp),%rcx
  406419:	00 
  40641a:	e8 31 3c 00 00       	callq  40a050 <sbox__3>
  40641f:	c5 fe 6f ac 24 80 29 	vmovdqu 0x2980(%rsp),%ymm5
  406426:	00 00 
  406428:	48 8d bc 24 00 2a 00 	lea    0x2a00(%rsp),%rdi
  40642f:	00 
  406430:	c5 fe 6f 7f a0       	vmovdqu -0x60(%rdi),%ymm7
  406435:	c5 7e 6f 4f c0       	vmovdqu -0x40(%rdi),%ymm9
  40643a:	c5 7e 6f 5f e0       	vmovdqu -0x20(%rdi),%ymm11
  40643f:	c4 c1 55 ef b5 e0 06 	vpxor  0x6e0(%r13),%ymm5,%ymm6
  406446:	00 00 
  406448:	c4 41 45 ef 85 a0 04 	vpxor  0x4a0(%r13),%ymm7,%ymm8
  40644f:	00 00 
  406451:	c4 41 35 ef 95 60 06 	vpxor  0x660(%r13),%ymm9,%ymm10
  406458:	00 00 
  40645a:	c4 41 25 ef a5 20 07 	vpxor  0x720(%r13),%ymm11,%ymm12
  406461:	00 00 
  406463:	c4 c1 7e 7f b5 e0 06 	vmovdqu %ymm6,0x6e0(%r13)
  40646a:	00 00 
  40646c:	c4 41 7e 7f 85 a0 04 	vmovdqu %ymm8,0x4a0(%r13)
  406473:	00 00 
  406475:	c4 41 7e 7f 95 60 06 	vmovdqu %ymm10,0x660(%r13)
  40647c:	00 00 
  40647e:	c4 41 7e 7f a5 20 07 	vmovdqu %ymm12,0x720(%r13)
  406485:	00 00 
  406487:	c4 41 7e 6f be 80 02 	vmovdqu 0x280(%r14),%ymm15
  40648e:	00 00 
  406490:	48 8d b4 24 20 2a 00 	lea    0x2a20(%rsp),%rsi
  406497:	00 
  406498:	c4 c1 7e 6f a6 80 06 	vmovdqu 0x680(%r14),%ymm4
  40649f:	00 00 
  4064a1:	c4 41 7e 6f ae c0 04 	vmovdqu 0x4c0(%r14),%ymm13
  4064a8:	00 00 
  4064aa:	c4 41 7e 6f b6 a0 01 	vmovdqu 0x1a0(%r14),%ymm14
  4064b1:	00 00 
  4064b3:	c4 c1 7e 6f 5e 60    	vmovdqu 0x60(%r14),%ymm3
  4064b9:	c4 c1 05 ef 95 80 06 	vpxor  0x680(%r13),%ymm15,%ymm2
  4064c0:	00 00 
  4064c2:	c4 c1 5d ef ad 80 03 	vpxor  0x380(%r13),%ymm4,%ymm5
  4064c9:	00 00 
  4064cb:	c4 c1 15 ef 45 40    	vpxor  0x40(%r13),%ymm13,%ymm0
  4064d1:	c4 c1 0d ef 8d 80 07 	vpxor  0x780(%r13),%ymm14,%ymm1
  4064d8:	00 00 
  4064da:	c4 c1 65 ef 9d 80 05 	vpxor  0x580(%r13),%ymm3,%ymm3
  4064e1:	00 00 
  4064e3:	c4 41 7e 6f be a0 06 	vmovdqu 0x6a0(%r14),%ymm15
  4064ea:	00 00 
  4064ec:	c5 fe 7f 46 e0       	vmovdqu %ymm0,-0x20(%rsi)
  4064f1:	c5 fe 7f 0e          	vmovdqu %ymm1,(%rsi)
  4064f5:	c5 fe 7f 56 20       	vmovdqu %ymm2,0x20(%rsi)
  4064fa:	c5 fe 7f 5e 40       	vmovdqu %ymm3,0x40(%rsi)
  4064ff:	c4 c1 05 ef a5 80 04 	vpxor  0x480(%r13),%ymm15,%ymm4
  406506:	00 00 
  406508:	48 8d 94 24 40 2a 00 	lea    0x2a40(%rsp),%rdx
  40650f:	00 
  406510:	48 8d 8c 24 60 2a 00 	lea    0x2a60(%rsp),%rcx
  406517:	00 
  406518:	e8 83 36 00 00       	callq  409ba0 <sbox__4>
  40651d:	c5 fe 6f ac 24 00 2a 	vmovdqu 0x2a00(%rsp),%ymm5
  406524:	00 00 
  406526:	48 8d bc 24 80 2a 00 	lea    0x2a80(%rsp),%rdi
  40652d:	00 
  40652e:	c5 fe 6f 7f a0       	vmovdqu -0x60(%rdi),%ymm7
  406533:	c5 7e 6f 4f c0       	vmovdqu -0x40(%rdi),%ymm9
  406538:	c5 7e 6f 5f e0       	vmovdqu -0x20(%rdi),%ymm11
  40653d:	c4 c1 55 ef 75 20    	vpxor  0x20(%r13),%ymm5,%ymm6
  406543:	c4 41 45 ef 85 60 02 	vpxor  0x260(%r13),%ymm7,%ymm8
  40654a:	00 00 
  40654c:	c4 41 35 ef 95 e0 07 	vpxor  0x7e0(%r13),%ymm9,%ymm10
  406553:	00 00 
  406555:	c4 41 25 ef a5 20 05 	vpxor  0x520(%r13),%ymm11,%ymm12
  40655c:	00 00 
  40655e:	c4 c1 7e 7f 75 20    	vmovdqu %ymm6,0x20(%r13)
  406564:	c4 41 7e 7f 85 60 02 	vmovdqu %ymm8,0x260(%r13)
  40656b:	00 00 
  40656d:	c4 41 7e 7f 95 e0 07 	vmovdqu %ymm10,0x7e0(%r13)
  406574:	00 00 
  406576:	c4 41 7e 7f a5 20 05 	vmovdqu %ymm12,0x520(%r13)
  40657d:	00 00 
  40657f:	c4 41 7e 6f be a0 02 	vmovdqu 0x2a0(%r14),%ymm15
  406586:	00 00 
  406588:	48 8d b4 24 a0 2a 00 	lea    0x2aa0(%rsp),%rsi
  40658f:	00 
  406590:	c4 c1 7e 6f a6 a0 05 	vmovdqu 0x5a0(%r14),%ymm4
  406597:	00 00 
  406599:	c4 41 7e 6f b6 c0 05 	vmovdqu 0x5c0(%r14),%ymm14
  4065a0:	00 00 
  4065a2:	c4 41 7e 6f ae 80 03 	vmovdqu 0x380(%r14),%ymm13
  4065a9:	00 00 
  4065ab:	c4 c1 7e 6f 9e c0 00 	vmovdqu 0xc0(%r14),%ymm3
  4065b2:	00 00 
  4065b4:	c4 c1 05 ef 95 80 02 	vpxor  0x280(%r13),%ymm15,%ymm2
  4065bb:	00 00 
  4065bd:	c4 c1 5d ef ad c0 07 	vpxor  0x7c0(%r13),%ymm4,%ymm5
  4065c4:	00 00 
  4065c6:	c4 c1 15 ef 85 80 04 	vpxor  0x480(%r13),%ymm13,%ymm0
  4065cd:	00 00 
  4065cf:	c4 c1 0d ef 8d 80 03 	vpxor  0x380(%r13),%ymm14,%ymm1
  4065d6:	00 00 
  4065d8:	c4 c1 65 ef 9d 80 01 	vpxor  0x180(%r13),%ymm3,%ymm3
  4065df:	00 00 
  4065e1:	c4 41 7e 6f be 80 00 	vmovdqu 0x80(%r14),%ymm15
  4065e8:	00 00 
  4065ea:	c5 fe 7f 46 e0       	vmovdqu %ymm0,-0x20(%rsi)
  4065ef:	c5 fe 7f 0e          	vmovdqu %ymm1,(%rsi)
  4065f3:	c5 fe 7f 56 20       	vmovdqu %ymm2,0x20(%rsi)
  4065f8:	c5 fe 7f 5e 40       	vmovdqu %ymm3,0x40(%rsi)
  4065fd:	c4 c1 05 ef a5 80 00 	vpxor  0x80(%r13),%ymm15,%ymm4
  406604:	00 00 
  406606:	48 8d 94 24 c0 2a 00 	lea    0x2ac0(%rsp),%rdx
  40660d:	00 
  40660e:	48 8d 8c 24 e0 2a 00 	lea    0x2ae0(%rsp),%rcx
  406615:	00 
  406616:	e8 d5 36 00 00       	callq  409cf0 <sbox__5>
  40661b:	c5 fe 6f ac 24 80 2a 	vmovdqu 0x2a80(%rsp),%ymm5
  406622:	00 00 
  406624:	48 8d bc 24 00 2b 00 	lea    0x2b00(%rsp),%rdi
  40662b:	00 
  40662c:	c5 fe 6f 7f a0       	vmovdqu -0x60(%rdi),%ymm7
  406631:	c5 7e 6f 4f c0       	vmovdqu -0x40(%rdi),%ymm9
  406636:	c5 7e 6f 5f e0       	vmovdqu -0x20(%rdi),%ymm11
  40663b:	c4 c1 55 ef b5 20 04 	vpxor  0x420(%r13),%ymm5,%ymm6
  406642:	00 00 
  406644:	c4 41 45 ef 85 e0 03 	vpxor  0x3e0(%r13),%ymm7,%ymm8
  40664b:	00 00 
  40664d:	c4 41 35 ef 95 60 05 	vpxor  0x560(%r13),%ymm9,%ymm10
  406654:	00 00 
  406656:	c4 41 25 ef a5 a0 05 	vpxor  0x5a0(%r13),%ymm11,%ymm12
  40665d:	00 00 
  40665f:	c4 c1 7e 7f b5 20 04 	vmovdqu %ymm6,0x420(%r13)
  406666:	00 00 
  406668:	c4 41 7e 7f 85 e0 03 	vmovdqu %ymm8,0x3e0(%r13)
  40666f:	00 00 
  406671:	c4 41 7e 7f 95 60 05 	vmovdqu %ymm10,0x560(%r13)
  406678:	00 00 
  40667a:	c4 41 7e 7f a5 a0 05 	vmovdqu %ymm12,0x5a0(%r13)
  406681:	00 00 
  406683:	c4 41 7e 6f be c0 06 	vmovdqu 0x6c0(%r14),%ymm15
  40668a:	00 00 
  40668c:	48 8d b4 24 20 2b 00 	lea    0x2b20(%rsp),%rsi
  406693:	00 
  406694:	c4 c1 7e 6f a6 a0 00 	vmovdqu 0xa0(%r14),%ymm4
  40669b:	00 00 
  40669d:	c4 41 7e 6f ae c0 01 	vmovdqu 0x1c0(%r14),%ymm13
  4066a4:	00 00 
  4066a6:	c4 41 7e 6f b6 a0 04 	vmovdqu 0x4a0(%r14),%ymm14
  4066ad:	00 00 
  4066af:	c4 c1 7e 6f 9e 80 05 	vmovdqu 0x580(%r14),%ymm3
  4066b6:	00 00 
  4066b8:	c4 c1 05 ef 95 c0 06 	vpxor  0x6c0(%r13),%ymm15,%ymm2
  4066bf:	00 00 
  4066c1:	c4 c1 5d ef ad c0 03 	vpxor  0x3c0(%r13),%ymm4,%ymm5
  4066c8:	00 00 
  4066ca:	c4 c1 15 ef 85 80 00 	vpxor  0x80(%r13),%ymm13,%ymm0
  4066d1:	00 00 
  4066d3:	c4 c1 0d ef 8d c0 07 	vpxor  0x7c0(%r13),%ymm14,%ymm1
  4066da:	00 00 
  4066dc:	c4 c1 65 ef 9d c0 05 	vpxor  0x5c0(%r13),%ymm3,%ymm3
  4066e3:	00 00 
  4066e5:	c4 41 7e 6f be 60 03 	vmovdqu 0x360(%r14),%ymm15
  4066ec:	00 00 
  4066ee:	c5 fe 7f 46 e0       	vmovdqu %ymm0,-0x20(%rsi)
  4066f3:	c5 fe 7f 0e          	vmovdqu %ymm1,(%rsi)
  4066f7:	c5 fe 7f 56 20       	vmovdqu %ymm2,0x20(%rsi)
  4066fc:	c5 fe 7f 5e 40       	vmovdqu %ymm3,0x40(%rsi)
  406701:	c4 c1 05 ef a5 c0 04 	vpxor  0x4c0(%r13),%ymm15,%ymm4
  406708:	00 00 
  40670a:	48 8d 94 24 40 2b 00 	lea    0x2b40(%rsp),%rdx
  406711:	00 
  406712:	48 8d 8c 24 60 2b 00 	lea    0x2b60(%rsp),%rcx
  406719:	00 
  40671a:	e8 01 37 00 00       	callq  409e20 <sbox__6>
  40671f:	c5 fe 6f ac 24 00 2b 	vmovdqu 0x2b00(%rsp),%ymm5
  406726:	00 00 
  406728:	48 8d bc 24 80 2b 00 	lea    0x2b80(%rsp),%rdi
  40672f:	00 
  406730:	c5 fe 6f 7f a0       	vmovdqu -0x60(%rdi),%ymm7
  406735:	c5 7e 6f 4f c0       	vmovdqu -0x40(%rdi),%ymm9
  40673a:	c5 7e 6f 5f e0       	vmovdqu -0x20(%rdi),%ymm11
  40673f:	c4 c1 55 ef b5 e0 00 	vpxor  0xe0(%r13),%ymm5,%ymm6
  406746:	00 00 
  406748:	c4 41 45 ef 85 60 04 	vpxor  0x460(%r13),%ymm7,%ymm8
  40674f:	00 00 
  406751:	c4 41 35 ef 95 a0 02 	vpxor  0x2a0(%r13),%ymm9,%ymm10
  406758:	00 00 
  40675a:	c4 41 25 ef a5 20 01 	vpxor  0x120(%r13),%ymm11,%ymm12
  406761:	00 00 
  406763:	c4 c1 7e 7f b5 e0 00 	vmovdqu %ymm6,0xe0(%r13)
  40676a:	00 00 
  40676c:	c4 41 7e 7f 85 60 04 	vmovdqu %ymm8,0x460(%r13)
  406773:	00 00 
  406775:	c4 41 7e 7f 95 a0 02 	vmovdqu %ymm10,0x2a0(%r13)
  40677c:	00 00 
  40677e:	c4 41 7e 7f a5 20 01 	vmovdqu %ymm12,0x120(%r13)
  406785:	00 00 
  406787:	c4 41 7e 6f be a0 03 	vmovdqu 0x3a0(%r14),%ymm15
  40678e:	00 00 
  406790:	48 8d b4 24 a0 2b 00 	lea    0x2ba0(%rsp),%rsi
  406797:	00 
  406798:	c4 c1 7e 6f a6 80 01 	vmovdqu 0x180(%r14),%ymm4
  40679f:	00 00 
  4067a1:	c4 c1 7e 6f 9e 60 01 	vmovdqu 0x160(%r14),%ymm3
  4067a8:	00 00 
  4067aa:	c4 41 7e 6f ae a0 07 	vmovdqu 0x7a0(%r14),%ymm13
  4067b1:	00 00 
  4067b3:	c4 41 7e 6f b6 c0 03 	vmovdqu 0x3c0(%r14),%ymm14
  4067ba:	00 00 
  4067bc:	c4 c1 05 ef 95 c0 02 	vpxor  0x2c0(%r13),%ymm15,%ymm2
  4067c3:	00 00 
  4067c5:	c4 c1 5d ef ad 00 07 	vpxor  0x700(%r13),%ymm4,%ymm5
  4067cc:	00 00 
  4067ce:	c4 c1 15 ef 85 c0 04 	vpxor  0x4c0(%r13),%ymm13,%ymm0
  4067d5:	00 00 
  4067d7:	c4 c1 0d ef 8d c0 03 	vpxor  0x3c0(%r13),%ymm14,%ymm1
  4067de:	00 00 
  4067e0:	c4 c1 65 ef 9d c0 01 	vpxor  0x1c0(%r13),%ymm3,%ymm3
  4067e7:	00 00 
  4067e9:	c4 41 7e 6f be 80 04 	vmovdqu 0x480(%r14),%ymm15
  4067f0:	00 00 
  4067f2:	c5 fe 7f 46 e0       	vmovdqu %ymm0,-0x20(%rsi)
  4067f7:	c5 fe 7f 0e          	vmovdqu %ymm1,(%rsi)
  4067fb:	c5 fe 7f 56 20       	vmovdqu %ymm2,0x20(%rsi)
  406800:	c5 fe 7f 5e 40       	vmovdqu %ymm3,0x40(%rsi)
  406805:	c4 c1 05 ef a5 c0 00 	vpxor  0xc0(%r13),%ymm15,%ymm4
  40680c:	00 00 
  40680e:	48 8d 94 24 c0 2b 00 	lea    0x2bc0(%rsp),%rdx
  406815:	00 
  406816:	48 8d 8c 24 e0 2b 00 	lea    0x2be0(%rsp),%rcx
  40681d:	00 
  40681e:	e8 1d 37 00 00       	callq  409f40 <sbox__7>
  406823:	c5 fe 6f ac 24 80 2b 	vmovdqu 0x2b80(%rsp),%ymm5
  40682a:	00 00 
  40682c:	48 8d bc 24 00 2c 00 	lea    0x2c00(%rsp),%rdi
  406833:	00 
  406834:	c5 fe 6f 77 a0       	vmovdqu -0x60(%rdi),%ymm6
  406839:	c5 7e 6f 47 c0       	vmovdqu -0x40(%rdi),%ymm8
  40683e:	c5 7e 6f 57 e0       	vmovdqu -0x20(%rdi),%ymm10
  406843:	c4 c1 55 ef a5 20 03 	vpxor  0x320(%r13),%ymm5,%ymm4
  40684a:	00 00 
  40684c:	c4 c1 4d ef bd e0 05 	vpxor  0x5e0(%r13),%ymm6,%ymm7
  406853:	00 00 
  406855:	c4 41 3d ef 8d 60 01 	vpxor  0x160(%r13),%ymm8,%ymm9
  40685c:	00 00 
  40685e:	c4 41 2d ef 9d a0 03 	vpxor  0x3a0(%r13),%ymm10,%ymm11
  406865:	00 00 
  406867:	c4 c1 7e 7f a5 20 03 	vmovdqu %ymm4,0x320(%r13)
  40686e:	00 00 
  406870:	c4 c1 7e 7f bd e0 05 	vmovdqu %ymm7,0x5e0(%r13)
  406877:	00 00 
  406879:	c4 41 7e 7f 8d 60 01 	vmovdqu %ymm9,0x160(%r13)
  406880:	00 00 
  406882:	c4 41 7e 7f 9d a0 03 	vmovdqu %ymm11,0x3a0(%r13)
  406889:	00 00 
  40688b:	c4 41 7e 6f be 40 07 	vmovdqu 0x740(%r14),%ymm15
  406892:	00 00 
  406894:	48 8d b4 24 20 2c 00 	lea    0x2c20(%rsp),%rsi
  40689b:	00 
  40689c:	c4 41 7e 6f a6 00 01 	vmovdqu 0x100(%r14),%ymm12
  4068a3:	00 00 
  4068a5:	c4 41 7e 6f ae 20 06 	vmovdqu 0x620(%r14),%ymm13
  4068ac:	00 00 
  4068ae:	c4 41 7e 6f b6 00 04 	vmovdqu 0x400(%r14),%ymm14
  4068b5:	00 00 
  4068b7:	c4 c1 05 ef 9d 20 05 	vpxor  0x520(%r13),%ymm15,%ymm3
  4068be:	00 00 
  4068c0:	c4 c1 5d ef ae 60 06 	vpxor  0x660(%r14),%ymm4,%ymm5
  4068c7:	00 00 
  4068c9:	c4 c1 1d ef 85 e0 00 	vpxor  0xe0(%r13),%ymm12,%ymm0
  4068d0:	00 00 
  4068d2:	c4 c1 15 ef 8d 20 07 	vpxor  0x720(%r13),%ymm13,%ymm1
  4068d9:	00 00 
  4068db:	c4 c1 0d ef 95 20 06 	vpxor  0x620(%r13),%ymm14,%ymm2
  4068e2:	00 00 
  4068e4:	c4 41 7e 6f be 40 02 	vmovdqu 0x240(%r14),%ymm15
  4068eb:	00 00 
  4068ed:	c5 fe 7f 46 e0       	vmovdqu %ymm0,-0x20(%rsi)
  4068f2:	c5 fe 7f 0e          	vmovdqu %ymm1,(%rsi)
  4068f6:	c5 fe 7f 56 20       	vmovdqu %ymm2,0x20(%rsi)
  4068fb:	c5 fe 7f 5e 40       	vmovdqu %ymm3,0x40(%rsi)
  406900:	c4 c1 05 ef a5 20 04 	vpxor  0x420(%r13),%ymm15,%ymm4
  406907:	00 00 
  406909:	48 8d 94 24 40 2c 00 	lea    0x2c40(%rsp),%rdx
  406910:	00 
  406911:	48 8d 8c 24 60 2c 00 	lea    0x2c60(%rsp),%rcx
  406918:	00 
  406919:	e8 02 2f 00 00       	callq  409820 <sbox__0>
  40691e:	c5 fe 6f ac 24 00 2c 	vmovdqu 0x2c00(%rsp),%ymm5
  406925:	00 00 
  406927:	48 8d bc 24 80 2c 00 	lea    0x2c80(%rsp),%rdi
  40692e:	00 
  40692f:	c5 fe 6f 7f a0       	vmovdqu -0x60(%rdi),%ymm7
  406934:	c5 7e 6f 4f c0       	vmovdqu -0x40(%rdi),%ymm9
  406939:	c5 7e 6f 5f e0       	vmovdqu -0x20(%rdi),%ymm11
  40693e:	c4 c1 55 ef b5 40 07 	vpxor  0x740(%r13),%ymm5,%ymm6
  406945:	00 00 
  406947:	c4 41 45 ef 85 80 07 	vpxor  0x780(%r13),%ymm7,%ymm8
  40694e:	00 00 
  406950:	c4 41 35 ef 95 80 01 	vpxor  0x180(%r13),%ymm9,%ymm10
  406957:	00 00 
  406959:	c4 41 25 ef a5 c0 01 	vpxor  0x1c0(%r13),%ymm11,%ymm12
  406960:	00 00 
  406962:	c4 c1 7e 7f b5 40 07 	vmovdqu %ymm6,0x740(%r13)
  406969:	00 00 
  40696b:	c4 41 7e 7f 85 80 07 	vmovdqu %ymm8,0x780(%r13)
  406972:	00 00 
  406974:	c4 41 7e 7f 95 80 01 	vmovdqu %ymm10,0x180(%r13)
  40697b:	00 00 
  40697d:	c4 41 7e 7f a5 c0 01 	vmovdqu %ymm12,0x1c0(%r13)
  406984:	00 00 
  406986:	c4 41 7e 6f 3e       	vmovdqu (%r14),%ymm15
  40698b:	48 8d b4 24 a0 2c 00 	lea    0x2ca0(%rsp),%rsi
  406992:	00 
  406993:	c4 c1 7e 6f a6 00 05 	vmovdqu 0x500(%r14),%ymm4
  40699a:	00 00 
  40699c:	c4 41 7e 6f 6e 40    	vmovdqu 0x40(%r14),%ymm13
  4069a2:	c4 41 7e 6f b6 40 03 	vmovdqu 0x340(%r14),%ymm14
  4069a9:	00 00 
  4069ab:	c4 c1 7e 6f 9e 60 05 	vmovdqu 0x560(%r14),%ymm3
  4069b2:	00 00 
  4069b4:	c4 c1 05 ef 95 20 02 	vpxor  0x220(%r13),%ymm15,%ymm2
  4069bb:	00 00 
  4069bd:	c4 c1 5d ef ad 60 07 	vpxor  0x760(%r13),%ymm4,%ymm5
  4069c4:	00 00 
  4069c6:	c4 c1 15 ef 85 20 04 	vpxor  0x420(%r13),%ymm13,%ymm0
  4069cd:	00 00 
  4069cf:	c4 c1 0d ef 8d 20 03 	vpxor  0x320(%r13),%ymm14,%ymm1
  4069d6:	00 00 
  4069d8:	c4 c1 65 ef 9d 20 01 	vpxor  0x120(%r13),%ymm3,%ymm3
  4069df:	00 00 
  4069e1:	c4 41 7e 6f be 20 02 	vmovdqu 0x220(%r14),%ymm15
  4069e8:	00 00 
  4069ea:	c5 fe 7f 46 e0       	vmovdqu %ymm0,-0x20(%rsi)
  4069ef:	c5 fe 7f 0e          	vmovdqu %ymm1,(%rsi)
  4069f3:	c5 fe 7f 56 20       	vmovdqu %ymm2,0x20(%rsi)
  4069f8:	c5 fe 7f 5e 40       	vmovdqu %ymm3,0x40(%rsi)
  4069fd:	c4 c1 05 ef 65 20    	vpxor  0x20(%r13),%ymm15,%ymm4
  406a03:	48 8d 94 24 c0 2c 00 	lea    0x2cc0(%rsp),%rdx
  406a0a:	00 
  406a0b:	48 8d 8c 24 e0 2c 00 	lea    0x2ce0(%rsp),%rcx
  406a12:	00 
  406a13:	e8 58 2f 00 00       	callq  409970 <sbox__1>
  406a18:	c5 fe 6f ac 24 80 2c 	vmovdqu 0x2c80(%rsp),%ymm5
  406a1f:	00 00 
  406a21:	48 8d bc 24 00 2d 00 	lea    0x2d00(%rsp),%rdi
  406a28:	00 
  406a29:	c5 fe 6f 7f a0       	vmovdqu -0x60(%rdi),%ymm7
  406a2e:	c5 7e 6f 4f c0       	vmovdqu -0x40(%rdi),%ymm9
  406a33:	c5 7e 6f 5f e0       	vmovdqu -0x20(%rdi),%ymm11
  406a38:	c4 c1 55 ef b5 40 03 	vpxor  0x340(%r13),%ymm5,%ymm6
  406a3f:	00 00 
  406a41:	c4 41 45 ef 85 c0 04 	vpxor  0x4c0(%r13),%ymm7,%ymm8
  406a48:	00 00 
  406a4a:	c4 41 35 ef 95 00 06 	vpxor  0x600(%r13),%ymm9,%ymm10
  406a51:	00 00 
  406a53:	c4 41 25 ef a5 80 06 	vpxor  0x680(%r13),%ymm11,%ymm12
  406a5a:	00 00 
  406a5c:	c4 c1 7e 7f b5 40 03 	vmovdqu %ymm6,0x340(%r13)
  406a63:	00 00 
  406a65:	c4 41 7e 7f 85 c0 04 	vmovdqu %ymm8,0x4c0(%r13)
  406a6c:	00 00 
  406a6e:	c4 41 7e 7f 95 00 06 	vmovdqu %ymm10,0x600(%r13)
  406a75:	00 00 
  406a77:	c4 41 7e 7f a5 80 06 	vmovdqu %ymm12,0x680(%r13)
  406a7e:	00 00 
  406a80:	c4 41 7e 6f be 00 03 	vmovdqu 0x300(%r14),%ymm15
  406a87:	00 00 
  406a89:	48 8d b4 24 20 2d 00 	lea    0x2d20(%rsp),%rsi
  406a90:	00 
  406a91:	c4 c1 7e 6f a6 00 07 	vmovdqu 0x700(%r14),%ymm4
  406a98:	00 00 
  406a9a:	c4 41 7e 6f 6e 20    	vmovdqu 0x20(%r14),%ymm13
  406aa0:	c4 41 7e 6f b6 20 04 	vmovdqu 0x420(%r14),%ymm14
  406aa7:	00 00 
  406aa9:	c4 c1 7e 6f 9e 60 07 	vmovdqu 0x760(%r14),%ymm3
  406ab0:	00 00 
  406ab2:	c4 c1 05 ef 95 60 06 	vpxor  0x660(%r13),%ymm15,%ymm2
  406ab9:	00 00 
  406abb:	c4 c1 5d ef ad 60 03 	vpxor  0x360(%r13),%ymm4,%ymm5
  406ac2:	00 00 
  406ac4:	c4 c1 15 ef 45 20    	vpxor  0x20(%r13),%ymm13,%ymm0
  406aca:	c4 c1 0d ef 8d 60 07 	vpxor  0x760(%r13),%ymm14,%ymm1
  406ad1:	00 00 
  406ad3:	c4 c1 65 ef 9d 60 05 	vpxor  0x560(%r13),%ymm3,%ymm3
  406ada:	00 00 
  406adc:	c4 41 7e 6f be 40 05 	vmovdqu 0x540(%r14),%ymm15
  406ae3:	00 00 
  406ae5:	c5 fe 7f 46 e0       	vmovdqu %ymm0,-0x20(%rsi)
  406aea:	c5 fe 7f 0e          	vmovdqu %ymm1,(%rsi)
  406aee:	c5 fe 7f 56 20       	vmovdqu %ymm2,0x20(%rsi)
  406af3:	c5 fe 7f 5e 40       	vmovdqu %ymm3,0x40(%rsi)
  406af8:	c4 c1 05 ef a5 60 04 	vpxor  0x460(%r13),%ymm15,%ymm4
  406aff:	00 00 
  406b01:	48 8d 94 24 40 2d 00 	lea    0x2d40(%rsp),%rdx
  406b08:	00 
  406b09:	48 8d 8c 24 60 2d 00 	lea    0x2d60(%rsp),%rcx
  406b10:	00 
  406b11:	e8 6a 2f 00 00       	callq  409a80 <sbox__2>
  406b16:	c5 fe 6f ac 24 00 2d 	vmovdqu 0x2d00(%rsp),%ymm5
  406b1d:	00 00 
  406b1f:	48 8d bc 24 80 2d 00 	lea    0x2d80(%rsp),%rdi
  406b26:	00 
  406b27:	c5 fe 6f 7f a0       	vmovdqu -0x60(%rdi),%ymm7
  406b2c:	c5 7e 6f 4f c0       	vmovdqu -0x40(%rdi),%ymm9
  406b31:	c5 7e 6f 5f e0       	vmovdqu -0x20(%rdi),%ymm11
  406b36:	c4 c1 55 ef b5 80 00 	vpxor  0x80(%r13),%ymm5,%ymm6
  406b3d:	00 00 
  406b3f:	c4 41 45 ef 45 40    	vpxor  0x40(%r13),%ymm7,%ymm8
  406b45:	c4 41 35 ef 95 c0 02 	vpxor  0x2c0(%r13),%ymm9,%ymm10
  406b4c:	00 00 
  406b4e:	c4 41 25 ef a5 00 02 	vpxor  0x200(%r13),%ymm11,%ymm12
  406b55:	00 00 
  406b57:	c4 c1 7e 7f b5 80 00 	vmovdqu %ymm6,0x80(%r13)
  406b5e:	00 00 
  406b60:	c4 41 7e 7f 45 40    	vmovdqu %ymm8,0x40(%r13)
  406b66:	c4 41 7e 7f 95 c0 02 	vmovdqu %ymm10,0x2c0(%r13)
  406b6d:	00 00 
  406b6f:	c4 41 7e 7f a5 00 02 	vmovdqu %ymm12,0x200(%r13)
  406b76:	00 00 
  406b78:	c4 41 7e 6f be 40 04 	vmovdqu 0x440(%r14),%ymm15
  406b7f:	00 00 
  406b81:	48 8d b4 24 a0 2d 00 	lea    0x2da0(%rsp),%rsi
  406b88:	00 
  406b89:	c4 c1 7e 6f a6 40 01 	vmovdqu 0x140(%r14),%ymm4
  406b90:	00 00 
  406b92:	c4 41 7e 6f ae 20 07 	vmovdqu 0x720(%r14),%ymm13
  406b99:	00 00 
  406b9b:	c4 41 7e 6f b6 60 04 	vmovdqu 0x460(%r14),%ymm14
  406ba2:	00 00 
  406ba4:	c4 c1 7e 6f 9e 20 03 	vmovdqu 0x320(%r14),%ymm3
  406bab:	00 00 
  406bad:	c4 c1 05 ef 95 60 02 	vpxor  0x260(%r13),%ymm15,%ymm2
  406bb4:	00 00 
  406bb6:	c4 c1 5d ef ad a0 07 	vpxor  0x7a0(%r13),%ymm4,%ymm5
  406bbd:	00 00 
  406bbf:	c4 c1 15 ef 85 60 04 	vpxor  0x460(%r13),%ymm13,%ymm0
  406bc6:	00 00 
  406bc8:	c4 c1 0d ef 8d 60 03 	vpxor  0x360(%r13),%ymm14,%ymm1
  406bcf:	00 00 
  406bd1:	c4 c1 65 ef 9d 60 01 	vpxor  0x160(%r13),%ymm3,%ymm3
  406bd8:	00 00 
  406bda:	c4 41 7e 6f be 00 02 	vmovdqu 0x200(%r14),%ymm15
  406be1:	00 00 
  406be3:	c5 fe 7f 46 e0       	vmovdqu %ymm0,-0x20(%rsi)
  406be8:	c5 fe 7f 0e          	vmovdqu %ymm1,(%rsi)
  406bec:	c5 fe 7f 56 20       	vmovdqu %ymm2,0x20(%rsi)
  406bf1:	c5 fe 7f 5e 40       	vmovdqu %ymm3,0x40(%rsi)
  406bf6:	c4 c1 05 ef 65 60    	vpxor  0x60(%r13),%ymm15,%ymm4
  406bfc:	48 8d 94 24 c0 2d 00 	lea    0x2dc0(%rsp),%rdx
  406c03:	00 
  406c04:	48 8d 8c 24 e0 2d 00 	lea    0x2de0(%rsp),%rcx
  406c0b:	00 
  406c0c:	e8 3f 34 00 00       	callq  40a050 <sbox__3>
  406c11:	c5 fe 6f ac 24 80 2d 	vmovdqu 0x2d80(%rsp),%ymm5
  406c18:	00 00 
  406c1a:	48 8d bc 24 00 2e 00 	lea    0x2e00(%rsp),%rdi
  406c21:	00 
  406c22:	c5 fe 6f 7f a0       	vmovdqu -0x60(%rdi),%ymm7
  406c27:	c5 7e 6f 4f c0       	vmovdqu -0x40(%rdi),%ymm9
  406c2c:	c5 7e 6f 5f e0       	vmovdqu -0x20(%rdi),%ymm11
  406c31:	c4 c1 55 ef b5 c0 06 	vpxor  0x6c0(%r13),%ymm5,%ymm6
  406c38:	00 00 
  406c3a:	c4 41 45 ef 85 80 04 	vpxor  0x480(%r13),%ymm7,%ymm8
  406c41:	00 00 
  406c43:	c4 41 35 ef 95 40 06 	vpxor  0x640(%r13),%ymm9,%ymm10
  406c4a:	00 00 
  406c4c:	c4 41 25 ef a5 00 07 	vpxor  0x700(%r13),%ymm11,%ymm12
  406c53:	00 00 
  406c55:	c4 c1 7e 7f b5 c0 06 	vmovdqu %ymm6,0x6c0(%r13)
  406c5c:	00 00 
  406c5e:	c4 41 7e 7f 85 80 04 	vmovdqu %ymm8,0x480(%r13)
  406c65:	00 00 
  406c67:	c4 41 7e 7f 95 40 06 	vmovdqu %ymm10,0x640(%r13)
  406c6e:	00 00 
  406c70:	c4 41 7e 7f a5 00 07 	vmovdqu %ymm12,0x700(%r13)
  406c77:	00 00 
  406c79:	c4 41 7e 6f be 80 00 	vmovdqu 0x80(%r14),%ymm15
  406c80:	00 00 
  406c82:	48 8d b4 24 20 2e 00 	lea    0x2e20(%rsp),%rsi
  406c89:	00 
  406c8a:	c4 c1 7e 6f a6 80 04 	vmovdqu 0x480(%r14),%ymm4
  406c91:	00 00 
  406c93:	c4 41 7e 6f ae c0 02 	vmovdqu 0x2c0(%r14),%ymm13
  406c9a:	00 00 
  406c9c:	c4 41 7e 6f b6 80 07 	vmovdqu 0x780(%r14),%ymm14
  406ca3:	00 00 
  406ca5:	c4 c1 7e 6f 9e c0 06 	vmovdqu 0x6c0(%r14),%ymm3
  406cac:	00 00 
  406cae:	c4 c1 05 ef 95 a0 06 	vpxor  0x6a0(%r13),%ymm15,%ymm2
  406cb5:	00 00 
  406cb7:	c4 c1 5d ef ad a0 03 	vpxor  0x3a0(%r13),%ymm4,%ymm5
  406cbe:	00 00 
  406cc0:	c4 c1 15 ef 45 60    	vpxor  0x60(%r13),%ymm13,%ymm0
  406cc6:	c4 c1 0d ef 8d a0 07 	vpxor  0x7a0(%r13),%ymm14,%ymm1
  406ccd:	00 00 
  406ccf:	c4 c1 65 ef 9d a0 05 	vpxor  0x5a0(%r13),%ymm3,%ymm3
  406cd6:	00 00 
  406cd8:	c4 41 7e 6f be a0 04 	vmovdqu 0x4a0(%r14),%ymm15
  406cdf:	00 00 
  406ce1:	c5 fe 7f 46 e0       	vmovdqu %ymm0,-0x20(%rsi)
  406ce6:	c5 fe 7f 0e          	vmovdqu %ymm1,(%rsi)
  406cea:	c5 fe 7f 56 20       	vmovdqu %ymm2,0x20(%rsi)
  406cef:	c5 fe 7f 5e 40       	vmovdqu %ymm3,0x40(%rsi)
  406cf4:	c4 c1 05 ef a5 a0 04 	vpxor  0x4a0(%r13),%ymm15,%ymm4
  406cfb:	00 00 
  406cfd:	48 8d 94 24 40 2e 00 	lea    0x2e40(%rsp),%rdx
  406d04:	00 
  406d05:	48 8d 8c 24 60 2e 00 	lea    0x2e60(%rsp),%rcx
  406d0c:	00 
  406d0d:	e8 8e 2e 00 00       	callq  409ba0 <sbox__4>
  406d12:	c5 fe 6f ac 24 00 2e 	vmovdqu 0x2e00(%rsp),%ymm5
  406d19:	00 00 
  406d1b:	48 8d bc 24 80 2e 00 	lea    0x2e80(%rsp),%rdi
  406d22:	00 
  406d23:	c5 fe 6f 7f a0       	vmovdqu -0x60(%rdi),%ymm7
  406d28:	c5 7e 6f 4f c0       	vmovdqu -0x40(%rdi),%ymm9
  406d2d:	c5 7e 6f 5f e0       	vmovdqu -0x20(%rdi),%ymm11
  406d32:	c4 c1 55 ef 75 00    	vpxor  0x0(%r13),%ymm5,%ymm6
  406d38:	c4 41 45 ef 85 40 02 	vpxor  0x240(%r13),%ymm7,%ymm8
  406d3f:	00 00 
  406d41:	c4 41 35 ef 95 c0 07 	vpxor  0x7c0(%r13),%ymm9,%ymm10
  406d48:	00 00 
  406d4a:	c4 41 25 ef a5 00 05 	vpxor  0x500(%r13),%ymm11,%ymm12
  406d51:	00 00 
  406d53:	c4 c1 7e 7f 75 00    	vmovdqu %ymm6,0x0(%r13)
  406d59:	c4 41 7e 7f 85 40 02 	vmovdqu %ymm8,0x240(%r13)
  406d60:	00 00 
  406d62:	c4 41 7e 7f 95 c0 07 	vmovdqu %ymm10,0x7c0(%r13)
  406d69:	00 00 
  406d6b:	c4 41 7e 7f a5 00 05 	vmovdqu %ymm12,0x500(%r13)
  406d72:	00 00 
  406d74:	c4 41 7e 6f be a0 00 	vmovdqu 0xa0(%r14),%ymm15
  406d7b:	00 00 
  406d7d:	48 8d b4 24 a0 2e 00 	lea    0x2ea0(%rsp),%rsi
  406d84:	00 
  406d85:	c4 c1 7e 6f a6 a0 03 	vmovdqu 0x3a0(%r14),%ymm4
  406d8c:	00 00 
  406d8e:	c4 41 7e 6f b6 c0 03 	vmovdqu 0x3c0(%r14),%ymm14
  406d95:	00 00 
  406d97:	c4 41 7e 6f ae 80 01 	vmovdqu 0x180(%r14),%ymm13
  406d9e:	00 00 
  406da0:	c4 c1 7e 6f 9e a0 06 	vmovdqu 0x6a0(%r14),%ymm3
  406da7:	00 00 
  406da9:	c4 c1 05 ef 95 a0 02 	vpxor  0x2a0(%r13),%ymm15,%ymm2
  406db0:	00 00 
  406db2:	c4 c1 5d ef ad e0 07 	vpxor  0x7e0(%r13),%ymm4,%ymm5
  406db9:	00 00 
  406dbb:	c4 c1 15 ef 85 a0 04 	vpxor  0x4a0(%r13),%ymm13,%ymm0
  406dc2:	00 00 
  406dc4:	c4 c1 0d ef 8d a0 03 	vpxor  0x3a0(%r13),%ymm14,%ymm1
  406dcb:	00 00 
  406dcd:	c4 c1 65 ef 9d a0 01 	vpxor  0x1a0(%r13),%ymm3,%ymm3
  406dd4:	00 00 
  406dd6:	c4 41 7e 6f be 60 02 	vmovdqu 0x260(%r14),%ymm15
  406ddd:	00 00 
  406ddf:	c5 fe 7f 46 e0       	vmovdqu %ymm0,-0x20(%rsi)
  406de4:	c5 fe 7f 0e          	vmovdqu %ymm1,(%rsi)
  406de8:	c5 fe 7f 56 20       	vmovdqu %ymm2,0x20(%rsi)
  406ded:	c5 fe 7f 5e 40       	vmovdqu %ymm3,0x40(%rsi)
  406df2:	c4 c1 05 ef a5 a0 00 	vpxor  0xa0(%r13),%ymm15,%ymm4
  406df9:	00 00 
  406dfb:	48 8d 94 24 c0 2e 00 	lea    0x2ec0(%rsp),%rdx
  406e02:	00 
  406e03:	48 8d 8c 24 e0 2e 00 	lea    0x2ee0(%rsp),%rcx
  406e0a:	00 
  406e0b:	e8 e0 2e 00 00       	callq  409cf0 <sbox__5>
  406e10:	c5 fe 6f ac 24 80 2e 	vmovdqu 0x2e80(%rsp),%ymm5
  406e17:	00 00 
  406e19:	48 8d bc 24 00 2f 00 	lea    0x2f00(%rsp),%rdi
  406e20:	00 
  406e21:	c5 fe 6f 7f a0       	vmovdqu -0x60(%rdi),%ymm7
  406e26:	c5 7e 6f 4f c0       	vmovdqu -0x40(%rdi),%ymm9
  406e2b:	c5 7e 6f 5f e0       	vmovdqu -0x20(%rdi),%ymm11
  406e30:	c4 c1 55 ef b5 00 04 	vpxor  0x400(%r13),%ymm5,%ymm6
  406e37:	00 00 
  406e39:	c4 41 45 ef 85 c0 03 	vpxor  0x3c0(%r13),%ymm7,%ymm8
  406e40:	00 00 
  406e42:	c4 41 35 ef 95 40 05 	vpxor  0x540(%r13),%ymm9,%ymm10
  406e49:	00 00 
  406e4b:	c4 41 25 ef a5 80 05 	vpxor  0x580(%r13),%ymm11,%ymm12
  406e52:	00 00 
  406e54:	c4 c1 7e 7f b5 00 04 	vmovdqu %ymm6,0x400(%r13)
  406e5b:	00 00 
  406e5d:	c4 41 7e 7f 85 c0 03 	vmovdqu %ymm8,0x3c0(%r13)
  406e64:	00 00 
  406e66:	c4 41 7e 7f 95 40 05 	vmovdqu %ymm10,0x540(%r13)
  406e6d:	00 00 
  406e6f:	c4 41 7e 7f a5 80 05 	vmovdqu %ymm12,0x580(%r13)
  406e76:	00 00 
  406e78:	c4 41 7e 6f be c0 04 	vmovdqu 0x4c0(%r14),%ymm15
  406e7f:	00 00 
  406e81:	48 8d b4 24 20 2f 00 	lea    0x2f20(%rsp),%rsi
  406e88:	00 
  406e89:	c4 c1 7e 6f a6 80 06 	vmovdqu 0x680(%r14),%ymm4
  406e90:	00 00 
  406e92:	c4 41 7e 6f ae a0 07 	vmovdqu 0x7a0(%r14),%ymm13
  406e99:	00 00 
  406e9b:	c4 41 7e 6f b6 a0 02 	vmovdqu 0x2a0(%r14),%ymm14
  406ea2:	00 00 
  406ea4:	c4 c1 7e 6f 9e 80 03 	vmovdqu 0x380(%r14),%ymm3
  406eab:	00 00 
  406ead:	c4 c1 05 ef 95 e0 06 	vpxor  0x6e0(%r13),%ymm15,%ymm2
  406eb4:	00 00 
  406eb6:	c4 c1 5d ef ad e0 03 	vpxor  0x3e0(%r13),%ymm4,%ymm5
  406ebd:	00 00 
  406ebf:	c4 c1 15 ef 85 a0 00 	vpxor  0xa0(%r13),%ymm13,%ymm0
  406ec6:	00 00 
  406ec8:	c4 c1 0d ef 8d e0 07 	vpxor  0x7e0(%r13),%ymm14,%ymm1
  406ecf:	00 00 
  406ed1:	c4 c1 65 ef 9d e0 05 	vpxor  0x5e0(%r13),%ymm3,%ymm3
  406ed8:	00 00 
  406eda:	c4 41 7e 6f be 60 01 	vmovdqu 0x160(%r14),%ymm15
  406ee1:	00 00 
  406ee3:	c5 fe 7f 46 e0       	vmovdqu %ymm0,-0x20(%rsi)
  406ee8:	c5 fe 7f 0e          	vmovdqu %ymm1,(%rsi)
  406eec:	c5 fe 7f 56 20       	vmovdqu %ymm2,0x20(%rsi)
  406ef1:	c5 fe 7f 5e 40       	vmovdqu %ymm3,0x40(%rsi)
  406ef6:	c4 c1 05 ef a5 e0 04 	vpxor  0x4e0(%r13),%ymm15,%ymm4
  406efd:	00 00 
  406eff:	48 8d 94 24 40 2f 00 	lea    0x2f40(%rsp),%rdx
  406f06:	00 
  406f07:	48 8d 8c 24 60 2f 00 	lea    0x2f60(%rsp),%rcx
  406f0e:	00 
  406f0f:	e8 0c 2f 00 00       	callq  409e20 <sbox__6>
  406f14:	c5 fe 6f ac 24 00 2f 	vmovdqu 0x2f00(%rsp),%ymm5
  406f1b:	00 00 
  406f1d:	48 8d bc 24 80 2f 00 	lea    0x2f80(%rsp),%rdi
  406f24:	00 
  406f25:	c5 fe 6f 7f a0       	vmovdqu -0x60(%rdi),%ymm7
  406f2a:	c5 7e 6f 4f c0       	vmovdqu -0x40(%rdi),%ymm9
  406f2f:	c5 7e 6f 5f e0       	vmovdqu -0x20(%rdi),%ymm11
  406f34:	c4 c1 55 ef b5 c0 00 	vpxor  0xc0(%r13),%ymm5,%ymm6
  406f3b:	00 00 
  406f3d:	c4 41 45 ef 85 40 04 	vpxor  0x440(%r13),%ymm7,%ymm8
  406f44:	00 00 
  406f46:	c4 41 35 ef 95 80 02 	vpxor  0x280(%r13),%ymm9,%ymm10
  406f4d:	00 00 
  406f4f:	c4 41 25 ef a5 00 01 	vpxor  0x100(%r13),%ymm11,%ymm12
  406f56:	00 00 
  406f58:	c4 c1 7e 7f b5 c0 00 	vmovdqu %ymm6,0xc0(%r13)
  406f5f:	00 00 
  406f61:	c4 41 7e 7f 85 40 04 	vmovdqu %ymm8,0x440(%r13)
  406f68:	00 00 
  406f6a:	c4 41 7e 7f 95 80 02 	vmovdqu %ymm10,0x280(%r13)
  406f71:	00 00 
  406f73:	c4 41 7e 7f a5 00 01 	vmovdqu %ymm12,0x100(%r13)
  406f7a:	00 00 
  406f7c:	c4 41 7e 6f be a0 01 	vmovdqu 0x1a0(%r14),%ymm15
  406f83:	00 00 
  406f85:	48 8d b4 24 a0 2f 00 	lea    0x2fa0(%rsp),%rsi
  406f8c:	00 
  406f8d:	c4 c1 7e 6f a6 60 03 	vmovdqu 0x360(%r14),%ymm4
  406f94:	00 00 
  406f96:	c4 41 7e 6f ae a0 05 	vmovdqu 0x5a0(%r14),%ymm13
  406f9d:	00 00 
  406f9f:	c4 41 7e 6f b6 c0 01 	vmovdqu 0x1c0(%r14),%ymm14
  406fa6:	00 00 
  406fa8:	c4 c1 7e 6f 9e c0 07 	vmovdqu 0x7c0(%r14),%ymm3
  406faf:	00 00 
  406fb1:	c4 c1 05 ef 95 e0 02 	vpxor  0x2e0(%r13),%ymm15,%ymm2
  406fb8:	00 00 
  406fba:	c4 c1 5d ef ad 20 07 	vpxor  0x720(%r13),%ymm4,%ymm5
  406fc1:	00 00 
  406fc3:	c4 c1 15 ef 85 e0 04 	vpxor  0x4e0(%r13),%ymm13,%ymm0
  406fca:	00 00 
  406fcc:	c4 c1 0d ef 8d e0 03 	vpxor  0x3e0(%r13),%ymm14,%ymm1
  406fd3:	00 00 
  406fd5:	c4 c1 65 ef 9d e0 01 	vpxor  0x1e0(%r13),%ymm3,%ymm3
  406fdc:	00 00 
  406fde:	c4 41 7e 6f be 80 02 	vmovdqu 0x280(%r14),%ymm15
  406fe5:	00 00 
  406fe7:	c5 fe 7f 46 e0       	vmovdqu %ymm0,-0x20(%rsi)
  406fec:	c5 fe 7f 0e          	vmovdqu %ymm1,(%rsi)
  406ff0:	c5 fe 7f 56 20       	vmovdqu %ymm2,0x20(%rsi)
  406ff5:	c5 fe 7f 5e 40       	vmovdqu %ymm3,0x40(%rsi)
  406ffa:	c4 c1 05 ef a5 e0 00 	vpxor  0xe0(%r13),%ymm15,%ymm4
  407001:	00 00 
  407003:	48 8d 94 24 c0 2f 00 	lea    0x2fc0(%rsp),%rdx
  40700a:	00 
  40700b:	48 8d 8c 24 e0 2f 00 	lea    0x2fe0(%rsp),%rcx
  407012:	00 
  407013:	e8 28 2f 00 00       	callq  409f40 <sbox__7>
  407018:	c5 fe 6f ac 24 80 2f 	vmovdqu 0x2f80(%rsp),%ymm5
  40701f:	00 00 
  407021:	48 8d bc 24 00 30 00 	lea    0x3000(%rsp),%rdi
  407028:	00 
  407029:	c5 fe 6f 77 a0       	vmovdqu -0x60(%rdi),%ymm6
  40702e:	c5 7e 6f 47 c0       	vmovdqu -0x40(%rdi),%ymm8
  407033:	c5 7e 6f 57 e0       	vmovdqu -0x20(%rdi),%ymm10
  407038:	c4 c1 55 ef a5 00 03 	vpxor  0x300(%r13),%ymm5,%ymm4
  40703f:	00 00 
  407041:	c4 c1 4d ef bd c0 05 	vpxor  0x5c0(%r13),%ymm6,%ymm7
  407048:	00 00 
  40704a:	c4 41 3d ef 8d 40 01 	vpxor  0x140(%r13),%ymm8,%ymm9
  407051:	00 00 
  407053:	c4 41 2d ef 9d 80 03 	vpxor  0x380(%r13),%ymm10,%ymm11
  40705a:	00 00 
  40705c:	c4 c1 7e 7f a5 00 03 	vmovdqu %ymm4,0x300(%r13)
  407063:	00 00 
  407065:	c4 c1 7e 7f bd c0 05 	vmovdqu %ymm7,0x5c0(%r13)
  40706c:	00 00 
  40706e:	c4 41 7e 7f 8d 40 01 	vmovdqu %ymm9,0x140(%r13)
  407075:	00 00 
  407077:	c4 41 7e 7f 9d 80 03 	vmovdqu %ymm11,0x380(%r13)
  40707e:	00 00 
  407080:	c4 41 7e 6f be 40 05 	vmovdqu 0x540(%r14),%ymm15
  407087:	00 00 
  407089:	48 8d b4 24 20 30 00 	lea    0x3020(%rsp),%rsi
  407090:	00 
  407091:	c4 41 7e 6f a6 20 07 	vmovdqu 0x720(%r14),%ymm12
  407098:	00 00 
  40709a:	c4 41 7e 6f ae 20 04 	vmovdqu 0x420(%r14),%ymm13
  4070a1:	00 00 
  4070a3:	c4 41 7e 6f b6 00 02 	vmovdqu 0x200(%r14),%ymm14
  4070aa:	00 00 
  4070ac:	c4 c1 05 ef 9d 00 05 	vpxor  0x500(%r13),%ymm15,%ymm3
  4070b3:	00 00 
  4070b5:	c4 c1 5d ef ae 60 04 	vpxor  0x460(%r14),%ymm4,%ymm5
  4070bc:	00 00 
  4070be:	c4 c1 1d ef 85 c0 00 	vpxor  0xc0(%r13),%ymm12,%ymm0
  4070c5:	00 00 
  4070c7:	c4 c1 15 ef 8d 00 07 	vpxor  0x700(%r13),%ymm13,%ymm1
  4070ce:	00 00 
  4070d0:	c4 c1 0d ef 95 00 06 	vpxor  0x600(%r13),%ymm14,%ymm2
  4070d7:	00 00 
  4070d9:	c4 41 7e 6f 7e 40    	vmovdqu 0x40(%r14),%ymm15
  4070df:	c5 fe 7f 46 e0       	vmovdqu %ymm0,-0x20(%rsi)
  4070e4:	c5 fe 7f 0e          	vmovdqu %ymm1,(%rsi)
  4070e8:	c5 fe 7f 56 20       	vmovdqu %ymm2,0x20(%rsi)
  4070ed:	c5 fe 7f 5e 40       	vmovdqu %ymm3,0x40(%rsi)
  4070f2:	c4 c1 05 ef a5 00 04 	vpxor  0x400(%r13),%ymm15,%ymm4
  4070f9:	00 00 
  4070fb:	48 8d 94 24 40 30 00 	lea    0x3040(%rsp),%rdx
  407102:	00 
  407103:	48 8d 8c 24 60 30 00 	lea    0x3060(%rsp),%rcx
  40710a:	00 
  40710b:	e8 10 27 00 00       	callq  409820 <sbox__0>
  407110:	c5 fe 6f ac 24 00 30 	vmovdqu 0x3000(%rsp),%ymm5
  407117:	00 00 
  407119:	48 8d bc 24 80 30 00 	lea    0x3080(%rsp),%rdi
  407120:	00 
  407121:	c5 fe 6f 7f a0       	vmovdqu -0x60(%rdi),%ymm7
  407126:	c5 7e 6f 4f c0       	vmovdqu -0x40(%rdi),%ymm9
  40712b:	c5 7e 6f 5f e0       	vmovdqu -0x20(%rdi),%ymm11
  407130:	c4 c1 55 ef b5 60 07 	vpxor  0x760(%r13),%ymm5,%ymm6
  407137:	00 00 
  407139:	c4 41 45 ef 85 a0 07 	vpxor  0x7a0(%r13),%ymm7,%ymm8
  407140:	00 00 
  407142:	c4 41 35 ef 95 a0 01 	vpxor  0x1a0(%r13),%ymm9,%ymm10
  407149:	00 00 
  40714b:	c4 41 25 ef a5 e0 01 	vpxor  0x1e0(%r13),%ymm11,%ymm12
  407152:	00 00 
  407154:	c4 c1 7e 7f b5 60 07 	vmovdqu %ymm6,0x760(%r13)
  40715b:	00 00 
  40715d:	c4 41 7e 7f 85 a0 07 	vmovdqu %ymm8,0x7a0(%r13)
  407164:	00 00 
  407166:	c4 41 7e 7f 95 a0 01 	vmovdqu %ymm10,0x1a0(%r13)
  40716d:	00 00 
  40716f:	c4 41 7e 7f a5 e0 01 	vmovdqu %ymm12,0x1e0(%r13)
  407176:	00 00 
  407178:	c4 41 7e 6f be 20 06 	vmovdqu 0x620(%r14),%ymm15
  40717f:	00 00 
  407181:	48 8d b4 24 a0 30 00 	lea    0x30a0(%rsp),%rsi
  407188:	00 
  407189:	c4 c1 7e 6f a6 00 03 	vmovdqu 0x300(%r14),%ymm4
  407190:	00 00 
  407192:	c4 41 7e 6f ae 60 06 	vmovdqu 0x660(%r14),%ymm13
  407199:	00 00 
  40719b:	c4 41 7e 6f b6 40 01 	vmovdqu 0x140(%r14),%ymm14
  4071a2:	00 00 
  4071a4:	c4 c1 7e 6f 9e 00 07 	vmovdqu 0x700(%r14),%ymm3
  4071ab:	00 00 
  4071ad:	c4 c1 05 ef 95 00 02 	vpxor  0x200(%r13),%ymm15,%ymm2
  4071b4:	00 00 
  4071b6:	c4 c1 5d ef ad 40 07 	vpxor  0x740(%r13),%ymm4,%ymm5
  4071bd:	00 00 
  4071bf:	c4 c1 15 ef 85 00 04 	vpxor  0x400(%r13),%ymm13,%ymm0
  4071c6:	00 00 
  4071c8:	c4 c1 0d ef 8d 00 03 	vpxor  0x300(%r13),%ymm14,%ymm1
  4071cf:	00 00 
  4071d1:	c4 c1 65 ef 9d 00 01 	vpxor  0x100(%r13),%ymm3,%ymm3
  4071d8:	00 00 
  4071da:	c4 41 7e 6f 7e 20    	vmovdqu 0x20(%r14),%ymm15
  4071e0:	c5 fe 7f 46 e0       	vmovdqu %ymm0,-0x20(%rsi)
  4071e5:	c5 fe 7f 0e          	vmovdqu %ymm1,(%rsi)
  4071e9:	c5 fe 7f 56 20       	vmovdqu %ymm2,0x20(%rsi)
  4071ee:	c5 fe 7f 5e 40       	vmovdqu %ymm3,0x40(%rsi)
  4071f3:	c4 c1 05 ef 65 00    	vpxor  0x0(%r13),%ymm15,%ymm4
  4071f9:	48 8d 94 24 c0 30 00 	lea    0x30c0(%rsp),%rdx
  407200:	00 
  407201:	48 8d 8c 24 e0 30 00 	lea    0x30e0(%rsp),%rcx
  407208:	00 
  407209:	e8 62 27 00 00       	callq  409970 <sbox__1>
  40720e:	c5 fe 6f ac 24 80 30 	vmovdqu 0x3080(%rsp),%ymm5
  407215:	00 00 
  407217:	48 8d bc 24 00 31 00 	lea    0x3100(%rsp),%rdi
  40721e:	00 
  40721f:	c5 fe 6f 7f a0       	vmovdqu -0x60(%rdi),%ymm7
  407224:	c5 7e 6f 4f c0       	vmovdqu -0x40(%rdi),%ymm9
  407229:	c5 7e 6f 5f e0       	vmovdqu -0x20(%rdi),%ymm11
  40722e:	c4 c1 55 ef b5 60 03 	vpxor  0x360(%r13),%ymm5,%ymm6
  407235:	00 00 
  407237:	c4 41 45 ef 85 e0 04 	vpxor  0x4e0(%r13),%ymm7,%ymm8
  40723e:	00 00 
  407240:	c4 41 35 ef 95 20 06 	vpxor  0x620(%r13),%ymm9,%ymm10
  407247:	00 00 
  407249:	c4 41 25 ef a5 a0 06 	vpxor  0x6a0(%r13),%ymm11,%ymm12
  407250:	00 00 
  407252:	c4 c1 7e 7f b5 60 03 	vmovdqu %ymm6,0x360(%r13)
  407259:	00 00 
  40725b:	c4 41 7e 7f 85 e0 04 	vmovdqu %ymm8,0x4e0(%r13)
  407262:	00 00 
  407264:	c4 41 7e 7f 95 20 06 	vmovdqu %ymm10,0x620(%r13)
  40726b:	00 00 
  40726d:	c4 41 7e 7f a5 a0 06 	vmovdqu %ymm12,0x6a0(%r13)
  407274:	00 00 
  407276:	c4 41 7e 6f be 00 01 	vmovdqu 0x100(%r14),%ymm15
  40727d:	00 00 
  40727f:	48 8d b4 24 20 31 00 	lea    0x3120(%rsp),%rsi
  407286:	00 
  407287:	c4 c1 7e 6f a6 00 05 	vmovdqu 0x500(%r14),%ymm4
  40728e:	00 00 
  407290:	c4 41 7e 6f ae 40 06 	vmovdqu 0x640(%r14),%ymm13
  407297:	00 00 
  407299:	c4 41 7e 6f b6 20 02 	vmovdqu 0x220(%r14),%ymm14
  4072a0:	00 00 
  4072a2:	c4 c1 7e 6f 9e 60 05 	vmovdqu 0x560(%r14),%ymm3
  4072a9:	00 00 
  4072ab:	c4 c1 05 ef 95 40 06 	vpxor  0x640(%r13),%ymm15,%ymm2
  4072b2:	00 00 
  4072b4:	c4 c1 5d ef ad 40 03 	vpxor  0x340(%r13),%ymm4,%ymm5
  4072bb:	00 00 
  4072bd:	c4 c1 15 ef 45 00    	vpxor  0x0(%r13),%ymm13,%ymm0
  4072c3:	c4 c1 0d ef 8d 40 07 	vpxor  0x740(%r13),%ymm14,%ymm1
  4072ca:	00 00 
  4072cc:	c4 c1 65 ef 9d 40 05 	vpxor  0x540(%r13),%ymm3,%ymm3
  4072d3:	00 00 
  4072d5:	c4 41 7e 6f be 40 03 	vmovdqu 0x340(%r14),%ymm15
  4072dc:	00 00 
  4072de:	c5 fe 7f 46 e0       	vmovdqu %ymm0,-0x20(%rsi)
  4072e3:	c5 fe 7f 0e          	vmovdqu %ymm1,(%rsi)
  4072e7:	c5 fe 7f 56 20       	vmovdqu %ymm2,0x20(%rsi)
  4072ec:	c5 fe 7f 5e 40       	vmovdqu %ymm3,0x40(%rsi)
  4072f1:	c4 c1 05 ef a5 40 04 	vpxor  0x440(%r13),%ymm15,%ymm4
  4072f8:	00 00 
  4072fa:	48 8d 94 24 40 31 00 	lea    0x3140(%rsp),%rdx
  407301:	00 
  407302:	48 8d 8c 24 60 31 00 	lea    0x3160(%rsp),%rcx
  407309:	00 
  40730a:	e8 71 27 00 00       	callq  409a80 <sbox__2>
  40730f:	c5 fe 6f 9c 24 00 31 	vmovdqu 0x3100(%rsp),%ymm3
  407316:	00 00 
  407318:	48 8d bc 24 80 31 00 	lea    0x3180(%rsp),%rdi
  40731f:	00 
  407320:	c5 7e 6f 6f a0       	vmovdqu -0x60(%rdi),%ymm13
  407325:	c5 7e 6f 5f c0       	vmovdqu -0x40(%rdi),%ymm11
  40732a:	c5 7e 6f 4f e0       	vmovdqu -0x20(%rdi),%ymm9
  40732f:	c4 41 65 ef b5 a0 00 	vpxor  0xa0(%r13),%ymm3,%ymm14
  407336:	00 00 
  407338:	c4 41 15 ef 65 60    	vpxor  0x60(%r13),%ymm13,%ymm12
  40733e:	c4 41 25 ef 95 e0 02 	vpxor  0x2e0(%r13),%ymm11,%ymm10
  407345:	00 00 
  407347:	c4 c1 35 ef b5 20 02 	vpxor  0x220(%r13),%ymm9,%ymm6
  40734e:	00 00 
  407350:	c4 41 7e 7f b5 a0 00 	vmovdqu %ymm14,0xa0(%r13)
  407357:	00 00 
  407359:	c4 41 7e 7f 65 60    	vmovdqu %ymm12,0x60(%r13)
  40735f:	c4 41 7e 7f 95 e0 02 	vmovdqu %ymm10,0x2e0(%r13)
  407366:	00 00 
  407368:	c4 c1 7e 7f b5 20 02 	vmovdqu %ymm6,0x220(%r13)
  40736f:	00 00 
  407371:	c4 41 7e 6f 6d 40    	vmovdqu 0x40(%r13),%ymm13
  407377:	c4 41 7e 6f b5 80 07 	vmovdqu 0x780(%r13),%ymm14
  40737e:	00 00 
  407380:	c4 c1 7e 6f 96 40 02 	vmovdqu 0x240(%r14),%ymm2
  407387:	00 00 
  407389:	c4 c1 7e 6f 86 20 05 	vmovdqu 0x520(%r14),%ymm0
  407390:	00 00 
  407392:	c4 c1 7e 6f 8e 00 06 	vmovdqu 0x600(%r14),%ymm1
  407399:	00 00 
  40739b:	c4 c1 7e 6f 9e 20 01 	vmovdqu 0x120(%r14),%ymm3
  4073a2:	00 00 
  4073a4:	c4 41 6d ef 85 40 02 	vpxor  0x240(%r13),%ymm2,%ymm8
  4073ab:	00 00 
  4073ad:	c4 c1 7d ef a5 40 04 	vpxor  0x440(%r13),%ymm0,%ymm4
  4073b4:	00 00 
  4073b6:	c4 c1 15 ef 16       	vpxor  (%r14),%ymm13,%ymm2
  4073bb:	c4 41 75 ef 9d 40 03 	vpxor  0x340(%r13),%ymm1,%ymm11
  4073c2:	00 00 
  4073c4:	c4 41 65 ef 95 40 01 	vpxor  0x140(%r13),%ymm3,%ymm10
  4073cb:	00 00 
  4073cd:	c5 bd eb ec          	vpor   %ymm4,%ymm8,%ymm5
  4073d1:	c4 41 0d ef a6 60 07 	vpxor  0x760(%r14),%ymm14,%ymm12
  4073d8:	00 00 
  4073da:	c4 c1 3d eb fb       	vpor   %ymm11,%ymm8,%ymm7
  4073df:	c5 d5 db c2          	vpand  %ymm2,%ymm5,%ymm0
  4073e3:	c5 cd 76 f6          	vpcmpeqd %ymm6,%ymm6,%ymm6
  4073e7:	48 8d b4 24 a0 31 00 	lea    0x31a0(%rsp),%rsi
  4073ee:	00 
  4073ef:	c5 4d ef fc          	vpxor  %ymm4,%ymm6,%ymm15
  4073f3:	48 8d 94 24 c0 31 00 	lea    0x31c0(%rsp),%rdx
  4073fa:	00 
  4073fb:	c5 ed db e4          	vpand  %ymm4,%ymm2,%ymm4
  4073ff:	c4 c1 4d ef d8       	vpxor  %ymm8,%ymm6,%ymm3
  407404:	c4 c1 7d ef cf       	vpxor  %ymm15,%ymm0,%ymm1
  407409:	c5 d5 ef e4          	vpxor  %ymm4,%ymm5,%ymm4
  40740d:	c5 c5 ef f9          	vpxor  %ymm1,%ymm7,%ymm7
  407411:	c4 41 5d db fb       	vpand  %ymm11,%ymm4,%ymm15
  407416:	c5 05 ef ca          	vpxor  %ymm2,%ymm15,%ymm9
  40741a:	48 8d 8c 24 e0 31 00 	lea    0x31e0(%rsp),%rcx
  407421:	00 
  407422:	c4 41 05 ef c0       	vpxor  %ymm8,%ymm15,%ymm8
  407427:	c5 7d ef fb          	vpxor  %ymm3,%ymm0,%ymm15
  40742b:	c5 e5 ef c2          	vpxor  %ymm2,%ymm3,%ymm0
  40742f:	c4 c1 35 db ea       	vpand  %ymm10,%ymm9,%ymm5
  407434:	c4 41 35 db cb       	vpand  %ymm11,%ymm9,%ymm9
  407439:	c4 c1 05 db db       	vpand  %ymm11,%ymm15,%ymm3
  40743e:	c4 c1 7d eb d3       	vpor   %ymm11,%ymm0,%ymm2
  407443:	c5 d5 ef ff          	vpxor  %ymm7,%ymm5,%ymm7
  407447:	c5 85 db e9          	vpand  %ymm1,%ymm15,%ymm5
  40744b:	c5 e5 ef e4          	vpxor  %ymm4,%ymm3,%ymm4
  40744f:	c5 ed ef cd          	vpxor  %ymm5,%ymm2,%ymm1
  407453:	c4 c1 75 eb c2       	vpor   %ymm10,%ymm1,%ymm0
  407458:	c5 fd ef dc          	vpxor  %ymm4,%ymm0,%ymm3
  40745c:	c4 c1 65 db c4       	vpand  %ymm12,%ymm3,%ymm0
  407461:	c4 41 65 eb fc       	vpor   %ymm12,%ymm3,%ymm15
  407466:	c5 fd ef cf          	vpxor  %ymm7,%ymm0,%ymm1
  40746a:	c5 cd ef c7          	vpxor  %ymm7,%ymm6,%ymm0
  40746e:	c4 c1 6d ef f0       	vpxor  %ymm8,%ymm2,%ymm6
  407473:	c4 c1 55 ef d1       	vpxor  %ymm9,%ymm5,%ymm2
  407478:	c4 41 4d db c2       	vpand  %ymm10,%ymm6,%ymm8
  40747d:	c5 bd ef e2          	vpxor  %ymm2,%ymm8,%ymm4
  407481:	c5 dd ef d8          	vpxor  %ymm0,%ymm4,%ymm3
  407485:	c5 85 ef c0          	vpxor  %ymm0,%ymm15,%ymm0
  407489:	c4 41 65 db db       	vpand  %ymm11,%ymm3,%ymm11
  40748e:	c4 41 65 eb d2       	vpor   %ymm10,%ymm3,%ymm10
  407493:	c5 a5 ef d1          	vpxor  %ymm1,%ymm11,%ymm2
  407497:	c4 c1 75 ef 8d a0 04 	vpxor  0x4a0(%r13),%ymm1,%ymm1
  40749e:	00 00 
  4074a0:	c5 ad ef da          	vpxor  %ymm2,%ymm10,%ymm3
  4074a4:	c4 c1 7d ef 95 e0 06 	vpxor  0x6e0(%r13),%ymm0,%ymm2
  4074ab:	00 00 
  4074ad:	c4 c1 7e 7f 8d a0 04 	vmovdqu %ymm1,0x4a0(%r13)
  4074b4:	00 00 
  4074b6:	c4 41 65 db e4       	vpand  %ymm12,%ymm3,%ymm12
  4074bb:	c4 41 65 ef ff       	vpxor  %ymm15,%ymm3,%ymm15
  4074c0:	c4 c1 7e 7f 95 e0 06 	vmovdqu %ymm2,0x6e0(%r13)
  4074c7:	00 00 
  4074c9:	c5 9d ef fc          	vpxor  %ymm4,%ymm12,%ymm7
  4074cd:	c4 c1 45 ef ef       	vpxor  %ymm15,%ymm7,%ymm5
  4074d2:	c4 41 45 ef 85 20 07 	vpxor  0x720(%r13),%ymm7,%ymm8
  4074d9:	00 00 
  4074db:	c4 c1 55 ef b5 60 06 	vpxor  0x660(%r13),%ymm5,%ymm6
  4074e2:	00 00 
  4074e4:	c4 41 7e 7f 85 20 07 	vmovdqu %ymm8,0x720(%r13)
  4074eb:	00 00 
  4074ed:	c4 c1 7e 7f b5 60 06 	vmovdqu %ymm6,0x660(%r13)
  4074f4:	00 00 
  4074f6:	c4 c1 15 ef 86 c0 00 	vpxor  0xc0(%r14),%ymm13,%ymm0
  4074fd:	00 00 
  4074ff:	c4 c1 0d ef 8e 80 05 	vpxor  0x580(%r14),%ymm14,%ymm1
  407506:	00 00 
  407508:	c4 41 7e 6f ae c0 04 	vmovdqu 0x4c0(%r14),%ymm13
  40750f:	00 00 
  407511:	c4 c1 7e 6f a6 80 02 	vmovdqu 0x280(%r14),%ymm4
  407518:	00 00 
  40751a:	c4 41 7e 6f b6 60 02 	vmovdqu 0x260(%r14),%ymm14
  407521:	00 00 
  407523:	c5 fe 7f 42 c0       	vmovdqu %ymm0,-0x40(%rdx)
  407528:	c5 fe 7f 4a e0       	vmovdqu %ymm1,-0x20(%rdx)
  40752d:	c4 c1 15 ef 9d 80 05 	vpxor  0x580(%r13),%ymm13,%ymm3
  407534:	00 00 
  407536:	c4 c1 5d ef ad 80 03 	vpxor  0x380(%r13),%ymm4,%ymm5
  40753d:	00 00 
  40753f:	c4 c1 0d ef 95 80 06 	vpxor  0x680(%r13),%ymm14,%ymm2
  407546:	00 00 
  407548:	c4 41 7e 6f ae a0 02 	vmovdqu 0x2a0(%r14),%ymm13
  40754f:	00 00 
  407551:	c5 fe 7f 5a 20       	vmovdqu %ymm3,0x20(%rdx)
  407556:	c5 fe 7f 12          	vmovdqu %ymm2,(%rdx)
  40755a:	c4 c1 15 ef a5 80 04 	vpxor  0x480(%r13),%ymm13,%ymm4
  407561:	00 00 
  407563:	e8 38 26 00 00       	callq  409ba0 <sbox__4>
  407568:	c5 fe 6f ac 24 80 31 	vmovdqu 0x3180(%rsp),%ymm5
  40756f:	00 00 
  407571:	48 8d bc 24 00 32 00 	lea    0x3200(%rsp),%rdi
  407578:	00 
  407579:	c5 fe 6f 7f a0       	vmovdqu -0x60(%rdi),%ymm7
  40757e:	c5 7e 6f 4f c0       	vmovdqu -0x40(%rdi),%ymm9
  407583:	c5 7e 6f 5f e0       	vmovdqu -0x20(%rdi),%ymm11
  407588:	c4 c1 55 ef 75 20    	vpxor  0x20(%r13),%ymm5,%ymm6
  40758e:	c4 41 45 ef 85 60 02 	vpxor  0x260(%r13),%ymm7,%ymm8
  407595:	00 00 
  407597:	c4 41 35 ef 95 e0 07 	vpxor  0x7e0(%r13),%ymm9,%ymm10
  40759e:	00 00 
  4075a0:	c4 41 25 ef a5 20 05 	vpxor  0x520(%r13),%ymm11,%ymm12
  4075a7:	00 00 
  4075a9:	c4 c1 7e 7f 75 20    	vmovdqu %ymm6,0x20(%r13)
  4075af:	c4 41 7e 7f 85 60 02 	vmovdqu %ymm8,0x260(%r13)
  4075b6:	00 00 
  4075b8:	c4 41 7e 7f 95 e0 07 	vmovdqu %ymm10,0x7e0(%r13)
  4075bf:	00 00 
  4075c1:	c4 41 7e 7f a5 20 05 	vmovdqu %ymm12,0x520(%r13)
  4075c8:	00 00 
  4075ca:	c4 41 7e 6f be 80 06 	vmovdqu 0x680(%r14),%ymm15
  4075d1:	00 00 
  4075d3:	48 8d b4 24 20 32 00 	lea    0x3220(%rsp),%rsi
  4075da:	00 
  4075db:	c4 c1 7e 6f a6 a0 01 	vmovdqu 0x1a0(%r14),%ymm4
  4075e2:	00 00 
  4075e4:	c4 41 7e 6f b6 c0 01 	vmovdqu 0x1c0(%r14),%ymm14
  4075eb:	00 00 
  4075ed:	c4 41 7e 6f ae 60 03 	vmovdqu 0x360(%r14),%ymm13
  4075f4:	00 00 
  4075f6:	c4 c1 7e 6f 9e a0 04 	vmovdqu 0x4a0(%r14),%ymm3
  4075fd:	00 00 
  4075ff:	c4 c1 05 ef 95 80 02 	vpxor  0x280(%r13),%ymm15,%ymm2
  407606:	00 00 
  407608:	c4 c1 5d ef ad c0 07 	vpxor  0x7c0(%r13),%ymm4,%ymm5
  40760f:	00 00 
  407611:	c4 c1 15 ef 85 80 04 	vpxor  0x480(%r13),%ymm13,%ymm0
  407618:	00 00 
  40761a:	c4 c1 0d ef 8d 80 03 	vpxor  0x380(%r13),%ymm14,%ymm1
  407621:	00 00 
  407623:	c4 c1 65 ef 9d 80 01 	vpxor  0x180(%r13),%ymm3,%ymm3
  40762a:	00 00 
  40762c:	c4 41 7e 6f 7e 60    	vmovdqu 0x60(%r14),%ymm15
  407632:	c5 fe 7f 46 e0       	vmovdqu %ymm0,-0x20(%rsi)
  407637:	c5 fe 7f 0e          	vmovdqu %ymm1,(%rsi)
  40763b:	c5 fe 7f 56 20       	vmovdqu %ymm2,0x20(%rsi)
  407640:	c5 fe 7f 5e 40       	vmovdqu %ymm3,0x40(%rsi)
  407645:	c4 c1 05 ef a5 80 00 	vpxor  0x80(%r13),%ymm15,%ymm4
  40764c:	00 00 
  40764e:	48 8d 94 24 40 32 00 	lea    0x3240(%rsp),%rdx
  407655:	00 
  407656:	48 8d 8c 24 60 32 00 	lea    0x3260(%rsp),%rcx
  40765d:	00 
  40765e:	e8 8d 26 00 00       	callq  409cf0 <sbox__5>
  407663:	c5 fe 6f ac 24 00 32 	vmovdqu 0x3200(%rsp),%ymm5
  40766a:	00 00 
  40766c:	48 8d bc 24 80 32 00 	lea    0x3280(%rsp),%rdi
  407673:	00 
  407674:	c5 fe 6f 7f a0       	vmovdqu -0x60(%rdi),%ymm7
  407679:	c5 7e 6f 4f c0       	vmovdqu -0x40(%rdi),%ymm9
  40767e:	c5 7e 6f 5f e0       	vmovdqu -0x20(%rdi),%ymm11
  407683:	c4 c1 55 ef b5 20 04 	vpxor  0x420(%r13),%ymm5,%ymm6
  40768a:	00 00 
  40768c:	c4 41 45 ef 85 e0 03 	vpxor  0x3e0(%r13),%ymm7,%ymm8
  407693:	00 00 
  407695:	c4 41 35 ef 95 60 05 	vpxor  0x560(%r13),%ymm9,%ymm10
  40769c:	00 00 
  40769e:	c4 41 25 ef a5 a0 05 	vpxor  0x5a0(%r13),%ymm11,%ymm12
  4076a5:	00 00 
  4076a7:	c4 c1 7e 7f b5 20 04 	vmovdqu %ymm6,0x420(%r13)
  4076ae:	00 00 
  4076b0:	c4 41 7e 7f 85 e0 03 	vmovdqu %ymm8,0x3e0(%r13)
  4076b7:	00 00 
  4076b9:	c4 41 7e 7f 95 60 05 	vmovdqu %ymm10,0x560(%r13)
  4076c0:	00 00 
  4076c2:	c4 41 7e 7f a5 a0 05 	vmovdqu %ymm12,0x5a0(%r13)
  4076c9:	00 00 
  4076cb:	c4 41 7e 6f be c0 02 	vmovdqu 0x2c0(%r14),%ymm15
  4076d2:	00 00 
  4076d4:	48 8d b4 24 a0 32 00 	lea    0x32a0(%rsp),%rsi
  4076db:	00 
  4076dc:	c4 c1 7e 6f a6 80 04 	vmovdqu 0x480(%r14),%ymm4
  4076e3:	00 00 
  4076e5:	c4 41 7e 6f ae a0 05 	vmovdqu 0x5a0(%r14),%ymm13
  4076ec:	00 00 
  4076ee:	c4 41 7e 6f b6 a0 00 	vmovdqu 0xa0(%r14),%ymm14
  4076f5:	00 00 
  4076f7:	c4 c1 7e 6f 9e 80 01 	vmovdqu 0x180(%r14),%ymm3
  4076fe:	00 00 
  407700:	c4 c1 05 ef 95 c0 06 	vpxor  0x6c0(%r13),%ymm15,%ymm2
  407707:	00 00 
  407709:	c4 c1 5d ef ad c0 03 	vpxor  0x3c0(%r13),%ymm4,%ymm5
  407710:	00 00 
  407712:	c4 c1 15 ef 85 80 00 	vpxor  0x80(%r13),%ymm13,%ymm0
  407719:	00 00 
  40771b:	c4 c1 0d ef 8d c0 07 	vpxor  0x7c0(%r13),%ymm14,%ymm1
  407722:	00 00 
  407724:	c4 c1 65 ef 9d c0 05 	vpxor  0x5c0(%r13),%ymm3,%ymm3
  40772b:	00 00 
  40772d:	c4 41 7e 6f be c0 07 	vmovdqu 0x7c0(%r14),%ymm15
  407734:	00 00 
  407736:	c5 fe 7f 46 e0       	vmovdqu %ymm0,-0x20(%rsi)
  40773b:	c5 fe 7f 0e          	vmovdqu %ymm1,(%rsi)
  40773f:	c5 fe 7f 56 20       	vmovdqu %ymm2,0x20(%rsi)
  407744:	c5 fe 7f 5e 40       	vmovdqu %ymm3,0x40(%rsi)
  407749:	c4 c1 05 ef a5 c0 04 	vpxor  0x4c0(%r13),%ymm15,%ymm4
  407750:	00 00 
  407752:	48 8d 94 24 c0 32 00 	lea    0x32c0(%rsp),%rdx
  407759:	00 
  40775a:	48 8d 8c 24 e0 32 00 	lea    0x32e0(%rsp),%rcx
  407761:	00 
  407762:	e8 b9 26 00 00       	callq  409e20 <sbox__6>
  407767:	c5 fe 6f ac 24 80 32 	vmovdqu 0x3280(%rsp),%ymm5
  40776e:	00 00 
  407770:	48 8d bc 24 00 33 00 	lea    0x3300(%rsp),%rdi
  407777:	00 
  407778:	c5 fe 6f 7f a0       	vmovdqu -0x60(%rdi),%ymm7
  40777d:	c5 7e 6f 4f c0       	vmovdqu -0x40(%rdi),%ymm9
  407782:	c5 7e 6f 5f e0       	vmovdqu -0x20(%rdi),%ymm11
  407787:	c4 c1 55 ef b5 e0 00 	vpxor  0xe0(%r13),%ymm5,%ymm6
  40778e:	00 00 
  407790:	c4 41 45 ef 85 60 04 	vpxor  0x460(%r13),%ymm7,%ymm8
  407797:	00 00 
  407799:	c4 41 35 ef 95 a0 02 	vpxor  0x2a0(%r13),%ymm9,%ymm10
  4077a0:	00 00 
  4077a2:	c4 41 25 ef a5 20 01 	vpxor  0x120(%r13),%ymm11,%ymm12
  4077a9:	00 00 
  4077ab:	c4 c1 7e 7f b5 e0 00 	vmovdqu %ymm6,0xe0(%r13)
  4077b2:	00 00 
  4077b4:	c4 41 7e 7f 85 60 04 	vmovdqu %ymm8,0x460(%r13)
  4077bb:	00 00 
  4077bd:	c4 41 7e 7f 95 a0 02 	vmovdqu %ymm10,0x2a0(%r13)
  4077c4:	00 00 
  4077c6:	c4 41 7e 7f a5 20 01 	vmovdqu %ymm12,0x120(%r13)
  4077cd:	00 00 
  4077cf:	c4 41 7e 6f be 80 07 	vmovdqu 0x780(%r14),%ymm15
  4077d6:	00 00 
  4077d8:	48 8d b4 24 20 33 00 	lea    0x3320(%rsp),%rsi
  4077df:	00 
  4077e0:	c4 c1 7e 6f a6 60 01 	vmovdqu 0x160(%r14),%ymm4
  4077e7:	00 00 
  4077e9:	c4 41 7e 6f ae a0 03 	vmovdqu 0x3a0(%r14),%ymm13
  4077f0:	00 00 
  4077f2:	c4 41 7e 6f b6 a0 07 	vmovdqu 0x7a0(%r14),%ymm14
  4077f9:	00 00 
  4077fb:	c4 c1 7e 6f 9e c0 05 	vmovdqu 0x5c0(%r14),%ymm3
  407802:	00 00 
  407804:	c4 c1 05 ef 95 c0 02 	vpxor  0x2c0(%r13),%ymm15,%ymm2
  40780b:	00 00 
  40780d:	c4 c1 5d ef ad 00 07 	vpxor  0x700(%r13),%ymm4,%ymm5
  407814:	00 00 
  407816:	c4 c1 15 ef 85 c0 04 	vpxor  0x4c0(%r13),%ymm13,%ymm0
  40781d:	00 00 
  40781f:	c4 c1 0d ef 8d c0 03 	vpxor  0x3c0(%r13),%ymm14,%ymm1
  407826:	00 00 
  407828:	c4 c1 65 ef 9d c0 01 	vpxor  0x1c0(%r13),%ymm3,%ymm3
  40782f:	00 00 
  407831:	c4 41 7e 6f be 80 00 	vmovdqu 0x80(%r14),%ymm15
  407838:	00 00 
  40783a:	c5 fe 7f 46 e0       	vmovdqu %ymm0,-0x20(%rsi)
  40783f:	c5 fe 7f 0e          	vmovdqu %ymm1,(%rsi)
  407843:	c5 fe 7f 56 20       	vmovdqu %ymm2,0x20(%rsi)
  407848:	c5 fe 7f 5e 40       	vmovdqu %ymm3,0x40(%rsi)
  40784d:	c4 c1 05 ef a5 c0 00 	vpxor  0xc0(%r13),%ymm15,%ymm4
  407854:	00 00 
  407856:	48 8d 94 24 40 33 00 	lea    0x3340(%rsp),%rdx
  40785d:	00 
  40785e:	48 8d 8c 24 60 33 00 	lea    0x3360(%rsp),%rcx
  407865:	00 
  407866:	e8 d5 26 00 00       	callq  409f40 <sbox__7>
  40786b:	c5 fe 6f ac 24 00 33 	vmovdqu 0x3300(%rsp),%ymm5
  407872:	00 00 
  407874:	48 8d bc 24 80 33 00 	lea    0x3380(%rsp),%rdi
  40787b:	00 
  40787c:	c5 fe 6f 77 a0       	vmovdqu -0x60(%rdi),%ymm6
  407881:	c5 7e 6f 47 c0       	vmovdqu -0x40(%rdi),%ymm8
  407886:	c5 7e 6f 57 e0       	vmovdqu -0x20(%rdi),%ymm10
  40788b:	c4 c1 55 ef a5 20 03 	vpxor  0x320(%r13),%ymm5,%ymm4
  407892:	00 00 
  407894:	c4 c1 4d ef bd e0 05 	vpxor  0x5e0(%r13),%ymm6,%ymm7
  40789b:	00 00 
  40789d:	c4 41 3d ef 8d 60 01 	vpxor  0x160(%r13),%ymm8,%ymm9
  4078a4:	00 00 
  4078a6:	c4 41 2d ef 9d a0 03 	vpxor  0x3a0(%r13),%ymm10,%ymm11
  4078ad:	00 00 
  4078af:	c4 c1 7e 7f a5 20 03 	vmovdqu %ymm4,0x320(%r13)
  4078b6:	00 00 
  4078b8:	c4 c1 7e 7f bd e0 05 	vmovdqu %ymm7,0x5e0(%r13)
  4078bf:	00 00 
  4078c1:	c4 41 7e 7f 8d 60 01 	vmovdqu %ymm9,0x160(%r13)
  4078c8:	00 00 
  4078ca:	c4 41 7e 7f 9d a0 03 	vmovdqu %ymm11,0x3a0(%r13)
  4078d1:	00 00 
  4078d3:	c4 41 7e 6f be 40 03 	vmovdqu 0x340(%r14),%ymm15
  4078da:	00 00 
  4078dc:	48 8d b4 24 a0 33 00 	lea    0x33a0(%rsp),%rsi
  4078e3:	00 
  4078e4:	c4 41 7e 6f a6 20 05 	vmovdqu 0x520(%r14),%ymm12
  4078eb:	00 00 
  4078ed:	c4 41 7e 6f ae 20 02 	vmovdqu 0x220(%r14),%ymm13
  4078f4:	00 00 
  4078f6:	c4 41 7e 6f 36       	vmovdqu (%r14),%ymm14
  4078fb:	c4 c1 05 ef 9d 20 05 	vpxor  0x520(%r13),%ymm15,%ymm3
  407902:	00 00 
  407904:	c4 c1 5d ef ae 00 06 	vpxor  0x600(%r14),%ymm4,%ymm5
  40790b:	00 00 
  40790d:	c4 c1 1d ef 85 e0 00 	vpxor  0xe0(%r13),%ymm12,%ymm0
  407914:	00 00 
  407916:	c4 c1 15 ef 8d 20 07 	vpxor  0x720(%r13),%ymm13,%ymm1
  40791d:	00 00 
  40791f:	c4 c1 0d ef 95 20 06 	vpxor  0x620(%r13),%ymm14,%ymm2
  407926:	00 00 
  407928:	c4 41 7e 6f be 60 06 	vmovdqu 0x660(%r14),%ymm15
  40792f:	00 00 
  407931:	c5 fe 7f 46 e0       	vmovdqu %ymm0,-0x20(%rsi)
  407936:	c5 fe 7f 0e          	vmovdqu %ymm1,(%rsi)
  40793a:	c5 fe 7f 56 20       	vmovdqu %ymm2,0x20(%rsi)
  40793f:	c5 fe 7f 5e 40       	vmovdqu %ymm3,0x40(%rsi)
  407944:	c4 c1 05 ef a5 20 04 	vpxor  0x420(%r13),%ymm15,%ymm4
  40794b:	00 00 
  40794d:	48 8d 94 24 c0 33 00 	lea    0x33c0(%rsp),%rdx
  407954:	00 
  407955:	48 8d 8c 24 e0 33 00 	lea    0x33e0(%rsp),%rcx
  40795c:	00 
  40795d:	e8 be 1e 00 00       	callq  409820 <sbox__0>
  407962:	c5 fe 6f ac 24 80 33 	vmovdqu 0x3380(%rsp),%ymm5
  407969:	00 00 
  40796b:	48 8d bc 24 00 34 00 	lea    0x3400(%rsp),%rdi
  407972:	00 
  407973:	c5 fe 6f 7f a0       	vmovdqu -0x60(%rdi),%ymm7
  407978:	c5 7e 6f 4f c0       	vmovdqu -0x40(%rdi),%ymm9
  40797d:	c5 7e 6f 5f e0       	vmovdqu -0x20(%rdi),%ymm11
  407982:	c4 c1 55 ef b5 40 07 	vpxor  0x740(%r13),%ymm5,%ymm6
  407989:	00 00 
  40798b:	c4 41 45 ef 85 80 07 	vpxor  0x780(%r13),%ymm7,%ymm8
  407992:	00 00 
  407994:	c4 41 35 ef 95 80 01 	vpxor  0x180(%r13),%ymm9,%ymm10
  40799b:	00 00 
  40799d:	c4 41 25 ef a5 c0 01 	vpxor  0x1c0(%r13),%ymm11,%ymm12
  4079a4:	00 00 
  4079a6:	c4 c1 7e 7f b5 40 07 	vmovdqu %ymm6,0x740(%r13)
  4079ad:	00 00 
  4079af:	c4 41 7e 7f 85 80 07 	vmovdqu %ymm8,0x780(%r13)
  4079b6:	00 00 
  4079b8:	c4 41 7e 7f 95 80 01 	vmovdqu %ymm10,0x180(%r13)
  4079bf:	00 00 
  4079c1:	c4 41 7e 7f a5 c0 01 	vmovdqu %ymm12,0x1c0(%r13)
  4079c8:	00 00 
  4079ca:	c4 41 7e 6f be 20 04 	vmovdqu 0x420(%r14),%ymm15
  4079d1:	00 00 
  4079d3:	48 8d b4 24 20 34 00 	lea    0x3420(%rsp),%rsi
  4079da:	00 
  4079db:	c4 c1 7e 6f a6 00 01 	vmovdqu 0x100(%r14),%ymm4
  4079e2:	00 00 
  4079e4:	c4 41 7e 6f ae 60 04 	vmovdqu 0x460(%r14),%ymm13
  4079eb:	00 00 
  4079ed:	c4 41 7e 6f b6 60 07 	vmovdqu 0x760(%r14),%ymm14
  4079f4:	00 00 
  4079f6:	c4 c1 7e 6f 9e 00 05 	vmovdqu 0x500(%r14),%ymm3
  4079fd:	00 00 
  4079ff:	c4 c1 05 ef 95 20 02 	vpxor  0x220(%r13),%ymm15,%ymm2
  407a06:	00 00 
  407a08:	c4 c1 5d ef ad 60 07 	vpxor  0x760(%r13),%ymm4,%ymm5
  407a0f:	00 00 
  407a11:	c4 c1 15 ef 85 20 04 	vpxor  0x420(%r13),%ymm13,%ymm0
  407a18:	00 00 
  407a1a:	c4 c1 0d ef 8d 20 03 	vpxor  0x320(%r13),%ymm14,%ymm1
  407a21:	00 00 
  407a23:	c4 c1 65 ef 9d 20 01 	vpxor  0x120(%r13),%ymm3,%ymm3
  407a2a:	00 00 
  407a2c:	c4 41 7e 6f be 40 06 	vmovdqu 0x640(%r14),%ymm15
  407a33:	00 00 
  407a35:	c5 fe 7f 46 e0       	vmovdqu %ymm0,-0x20(%rsi)
  407a3a:	c5 fe 7f 0e          	vmovdqu %ymm1,(%rsi)
  407a3e:	c5 fe 7f 56 20       	vmovdqu %ymm2,0x20(%rsi)
  407a43:	c5 fe 7f 5e 40       	vmovdqu %ymm3,0x40(%rsi)
  407a48:	c4 c1 05 ef 65 20    	vpxor  0x20(%r13),%ymm15,%ymm4
  407a4e:	48 8d 94 24 40 34 00 	lea    0x3440(%rsp),%rdx
  407a55:	00 
  407a56:	48 8d 8c 24 60 34 00 	lea    0x3460(%rsp),%rcx
  407a5d:	00 
  407a5e:	e8 0d 1f 00 00       	callq  409970 <sbox__1>
  407a63:	c5 fe 6f ac 24 00 34 	vmovdqu 0x3400(%rsp),%ymm5
  407a6a:	00 00 
  407a6c:	48 8d bc 24 80 34 00 	lea    0x3480(%rsp),%rdi
  407a73:	00 
  407a74:	c5 fe 6f 7f a0       	vmovdqu -0x60(%rdi),%ymm7
  407a79:	c5 7e 6f 4f c0       	vmovdqu -0x40(%rdi),%ymm9
  407a7e:	c5 7e 6f 5f e0       	vmovdqu -0x20(%rdi),%ymm11
  407a83:	c4 c1 55 ef b5 40 03 	vpxor  0x340(%r13),%ymm5,%ymm6
  407a8a:	00 00 
  407a8c:	c4 41 45 ef 85 c0 04 	vpxor  0x4c0(%r13),%ymm7,%ymm8
  407a93:	00 00 
  407a95:	c4 41 35 ef 95 00 06 	vpxor  0x600(%r13),%ymm9,%ymm10
  407a9c:	00 00 
  407a9e:	c4 41 25 ef a5 80 06 	vpxor  0x680(%r13),%ymm11,%ymm12
  407aa5:	00 00 
  407aa7:	c4 c1 7e 7f b5 40 03 	vmovdqu %ymm6,0x340(%r13)
  407aae:	00 00 
  407ab0:	c4 41 7e 7f 85 c0 04 	vmovdqu %ymm8,0x4c0(%r13)
  407ab7:	00 00 
  407ab9:	c4 41 7e 7f 95 00 06 	vmovdqu %ymm10,0x600(%r13)
  407ac0:	00 00 
  407ac2:	c4 41 7e 7f a5 80 06 	vmovdqu %ymm12,0x680(%r13)
  407ac9:	00 00 
  407acb:	c4 41 7e 6f be 20 07 	vmovdqu 0x720(%r14),%ymm15
  407ad2:	00 00 
  407ad4:	48 8d b4 24 a0 34 00 	lea    0x34a0(%rsp),%rsi
  407adb:	00 
  407adc:	c4 c1 7e 6f a6 00 03 	vmovdqu 0x300(%r14),%ymm4
  407ae3:	00 00 
  407ae5:	c4 41 7e 6f ae 40 04 	vmovdqu 0x440(%r14),%ymm13
  407aec:	00 00 
  407aee:	c4 41 7e 6f 76 20    	vmovdqu 0x20(%r14),%ymm14
  407af4:	c4 c1 7e 6f 9e 00 07 	vmovdqu 0x700(%r14),%ymm3
  407afb:	00 00 
  407afd:	c4 c1 05 ef 95 60 06 	vpxor  0x660(%r13),%ymm15,%ymm2
  407b04:	00 00 
  407b06:	c4 c1 5d ef ad 60 03 	vpxor  0x360(%r13),%ymm4,%ymm5
  407b0d:	00 00 
  407b0f:	c4 c1 15 ef 45 20    	vpxor  0x20(%r13),%ymm13,%ymm0
  407b15:	c4 c1 0d ef 8d 60 07 	vpxor  0x760(%r13),%ymm14,%ymm1
  407b1c:	00 00 
  407b1e:	c4 c1 65 ef 9d 60 05 	vpxor  0x560(%r13),%ymm3,%ymm3
  407b25:	00 00 
  407b27:	c4 41 7e 6f be 40 01 	vmovdqu 0x140(%r14),%ymm15
  407b2e:	00 00 
  407b30:	c5 fe 7f 46 e0       	vmovdqu %ymm0,-0x20(%rsi)
  407b35:	c5 fe 7f 0e          	vmovdqu %ymm1,(%rsi)
  407b39:	c5 fe 7f 56 20       	vmovdqu %ymm2,0x20(%rsi)
  407b3e:	c5 fe 7f 5e 40       	vmovdqu %ymm3,0x40(%rsi)
  407b43:	c4 c1 05 ef a5 60 04 	vpxor  0x460(%r13),%ymm15,%ymm4
  407b4a:	00 00 
  407b4c:	48 8d 94 24 c0 34 00 	lea    0x34c0(%rsp),%rdx
  407b53:	00 
  407b54:	48 8d 8c 24 e0 34 00 	lea    0x34e0(%rsp),%rcx
  407b5b:	00 
  407b5c:	e8 1f 1f 00 00       	callq  409a80 <sbox__2>
  407b61:	c5 fe 6f 9c 24 80 34 	vmovdqu 0x3480(%rsp),%ymm3
  407b68:	00 00 
  407b6a:	48 8d bc 24 00 35 00 	lea    0x3500(%rsp),%rdi
  407b71:	00 
  407b72:	c5 7e 6f 6f a0       	vmovdqu -0x60(%rdi),%ymm13
  407b77:	c5 7e 6f 5f c0       	vmovdqu -0x40(%rdi),%ymm11
  407b7c:	c5 7e 6f 4f e0       	vmovdqu -0x20(%rdi),%ymm9
  407b81:	c4 41 65 ef b5 80 00 	vpxor  0x80(%r13),%ymm3,%ymm14
  407b88:	00 00 
  407b8a:	c4 41 15 ef 65 40    	vpxor  0x40(%r13),%ymm13,%ymm12
  407b90:	c4 41 25 ef 95 c0 02 	vpxor  0x2c0(%r13),%ymm11,%ymm10
  407b97:	00 00 
  407b99:	c4 c1 35 ef b5 00 02 	vpxor  0x200(%r13),%ymm9,%ymm6
  407ba0:	00 00 
  407ba2:	c4 41 7e 7f b5 80 00 	vmovdqu %ymm14,0x80(%r13)
  407ba9:	00 00 
  407bab:	c4 41 7e 7f 65 40    	vmovdqu %ymm12,0x40(%r13)
  407bb1:	c4 41 7e 7f 95 c0 02 	vmovdqu %ymm10,0x2c0(%r13)
  407bb8:	00 00 
  407bba:	c4 c1 7e 7f b5 00 02 	vmovdqu %ymm6,0x200(%r13)
  407bc1:	00 00 
  407bc3:	c4 41 7e 6f 6d 60    	vmovdqu 0x60(%r13),%ymm13
  407bc9:	c4 41 7e 6f b5 a0 07 	vmovdqu 0x7a0(%r13),%ymm14
  407bd0:	00 00 
  407bd2:	c4 c1 7e 6f 56 40    	vmovdqu 0x40(%r14),%ymm2
  407bd8:	c4 c1 7e 6f 86 20 03 	vmovdqu 0x320(%r14),%ymm0
  407bdf:	00 00 
  407be1:	c4 c1 7e 6f 8e 00 04 	vmovdqu 0x400(%r14),%ymm1
  407be8:	00 00 
  407bea:	c4 c1 7e 6f 9e 40 07 	vmovdqu 0x740(%r14),%ymm3
  407bf1:	00 00 
  407bf3:	c4 41 6d ef 85 60 02 	vpxor  0x260(%r13),%ymm2,%ymm8
  407bfa:	00 00 
  407bfc:	c4 c1 7d ef a5 60 04 	vpxor  0x460(%r13),%ymm0,%ymm4
  407c03:	00 00 
  407c05:	c4 c1 15 ef 96 20 06 	vpxor  0x620(%r14),%ymm13,%ymm2
  407c0c:	00 00 
  407c0e:	c4 41 75 ef 9d 60 03 	vpxor  0x360(%r13),%ymm1,%ymm11
  407c15:	00 00 
  407c17:	c4 41 65 ef 95 60 01 	vpxor  0x160(%r13),%ymm3,%ymm10
  407c1e:	00 00 
  407c20:	c5 bd eb ec          	vpor   %ymm4,%ymm8,%ymm5
  407c24:	c4 41 0d ef a6 60 05 	vpxor  0x560(%r14),%ymm14,%ymm12
  407c2b:	00 00 
  407c2d:	c4 c1 3d eb fb       	vpor   %ymm11,%ymm8,%ymm7
  407c32:	c5 d5 db c2          	vpand  %ymm2,%ymm5,%ymm0
  407c36:	c5 cd 76 f6          	vpcmpeqd %ymm6,%ymm6,%ymm6
  407c3a:	48 8d b4 24 20 35 00 	lea    0x3520(%rsp),%rsi
  407c41:	00 
  407c42:	c5 4d ef fc          	vpxor  %ymm4,%ymm6,%ymm15
  407c46:	48 8d 94 24 40 35 00 	lea    0x3540(%rsp),%rdx
  407c4d:	00 
  407c4e:	c5 ed db e4          	vpand  %ymm4,%ymm2,%ymm4
  407c52:	c4 c1 4d ef d8       	vpxor  %ymm8,%ymm6,%ymm3
  407c57:	c4 c1 7d ef cf       	vpxor  %ymm15,%ymm0,%ymm1
  407c5c:	c5 d5 ef e4          	vpxor  %ymm4,%ymm5,%ymm4
  407c60:	c5 c5 ef f9          	vpxor  %ymm1,%ymm7,%ymm7
  407c64:	c4 41 5d db fb       	vpand  %ymm11,%ymm4,%ymm15
  407c69:	c5 05 ef ca          	vpxor  %ymm2,%ymm15,%ymm9
  407c6d:	48 8d 8c 24 60 35 00 	lea    0x3560(%rsp),%rcx
  407c74:	00 
  407c75:	c4 41 05 ef c0       	vpxor  %ymm8,%ymm15,%ymm8
  407c7a:	c5 7d ef fb          	vpxor  %ymm3,%ymm0,%ymm15
  407c7e:	c5 e5 ef c2          	vpxor  %ymm2,%ymm3,%ymm0
  407c82:	c4 c1 35 db ea       	vpand  %ymm10,%ymm9,%ymm5
  407c87:	c4 41 35 db cb       	vpand  %ymm11,%ymm9,%ymm9
  407c8c:	c4 c1 05 db db       	vpand  %ymm11,%ymm15,%ymm3
  407c91:	c4 c1 7d eb d3       	vpor   %ymm11,%ymm0,%ymm2
  407c96:	c5 d5 ef ff          	vpxor  %ymm7,%ymm5,%ymm7
  407c9a:	c5 85 db e9          	vpand  %ymm1,%ymm15,%ymm5
  407c9e:	c5 e5 ef e4          	vpxor  %ymm4,%ymm3,%ymm4
  407ca2:	c5 ed ef cd          	vpxor  %ymm5,%ymm2,%ymm1
  407ca6:	c4 c1 75 eb c2       	vpor   %ymm10,%ymm1,%ymm0
  407cab:	c5 fd ef dc          	vpxor  %ymm4,%ymm0,%ymm3
  407caf:	c4 c1 65 db c4       	vpand  %ymm12,%ymm3,%ymm0
  407cb4:	c4 41 65 eb fc       	vpor   %ymm12,%ymm3,%ymm15
  407cb9:	c5 fd ef cf          	vpxor  %ymm7,%ymm0,%ymm1
  407cbd:	c5 cd ef c7          	vpxor  %ymm7,%ymm6,%ymm0
  407cc1:	c4 c1 6d ef f0       	vpxor  %ymm8,%ymm2,%ymm6
  407cc6:	c4 c1 55 ef d1       	vpxor  %ymm9,%ymm5,%ymm2
  407ccb:	c4 41 4d db c2       	vpand  %ymm10,%ymm6,%ymm8
  407cd0:	c5 bd ef e2          	vpxor  %ymm2,%ymm8,%ymm4
  407cd4:	c5 dd ef d8          	vpxor  %ymm0,%ymm4,%ymm3
  407cd8:	c5 85 ef c0          	vpxor  %ymm0,%ymm15,%ymm0
  407cdc:	c4 41 65 db db       	vpand  %ymm11,%ymm3,%ymm11
  407ce1:	c4 41 65 eb d2       	vpor   %ymm10,%ymm3,%ymm10
  407ce6:	c5 a5 ef d1          	vpxor  %ymm1,%ymm11,%ymm2
  407cea:	c4 c1 75 ef 8d 80 04 	vpxor  0x480(%r13),%ymm1,%ymm1
  407cf1:	00 00 
  407cf3:	c5 ad ef da          	vpxor  %ymm2,%ymm10,%ymm3
  407cf7:	c4 c1 7d ef 95 c0 06 	vpxor  0x6c0(%r13),%ymm0,%ymm2
  407cfe:	00 00 
  407d00:	c4 c1 7e 7f 8d 80 04 	vmovdqu %ymm1,0x480(%r13)
  407d07:	00 00 
  407d09:	c4 41 65 db e4       	vpand  %ymm12,%ymm3,%ymm12
  407d0e:	c4 41 65 ef ff       	vpxor  %ymm15,%ymm3,%ymm15
  407d13:	c4 c1 7e 7f 95 c0 06 	vmovdqu %ymm2,0x6c0(%r13)
  407d1a:	00 00 
  407d1c:	c5 9d ef fc          	vpxor  %ymm4,%ymm12,%ymm7
  407d20:	c4 c1 45 ef ef       	vpxor  %ymm15,%ymm7,%ymm5
  407d25:	c4 41 45 ef 85 00 07 	vpxor  0x700(%r13),%ymm7,%ymm8
  407d2c:	00 00 
  407d2e:	c4 c1 55 ef b5 40 06 	vpxor  0x640(%r13),%ymm5,%ymm6
  407d35:	00 00 
  407d37:	c4 41 7e 7f 85 00 07 	vmovdqu %ymm8,0x700(%r13)
  407d3e:	00 00 
  407d40:	c4 c1 7e 7f b5 40 06 	vmovdqu %ymm6,0x640(%r13)
  407d47:	00 00 
  407d49:	c4 c1 15 ef 86 a0 06 	vpxor  0x6a0(%r14),%ymm13,%ymm0
  407d50:	00 00 
  407d52:	c4 c1 0d ef 8e 80 03 	vpxor  0x380(%r14),%ymm14,%ymm1
  407d59:	00 00 
  407d5b:	c4 41 7e 6f ae c0 02 	vmovdqu 0x2c0(%r14),%ymm13
  407d62:	00 00 
  407d64:	c4 c1 7e 6f a6 80 00 	vmovdqu 0x80(%r14),%ymm4
  407d6b:	00 00 
  407d6d:	c4 41 7e 6f 76 60    	vmovdqu 0x60(%r14),%ymm14
  407d73:	c5 fe 7f 42 c0       	vmovdqu %ymm0,-0x40(%rdx)
  407d78:	c5 fe 7f 4a e0       	vmovdqu %ymm1,-0x20(%rdx)
  407d7d:	c4 c1 15 ef 9d a0 05 	vpxor  0x5a0(%r13),%ymm13,%ymm3
  407d84:	00 00 
  407d86:	c4 c1 5d ef ad a0 03 	vpxor  0x3a0(%r13),%ymm4,%ymm5
  407d8d:	00 00 
  407d8f:	c4 c1 0d ef 95 a0 06 	vpxor  0x6a0(%r13),%ymm14,%ymm2
  407d96:	00 00 
  407d98:	c4 41 7e 6f ae a0 00 	vmovdqu 0xa0(%r14),%ymm13
  407d9f:	00 00 
  407da1:	c5 fe 7f 5a 20       	vmovdqu %ymm3,0x20(%rdx)
  407da6:	c5 fe 7f 12          	vmovdqu %ymm2,(%rdx)
  407daa:	c4 c1 15 ef a5 a0 04 	vpxor  0x4a0(%r13),%ymm13,%ymm4
  407db1:	00 00 
  407db3:	e8 e8 1d 00 00       	callq  409ba0 <sbox__4>
  407db8:	c5 fe 6f ac 24 00 35 	vmovdqu 0x3500(%rsp),%ymm5
  407dbf:	00 00 
  407dc1:	48 8d bc 24 80 35 00 	lea    0x3580(%rsp),%rdi
  407dc8:	00 
  407dc9:	c5 fe 6f 7f a0       	vmovdqu -0x60(%rdi),%ymm7
  407dce:	c5 7e 6f 4f c0       	vmovdqu -0x40(%rdi),%ymm9
  407dd3:	c5 7e 6f 5f e0       	vmovdqu -0x20(%rdi),%ymm11
  407dd8:	c4 c1 55 ef 75 00    	vpxor  0x0(%r13),%ymm5,%ymm6
  407dde:	c4 41 45 ef 85 40 02 	vpxor  0x240(%r13),%ymm7,%ymm8
  407de5:	00 00 
  407de7:	c4 41 35 ef 95 c0 07 	vpxor  0x7c0(%r13),%ymm9,%ymm10
  407dee:	00 00 
  407df0:	c4 41 25 ef a5 00 05 	vpxor  0x500(%r13),%ymm11,%ymm12
  407df7:	00 00 
  407df9:	c4 c1 7e 7f 75 00    	vmovdqu %ymm6,0x0(%r13)
  407dff:	c4 41 7e 7f 85 40 02 	vmovdqu %ymm8,0x240(%r13)
  407e06:	00 00 
  407e08:	c4 41 7e 7f 95 c0 07 	vmovdqu %ymm10,0x7c0(%r13)
  407e0f:	00 00 
  407e11:	c4 41 7e 7f a5 00 05 	vmovdqu %ymm12,0x500(%r13)
  407e18:	00 00 
  407e1a:	c4 41 7e 6f be 80 04 	vmovdqu 0x480(%r14),%ymm15
  407e21:	00 00 
  407e23:	48 8d b4 24 a0 35 00 	lea    0x35a0(%rsp),%rsi
  407e2a:	00 
  407e2b:	c4 c1 7e 6f a6 80 07 	vmovdqu 0x780(%r14),%ymm4
  407e32:	00 00 
  407e34:	c4 41 7e 6f b6 a0 07 	vmovdqu 0x7a0(%r14),%ymm14
  407e3b:	00 00 
  407e3d:	c4 41 7e 6f ae 60 01 	vmovdqu 0x160(%r14),%ymm13
  407e44:	00 00 
  407e46:	c4 c1 7e 6f 9e a0 02 	vmovdqu 0x2a0(%r14),%ymm3
  407e4d:	00 00 
  407e4f:	c4 c1 05 ef 95 a0 02 	vpxor  0x2a0(%r13),%ymm15,%ymm2
  407e56:	00 00 
  407e58:	c4 c1 5d ef ad e0 07 	vpxor  0x7e0(%r13),%ymm4,%ymm5
  407e5f:	00 00 
  407e61:	c4 c1 15 ef 85 a0 04 	vpxor  0x4a0(%r13),%ymm13,%ymm0
  407e68:	00 00 
  407e6a:	c4 c1 0d ef 8d a0 03 	vpxor  0x3a0(%r13),%ymm14,%ymm1
  407e71:	00 00 
  407e73:	c4 c1 65 ef 9d a0 01 	vpxor  0x1a0(%r13),%ymm3,%ymm3
  407e7a:	00 00 
  407e7c:	c4 41 7e 6f be c0 06 	vmovdqu 0x6c0(%r14),%ymm15
  407e83:	00 00 
  407e85:	c5 fe 7f 46 e0       	vmovdqu %ymm0,-0x20(%rsi)
  407e8a:	c5 fe 7f 0e          	vmovdqu %ymm1,(%rsi)
  407e8e:	c5 fe 7f 56 20       	vmovdqu %ymm2,0x20(%rsi)
  407e93:	c5 fe 7f 5e 40       	vmovdqu %ymm3,0x40(%rsi)
  407e98:	c4 c1 05 ef a5 a0 00 	vpxor  0xa0(%r13),%ymm15,%ymm4
  407e9f:	00 00 
  407ea1:	48 8d 94 24 c0 35 00 	lea    0x35c0(%rsp),%rdx
  407ea8:	00 
  407ea9:	48 8d 8c 24 e0 35 00 	lea    0x35e0(%rsp),%rcx
  407eb0:	00 
  407eb1:	e8 3a 1e 00 00       	callq  409cf0 <sbox__5>
  407eb6:	c5 fe 6f ac 24 80 35 	vmovdqu 0x3580(%rsp),%ymm5
  407ebd:	00 00 
  407ebf:	48 8d bc 24 00 36 00 	lea    0x3600(%rsp),%rdi
  407ec6:	00 
  407ec7:	c5 fe 6f 7f a0       	vmovdqu -0x60(%rdi),%ymm7
  407ecc:	c5 7e 6f 4f c0       	vmovdqu -0x40(%rdi),%ymm9
  407ed1:	c5 7e 6f 5f e0       	vmovdqu -0x20(%rdi),%ymm11
  407ed6:	c4 c1 55 ef b5 00 04 	vpxor  0x400(%r13),%ymm5,%ymm6
  407edd:	00 00 
  407edf:	c4 41 45 ef 85 c0 03 	vpxor  0x3c0(%r13),%ymm7,%ymm8
  407ee6:	00 00 
  407ee8:	c4 41 35 ef 95 40 05 	vpxor  0x540(%r13),%ymm9,%ymm10
  407eef:	00 00 
  407ef1:	c4 41 25 ef a5 80 05 	vpxor  0x580(%r13),%ymm11,%ymm12
  407ef8:	00 00 
  407efa:	c4 c1 7e 7f b5 00 04 	vmovdqu %ymm6,0x400(%r13)
  407f01:	00 00 
  407f03:	c4 41 7e 7f 85 c0 03 	vmovdqu %ymm8,0x3c0(%r13)
  407f0a:	00 00 
  407f0c:	c4 41 7e 7f 95 40 05 	vmovdqu %ymm10,0x540(%r13)
  407f13:	00 00 
  407f15:	c4 41 7e 7f a5 80 05 	vmovdqu %ymm12,0x580(%r13)
  407f1c:	00 00 
  407f1e:	c4 41 7e 6f be c0 00 	vmovdqu 0xc0(%r14),%ymm15
  407f25:	00 00 
  407f27:	48 8d b4 24 20 36 00 	lea    0x3620(%rsp),%rsi
  407f2e:	00 
  407f2f:	c4 c1 7e 6f a6 80 02 	vmovdqu 0x280(%r14),%ymm4
  407f36:	00 00 
  407f38:	c4 41 7e 6f ae a0 03 	vmovdqu 0x3a0(%r14),%ymm13
  407f3f:	00 00 
  407f41:	c4 c1 7e 6f 9e 60 03 	vmovdqu 0x360(%r14),%ymm3
  407f48:	00 00 
  407f4a:	c4 41 7e 6f b6 80 06 	vmovdqu 0x680(%r14),%ymm14
  407f51:	00 00 
  407f53:	c4 c1 05 ef 95 e0 06 	vpxor  0x6e0(%r13),%ymm15,%ymm2
  407f5a:	00 00 
  407f5c:	c4 c1 5d ef ad e0 03 	vpxor  0x3e0(%r13),%ymm4,%ymm5
  407f63:	00 00 
  407f65:	c4 c1 15 ef 85 a0 00 	vpxor  0xa0(%r13),%ymm13,%ymm0
  407f6c:	00 00 
  407f6e:	c4 c1 0d ef 8d e0 07 	vpxor  0x7e0(%r13),%ymm14,%ymm1
  407f75:	00 00 
  407f77:	c4 c1 65 ef 9d e0 05 	vpxor  0x5e0(%r13),%ymm3,%ymm3
  407f7e:	00 00 
  407f80:	c4 41 7e 6f be c0 05 	vmovdqu 0x5c0(%r14),%ymm15
  407f87:	00 00 
  407f89:	c5 fe 7f 46 e0       	vmovdqu %ymm0,-0x20(%rsi)
  407f8e:	c5 fe 7f 0e          	vmovdqu %ymm1,(%rsi)
  407f92:	c5 fe 7f 56 20       	vmovdqu %ymm2,0x20(%rsi)
  407f97:	c5 fe 7f 5e 40       	vmovdqu %ymm3,0x40(%rsi)
  407f9c:	c4 c1 05 ef a5 e0 04 	vpxor  0x4e0(%r13),%ymm15,%ymm4
  407fa3:	00 00 
  407fa5:	48 8d 94 24 40 36 00 	lea    0x3640(%rsp),%rdx
  407fac:	00 
  407fad:	48 8d 8c 24 60 36 00 	lea    0x3660(%rsp),%rcx
  407fb4:	00 
  407fb5:	e8 66 1e 00 00       	callq  409e20 <sbox__6>
  407fba:	c5 fe 6f ac 24 00 36 	vmovdqu 0x3600(%rsp),%ymm5
  407fc1:	00 00 
  407fc3:	48 8d bc 24 80 36 00 	lea    0x3680(%rsp),%rdi
  407fca:	00 
  407fcb:	c5 fe 6f 7f a0       	vmovdqu -0x60(%rdi),%ymm7
  407fd0:	c5 7e 6f 4f c0       	vmovdqu -0x40(%rdi),%ymm9
  407fd5:	c5 7e 6f 5f e0       	vmovdqu -0x20(%rdi),%ymm11
  407fda:	c4 c1 55 ef b5 c0 00 	vpxor  0xc0(%r13),%ymm5,%ymm6
  407fe1:	00 00 
  407fe3:	c4 41 45 ef 85 40 04 	vpxor  0x440(%r13),%ymm7,%ymm8
  407fea:	00 00 
  407fec:	c4 41 35 ef 95 80 02 	vpxor  0x280(%r13),%ymm9,%ymm10
  407ff3:	00 00 
  407ff5:	c4 41 25 ef a5 00 01 	vpxor  0x100(%r13),%ymm11,%ymm12
  407ffc:	00 00 
  407ffe:	c4 c1 7e 7f b5 c0 00 	vmovdqu %ymm6,0xc0(%r13)
  408005:	00 00 
  408007:	c4 41 7e 7f 85 40 04 	vmovdqu %ymm8,0x440(%r13)
  40800e:	00 00 
  408010:	c4 41 7e 7f 95 80 02 	vmovdqu %ymm10,0x280(%r13)
  408017:	00 00 
  408019:	c4 41 7e 7f a5 00 01 	vmovdqu %ymm12,0x100(%r13)
  408020:	00 00 
  408022:	c4 41 7e 6f be 80 05 	vmovdqu 0x580(%r14),%ymm15
  408029:	00 00 
  40802b:	48 8d b4 24 a0 36 00 	lea    0x36a0(%rsp),%rsi
  408032:	00 
  408033:	c4 c1 7e 6f a6 c0 07 	vmovdqu 0x7c0(%r14),%ymm4
  40803a:	00 00 
  40803c:	c4 41 7e 6f ae a0 01 	vmovdqu 0x1a0(%r14),%ymm13
  408043:	00 00 
  408045:	c4 41 7e 6f b6 a0 05 	vmovdqu 0x5a0(%r14),%ymm14
  40804c:	00 00 
  40804e:	c4 c1 7e 6f 9e c0 03 	vmovdqu 0x3c0(%r14),%ymm3
  408055:	00 00 
  408057:	c4 c1 05 ef 95 e0 02 	vpxor  0x2e0(%r13),%ymm15,%ymm2
  40805e:	00 00 
  408060:	c4 c1 5d ef ad 20 07 	vpxor  0x720(%r13),%ymm4,%ymm5
  408067:	00 00 
  408069:	c4 c1 15 ef 85 e0 04 	vpxor  0x4e0(%r13),%ymm13,%ymm0
  408070:	00 00 
  408072:	c4 c1 0d ef 8d e0 03 	vpxor  0x3e0(%r13),%ymm14,%ymm1
  408079:	00 00 
  40807b:	c4 c1 65 ef 9d e0 01 	vpxor  0x1e0(%r13),%ymm3,%ymm3
  408082:	00 00 
  408084:	c4 41 7e 6f be 60 02 	vmovdqu 0x260(%r14),%ymm15
  40808b:	00 00 
  40808d:	c5 fe 7f 46 e0       	vmovdqu %ymm0,-0x20(%rsi)
  408092:	c5 fe 7f 0e          	vmovdqu %ymm1,(%rsi)
  408096:	c5 fe 7f 56 20       	vmovdqu %ymm2,0x20(%rsi)
  40809b:	c5 fe 7f 5e 40       	vmovdqu %ymm3,0x40(%rsi)
  4080a0:	c4 c1 05 ef a5 e0 00 	vpxor  0xe0(%r13),%ymm15,%ymm4
  4080a7:	00 00 
  4080a9:	48 8d 94 24 c0 36 00 	lea    0x36c0(%rsp),%rdx
  4080b0:	00 
  4080b1:	48 8d 8c 24 e0 36 00 	lea    0x36e0(%rsp),%rcx
  4080b8:	00 
  4080b9:	e8 82 1e 00 00       	callq  409f40 <sbox__7>
  4080be:	c5 fe 6f ac 24 80 36 	vmovdqu 0x3680(%rsp),%ymm5
  4080c5:	00 00 
  4080c7:	48 8d bc 24 00 37 00 	lea    0x3700(%rsp),%rdi
  4080ce:	00 
  4080cf:	c5 fe 6f 77 a0       	vmovdqu -0x60(%rdi),%ymm6
  4080d4:	c5 7e 6f 47 c0       	vmovdqu -0x40(%rdi),%ymm8
  4080d9:	c5 7e 6f 57 e0       	vmovdqu -0x20(%rdi),%ymm10
  4080de:	c4 c1 55 ef a5 00 03 	vpxor  0x300(%r13),%ymm5,%ymm4
  4080e5:	00 00 
  4080e7:	c4 c1 4d ef bd c0 05 	vpxor  0x5c0(%r13),%ymm6,%ymm7
  4080ee:	00 00 
  4080f0:	c4 41 3d ef 8d 40 01 	vpxor  0x140(%r13),%ymm8,%ymm9
  4080f7:	00 00 
  4080f9:	c4 41 2d ef 9d 80 03 	vpxor  0x380(%r13),%ymm10,%ymm11
  408100:	00 00 
  408102:	c4 c1 7e 7f a5 00 03 	vmovdqu %ymm4,0x300(%r13)
  408109:	00 00 
  40810b:	c4 c1 7e 7f bd c0 05 	vmovdqu %ymm7,0x5c0(%r13)
  408112:	00 00 
  408114:	c4 41 7e 7f 8d 40 01 	vmovdqu %ymm9,0x140(%r13)
  40811b:	00 00 
  40811d:	c4 41 7e 7f 9d 80 03 	vmovdqu %ymm11,0x380(%r13)
  408124:	00 00 
  408126:	c4 41 7e 6f be 40 01 	vmovdqu 0x140(%r14),%ymm15
  40812d:	00 00 
  40812f:	48 8d b4 24 20 37 00 	lea    0x3720(%rsp),%rsi
  408136:	00 
  408137:	c4 41 7e 6f a6 20 03 	vmovdqu 0x320(%r14),%ymm12
  40813e:	00 00 
  408140:	c4 41 7e 6f 6e 20    	vmovdqu 0x20(%r14),%ymm13
  408146:	c4 41 7e 6f b6 20 06 	vmovdqu 0x620(%r14),%ymm14
  40814d:	00 00 
  40814f:	c4 c1 05 ef 9d 00 05 	vpxor  0x500(%r13),%ymm15,%ymm3
  408156:	00 00 
  408158:	c4 c1 5d ef ae 00 04 	vpxor  0x400(%r14),%ymm4,%ymm5
  40815f:	00 00 
  408161:	c4 c1 1d ef 85 c0 00 	vpxor  0xc0(%r13),%ymm12,%ymm0
  408168:	00 00 
  40816a:	c4 c1 15 ef 8d 00 07 	vpxor  0x700(%r13),%ymm13,%ymm1
  408171:	00 00 
  408173:	c4 c1 0d ef 95 00 06 	vpxor  0x600(%r13),%ymm14,%ymm2
  40817a:	00 00 
  40817c:	c4 41 7e 6f be 60 04 	vmovdqu 0x460(%r14),%ymm15
  408183:	00 00 
  408185:	c5 fe 7f 46 e0       	vmovdqu %ymm0,-0x20(%rsi)
  40818a:	c5 fe 7f 0e          	vmovdqu %ymm1,(%rsi)
  40818e:	c5 fe 7f 56 20       	vmovdqu %ymm2,0x20(%rsi)
  408193:	c5 fe 7f 5e 40       	vmovdqu %ymm3,0x40(%rsi)
  408198:	c4 c1 05 ef a5 00 04 	vpxor  0x400(%r13),%ymm15,%ymm4
  40819f:	00 00 
  4081a1:	48 8d 94 24 40 37 00 	lea    0x3740(%rsp),%rdx
  4081a8:	00 
  4081a9:	48 8d 8c 24 60 37 00 	lea    0x3760(%rsp),%rcx
  4081b0:	00 
  4081b1:	e8 6a 16 00 00       	callq  409820 <sbox__0>
  4081b6:	c5 fe 6f ac 24 00 37 	vmovdqu 0x3700(%rsp),%ymm5
  4081bd:	00 00 
  4081bf:	48 8d b4 24 80 37 00 	lea    0x3780(%rsp),%rsi
  4081c6:	00 
  4081c7:	c5 fe 6f 7e a0       	vmovdqu -0x60(%rsi),%ymm7
  4081cc:	c5 7e 6f 4e c0       	vmovdqu -0x40(%rsi),%ymm9
  4081d1:	c5 7e 6f 5e e0       	vmovdqu -0x20(%rsi),%ymm11
  4081d6:	c4 c1 55 ef b5 60 07 	vpxor  0x760(%r13),%ymm5,%ymm6
  4081dd:	00 00 
  4081df:	c4 41 45 ef 85 a0 07 	vpxor  0x7a0(%r13),%ymm7,%ymm8
  4081e6:	00 00 
  4081e8:	c4 41 35 ef 95 a0 01 	vpxor  0x1a0(%r13),%ymm9,%ymm10
  4081ef:	00 00 
  4081f1:	c4 41 25 ef a5 e0 01 	vpxor  0x1e0(%r13),%ymm11,%ymm12
  4081f8:	00 00 
  4081fa:	c4 c1 7e 7f b5 60 07 	vmovdqu %ymm6,0x760(%r13)
  408201:	00 00 
  408203:	c4 41 7e 7f 85 a0 07 	vmovdqu %ymm8,0x7a0(%r13)
  40820a:	00 00 
  40820c:	c4 41 7e 7f 95 a0 01 	vmovdqu %ymm10,0x1a0(%r13)
  408213:	00 00 
  408215:	c4 41 7e 7f a5 e0 01 	vmovdqu %ymm12,0x1e0(%r13)
  40821c:	00 00 
  40821e:	c4 41 7e 6f be 20 02 	vmovdqu 0x220(%r14),%ymm15
  408225:	00 00 
  408227:	48 8d 94 24 a0 37 00 	lea    0x37a0(%rsp),%rdx
  40822e:	00 
  40822f:	c4 41 7e 6f ae 00 06 	vmovdqu 0x600(%r14),%ymm13
  408236:	00 00 
  408238:	c4 41 7e 6f b6 60 05 	vmovdqu 0x560(%r14),%ymm14
  40823f:	00 00 
  408241:	c4 c1 7e 6f 9e 00 03 	vmovdqu 0x300(%r14),%ymm3
  408248:	00 00 
  40824a:	c4 c1 7e 6f a6 40 04 	vmovdqu 0x440(%r14),%ymm4
  408251:	00 00 
  408253:	c4 c1 05 ef 95 00 02 	vpxor  0x200(%r13),%ymm15,%ymm2
  40825a:	00 00 
  40825c:	c4 c1 15 ef 85 00 04 	vpxor  0x400(%r13),%ymm13,%ymm0
  408263:	00 00 
  408265:	c4 c1 0d ef 8d 00 03 	vpxor  0x300(%r13),%ymm14,%ymm1
  40826c:	00 00 
  40826e:	c4 c1 65 ef 9d 00 01 	vpxor  0x100(%r13),%ymm3,%ymm3
  408275:	00 00 
  408277:	c4 c1 5d ef 65 00    	vpxor  0x0(%r13),%ymm4,%ymm4
  40827d:	c4 41 7e 6f be 20 07 	vmovdqu 0x720(%r14),%ymm15
  408284:	00 00 
  408286:	c5 fe 7f 42 e0       	vmovdqu %ymm0,-0x20(%rdx)
  40828b:	c5 fe 7f 0a          	vmovdqu %ymm1,(%rdx)
  40828f:	c5 fe 7f 52 20       	vmovdqu %ymm2,0x20(%rdx)
  408294:	c4 c1 05 ef ad 40 07 	vpxor  0x740(%r13),%ymm15,%ymm5
  40829b:	00 00 
  40829d:	48 8b 7a 40          	mov    0x40(%rdx),%rdi
  4082a1:	48 8d 8c 24 c0 37 00 	lea    0x37c0(%rsp),%rcx
  4082a8:	00 
  4082a9:	c4 c1 7e 7f ae 20 07 	vmovdqu %ymm5,0x720(%r14)
  4082b0:	00 00 
  4082b2:	e8 b9 16 00 00       	callq  409970 <sbox__1>
  4082b7:	c4 c1 7e 6f ae 20 07 	vmovdqu 0x720(%r14),%ymm5
  4082be:	00 00 
  4082c0:	4c 89 e6             	mov    %r12,%rsi
  4082c3:	c5 fe 6f bc 24 80 37 	vmovdqu 0x3780(%rsp),%ymm7
  4082ca:	00 00 
  4082cc:	c5 7e 6f 8c 24 a0 37 	vmovdqu 0x37a0(%rsp),%ymm9
  4082d3:	00 00 
  4082d5:	c5 7e 6f 9c 24 c0 37 	vmovdqu 0x37c0(%rsp),%ymm11
  4082dc:	00 00 
  4082de:	c4 c1 55 ef b5 60 03 	vpxor  0x360(%r13),%ymm5,%ymm6
  4082e5:	00 00 
  4082e7:	c4 c1 7e 7f b6 20 07 	vmovdqu %ymm6,0x720(%r14)
  4082ee:	00 00 
  4082f0:	48 8d 8c 24 e0 37 00 	lea    0x37e0(%rsp),%rcx
  4082f7:	00 
  4082f8:	c4 41 45 ef 85 e0 04 	vpxor  0x4e0(%r13),%ymm7,%ymm8
  4082ff:	00 00 
  408301:	c4 41 35 ef 95 20 06 	vpxor  0x620(%r13),%ymm9,%ymm10
  408308:	00 00 
  40830a:	c4 41 25 ef a5 a0 06 	vpxor  0x6a0(%r13),%ymm11,%ymm12
  408311:	00 00 
  408313:	c4 41 7e 7f 85 e0 04 	vmovdqu %ymm8,0x4e0(%r13)
  40831a:	00 00 
  40831c:	c4 41 7e 7f 95 20 06 	vmovdqu %ymm10,0x620(%r13)
  408323:	00 00 
  408325:	c4 41 7e 7f a5 a0 06 	vmovdqu %ymm12,0x6a0(%r13)
  40832c:	00 00 
  40832e:	c4 41 7e 6f ae 40 02 	vmovdqu 0x240(%r14),%ymm13
  408335:	00 00 
  408337:	c4 41 7e 6f b6 40 06 	vmovdqu 0x640(%r14),%ymm14
  40833e:	00 00 
  408340:	c4 c1 7e 6f a6 60 07 	vmovdqu 0x760(%r14),%ymm4
  408347:	00 00 
  408349:	c4 41 7e 6f be 20 05 	vmovdqu 0x520(%r14),%ymm15
  408350:	00 00 
  408352:	c4 c1 7e 6f 9e 00 05 	vmovdqu 0x500(%r14),%ymm3
  408359:	00 00 
  40835b:	c4 c1 15 ef 45 00    	vpxor  0x0(%r13),%ymm13,%ymm0
  408361:	c4 c1 7e 7f 86 40 02 	vmovdqu %ymm0,0x240(%r14)
  408368:	00 00 
  40836a:	c4 c1 0d ef 8d 40 07 	vpxor  0x740(%r13),%ymm14,%ymm1
  408371:	00 00 
  408373:	c4 c1 7e 7f 8e 40 06 	vmovdqu %ymm1,0x640(%r14)
  40837a:	00 00 
  40837c:	c4 c1 5d ef a5 40 04 	vpxor  0x440(%r13),%ymm4,%ymm4
  408383:	00 00 
  408385:	c4 c1 05 ef 95 40 06 	vpxor  0x640(%r13),%ymm15,%ymm2
  40838c:	00 00 
  40838e:	c4 c1 65 ef 9d 40 05 	vpxor  0x540(%r13),%ymm3,%ymm3
  408395:	00 00 
  408397:	c4 41 7e 6f be 00 01 	vmovdqu 0x100(%r14),%ymm15
  40839e:	00 00 
  4083a0:	c4 c1 7e 7f a6 60 07 	vmovdqu %ymm4,0x760(%r14)
  4083a7:	00 00 
  4083a9:	c5 fe 7f 11          	vmovdqu %ymm2,(%rcx)
  4083ad:	c4 c1 05 ef ad 40 03 	vpxor  0x340(%r13),%ymm15,%ymm5
  4083b4:	00 00 
  4083b6:	48 8b 79 20          	mov    0x20(%rcx),%rdi
  4083ba:	48 8b 51 28          	mov    0x28(%rcx),%rdx
  4083be:	e8 bd 16 00 00       	callq  409a80 <sbox__2>
  4083c3:	c4 c1 7e 6f 9e 40 02 	vmovdqu 0x240(%r14),%ymm3
  4083ca:	00 00 
  4083cc:	48 8d b4 24 00 38 00 	lea    0x3800(%rsp),%rsi
  4083d3:	00 
  4083d4:	c4 41 7e 6f ae 40 06 	vmovdqu 0x640(%r14),%ymm13
  4083db:	00 00 
  4083dd:	c4 41 7e 6f 9e 60 07 	vmovdqu 0x760(%r14),%ymm11
  4083e4:	00 00 
  4083e6:	c5 7e 6f 4e e0       	vmovdqu -0x20(%rsi),%ymm9
  4083eb:	c4 41 65 ef b5 a0 00 	vpxor  0xa0(%r13),%ymm3,%ymm14
  4083f2:	00 00 
  4083f4:	c4 41 7e 7f b6 40 02 	vmovdqu %ymm14,0x240(%r14)
  4083fb:	00 00 
  4083fd:	48 8d 94 24 20 38 00 	lea    0x3820(%rsp),%rdx
  408404:	00 
  408405:	c4 41 15 ef 65 60    	vpxor  0x60(%r13),%ymm13,%ymm12
  40840b:	48 8d 8c 24 40 38 00 	lea    0x3840(%rsp),%rcx
  408412:	00 
  408413:	c4 41 7e 7f a6 40 06 	vmovdqu %ymm12,0x640(%r14)
  40841a:	00 00 
  40841c:	c4 41 25 ef 95 e0 02 	vpxor  0x2e0(%r13),%ymm11,%ymm10
  408423:	00 00 
  408425:	c4 41 7e 7f 96 60 07 	vmovdqu %ymm10,0x760(%r14)
  40842c:	00 00 
  40842e:	c4 c1 35 ef b5 20 02 	vpxor  0x220(%r13),%ymm9,%ymm6
  408435:	00 00 
  408437:	c4 41 7e 6f 6d 40    	vmovdqu 0x40(%r13),%ymm13
  40843d:	c4 41 7e 6f b5 80 07 	vmovdqu 0x780(%r13),%ymm14
  408444:	00 00 
  408446:	c4 c1 7e 7f b5 20 02 	vmovdqu %ymm6,0x220(%r13)
  40844d:	00 00 
  40844f:	c4 c1 7e 6f 96 60 06 	vmovdqu 0x660(%r14),%ymm2
  408456:	00 00 
  408458:	c4 c1 7e 6f 86 20 01 	vmovdqu 0x120(%r14),%ymm0
  40845f:	00 00 
  408461:	c4 c1 7e 6f 8e 00 02 	vmovdqu 0x200(%r14),%ymm1
  408468:	00 00 
  40846a:	c4 c1 7e 6f 9e 40 05 	vmovdqu 0x540(%r14),%ymm3
  408471:	00 00 
  408473:	c4 41 6d ef 85 40 02 	vpxor  0x240(%r13),%ymm2,%ymm8
  40847a:	00 00 
  40847c:	c4 c1 7d ef a5 40 04 	vpxor  0x440(%r13),%ymm0,%ymm4
  408483:	00 00 
  408485:	c4 c1 15 ef 96 20 04 	vpxor  0x420(%r14),%ymm13,%ymm2
  40848c:	00 00 
  40848e:	c4 41 75 ef 9d 40 03 	vpxor  0x340(%r13),%ymm1,%ymm11
  408495:	00 00 
  408497:	c4 41 65 ef 95 40 01 	vpxor  0x140(%r13),%ymm3,%ymm10
  40849e:	00 00 
  4084a0:	c5 bd eb ec          	vpor   %ymm4,%ymm8,%ymm5
  4084a4:	c4 41 0d ef a6 00 07 	vpxor  0x700(%r14),%ymm14,%ymm12
  4084ab:	00 00 
  4084ad:	c4 c1 3d eb fb       	vpor   %ymm11,%ymm8,%ymm7
  4084b2:	c5 d5 db c2          	vpand  %ymm2,%ymm5,%ymm0
  4084b6:	c5 cd 76 f6          	vpcmpeqd %ymm6,%ymm6,%ymm6
  4084ba:	c5 4d ef fc          	vpxor  %ymm4,%ymm6,%ymm15
  4084be:	c5 ed db e4          	vpand  %ymm4,%ymm2,%ymm4
  4084c2:	c4 c1 4d ef d8       	vpxor  %ymm8,%ymm6,%ymm3
  4084c7:	c4 c1 7d ef cf       	vpxor  %ymm15,%ymm0,%ymm1
  4084cc:	c5 d5 ef e4          	vpxor  %ymm4,%ymm5,%ymm4
  4084d0:	c5 c5 ef f9          	vpxor  %ymm1,%ymm7,%ymm7
  4084d4:	c4 41 5d db fb       	vpand  %ymm11,%ymm4,%ymm15
  4084d9:	c5 05 ef ca          	vpxor  %ymm2,%ymm15,%ymm9
  4084dd:	c4 41 05 ef c0       	vpxor  %ymm8,%ymm15,%ymm8
  4084e2:	c5 7d ef fb          	vpxor  %ymm3,%ymm0,%ymm15
  4084e6:	c5 e5 ef c2          	vpxor  %ymm2,%ymm3,%ymm0
  4084ea:	c4 c1 35 db ea       	vpand  %ymm10,%ymm9,%ymm5
  4084ef:	c4 41 35 db cb       	vpand  %ymm11,%ymm9,%ymm9
  4084f4:	c4 c1 05 db db       	vpand  %ymm11,%ymm15,%ymm3
  4084f9:	c4 c1 7d eb d3       	vpor   %ymm11,%ymm0,%ymm2
  4084fe:	c5 d5 ef ff          	vpxor  %ymm7,%ymm5,%ymm7
  408502:	c5 85 db e9          	vpand  %ymm1,%ymm15,%ymm5
  408506:	c5 e5 ef e4          	vpxor  %ymm4,%ymm3,%ymm4
  40850a:	c5 ed ef cd          	vpxor  %ymm5,%ymm2,%ymm1
  40850e:	c4 c1 75 eb c2       	vpor   %ymm10,%ymm1,%ymm0
  408513:	c5 fd ef dc          	vpxor  %ymm4,%ymm0,%ymm3
  408517:	c4 c1 65 db c4       	vpand  %ymm12,%ymm3,%ymm0
  40851c:	c4 41 65 eb fc       	vpor   %ymm12,%ymm3,%ymm15
  408521:	c5 fd ef cf          	vpxor  %ymm7,%ymm0,%ymm1
  408525:	c5 cd ef c7          	vpxor  %ymm7,%ymm6,%ymm0
  408529:	c4 c1 6d ef f0       	vpxor  %ymm8,%ymm2,%ymm6
  40852e:	c4 c1 55 ef d1       	vpxor  %ymm9,%ymm5,%ymm2
  408533:	c4 41 4d db c2       	vpand  %ymm10,%ymm6,%ymm8
  408538:	c5 bd ef e2          	vpxor  %ymm2,%ymm8,%ymm4
  40853c:	c5 dd ef d8          	vpxor  %ymm0,%ymm4,%ymm3
  408540:	c5 85 ef c0          	vpxor  %ymm0,%ymm15,%ymm0
  408544:	c4 41 65 db db       	vpand  %ymm11,%ymm3,%ymm11
  408549:	c4 41 65 eb d2       	vpor   %ymm10,%ymm3,%ymm10
  40854e:	c5 a5 ef d1          	vpxor  %ymm1,%ymm11,%ymm2
  408552:	c4 c1 75 ef 8d a0 04 	vpxor  0x4a0(%r13),%ymm1,%ymm1
  408559:	00 00 
  40855b:	c5 ad ef da          	vpxor  %ymm2,%ymm10,%ymm3
  40855f:	c4 c1 7d ef 95 e0 06 	vpxor  0x6e0(%r13),%ymm0,%ymm2
  408566:	00 00 
  408568:	c4 c1 7e 7f 8d a0 04 	vmovdqu %ymm1,0x4a0(%r13)
  40856f:	00 00 
  408571:	c4 41 65 db e4       	vpand  %ymm12,%ymm3,%ymm12
  408576:	c4 41 65 ef ff       	vpxor  %ymm15,%ymm3,%ymm15
  40857b:	c4 c1 7e 7f 95 e0 06 	vmovdqu %ymm2,0x6e0(%r13)
  408582:	00 00 
  408584:	c5 9d ef fc          	vpxor  %ymm4,%ymm12,%ymm7
  408588:	c4 c1 45 ef ef       	vpxor  %ymm15,%ymm7,%ymm5
  40858d:	c4 41 45 ef 85 20 07 	vpxor  0x720(%r13),%ymm7,%ymm8
  408594:	00 00 
  408596:	c4 c1 55 ef b5 60 06 	vpxor  0x660(%r13),%ymm5,%ymm6
  40859d:	00 00 
  40859f:	c4 41 7e 7f 85 20 07 	vmovdqu %ymm8,0x720(%r13)
  4085a6:	00 00 
  4085a8:	c4 c1 7e 7f b5 60 06 	vmovdqu %ymm6,0x660(%r13)
  4085af:	00 00 
  4085b1:	c4 c1 15 ef 86 a0 04 	vpxor  0x4a0(%r14),%ymm13,%ymm0
  4085b8:	00 00 
  4085ba:	c4 c1 0d ef 8e 80 01 	vpxor  0x180(%r14),%ymm14,%ymm1
  4085c1:	00 00 
  4085c3:	c4 41 7e 6f ae c0 00 	vmovdqu 0xc0(%r14),%ymm13
  4085ca:	00 00 
  4085cc:	c4 41 7e 6f b6 c0 06 	vmovdqu 0x6c0(%r14),%ymm14
  4085d3:	00 00 
  4085d5:	c4 c1 7e 6f a6 80 06 	vmovdqu 0x680(%r14),%ymm4
  4085dc:	00 00 
  4085de:	c5 fe 7f 42 e0       	vmovdqu %ymm0,-0x20(%rdx)
  4085e3:	c5 fe 7f 0a          	vmovdqu %ymm1,(%rdx)
  4085e7:	c4 c1 15 ef 9d 80 05 	vpxor  0x580(%r13),%ymm13,%ymm3
  4085ee:	00 00 
  4085f0:	c4 c1 0d ef 95 80 06 	vpxor  0x680(%r13),%ymm14,%ymm2
  4085f7:	00 00 
  4085f9:	c4 c1 5d ef a5 80 04 	vpxor  0x480(%r13),%ymm4,%ymm4
  408600:	00 00 
  408602:	c4 41 7e 6f ae 60 02 	vmovdqu 0x260(%r14),%ymm13
  408609:	00 00 
  40860b:	c5 fe 7f 52 20       	vmovdqu %ymm2,0x20(%rdx)
  408610:	c4 c1 15 ef ad 80 03 	vpxor  0x380(%r13),%ymm13,%ymm5
  408617:	00 00 
  408619:	48 8b 7a 40          	mov    0x40(%rdx),%rdi
  40861d:	c4 c1 7e 7f ae 60 02 	vmovdqu %ymm5,0x260(%r14)
  408624:	00 00 
  408626:	e8 75 15 00 00       	callq  409ba0 <sbox__4>
  40862b:	c4 c1 7e 6f ae 60 02 	vmovdqu 0x260(%r14),%ymm5
  408632:	00 00 
  408634:	48 8d bc 24 60 38 00 	lea    0x3860(%rsp),%rdi
  40863b:	00 
  40863c:	c5 fe 6f 7f a0       	vmovdqu -0x60(%rdi),%ymm7
  408641:	c5 7e 6f 4f c0       	vmovdqu -0x40(%rdi),%ymm9
  408646:	c5 7e 6f 5f e0       	vmovdqu -0x20(%rdi),%ymm11
  40864b:	c4 c1 55 ef 75 20    	vpxor  0x20(%r13),%ymm5,%ymm6
  408651:	c4 c1 7e 7f b6 60 02 	vmovdqu %ymm6,0x260(%r14)
  408658:	00 00 
  40865a:	48 8d b4 24 80 38 00 	lea    0x3880(%rsp),%rsi
  408661:	00 
  408662:	c4 41 45 ef 85 60 02 	vpxor  0x260(%r13),%ymm7,%ymm8
  408669:	00 00 
  40866b:	48 8d 94 24 a0 38 00 	lea    0x38a0(%rsp),%rdx
  408672:	00 
  408673:	c4 41 35 ef 95 e0 07 	vpxor  0x7e0(%r13),%ymm9,%ymm10
  40867a:	00 00 
  40867c:	c4 41 25 ef a5 20 05 	vpxor  0x520(%r13),%ymm11,%ymm12
  408683:	00 00 
  408685:	c4 41 7e 7f 85 60 02 	vmovdqu %ymm8,0x260(%r13)
  40868c:	00 00 
  40868e:	c4 41 7e 7f 95 e0 07 	vmovdqu %ymm10,0x7e0(%r13)
  408695:	00 00 
  408697:	c4 41 7e 7f a5 20 05 	vmovdqu %ymm12,0x520(%r13)
  40869e:	00 00 
  4086a0:	c4 41 7e 6f be 80 02 	vmovdqu 0x280(%r14),%ymm15
  4086a7:	00 00 
  4086a9:	48 8d 8c 24 c0 38 00 	lea    0x38c0(%rsp),%rcx
  4086b0:	00 
  4086b1:	c4 c1 7e 6f a6 80 05 	vmovdqu 0x580(%r14),%ymm4
  4086b8:	00 00 
  4086ba:	c4 41 7e 6f b6 a0 05 	vmovdqu 0x5a0(%r14),%ymm14
  4086c1:	00 00 
  4086c3:	c4 41 7e 6f ae c0 07 	vmovdqu 0x7c0(%r14),%ymm13
  4086ca:	00 00 
  4086cc:	c4 c1 7e 6f 9e a0 00 	vmovdqu 0xa0(%r14),%ymm3
  4086d3:	00 00 
  4086d5:	c4 c1 05 ef 95 80 02 	vpxor  0x280(%r13),%ymm15,%ymm2
  4086dc:	00 00 
  4086de:	c4 c1 5d ef ad c0 07 	vpxor  0x7c0(%r13),%ymm4,%ymm5
  4086e5:	00 00 
  4086e7:	c4 c1 15 ef 85 80 04 	vpxor  0x480(%r13),%ymm13,%ymm0
  4086ee:	00 00 
  4086f0:	c4 c1 0d ef 8d 80 03 	vpxor  0x380(%r13),%ymm14,%ymm1
  4086f7:	00 00 
  4086f9:	c4 c1 65 ef 9d 80 01 	vpxor  0x180(%r13),%ymm3,%ymm3
  408700:	00 00 
  408702:	c4 41 7e 6f be c0 04 	vmovdqu 0x4c0(%r14),%ymm15
  408709:	00 00 
  40870b:	c5 fe 7f 42 c0       	vmovdqu %ymm0,-0x40(%rdx)
  408710:	c5 fe 7f 4a e0       	vmovdqu %ymm1,-0x20(%rdx)
  408715:	c5 fe 7f 12          	vmovdqu %ymm2,(%rdx)
  408719:	c5 fe 7f 5a 20       	vmovdqu %ymm3,0x20(%rdx)
  40871e:	c4 c1 05 ef a5 80 00 	vpxor  0x80(%r13),%ymm15,%ymm4
  408725:	00 00 
  408727:	e8 c4 15 00 00       	callq  409cf0 <sbox__5>
  40872c:	c5 fe 6f ac 24 60 38 	vmovdqu 0x3860(%rsp),%ymm5
  408733:	00 00 
  408735:	48 8d 94 24 e0 38 00 	lea    0x38e0(%rsp),%rdx
  40873c:	00 
  40873d:	c5 fe 6f 7a a0       	vmovdqu -0x60(%rdx),%ymm7
  408742:	c5 7e 6f 4a c0       	vmovdqu -0x40(%rdx),%ymm9
  408747:	c5 7e 6f 5a e0       	vmovdqu -0x20(%rdx),%ymm11
  40874c:	c4 c1 55 ef b5 20 04 	vpxor  0x420(%r13),%ymm5,%ymm6
  408753:	00 00 
  408755:	c4 41 45 ef 85 e0 03 	vpxor  0x3e0(%r13),%ymm7,%ymm8
  40875c:	00 00 
  40875e:	c4 41 35 ef 95 60 05 	vpxor  0x560(%r13),%ymm9,%ymm10
  408765:	00 00 
  408767:	c4 41 25 ef a5 a0 05 	vpxor  0x5a0(%r13),%ymm11,%ymm12
  40876e:	00 00 
  408770:	c4 c1 7e 7f b5 20 04 	vmovdqu %ymm6,0x420(%r13)
  408777:	00 00 
  408779:	c4 41 7e 7f 85 e0 03 	vmovdqu %ymm8,0x3e0(%r13)
  408780:	00 00 
  408782:	c4 41 7e 7f 95 60 05 	vmovdqu %ymm10,0x560(%r13)
  408789:	00 00 
  40878b:	c4 41 7e 7f a5 a0 05 	vmovdqu %ymm12,0x5a0(%r13)
  408792:	00 00 
  408794:	c4 41 7e 6f ae a0 01 	vmovdqu 0x1a0(%r14),%ymm13
  40879b:	00 00 
  40879d:	48 8d 8c 24 00 39 00 	lea    0x3900(%rsp),%rcx
  4087a4:	00 
  4087a5:	c4 41 7e 6f be a0 06 	vmovdqu 0x6a0(%r14),%ymm15
  4087ac:	00 00 
  4087ae:	c4 41 7e 6f b6 80 04 	vmovdqu 0x480(%r14),%ymm14
  4087b5:	00 00 
  4087b7:	c4 c1 7e 6f a6 80 00 	vmovdqu 0x80(%r14),%ymm4
  4087be:	00 00 
  4087c0:	c4 c1 7e 6f 9e 60 01 	vmovdqu 0x160(%r14),%ymm3
  4087c7:	00 00 
  4087c9:	c4 c1 15 ef 85 80 00 	vpxor  0x80(%r13),%ymm13,%ymm0
  4087d0:	00 00 
  4087d2:	c4 c1 7e 7f 86 a0 01 	vmovdqu %ymm0,0x1a0(%r14)
  4087d9:	00 00 
  4087db:	c4 c1 05 ef 95 c0 06 	vpxor  0x6c0(%r13),%ymm15,%ymm2
  4087e2:	00 00 
  4087e4:	c4 c1 0d ef 8d c0 07 	vpxor  0x7c0(%r13),%ymm14,%ymm1
  4087eb:	00 00 
  4087ed:	c4 41 7e 6f be c0 03 	vmovdqu 0x3c0(%r14),%ymm15
  4087f4:	00 00 
  4087f6:	c4 c1 7e 7f 96 a0 06 	vmovdqu %ymm2,0x6a0(%r14)
  4087fd:	00 00 
  4087ff:	c5 fe 7f 0a          	vmovdqu %ymm1,(%rdx)
  408803:	c4 c1 5d ef ad c0 03 	vpxor  0x3c0(%r13),%ymm4,%ymm5
  40880a:	00 00 
  40880c:	c4 c1 65 ef 9d c0 05 	vpxor  0x5c0(%r13),%ymm3,%ymm3
  408813:	00 00 
  408815:	c4 c1 05 ef a5 c0 04 	vpxor  0x4c0(%r13),%ymm15,%ymm4
  40881c:	00 00 
  40881e:	c5 fe 7f 5a 20       	vmovdqu %ymm3,0x20(%rdx)
  408823:	48 8b 7a 48          	mov    0x48(%rdx),%rdi
  408827:	48 8b 72 40          	mov    0x40(%rdx),%rsi
  40882b:	e8 f0 15 00 00       	callq  409e20 <sbox__6>
  408830:	c4 c1 7e 6f ae a0 01 	vmovdqu 0x1a0(%r14),%ymm5
  408837:	00 00 
  408839:	48 8d b4 24 20 39 00 	lea    0x3920(%rsp),%rsi
  408840:	00 
  408841:	c4 c1 7e 6f be a0 06 	vmovdqu 0x6a0(%r14),%ymm7
  408848:	00 00 
  40884a:	c5 7e 6f 4e c0       	vmovdqu -0x40(%rsi),%ymm9
  40884f:	c5 7e 6f 5e e0       	vmovdqu -0x20(%rsi),%ymm11
  408854:	c4 c1 55 ef b5 e0 00 	vpxor  0xe0(%r13),%ymm5,%ymm6
  40885b:	00 00 
  40885d:	c4 c1 7e 7f b6 a0 01 	vmovdqu %ymm6,0x1a0(%r14)
  408864:	00 00 
  408866:	48 8d 94 24 40 39 00 	lea    0x3940(%rsp),%rdx
  40886d:	00 
  40886e:	c4 41 45 ef 85 60 04 	vpxor  0x460(%r13),%ymm7,%ymm8
  408875:	00 00 
  408877:	48 8d 8c 24 60 39 00 	lea    0x3960(%rsp),%rcx
  40887e:	00 
  40887f:	c4 41 7e 7f 86 a0 06 	vmovdqu %ymm8,0x6a0(%r14)
  408886:	00 00 
  408888:	c4 41 35 ef 95 a0 02 	vpxor  0x2a0(%r13),%ymm9,%ymm10
  40888f:	00 00 
  408891:	c4 41 25 ef a5 20 01 	vpxor  0x120(%r13),%ymm11,%ymm12
  408898:	00 00 
  40889a:	c4 41 7e 7f 95 a0 02 	vmovdqu %ymm10,0x2a0(%r13)
  4088a1:	00 00 
  4088a3:	c4 41 7e 7f a5 20 01 	vmovdqu %ymm12,0x120(%r13)
  4088aa:	00 00 
  4088ac:	c4 c1 7e 6f 9e c0 01 	vmovdqu 0x1c0(%r14),%ymm3
  4088b3:	00 00 
  4088b5:	c4 41 7e 6f ae 80 07 	vmovdqu 0x780(%r14),%ymm13
  4088bc:	00 00 
  4088be:	c4 41 7e 6f b6 a0 03 	vmovdqu 0x3a0(%r14),%ymm14
  4088c5:	00 00 
  4088c7:	c4 41 7e 6f be 80 03 	vmovdqu 0x380(%r14),%ymm15
  4088ce:	00 00 
  4088d0:	c4 c1 7e 6f a6 c0 05 	vmovdqu 0x5c0(%r14),%ymm4
  4088d7:	00 00 
  4088d9:	c4 c1 65 ef 9d c0 01 	vpxor  0x1c0(%r13),%ymm3,%ymm3
  4088e0:	00 00 
  4088e2:	c4 c1 15 ef 85 c0 04 	vpxor  0x4c0(%r13),%ymm13,%ymm0
  4088e9:	00 00 
  4088eb:	c4 c1 0d ef 8d c0 03 	vpxor  0x3c0(%r13),%ymm14,%ymm1
  4088f2:	00 00 
  4088f4:	c4 c1 05 ef 95 c0 02 	vpxor  0x2c0(%r13),%ymm15,%ymm2
  4088fb:	00 00 
  4088fd:	c4 c1 7e 7f 9e c0 01 	vmovdqu %ymm3,0x1c0(%r14)
  408904:	00 00 
  408906:	c4 41 7e 6f 7e 60    	vmovdqu 0x60(%r14),%ymm15
  40890c:	c5 fe 7f 42 e0       	vmovdqu %ymm0,-0x20(%rdx)
  408911:	c5 fe 7f 0a          	vmovdqu %ymm1,(%rdx)
  408915:	c5 fe 7f 52 20       	vmovdqu %ymm2,0x20(%rdx)
  40891a:	c4 c1 5d ef ad 00 07 	vpxor  0x700(%r13),%ymm4,%ymm5
  408921:	00 00 
  408923:	c4 c1 05 ef a5 c0 00 	vpxor  0xc0(%r13),%ymm15,%ymm4
  40892a:	00 00 
  40892c:	48 8b ba 00 01 00 00 	mov    0x100(%rdx),%rdi
  408933:	e8 08 16 00 00       	callq  409f40 <sbox__7>
  408938:	c4 c1 7e 6f ae c0 01 	vmovdqu 0x1c0(%r14),%ymm5
  40893f:	00 00 
  408941:	c5 fe 6f bc 24 20 39 	vmovdqu 0x3920(%rsp),%ymm7
  408948:	00 00 
  40894a:	c5 7e 6f 8c 24 40 39 	vmovdqu 0x3940(%rsp),%ymm9
  408951:	00 00 
  408953:	c5 7e 6f 9c 24 60 39 	vmovdqu 0x3960(%rsp),%ymm11
  40895a:	00 00 
  40895c:	c4 c1 55 ef b5 20 03 	vpxor  0x320(%r13),%ymm5,%ymm6
  408963:	00 00 
  408965:	c4 c1 7e 7f b6 c0 01 	vmovdqu %ymm6,0x1c0(%r14)
  40896c:	00 00 
  40896e:	c4 41 45 ef 85 e0 05 	vpxor  0x5e0(%r13),%ymm7,%ymm8
  408975:	00 00 
  408977:	c4 41 35 ef 95 60 01 	vpxor  0x160(%r13),%ymm9,%ymm10
  40897e:	00 00 
  408980:	c4 41 25 ef a5 a0 03 	vpxor  0x3a0(%r13),%ymm11,%ymm12
  408987:	00 00 
  408989:	c4 41 7e 7f 85 e0 05 	vmovdqu %ymm8,0x5e0(%r13)
  408990:	00 00 
  408992:	c4 41 7e 7f 95 60 01 	vmovdqu %ymm10,0x160(%r13)
  408999:	00 00 
  40899b:	c4 41 7e 7f a5 a0 03 	vmovdqu %ymm12,0x3a0(%r13)
  4089a2:	00 00 
  4089a4:	c4 41 7e 6f ae 20 02 	vmovdqu 0x220(%r14),%ymm13
  4089ab:	00 00 
  4089ad:	c4 41 7e 6f b6 40 07 	vmovdqu 0x740(%r14),%ymm14
  4089b4:	00 00 
  4089b6:	c4 41 7e 6f be 20 05 	vmovdqu 0x520(%r14),%ymm15
  4089bd:	00 00 
  4089bf:	c4 c1 7e 6f 5e 40    	vmovdqu 0x40(%r14),%ymm3
  4089c5:	c4 c1 7e 6f a6 00 07 	vmovdqu 0x700(%r14),%ymm4
  4089cc:	00 00 
  4089ce:	c4 c1 15 ef 86 a0 01 	vpxor  0x1a0(%r14),%ymm13,%ymm0
  4089d5:	00 00 
  4089d7:	c4 c1 7e 7f 86 20 02 	vmovdqu %ymm0,0x220(%r14)
  4089de:	00 00 
  4089e0:	c4 c1 0d ef 8d 20 07 	vpxor  0x720(%r13),%ymm14,%ymm1
  4089e7:	00 00 
  4089e9:	c4 c1 7e 7f 8e 40 07 	vmovdqu %ymm1,0x740(%r14)
  4089f0:	00 00 
  4089f2:	c4 c1 05 ef 95 20 06 	vpxor  0x620(%r13),%ymm15,%ymm2
  4089f9:	00 00 
  4089fb:	c4 41 7e 6f be 00 03 	vmovdqu 0x300(%r14),%ymm15
  408a02:	00 00 
  408a04:	c4 c1 7e 7f 96 20 05 	vmovdqu %ymm2,0x520(%r14)
  408a0b:	00 00 
  408a0d:	c4 c1 05 ef ae c0 01 	vpxor  0x1c0(%r14),%ymm15,%ymm5
  408a14:	00 00 
  408a16:	c4 c1 65 ef 9d 20 05 	vpxor  0x520(%r13),%ymm3,%ymm3
  408a1d:	00 00 
  408a1f:	c4 c1 7e 7f 5e 40    	vmovdqu %ymm3,0x40(%r14)
  408a25:	c4 c1 5d ef a5 20 04 	vpxor  0x420(%r13),%ymm4,%ymm4
  408a2c:	00 00 
  408a2e:	c4 c1 7e 7f ae 00 03 	vmovdqu %ymm5,0x300(%r14)
  408a35:	00 00 
  408a37:	c4 c1 7e 7f a6 00 07 	vmovdqu %ymm4,0x700(%r14)
  408a3e:	00 00 
  408a40:	48 8b bc 24 18 3a 00 	mov    0x3a18(%rsp),%rdi
  408a47:	00 
  408a48:	48 8b b4 24 10 3a 00 	mov    0x3a10(%rsp),%rsi
  408a4f:	00 
  408a50:	48 8b 94 24 00 3a 00 	mov    0x3a00(%rsp),%rdx
  408a57:	00 
  408a58:	48 8b 8c 24 08 3a 00 	mov    0x3a08(%rsp),%rcx
  408a5f:	00 
  408a60:	e8 bb 0d 00 00       	callq  409820 <sbox__0>
  408a65:	c4 c1 7e 6f ae 20 02 	vmovdqu 0x220(%r14),%ymm5
  408a6c:	00 00 
  408a6e:	c4 c1 7e 6f be 40 07 	vmovdqu 0x740(%r14),%ymm7
  408a75:	00 00 
  408a77:	c4 41 7e 6f 8e 20 05 	vmovdqu 0x520(%r14),%ymm9
  408a7e:	00 00 
  408a80:	c4 41 7e 6f 5e 40    	vmovdqu 0x40(%r14),%ymm11
  408a86:	c4 41 7e 6f ae 00 05 	vmovdqu 0x500(%r14),%ymm13
  408a8d:	00 00 
  408a8f:	c4 41 7e 6f b6 60 04 	vmovdqu 0x460(%r14),%ymm14
  408a96:	00 00 
  408a98:	c4 41 7e 6f be 20 01 	vmovdqu 0x120(%r14),%ymm15
  408a9f:	00 00 
  408aa1:	c4 c1 7e 6f 9e 00 02 	vmovdqu 0x200(%r14),%ymm3
  408aa8:	00 00 
  408aaa:	c4 c1 7e 6f a6 40 03 	vmovdqu 0x340(%r14),%ymm4
  408ab1:	00 00 
  408ab3:	c4 c1 55 ef b5 40 07 	vpxor  0x740(%r13),%ymm5,%ymm6
  408aba:	00 00 
  408abc:	c4 c1 0d ef 8e c0 01 	vpxor  0x1c0(%r14),%ymm14,%ymm1
  408ac3:	00 00 
  408ac5:	c4 c1 5d ef a6 60 02 	vpxor  0x260(%r14),%ymm4,%ymm4
  408acc:	00 00 
  408ace:	c4 c1 7e 7f b6 20 02 	vmovdqu %ymm6,0x220(%r14)
  408ad5:	00 00 
  408ad7:	c4 41 45 ef 85 80 07 	vpxor  0x780(%r13),%ymm7,%ymm8
  408ade:	00 00 
  408ae0:	c4 41 7e 7f 86 40 07 	vmovdqu %ymm8,0x740(%r14)
  408ae7:	00 00 
  408ae9:	c4 41 35 ef 95 80 01 	vpxor  0x180(%r13),%ymm9,%ymm10
  408af0:	00 00 
  408af2:	c4 41 7e 7f 96 20 05 	vmovdqu %ymm10,0x520(%r14)
  408af9:	00 00 
  408afb:	c4 41 25 ef a5 c0 01 	vpxor  0x1c0(%r13),%ymm11,%ymm12
  408b02:	00 00 
  408b04:	c4 41 7e 7f 66 40    	vmovdqu %ymm12,0x40(%r14)
  408b0a:	c4 c1 15 ef 85 20 04 	vpxor  0x420(%r13),%ymm13,%ymm0
  408b11:	00 00 
  408b13:	c4 c1 7e 7f 8e 60 04 	vmovdqu %ymm1,0x460(%r14)
  408b1a:	00 00 
  408b1c:	c4 c1 7e 7f 86 00 05 	vmovdqu %ymm0,0x500(%r14)
  408b23:	00 00 
  408b25:	c4 c1 05 ef 95 20 02 	vpxor  0x220(%r13),%ymm15,%ymm2
  408b2c:	00 00 
  408b2e:	c4 41 7e 6f be 20 06 	vmovdqu 0x620(%r14),%ymm15
  408b35:	00 00 
  408b37:	c4 c1 7e 7f 96 20 01 	vmovdqu %ymm2,0x120(%r14)
  408b3e:	00 00 
  408b40:	c4 c1 65 ef 9d 20 01 	vpxor  0x120(%r13),%ymm3,%ymm3
  408b47:	00 00 
  408b49:	c4 c1 7e 7f a6 40 03 	vmovdqu %ymm4,0x340(%r14)
  408b50:	00 00 
  408b52:	c4 c1 7e 7f 9e 00 02 	vmovdqu %ymm3,0x200(%r14)
  408b59:	00 00 
  408b5b:	c4 c1 05 ef ad 60 07 	vpxor  0x760(%r13),%ymm15,%ymm5
  408b62:	00 00 
  408b64:	48 8b bc 24 e8 39 00 	mov    0x39e8(%rsp),%rdi
  408b6b:	00 
  408b6c:	48 8b b4 24 f0 39 00 	mov    0x39f0(%rsp),%rsi
  408b73:	00 
  408b74:	48 8b 94 24 50 3a 00 	mov    0x3a50(%rsp),%rdx
  408b7b:	00 
  408b7c:	48 8b 8c 24 f8 39 00 	mov    0x39f8(%rsp),%rcx
  408b83:	00 
  408b84:	c4 c1 7e 7f ae 20 06 	vmovdqu %ymm5,0x620(%r14)
  408b8b:	00 00 
  408b8d:	e8 de 0d 00 00       	callq  409970 <sbox__1>
  408b92:	c4 c1 7e 6f ae 00 05 	vmovdqu 0x500(%r14),%ymm5
  408b99:	00 00 
  408b9b:	48 89 d9             	mov    %rbx,%rcx
  408b9e:	c4 c1 7e 6f be 60 04 	vmovdqu 0x460(%r14),%ymm7
  408ba5:	00 00 
  408ba7:	c4 41 7e 6f 8e 20 01 	vmovdqu 0x120(%r14),%ymm9
  408bae:	00 00 
  408bb0:	c4 41 7e 6f ae 40 01 	vmovdqu 0x140(%r14),%ymm13
  408bb7:	00 00 
  408bb9:	c4 41 7e 6f 9e 00 02 	vmovdqu 0x200(%r14),%ymm11
  408bc0:	00 00 
  408bc2:	c4 41 7e 6f b6 40 05 	vmovdqu 0x540(%r14),%ymm14
  408bc9:	00 00 
  408bcb:	c4 41 7e 6f be 20 04 	vmovdqu 0x420(%r14),%ymm15
  408bd2:	00 00 
  408bd4:	c4 c1 7e 6f 9e 00 04 	vmovdqu 0x400(%r14),%ymm3
  408bdb:	00 00 
  408bdd:	c4 c1 7e 6f a6 60 06 	vmovdqu 0x660(%r14),%ymm4
  408be4:	00 00 
  408be6:	c4 c1 55 ef b5 40 03 	vpxor  0x340(%r13),%ymm5,%ymm6
  408bed:	00 00 
  408bef:	c4 c1 15 ef 86 60 02 	vpxor  0x260(%r14),%ymm13,%ymm0
  408bf6:	00 00 
  408bf8:	c4 c1 5d ef a6 a0 06 	vpxor  0x6a0(%r14),%ymm4,%ymm4
  408bff:	00 00 
  408c01:	c4 c1 7e 7f b6 00 05 	vmovdqu %ymm6,0x500(%r14)
  408c08:	00 00 
  408c0a:	c4 41 45 ef 85 c0 04 	vpxor  0x4c0(%r13),%ymm7,%ymm8
  408c11:	00 00 
  408c13:	c4 41 7e 7f 86 60 04 	vmovdqu %ymm8,0x460(%r14)
  408c1a:	00 00 
  408c1c:	c4 41 35 ef 95 00 06 	vpxor  0x600(%r13),%ymm9,%ymm10
  408c23:	00 00 
  408c25:	c4 41 7e 7f 96 20 01 	vmovdqu %ymm10,0x120(%r14)
  408c2c:	00 00 
  408c2e:	c4 41 25 ef a5 80 06 	vpxor  0x680(%r13),%ymm11,%ymm12
  408c35:	00 00 
  408c37:	c4 c1 7e 7f 86 40 01 	vmovdqu %ymm0,0x140(%r14)
  408c3e:	00 00 
  408c40:	c4 41 7e 7f a6 00 02 	vmovdqu %ymm12,0x200(%r14)
  408c47:	00 00 
  408c49:	c4 c1 0d ef 8d 60 07 	vpxor  0x760(%r13),%ymm14,%ymm1
  408c50:	00 00 
  408c52:	c4 c1 7e 7f 8e 40 05 	vmovdqu %ymm1,0x540(%r14)
  408c59:	00 00 
  408c5b:	c4 c1 05 ef 95 60 06 	vpxor  0x660(%r13),%ymm15,%ymm2
  408c62:	00 00 
  408c64:	c4 41 7e 6f 3e       	vmovdqu (%r14),%ymm15
  408c69:	c4 c1 7e 7f 96 20 04 	vmovdqu %ymm2,0x420(%r14)
  408c70:	00 00 
  408c72:	c4 c1 05 ef ae 20 07 	vpxor  0x720(%r14),%ymm15,%ymm5
  408c79:	00 00 
  408c7b:	c4 c1 65 ef 9d 60 05 	vpxor  0x560(%r13),%ymm3,%ymm3
  408c82:	00 00 
  408c84:	c4 c1 7e 7f a6 60 06 	vmovdqu %ymm4,0x660(%r14)
  408c8b:	00 00 
  408c8d:	c4 c1 7e 7f 2e       	vmovdqu %ymm5,(%r14)
  408c92:	c4 c1 7e 7f 9e 00 04 	vmovdqu %ymm3,0x400(%r14)
  408c99:	00 00 
  408c9b:	48 8b bc 24 c0 39 00 	mov    0x39c0(%rsp),%rdi
  408ca2:	00 
  408ca3:	48 8b b4 24 c8 39 00 	mov    0x39c8(%rsp),%rsi
  408caa:	00 
  408cab:	48 8b 94 24 58 3a 00 	mov    0x3a58(%rsp),%rdx
  408cb2:	00 
  408cb3:	e8 c8 0d 00 00       	callq  409a80 <sbox__2>
  408cb8:	c4 c1 7e 6f 9e 40 01 	vmovdqu 0x140(%r14),%ymm3
  408cbf:	00 00 
  408cc1:	c4 41 7e 6f ae 40 05 	vmovdqu 0x540(%r14),%ymm13
  408cc8:	00 00 
  408cca:	c4 41 7e 6f 86 20 04 	vmovdqu 0x420(%r14),%ymm8
  408cd1:	00 00 
  408cd3:	c4 c1 7e 6f be 00 04 	vmovdqu 0x400(%r14),%ymm7
  408cda:	00 00 
  408cdc:	c4 41 7e 6f 56 20    	vmovdqu 0x20(%r14),%ymm10
  408ce2:	c4 41 7e 6f 9e 00 01 	vmovdqu 0x100(%r14),%ymm11
  408ce9:	00 00 
  408ceb:	c4 c1 7e 6f 86 60 05 	vmovdqu 0x560(%r14),%ymm0
  408cf2:	00 00 
  408cf4:	c4 c1 7e 6f 8e 40 04 	vmovdqu 0x440(%r14),%ymm1
  408cfb:	00 00 
  408cfd:	c4 c1 65 ef a5 80 00 	vpxor  0x80(%r13),%ymm3,%ymm4
  408d04:	00 00 
  408d06:	c4 c1 2d ef 96 a0 06 	vpxor  0x6a0(%r14),%ymm10,%ymm2
  408d0d:	00 00 
  408d0f:	c4 c1 7e 6f 9e 00 06 	vmovdqu 0x600(%r14),%ymm3
  408d16:	00 00 
  408d18:	c4 c1 7e 7f a6 40 01 	vmovdqu %ymm4,0x140(%r14)
  408d1f:	00 00 
  408d21:	c4 41 15 ef 65 40    	vpxor  0x40(%r13),%ymm13,%ymm12
  408d27:	c4 41 7e 6f ae 40 06 	vmovdqu 0x640(%r14),%ymm13
  408d2e:	00 00 
  408d30:	c4 41 7e 7f a6 40 05 	vmovdqu %ymm12,0x540(%r14)
  408d37:	00 00 
  408d39:	c4 41 3d ef 8d c0 02 	vpxor  0x2c0(%r13),%ymm8,%ymm9
  408d40:	00 00 
  408d42:	c4 41 25 ef 86 20 07 	vpxor  0x720(%r14),%ymm11,%ymm8
  408d49:	00 00 
  408d4b:	c4 41 7e 7f 8e 20 04 	vmovdqu %ymm9,0x420(%r14)
  408d52:	00 00 
  408d54:	c4 c1 45 ef ad 00 02 	vpxor  0x200(%r13),%ymm7,%ymm5
  408d5b:	00 00 
  408d5d:	c4 c1 7e 7f 56 20    	vmovdqu %ymm2,0x20(%r14)
  408d63:	c4 41 7e 7f 86 00 01 	vmovdqu %ymm8,0x100(%r14)
  408d6a:	00 00 
  408d6c:	c4 c1 7e 7f ae 00 04 	vmovdqu %ymm5,0x400(%r14)
  408d73:	00 00 
  408d75:	c4 41 7d ef 95 60 02 	vpxor  0x260(%r13),%ymm0,%ymm10
  408d7c:	00 00 
  408d7e:	c4 41 7e 7f 96 60 05 	vmovdqu %ymm10,0x560(%r14)
  408d85:	00 00 
  408d87:	c5 ad eb fa          	vpor   %ymm2,%ymm10,%ymm7
  408d8b:	c4 c1 2d eb e8       	vpor   %ymm8,%ymm10,%ymm5
  408d90:	c4 41 75 ef 8d 60 01 	vpxor  0x160(%r13),%ymm1,%ymm9
  408d97:	00 00 
  408d99:	c4 c1 15 ef 8e 20 03 	vpxor  0x320(%r14),%ymm13,%ymm1
  408da0:	00 00 
  408da2:	c4 41 7e 7f 8e 40 04 	vmovdqu %ymm9,0x440(%r14)
  408da9:	00 00 
  408dab:	c4 c1 7e 7f 8e 20 03 	vmovdqu %ymm1,0x320(%r14)
  408db2:	00 00 
  408db4:	c5 45 db f1          	vpand  %ymm1,%ymm7,%ymm14
  408db8:	c4 41 65 ef a5 a0 07 	vpxor  0x7a0(%r13),%ymm3,%ymm12
  408dbf:	00 00 
  408dc1:	c5 dd 76 e4          	vpcmpeqd %ymm4,%ymm4,%ymm4
  408dc5:	c5 5d ef fa          	vpxor  %ymm2,%ymm4,%ymm15
  408dc9:	c5 f5 db d2          	vpand  %ymm2,%ymm1,%ymm2
  408dcd:	c4 c1 5d ef c2       	vpxor  %ymm10,%ymm4,%ymm0
  408dd2:	c4 41 7e 7f a6 00 06 	vmovdqu %ymm12,0x600(%r14)
  408dd9:	00 00 
  408ddb:	c5 c5 ef d2          	vpxor  %ymm2,%ymm7,%ymm2
  408ddf:	c4 c1 0d ef f7       	vpxor  %ymm15,%ymm14,%ymm6
  408de4:	c4 41 6d db d8       	vpand  %ymm8,%ymm2,%ymm11
  408de9:	c5 55 ef fe          	vpxor  %ymm6,%ymm5,%ymm15
  408ded:	c5 a5 ef f9          	vpxor  %ymm1,%ymm11,%ymm7
  408df1:	c4 c1 45 db d9       	vpand  %ymm9,%ymm7,%ymm3
  408df6:	c4 c1 65 ef df       	vpxor  %ymm15,%ymm3,%ymm3
  408dfb:	c5 0d ef f8          	vpxor  %ymm0,%ymm14,%ymm15
  408dff:	c5 7d ef f1          	vpxor  %ymm1,%ymm0,%ymm14
  408e03:	c5 85 db f6          	vpand  %ymm6,%ymm15,%ymm6
  408e07:	c4 c1 0d eb e8       	vpor   %ymm8,%ymm14,%ymm5
  408e0c:	c4 c1 05 db c8       	vpand  %ymm8,%ymm15,%ymm1
  408e11:	c5 d5 ef c6          	vpxor  %ymm6,%ymm5,%ymm0
  408e15:	c5 f5 ef d2          	vpxor  %ymm2,%ymm1,%ymm2
  408e19:	c4 41 7d eb f1       	vpor   %ymm9,%ymm0,%ymm14
  408e1e:	c5 dd ef c3          	vpxor  %ymm3,%ymm4,%ymm0
  408e22:	c4 c1 25 ef e2       	vpxor  %ymm10,%ymm11,%ymm4
  408e27:	c4 41 45 db d8       	vpand  %ymm8,%ymm7,%ymm11
  408e2c:	c5 8d ef d2          	vpxor  %ymm2,%ymm14,%ymm2
  408e30:	c5 55 ef d4          	vpxor  %ymm4,%ymm5,%ymm10
  408e34:	c4 c1 4d ef f3       	vpxor  %ymm11,%ymm6,%ymm6
  408e39:	c4 41 6d db fc       	vpand  %ymm12,%ymm2,%ymm15
  408e3e:	c4 41 6d eb f4       	vpor   %ymm12,%ymm2,%ymm14
  408e43:	c4 c1 2d db d1       	vpand  %ymm9,%ymm10,%ymm2
  408e48:	c5 85 ef cb          	vpxor  %ymm3,%ymm15,%ymm1
  408e4c:	c5 0d ef f8          	vpxor  %ymm0,%ymm14,%ymm15
  408e50:	c5 ed ef d6          	vpxor  %ymm6,%ymm2,%ymm2
  408e54:	c4 c1 7e 7f 8e 00 01 	vmovdqu %ymm1,0x100(%r14)
  408e5b:	00 00 
  408e5d:	c4 41 7e 7f 7e 20    	vmovdqu %ymm15,0x20(%r14)
  408e63:	c5 ed ef c0          	vpxor  %ymm0,%ymm2,%ymm0
  408e67:	c4 41 7d db c0       	vpand  %ymm8,%ymm0,%ymm8
  408e6c:	c4 41 7d eb c9       	vpor   %ymm9,%ymm0,%ymm9
  408e71:	c5 bd ef c1          	vpxor  %ymm1,%ymm8,%ymm0
  408e75:	c5 b5 ef d8          	vpxor  %ymm0,%ymm9,%ymm3
  408e79:	c4 41 65 db e4       	vpand  %ymm12,%ymm3,%ymm12
  408e7e:	c4 c1 65 ef c6       	vpxor  %ymm14,%ymm3,%ymm0
  408e83:	c4 c1 7e 6f 9e a0 07 	vmovdqu 0x7a0(%r14),%ymm3
  408e8a:	00 00 
  408e8c:	c5 9d ef ea          	vpxor  %ymm2,%ymm12,%ymm5
  408e90:	c4 c1 7e 6f 96 c0 05 	vmovdqu 0x5c0(%r14),%ymm2
  408e97:	00 00 
  408e99:	c5 55 ef f0          	vpxor  %ymm0,%ymm5,%ymm14
  408e9d:	c4 c1 15 ef 86 a0 03 	vpxor  0x3a0(%r14),%ymm13,%ymm0
  408ea4:	00 00 
  408ea6:	c4 c1 7e 7f ae 40 04 	vmovdqu %ymm5,0x440(%r14)
  408ead:	00 00 
  408eaf:	c4 41 7e 6f ae 80 00 	vmovdqu 0x80(%r14),%ymm13
  408eb6:	00 00 
  408eb8:	c4 41 7e 7f b6 60 05 	vmovdqu %ymm14,0x560(%r14)
  408ebf:	00 00 
  408ec1:	c4 c1 05 ef a5 c0 06 	vpxor  0x6c0(%r13),%ymm15,%ymm4
  408ec8:	00 00 
  408eca:	c4 c1 7e 7f 66 20    	vmovdqu %ymm4,0x20(%r14)
  408ed0:	c4 c1 7e 6f a6 80 05 	vmovdqu 0x580(%r14),%ymm4
  408ed7:	00 00 
  408ed9:	c4 c1 75 ef 8d 80 04 	vpxor  0x480(%r13),%ymm1,%ymm1
  408ee0:	00 00 
  408ee2:	c4 c1 7e 7f 8e 00 01 	vmovdqu %ymm1,0x100(%r14)
  408ee9:	00 00 
  408eeb:	c4 41 0d ef bd 40 06 	vpxor  0x640(%r13),%ymm14,%ymm15
  408ef2:	00 00 
  408ef4:	c4 41 7e 7f be 60 05 	vmovdqu %ymm15,0x560(%r14)
  408efb:	00 00 
  408efd:	c4 c1 55 ef b5 00 07 	vpxor  0x700(%r13),%ymm5,%ymm6
  408f04:	00 00 
  408f06:	c4 c1 7e 7f 86 a0 03 	vmovdqu %ymm0,0x3a0(%r14)
  408f0d:	00 00 
  408f0f:	c4 c1 7e 7f b6 40 04 	vmovdqu %ymm6,0x440(%r14)
  408f16:	00 00 
  408f18:	c4 c1 15 ef 8d a0 07 	vpxor  0x7a0(%r13),%ymm13,%ymm1
  408f1f:	00 00 
  408f21:	c4 41 7e 6f ae 60 01 	vmovdqu 0x160(%r14),%ymm13
  408f28:	00 00 
  408f2a:	c4 c1 7e 7f 8e 80 00 	vmovdqu %ymm1,0x80(%r14)
  408f31:	00 00 
  408f33:	c4 c1 6d ef 95 a0 06 	vpxor  0x6a0(%r13),%ymm2,%ymm2
  408f3a:	00 00 
  408f3c:	c4 c1 7e 7f 96 c0 05 	vmovdqu %ymm2,0x5c0(%r14)
  408f43:	00 00 
  408f45:	c4 c1 65 ef 9d a0 05 	vpxor  0x5a0(%r13),%ymm3,%ymm3
  408f4c:	00 00 
  408f4e:	c4 c1 7e 7f 9e a0 07 	vmovdqu %ymm3,0x7a0(%r14)
  408f55:	00 00 
  408f57:	c4 c1 5d ef a5 a0 04 	vpxor  0x4a0(%r13),%ymm4,%ymm4
  408f5e:	00 00 
  408f60:	c4 c1 7e 7f a6 80 05 	vmovdqu %ymm4,0x580(%r14)
  408f67:	00 00 
  408f69:	c4 c1 15 ef ad a0 03 	vpxor  0x3a0(%r13),%ymm13,%ymm5
  408f70:	00 00 
  408f72:	48 8b bc 24 b0 39 00 	mov    0x39b0(%rsp),%rdi
  408f79:	00 
  408f7a:	48 8b b4 24 a0 39 00 	mov    0x39a0(%rsp),%rsi
  408f81:	00 
  408f82:	48 8b 94 24 98 39 00 	mov    0x3998(%rsp),%rdx
  408f89:	00 
  408f8a:	48 8b 8c 24 88 39 00 	mov    0x3988(%rsp),%rcx
  408f91:	00 
  408f92:	c4 c1 7e 7f ae 60 01 	vmovdqu %ymm5,0x160(%r14)
  408f99:	00 00 
  408f9b:	e8 00 0c 00 00       	callq  409ba0 <sbox__4>
  408fa0:	c4 c1 7e 6f ae a0 03 	vmovdqu 0x3a0(%r14),%ymm5
  408fa7:	00 00 
  408fa9:	c4 c1 7e 6f be 80 00 	vmovdqu 0x80(%r14),%ymm7
  408fb0:	00 00 
  408fb2:	c4 41 7e 6f 8e c0 05 	vmovdqu 0x5c0(%r14),%ymm9
  408fb9:	00 00 
  408fbb:	c4 41 7e 6f 9e a0 07 	vmovdqu 0x7a0(%r14),%ymm11
  408fc2:	00 00 
  408fc4:	c4 41 7e 6f ae c0 06 	vmovdqu 0x6c0(%r14),%ymm13
  408fcb:	00 00 
  408fcd:	c4 41 7e 6f b6 a0 04 	vmovdqu 0x4a0(%r14),%ymm14
  408fd4:	00 00 
  408fd6:	c4 41 7e 6f be 80 01 	vmovdqu 0x180(%r14),%ymm15
  408fdd:	00 00 
  408fdf:	c4 c1 7e 6f 9e 80 07 	vmovdqu 0x780(%r14),%ymm3
  408fe6:	00 00 
  408fe8:	c4 c1 7e 6f a6 c0 03 	vmovdqu 0x3c0(%r14),%ymm4
  408fef:	00 00 
  408ff1:	c4 c1 55 ef 75 00    	vpxor  0x0(%r13),%ymm5,%ymm6
  408ff7:	c4 c1 5d ef a6 40 02 	vpxor  0x240(%r14),%ymm4,%ymm4
  408ffe:	00 00 
  409000:	c4 c1 7e 7f b6 a0 03 	vmovdqu %ymm6,0x3a0(%r14)
  409007:	00 00 
  409009:	c4 41 45 ef 85 40 02 	vpxor  0x240(%r13),%ymm7,%ymm8
  409010:	00 00 
  409012:	c4 41 7e 7f 86 80 00 	vmovdqu %ymm8,0x80(%r14)
  409019:	00 00 
  40901b:	c4 41 35 ef 95 c0 07 	vpxor  0x7c0(%r13),%ymm9,%ymm10
  409022:	00 00 
  409024:	c4 41 7e 7f 96 c0 05 	vmovdqu %ymm10,0x5c0(%r14)
  40902b:	00 00 
  40902d:	c4 41 25 ef a5 00 05 	vpxor  0x500(%r13),%ymm11,%ymm12
  409034:	00 00 
  409036:	c4 41 7e 7f a6 a0 07 	vmovdqu %ymm12,0x7a0(%r14)
  40903d:	00 00 
  40903f:	c4 c1 15 ef 85 a0 04 	vpxor  0x4a0(%r13),%ymm13,%ymm0
  409046:	00 00 
  409048:	c4 c1 7e 7f 86 c0 06 	vmovdqu %ymm0,0x6c0(%r14)
  40904f:	00 00 
  409051:	c4 c1 0d ef 8d a0 03 	vpxor  0x3a0(%r13),%ymm14,%ymm1
  409058:	00 00 
  40905a:	c4 c1 7e 7f 8e a0 04 	vmovdqu %ymm1,0x4a0(%r14)
  409061:	00 00 
  409063:	c4 c1 05 ef 95 a0 02 	vpxor  0x2a0(%r13),%ymm15,%ymm2
  40906a:	00 00 
  40906c:	c4 41 7e 6f be 80 04 	vmovdqu 0x480(%r14),%ymm15
  409073:	00 00 
  409075:	c4 c1 7e 7f 96 80 01 	vmovdqu %ymm2,0x180(%r14)
  40907c:	00 00 
  40907e:	c4 c1 65 ef 9d a0 01 	vpxor  0x1a0(%r13),%ymm3,%ymm3
  409085:	00 00 
  409087:	c4 c1 7e 7f a6 c0 03 	vmovdqu %ymm4,0x3c0(%r14)
  40908e:	00 00 
  409090:	c4 c1 7e 7f 9e 80 07 	vmovdqu %ymm3,0x780(%r14)
  409097:	00 00 
  409099:	c4 c1 05 ef ad e0 07 	vpxor  0x7e0(%r13),%ymm15,%ymm5
  4090a0:	00 00 
  4090a2:	48 8b bc 24 b8 39 00 	mov    0x39b8(%rsp),%rdi
  4090a9:	00 
  4090aa:	48 8b b4 24 d0 39 00 	mov    0x39d0(%rsp),%rsi
  4090b1:	00 
  4090b2:	48 8b 94 24 d8 39 00 	mov    0x39d8(%rsp),%rdx
  4090b9:	00 
  4090ba:	48 8b 8c 24 e0 39 00 	mov    0x39e0(%rsp),%rcx
  4090c1:	00 
  4090c2:	c4 c1 7e 7f ae 80 04 	vmovdqu %ymm5,0x480(%r14)
  4090c9:	00 00 
  4090cb:	e8 20 0c 00 00       	callq  409cf0 <sbox__5>
  4090d0:	c4 c1 7e 6f ae c0 06 	vmovdqu 0x6c0(%r14),%ymm5
  4090d7:	00 00 
  4090d9:	c4 c1 7e 6f be a0 04 	vmovdqu 0x4a0(%r14),%ymm7
  4090e0:	00 00 
  4090e2:	c4 41 7e 6f 8e 80 01 	vmovdqu 0x180(%r14),%ymm9
  4090e9:	00 00 
  4090eb:	c4 41 7e 6f 9e 80 07 	vmovdqu 0x780(%r14),%ymm11
  4090f2:	00 00 
  4090f4:	c4 41 7e 6f ae a0 00 	vmovdqu 0xa0(%r14),%ymm13
  4090fb:	00 00 
  4090fd:	c4 41 7e 6f b6 80 03 	vmovdqu 0x380(%r14),%ymm14
  409104:	00 00 
  409106:	c4 41 7e 6f be a0 05 	vmovdqu 0x5a0(%r14),%ymm15
  40910d:	00 00 
  40910f:	c4 c1 7e 6f 5e 60    	vmovdqu 0x60(%r14),%ymm3
  409115:	c4 c1 7e 6f a6 c0 02 	vmovdqu 0x2c0(%r14),%ymm4
  40911c:	00 00 
  40911e:	c4 c1 55 ef b5 00 04 	vpxor  0x400(%r13),%ymm5,%ymm6
  409125:	00 00 
  409127:	c4 c1 15 ef 86 40 02 	vpxor  0x240(%r14),%ymm13,%ymm0
  40912e:	00 00 
  409130:	c4 c1 7e 7f b6 c0 06 	vmovdqu %ymm6,0x6c0(%r14)
  409137:	00 00 
  409139:	c4 41 45 ef 85 c0 03 	vpxor  0x3c0(%r13),%ymm7,%ymm8
  409140:	00 00 
  409142:	c4 41 7e 7f 86 a0 04 	vmovdqu %ymm8,0x4a0(%r14)
  409149:	00 00 
  40914b:	c4 41 35 ef 95 40 05 	vpxor  0x540(%r13),%ymm9,%ymm10
  409152:	00 00 
  409154:	c4 41 7e 7f 96 80 01 	vmovdqu %ymm10,0x180(%r14)
  40915b:	00 00 
  40915d:	c4 41 25 ef a5 80 05 	vpxor  0x580(%r13),%ymm11,%ymm12
  409164:	00 00 
  409166:	c4 c1 7e 7f 86 a0 00 	vmovdqu %ymm0,0xa0(%r14)
  40916d:	00 00 
  40916f:	c4 41 7e 7f a6 80 07 	vmovdqu %ymm12,0x780(%r14)
  409176:	00 00 
  409178:	c4 c1 0d ef 8d e0 07 	vpxor  0x7e0(%r13),%ymm14,%ymm1
  40917f:	00 00 
  409181:	c4 c1 7e 7f 8e 80 03 	vmovdqu %ymm1,0x380(%r14)
  409188:	00 00 
  40918a:	c4 c1 05 ef 95 e0 06 	vpxor  0x6e0(%r13),%ymm15,%ymm2
  409191:	00 00 
  409193:	c4 41 7e 6f be 60 03 	vmovdqu 0x360(%r14),%ymm15
  40919a:	00 00 
  40919c:	c4 c1 7e 7f 96 a0 05 	vmovdqu %ymm2,0x5a0(%r14)
  4091a3:	00 00 
  4091a5:	c4 c1 65 ef 9d e0 05 	vpxor  0x5e0(%r13),%ymm3,%ymm3
  4091ac:	00 00 
  4091ae:	c4 c1 7e 7f 5e 60    	vmovdqu %ymm3,0x60(%r14)
  4091b4:	c4 c1 5d ef a5 e0 04 	vpxor  0x4e0(%r13),%ymm4,%ymm4
  4091bb:	00 00 
  4091bd:	c4 c1 7e 7f a6 c0 02 	vmovdqu %ymm4,0x2c0(%r14)
  4091c4:	00 00 
  4091c6:	c4 c1 05 ef ad e0 03 	vpxor  0x3e0(%r13),%ymm15,%ymm5
  4091cd:	00 00 
  4091cf:	48 8b bc 24 a8 39 00 	mov    0x39a8(%rsp),%rdi
  4091d6:	00 
  4091d7:	48 8b b4 24 48 3a 00 	mov    0x3a48(%rsp),%rsi
  4091de:	00 
  4091df:	48 8b 94 24 80 39 00 	mov    0x3980(%rsp),%rdx
  4091e6:	00 
  4091e7:	48 8b 8c 24 90 39 00 	mov    0x3990(%rsp),%rcx
  4091ee:	00 
  4091ef:	c4 c1 7e 7f ae 60 03 	vmovdqu %ymm5,0x360(%r14)
  4091f6:	00 00 
  4091f8:	e8 23 0c 00 00       	callq  409e20 <sbox__6>
  4091fd:	c4 c1 7e 6f ae a0 00 	vmovdqu 0xa0(%r14),%ymm5
  409204:	00 00 
  409206:	c4 c1 7e 6f be 80 03 	vmovdqu 0x380(%r14),%ymm7
  40920d:	00 00 
  40920f:	c4 41 7e 6f 8e a0 05 	vmovdqu 0x5a0(%r14),%ymm9
  409216:	00 00 
  409218:	c4 41 7e 6f 5e 60    	vmovdqu 0x60(%r14),%ymm11
  40921e:	c4 41 7e 6f ae 80 06 	vmovdqu 0x680(%r14),%ymm13
  409225:	00 00 
  409227:	c4 41 7e 6f b6 a0 02 	vmovdqu 0x2a0(%r14),%ymm14
  40922e:	00 00 
  409230:	c4 41 7e 6f be 80 02 	vmovdqu 0x280(%r14),%ymm15
  409237:	00 00 
  409239:	c4 c1 7e 6f 9e c0 00 	vmovdqu 0xc0(%r14),%ymm3
  409240:	00 00 
  409242:	c4 c1 7e 6f a6 c0 07 	vmovdqu 0x7c0(%r14),%ymm4
  409249:	00 00 
  40924b:	c4 c1 55 ef b5 c0 00 	vpxor  0xc0(%r13),%ymm5,%ymm6
  409252:	00 00 
  409254:	c4 c1 05 ef 96 60 07 	vpxor  0x760(%r14),%ymm15,%ymm2
  40925b:	00 00 
  40925d:	c4 41 7e 6f be c0 04 	vmovdqu 0x4c0(%r14),%ymm15
  409264:	00 00 
  409266:	c4 c1 5d ef a6 a0 01 	vpxor  0x1a0(%r14),%ymm4,%ymm4
  40926d:	00 00 
  40926f:	c4 c1 7e 7f b6 a0 00 	vmovdqu %ymm6,0xa0(%r14)
  409276:	00 00 
  409278:	c4 41 45 ef 85 40 04 	vpxor  0x440(%r13),%ymm7,%ymm8
  40927f:	00 00 
  409281:	c4 41 7e 7f 86 80 03 	vmovdqu %ymm8,0x380(%r14)
  409288:	00 00 
  40928a:	c4 41 35 ef 95 80 02 	vpxor  0x280(%r13),%ymm9,%ymm10
  409291:	00 00 
  409293:	c4 41 7e 7f 96 a0 05 	vmovdqu %ymm10,0x5a0(%r14)
  40929a:	00 00 
  40929c:	c4 41 25 ef a5 00 01 	vpxor  0x100(%r13),%ymm11,%ymm12
  4092a3:	00 00 
  4092a5:	c4 41 7e 7f 66 60    	vmovdqu %ymm12,0x60(%r14)
  4092ab:	c4 c1 15 ef 85 e0 04 	vpxor  0x4e0(%r13),%ymm13,%ymm0
  4092b2:	00 00 
  4092b4:	c4 c1 7e 7f 86 80 06 	vmovdqu %ymm0,0x680(%r14)
  4092bb:	00 00 
  4092bd:	c4 c1 0d ef 8d e0 03 	vpxor  0x3e0(%r13),%ymm14,%ymm1
  4092c4:	00 00 
  4092c6:	c4 c1 7e 7f 96 80 02 	vmovdqu %ymm2,0x280(%r14)
  4092cd:	00 00 
  4092cf:	c4 c1 7e 7f 8e a0 02 	vmovdqu %ymm1,0x2a0(%r14)
  4092d6:	00 00 
  4092d8:	c4 c1 65 ef 9d e0 01 	vpxor  0x1e0(%r13),%ymm3,%ymm3
  4092df:	00 00 
  4092e1:	c4 c1 7e 7f a6 c0 07 	vmovdqu %ymm4,0x7c0(%r14)
  4092e8:	00 00 
  4092ea:	c4 c1 7e 7f 9e c0 00 	vmovdqu %ymm3,0xc0(%r14)
  4092f1:	00 00 
  4092f3:	c4 c1 05 ef ad 20 07 	vpxor  0x720(%r13),%ymm15,%ymm5
  4092fa:	00 00 
  4092fc:	48 8b bc 24 28 3a 00 	mov    0x3a28(%rsp),%rdi
  409303:	00 
  409304:	48 8b b4 24 20 3a 00 	mov    0x3a20(%rsp),%rsi
  40930b:	00 
  40930c:	48 8b 94 24 30 3a 00 	mov    0x3a30(%rsp),%rdx
  409313:	00 
  409314:	48 8b 8c 24 38 3a 00 	mov    0x3a38(%rsp),%rcx
  40931b:	00 
  40931c:	c4 c1 7e 7f ae c0 04 	vmovdqu %ymm5,0x4c0(%r14)
  409323:	00 00 
  409325:	e8 16 0c 00 00       	callq  409f40 <sbox__7>
  40932a:	c4 c1 7e 6f 86 80 06 	vmovdqu 0x680(%r14),%ymm0
  409331:	00 00 
  409333:	c4 c1 7e 6f 96 a0 02 	vmovdqu 0x2a0(%r14),%ymm2
  40933a:	00 00 
  40933c:	c4 c1 7e 6f a6 80 02 	vmovdqu 0x280(%r14),%ymm4
  409343:	00 00 
  409345:	c4 c1 7e 6f b6 c0 00 	vmovdqu 0xc0(%r14),%ymm6
  40934c:	00 00 
  40934e:	c4 41 7e 6f 86 60 02 	vmovdqu 0x260(%r14),%ymm8
  409355:	00 00 
  409357:	c4 c1 7d ef 8d 00 03 	vpxor  0x300(%r13),%ymm0,%ymm1
  40935e:	00 00 
  409360:	c4 c1 7e 7f 8e 80 06 	vmovdqu %ymm1,0x680(%r14)
  409367:	00 00 
  409369:	c4 c1 6d ef 9d c0 05 	vpxor  0x5c0(%r13),%ymm2,%ymm3
  409370:	00 00 
  409372:	c4 c1 7e 7f 9e a0 02 	vmovdqu %ymm3,0x2a0(%r14)
  409379:	00 00 
  40937b:	c4 c1 5d ef ad 40 01 	vpxor  0x140(%r13),%ymm4,%ymm5
  409382:	00 00 
  409384:	c4 c1 7e 7f ae 80 02 	vmovdqu %ymm5,0x280(%r14)
  40938b:	00 00 
  40938d:	c4 c1 4d ef bd 80 03 	vpxor  0x380(%r13),%ymm6,%ymm7
  409394:	00 00 
  409396:	c4 c1 7e 7f be c0 00 	vmovdqu %ymm7,0xc0(%r14)
  40939d:	00 00 
  40939f:	c4 41 7e 7f 07       	vmovdqu %ymm8,(%r15)
  4093a4:	c4 41 7e 6f 8e a0 03 	vmovdqu 0x3a0(%r14),%ymm9
  4093ab:	00 00 
  4093ad:	c4 41 7e 7f 4f 20    	vmovdqu %ymm9,0x20(%r15)
  4093b3:	c4 41 7e 6f 96 40 06 	vmovdqu 0x640(%r14),%ymm10
  4093ba:	00 00 
  4093bc:	c4 41 7e 7f 57 40    	vmovdqu %ymm10,0x40(%r15)
  4093c2:	c4 41 7e 6f 9e 40 05 	vmovdqu 0x540(%r14),%ymm11
  4093c9:	00 00 
  4093cb:	c4 41 7e 7f 5f 60    	vmovdqu %ymm11,0x60(%r15)
  4093d1:	c4 41 7e 6f a6 40 02 	vmovdqu 0x240(%r14),%ymm12
  4093d8:	00 00 
  4093da:	c4 41 7e 7f a7 80 00 	vmovdqu %ymm12,0x80(%r15)
  4093e1:	00 00 
  4093e3:	c4 41 7e 6f ae 40 01 	vmovdqu 0x140(%r14),%ymm13
  4093ea:	00 00 
  4093ec:	c4 41 7e 7f af a0 00 	vmovdqu %ymm13,0xa0(%r15)
  4093f3:	00 00 
  4093f5:	c4 41 7e 6f b6 a0 01 	vmovdqu 0x1a0(%r14),%ymm14
  4093fc:	00 00 
  4093fe:	c4 41 7e 7f b7 c0 00 	vmovdqu %ymm14,0xc0(%r15)
  409405:	00 00 
  409407:	c4 41 7e 6f be a0 00 	vmovdqu 0xa0(%r14),%ymm15
  40940e:	00 00 
  409410:	c4 41 7e 7f bf e0 00 	vmovdqu %ymm15,0xe0(%r15)
  409417:	00 00 
  409419:	c4 c1 7e 6f 85 20 01 	vmovdqu 0x120(%r13),%ymm0
  409420:	00 00 
  409422:	c4 c1 7e 7f 87 00 01 	vmovdqu %ymm0,0x100(%r15)
  409429:	00 00 
  40942b:	c4 c1 7e 6f 4e 60    	vmovdqu 0x60(%r14),%ymm1
  409431:	c4 c1 7e 7f 8f 20 01 	vmovdqu %ymm1,0x120(%r15)
  409438:	00 00 
  40943a:	c4 c1 7e 6f 95 60 01 	vmovdqu 0x160(%r13),%ymm2
  409441:	00 00 
  409443:	c4 c1 7e 7f 97 40 01 	vmovdqu %ymm2,0x140(%r15)
  40944a:	00 00 
  40944c:	c4 c1 7e 6f 9e 80 02 	vmovdqu 0x280(%r14),%ymm3
  409453:	00 00 
  409455:	c4 c1 7e 7f 9f 60 01 	vmovdqu %ymm3,0x160(%r15)
  40945c:	00 00 
  40945e:	c4 c1 7e 6f a5 a0 01 	vmovdqu 0x1a0(%r13),%ymm4
  409465:	00 00 
  409467:	c4 c1 7e 7f a7 80 01 	vmovdqu %ymm4,0x180(%r15)
  40946e:	00 00 
  409470:	c4 c1 7e 6f ae 20 05 	vmovdqu 0x520(%r14),%ymm5
  409477:	00 00 
  409479:	c4 c1 7e 7f af a0 01 	vmovdqu %ymm5,0x1a0(%r15)
  409480:	00 00 
  409482:	c4 c1 7e 6f b5 e0 01 	vmovdqu 0x1e0(%r13),%ymm6
  409489:	00 00 
  40948b:	c4 c1 7e 7f b7 c0 01 	vmovdqu %ymm6,0x1c0(%r15)
  409492:	00 00 
  409494:	c4 c1 7e 6f 7e 40    	vmovdqu 0x40(%r14),%ymm7
  40949a:	c4 c1 7e 7f bf e0 01 	vmovdqu %ymm7,0x1e0(%r15)
  4094a1:	00 00 
  4094a3:	c4 41 7e 6f 85 20 02 	vmovdqu 0x220(%r13),%ymm8
  4094aa:	00 00 
  4094ac:	c4 41 7e 7f 87 00 02 	vmovdqu %ymm8,0x200(%r15)
  4094b3:	00 00 
  4094b5:	c4 41 7e 6f 8e 00 04 	vmovdqu 0x400(%r14),%ymm9
  4094bc:	00 00 
  4094be:	c4 41 7e 7f 8f 20 02 	vmovdqu %ymm9,0x220(%r15)
  4094c5:	00 00 
  4094c7:	c4 41 7e 6f 95 60 02 	vmovdqu 0x260(%r13),%ymm10
  4094ce:	00 00 
  4094d0:	c4 41 7e 7f 97 40 02 	vmovdqu %ymm10,0x240(%r15)
  4094d7:	00 00 
  4094d9:	c4 41 7e 6f 9e 80 00 	vmovdqu 0x80(%r14),%ymm11
  4094e0:	00 00 
  4094e2:	c4 41 7e 7f 9f 60 02 	vmovdqu %ymm11,0x260(%r15)
  4094e9:	00 00 
  4094eb:	c4 41 7e 6f a5 a0 02 	vmovdqu 0x2a0(%r13),%ymm12
  4094f2:	00 00 
  4094f4:	c4 41 7e 7f a7 80 02 	vmovdqu %ymm12,0x280(%r15)
  4094fb:	00 00 
  4094fd:	c4 41 7e 6f ae a0 05 	vmovdqu 0x5a0(%r14),%ymm13
  409504:	00 00 
  409506:	c4 41 7e 7f af a0 02 	vmovdqu %ymm13,0x2a0(%r15)
  40950d:	00 00 
  40950f:	c4 41 7e 6f b6 60 07 	vmovdqu 0x760(%r14),%ymm14
  409516:	00 00 
  409518:	c4 41 7e 7f b7 c0 02 	vmovdqu %ymm14,0x2c0(%r15)
  40951f:	00 00 
  409521:	c4 41 7e 6f be 20 04 	vmovdqu 0x420(%r14),%ymm15
  409528:	00 00 
  40952a:	c4 41 7e 7f bf e0 02 	vmovdqu %ymm15,0x2e0(%r15)
  409531:	00 00 
  409533:	c4 c1 7e 6f 86 c0 01 	vmovdqu 0x1c0(%r14),%ymm0
  40953a:	00 00 
  40953c:	c4 c1 7e 7f 87 00 03 	vmovdqu %ymm0,0x300(%r15)
  409543:	00 00 
  409545:	c4 c1 7e 6f 8e 80 06 	vmovdqu 0x680(%r14),%ymm1
  40954c:	00 00 
  40954e:	c4 c1 7e 7f 8f 20 03 	vmovdqu %ymm1,0x320(%r15)
  409555:	00 00 
  409557:	c4 c1 7e 6f 96 20 07 	vmovdqu 0x720(%r14),%ymm2
  40955e:	00 00 
  409560:	c4 c1 7e 7f 97 40 03 	vmovdqu %ymm2,0x340(%r15)
  409567:	00 00 
  409569:	c4 c1 7e 6f 9e 00 05 	vmovdqu 0x500(%r14),%ymm3
  409570:	00 00 
  409572:	c4 c1 7e 7f 9f 60 03 	vmovdqu %ymm3,0x360(%r15)
  409579:	00 00 
  40957b:	c4 c1 7e 6f a5 a0 03 	vmovdqu 0x3a0(%r13),%ymm4
  409582:	00 00 
  409584:	c4 c1 7e 7f a7 80 03 	vmovdqu %ymm4,0x380(%r15)
  40958b:	00 00 
  40958d:	c4 c1 7e 6f ae c0 00 	vmovdqu 0xc0(%r14),%ymm5
  409594:	00 00 
  409596:	c4 c1 7e 7f af a0 03 	vmovdqu %ymm5,0x3a0(%r15)
  40959d:	00 00 
  40959f:	c4 c1 7e 6f b5 e0 03 	vmovdqu 0x3e0(%r13),%ymm6
  4095a6:	00 00 
  4095a8:	c4 c1 7e 7f b7 c0 03 	vmovdqu %ymm6,0x3c0(%r15)
  4095af:	00 00 
  4095b1:	c4 c1 7e 6f be a0 04 	vmovdqu 0x4a0(%r14),%ymm7
  4095b8:	00 00 
  4095ba:	c4 c1 7e 7f bf e0 03 	vmovdqu %ymm7,0x3e0(%r15)
  4095c1:	00 00 
  4095c3:	c4 41 7e 6f 85 20 04 	vmovdqu 0x420(%r13),%ymm8
  4095ca:	00 00 
  4095cc:	c4 41 7e 7f 87 00 04 	vmovdqu %ymm8,0x400(%r15)
  4095d3:	00 00 
  4095d5:	c4 41 7e 6f 8e c0 06 	vmovdqu 0x6c0(%r14),%ymm9
  4095dc:	00 00 
  4095de:	c4 41 7e 7f 8f 20 04 	vmovdqu %ymm9,0x420(%r15)
  4095e5:	00 00 
  4095e7:	c4 41 7e 6f 96 a0 06 	vmovdqu 0x6a0(%r14),%ymm10
  4095ee:	00 00 
  4095f0:	c4 41 7e 7f 97 40 04 	vmovdqu %ymm10,0x440(%r15)
  4095f7:	00 00 
  4095f9:	c4 41 7e 6f 9e 80 03 	vmovdqu 0x380(%r14),%ymm11
  409600:	00 00 
  409602:	c4 41 7e 7f 9f 60 04 	vmovdqu %ymm11,0x460(%r15)
  409609:	00 00 
  40960b:	c4 41 7e 6f a5 a0 04 	vmovdqu 0x4a0(%r13),%ymm12
  409612:	00 00 
  409614:	c4 41 7e 7f a7 80 04 	vmovdqu %ymm12,0x480(%r15)
  40961b:	00 00 
  40961d:	c4 41 7e 6f ae 00 01 	vmovdqu 0x100(%r14),%ymm13
  409624:	00 00 
  409626:	c4 41 7e 7f af a0 04 	vmovdqu %ymm13,0x4a0(%r15)
  40962d:	00 00 
  40962f:	c4 41 7e 6f b5 e0 04 	vmovdqu 0x4e0(%r13),%ymm14
  409636:	00 00 
  409638:	c4 41 7e 7f b7 c0 04 	vmovdqu %ymm14,0x4c0(%r15)
  40963f:	00 00 
  409641:	c4 41 7e 6f be 60 04 	vmovdqu 0x460(%r14),%ymm15
  409648:	00 00 
  40964a:	c4 41 7e 7f bf e0 04 	vmovdqu %ymm15,0x4e0(%r15)
  409651:	00 00 
  409653:	c4 c1 7e 6f 85 20 05 	vmovdqu 0x520(%r13),%ymm0
  40965a:	00 00 
  40965c:	c4 c1 7e 7f 87 00 05 	vmovdqu %ymm0,0x500(%r15)
  409663:	00 00 
  409665:	c4 c1 7e 6f 8e a0 07 	vmovdqu 0x7a0(%r14),%ymm1
  40966c:	00 00 
  40966e:	c4 c1 7e 7f 8f 20 05 	vmovdqu %ymm1,0x520(%r15)
  409675:	00 00 
  409677:	c4 c1 7e 6f 95 60 05 	vmovdqu 0x560(%r13),%ymm2
  40967e:	00 00 
  409680:	c4 c1 7e 7f 97 40 05 	vmovdqu %ymm2,0x540(%r15)
  409687:	00 00 
  409689:	c4 c1 7e 6f 9e 80 01 	vmovdqu 0x180(%r14),%ymm3
  409690:	00 00 
  409692:	c4 c1 7e 7f 9f 60 05 	vmovdqu %ymm3,0x560(%r15)
  409699:	00 00 
  40969b:	c4 c1 7e 6f a5 a0 05 	vmovdqu 0x5a0(%r13),%ymm4
  4096a2:	00 00 
  4096a4:	c4 c1 7e 7f a7 80 05 	vmovdqu %ymm4,0x580(%r15)
  4096ab:	00 00 
  4096ad:	c4 c1 7e 6f ae 80 07 	vmovdqu 0x780(%r14),%ymm5
  4096b4:	00 00 
  4096b6:	c4 c1 7e 7f af a0 05 	vmovdqu %ymm5,0x5a0(%r15)
  4096bd:	00 00 
  4096bf:	c4 c1 7e 6f b5 e0 05 	vmovdqu 0x5e0(%r13),%ymm6
  4096c6:	00 00 
  4096c8:	c4 c1 7e 7f b7 c0 05 	vmovdqu %ymm6,0x5c0(%r15)
  4096cf:	00 00 
  4096d1:	c4 c1 7e 6f be a0 02 	vmovdqu 0x2a0(%r14),%ymm7
  4096d8:	00 00 
  4096da:	c4 c1 7e 7f bf e0 05 	vmovdqu %ymm7,0x5e0(%r15)
  4096e1:	00 00 
  4096e3:	c4 41 7e 6f 85 20 06 	vmovdqu 0x620(%r13),%ymm8
  4096ea:	00 00 
  4096ec:	c4 41 7e 7f 87 00 06 	vmovdqu %ymm8,0x600(%r15)
  4096f3:	00 00 
  4096f5:	c4 41 7e 6f 8e 20 01 	vmovdqu 0x120(%r14),%ymm9
  4096fc:	00 00 
  4096fe:	c4 41 7e 7f 8f 20 06 	vmovdqu %ymm9,0x620(%r15)
  409705:	00 00 
  409707:	c4 41 7e 6f 95 60 06 	vmovdqu 0x660(%r13),%ymm10
  40970e:	00 00 
  409710:	c4 41 7e 7f 97 40 06 	vmovdqu %ymm10,0x640(%r15)
  409717:	00 00 
  409719:	c4 41 7e 6f 9e 60 05 	vmovdqu 0x560(%r14),%ymm11
  409720:	00 00 
  409722:	c4 41 7e 7f 9f 60 06 	vmovdqu %ymm11,0x660(%r15)
  409729:	00 00 
  40972b:	c4 41 7e 6f a5 a0 06 	vmovdqu 0x6a0(%r13),%ymm12
  409732:	00 00 
  409734:	c4 41 7e 7f a7 80 06 	vmovdqu %ymm12,0x680(%r15)
  40973b:	00 00 
  40973d:	c4 41 7e 6f ae 00 02 	vmovdqu 0x200(%r14),%ymm13
  409744:	00 00 
  409746:	c4 41 7e 7f af a0 06 	vmovdqu %ymm13,0x6a0(%r15)
  40974d:	00 00 
  40974f:	c4 41 7e 6f b5 e0 06 	vmovdqu 0x6e0(%r13),%ymm14
  409756:	00 00 
  409758:	c4 41 7e 7f b7 c0 06 	vmovdqu %ymm14,0x6c0(%r15)
  40975f:	00 00 
  409761:	c4 41 7e 6f 7e 20    	vmovdqu 0x20(%r14),%ymm15
  409767:	c4 41 7e 7f bf e0 06 	vmovdqu %ymm15,0x6e0(%r15)
  40976e:	00 00 
  409770:	c4 c1 7e 6f 85 20 07 	vmovdqu 0x720(%r13),%ymm0
  409777:	00 00 
  409779:	c4 c1 7e 7f 87 00 07 	vmovdqu %ymm0,0x700(%r15)
  409780:	00 00 
  409782:	c4 c1 7e 6f 8e 40 04 	vmovdqu 0x440(%r14),%ymm1
  409789:	00 00 
  40978b:	c4 c1 7e 7f 8f 20 07 	vmovdqu %ymm1,0x720(%r15)
  409792:	00 00 
  409794:	c4 c1 7e 6f 95 60 07 	vmovdqu 0x760(%r13),%ymm2
  40979b:	00 00 
  40979d:	c4 c1 7e 7f 97 40 07 	vmovdqu %ymm2,0x740(%r15)
  4097a4:	00 00 
  4097a6:	c4 c1 7e 6f 9e 20 02 	vmovdqu 0x220(%r14),%ymm3
  4097ad:	00 00 
  4097af:	c4 c1 7e 7f 9f 60 07 	vmovdqu %ymm3,0x760(%r15)
  4097b6:	00 00 
  4097b8:	c4 c1 7e 6f a5 a0 07 	vmovdqu 0x7a0(%r13),%ymm4
  4097bf:	00 00 
  4097c1:	c4 c1 7e 7f a7 80 07 	vmovdqu %ymm4,0x780(%r15)
  4097c8:	00 00 
  4097ca:	c4 c1 7e 6f ae 40 07 	vmovdqu 0x740(%r14),%ymm5
  4097d1:	00 00 
  4097d3:	c4 c1 7e 7f af a0 07 	vmovdqu %ymm5,0x7a0(%r15)
  4097da:	00 00 
  4097dc:	c4 c1 7e 6f b5 e0 07 	vmovdqu 0x7e0(%r13),%ymm6
  4097e3:	00 00 
  4097e5:	c4 c1 7e 7f b7 c0 07 	vmovdqu %ymm6,0x7c0(%r15)
  4097ec:	00 00 
  4097ee:	c4 c1 7e 6f be c0 05 	vmovdqu 0x5c0(%r14),%ymm7
  4097f5:	00 00 
  4097f7:	c4 c1 7e 7f bf e0 07 	vmovdqu %ymm7,0x7e0(%r15)
  4097fe:	00 00 
  409800:	c5 f8 77             	vzeroupper 
  409803:	48 81 c4 78 3a 00 00 	add    $0x3a78,%rsp
  40980a:	5b                   	pop    %rbx
  40980b:	41 5f                	pop    %r15
  40980d:	41 5e                	pop    %r14
  40980f:	41 5d                	pop    %r13
  409811:	41 5c                	pop    %r12
  409813:	48 89 ec             	mov    %rbp,%rsp
  409816:	5d                   	pop    %rbp
  409817:	c3                   	retq   
  409818:	0f 1f 84 00 00 00 00 	nopl   0x0(%rax,%rax,1)
  40981f:	00 

0000000000409820 <sbox__0>:
  409820:	55                   	push   %rbp
  409821:	48 89 e5             	mov    %rsp,%rbp
  409824:	48 83 e4 e0          	and    $0xffffffffffffffe0,%rsp
  409828:	c5 7d 6f f3          	vmovdqa %ymm3,%ymm14
  40982c:	c5 fd 6f d8          	vmovdqa %ymm0,%ymm3
  409830:	c4 41 3d 76 c0       	vpcmpeqd %ymm8,%ymm8,%ymm8
  409835:	c5 bd ef c3          	vpxor  %ymm3,%ymm8,%ymm0
  409839:	c4 41 3d ef d6       	vpxor  %ymm14,%ymm8,%ymm10
  40983e:	c4 c1 6d ef fe       	vpxor  %ymm14,%ymm2,%ymm7
  409843:	c5 7d eb ca          	vpor   %ymm2,%ymm0,%ymm9
  409847:	c4 41 7d eb fa       	vpor   %ymm10,%ymm0,%ymm15
  40984c:	c5 7d ef e7          	vpxor  %ymm7,%ymm0,%ymm12
  409850:	c4 41 2d db d9       	vpand  %ymm9,%ymm10,%ymm11
  409855:	c5 85 db c5          	vpand  %ymm5,%ymm15,%ymm0
  409859:	c5 25 eb f5          	vpor   %ymm5,%ymm11,%ymm14
  40985d:	c4 c1 7d ef f6       	vpxor  %ymm14,%ymm0,%ymm6
  409862:	c4 41 0d ef ec       	vpxor  %ymm12,%ymm14,%ymm13
  409867:	c5 fd db c2          	vpand  %ymm2,%ymm0,%ymm0
  40986b:	c5 4d eb f1          	vpor   %ymm1,%ymm6,%ymm14
  40986f:	c5 cd ef f2          	vpxor  %ymm2,%ymm6,%ymm6
  409873:	c5 95 eb db          	vpor   %ymm3,%ymm13,%ymm3
  409877:	c4 41 0d ef f5       	vpxor  %ymm13,%ymm14,%ymm14
  40987c:	c5 b5 db f6          	vpand  %ymm6,%ymm9,%ymm6
  409880:	c4 41 0d ef ff       	vpxor  %ymm15,%ymm14,%ymm15
  409885:	c5 cd eb f1          	vpor   %ymm1,%ymm6,%ymm6
  409889:	c4 41 05 db c9       	vpand  %ymm9,%ymm15,%ymm9
  40988e:	c5 fe 7f 74 24 e0    	vmovdqu %ymm6,-0x20(%rsp)
  409894:	c4 c1 3d ef f7       	vpxor  %ymm15,%ymm8,%ymm6
  409899:	c4 41 15 ef c9       	vpxor  %ymm9,%ymm13,%ymm9
  40989e:	c5 c5 db fe          	vpand  %ymm6,%ymm7,%ymm7
  4098a2:	c5 c5 eb f1          	vpor   %ymm1,%ymm7,%ymm6
  4098a6:	c5 85 eb fd          	vpor   %ymm5,%ymm15,%ymm7
  4098aa:	c4 c1 45 ef fa       	vpxor  %ymm10,%ymm7,%ymm7
  4098af:	c5 cd ef f7          	vpxor  %ymm7,%ymm6,%ymm6
  4098b3:	c5 cd ef fb          	vpxor  %ymm3,%ymm6,%ymm7
  4098b7:	c5 cd eb dc          	vpor   %ymm4,%ymm6,%ymm3
  4098bb:	c5 c5 eb f9          	vpor   %ymm1,%ymm7,%ymm7
  4098bf:	c4 c1 65 ef f6       	vpxor  %ymm14,%ymm3,%ymm6
  4098c4:	c5 9d eb da          	vpor   %ymm2,%ymm12,%ymm3
  4098c8:	c5 fe 7f 31          	vmovdqu %ymm6,(%rcx)
  4098cc:	c5 3d ef c3          	vpxor  %ymm3,%ymm8,%ymm8
  4098d0:	c5 9d eb f0          	vpor   %ymm0,%ymm12,%ymm6
  4098d4:	c5 bd eb dd          	vpor   %ymm5,%ymm8,%ymm3
  4098d8:	c5 9d eb ed          	vpor   %ymm5,%ymm12,%ymm5
  4098dc:	c5 35 db e1          	vpand  %ymm1,%ymm9,%ymm12
  4098e0:	c4 41 65 ef c3       	vpxor  %ymm11,%ymm3,%ymm8
  4098e5:	c5 fd ef ed          	vpxor  %ymm5,%ymm0,%ymm5
  4098e9:	c5 b5 db c2          	vpand  %ymm2,%ymm9,%ymm0
  4098ed:	c5 bd eb d2          	vpor   %ymm2,%ymm8,%ymm2
  4098f1:	c5 e5 ef d8          	vpxor  %ymm0,%ymm3,%ymm3
  4098f5:	c5 05 ef fa          	vpxor  %ymm2,%ymm15,%ymm15
  4098f9:	c4 c1 15 eb d2       	vpor   %ymm10,%ymm13,%ymm2
  4098fe:	c4 41 15 db d2       	vpand  %ymm10,%ymm13,%ymm10
  409903:	c4 41 7d ef ed       	vpxor  %ymm13,%ymm0,%ymm13
  409908:	c4 c1 45 ef ff       	vpxor  %ymm15,%ymm7,%ymm7
  40990d:	c5 25 ef da          	vpxor  %ymm2,%ymm11,%ymm11
  409911:	c5 2d eb d1          	vpor   %ymm1,%ymm10,%ymm10
  409915:	c5 95 ef 44 24 e0    	vpxor  -0x20(%rsp),%ymm13,%ymm0
  40991b:	c4 c1 1d ef d3       	vpxor  %ymm11,%ymm12,%ymm2
  409920:	c5 65 eb d9          	vpor   %ymm1,%ymm3,%ymm11
  409924:	c4 41 7d db f6       	vpand  %ymm14,%ymm0,%ymm14
  409929:	c5 45 db e4          	vpand  %ymm4,%ymm7,%ymm12
  40992d:	c5 6d eb cc          	vpor   %ymm4,%ymm2,%ymm9
  409931:	c4 c1 2d ef d0       	vpxor  %ymm8,%ymm10,%ymm2
  409936:	c5 8d db c9          	vpand  %ymm1,%ymm14,%ymm1
  40993a:	c5 a5 ef f6          	vpxor  %ymm6,%ymm11,%ymm6
  40993e:	c5 35 ef c2          	vpxor  %ymm2,%ymm9,%ymm8
  409942:	c5 f5 ef cd          	vpxor  %ymm5,%ymm1,%ymm1
  409946:	c5 1d ef fe          	vpxor  %ymm6,%ymm12,%ymm15
  40994a:	c5 7e 7f 07          	vmovdqu %ymm8,(%rdi)
  40994e:	c5 f5 db e4          	vpand  %ymm4,%ymm1,%ymm4
  409952:	c5 7e 7f 3e          	vmovdqu %ymm15,(%rsi)
  409956:	c5 dd ef c8          	vpxor  %ymm0,%ymm4,%ymm1
  40995a:	c5 fe 7f 0a          	vmovdqu %ymm1,(%rdx)
  40995e:	c5 f8 77             	vzeroupper 
  409961:	48 89 ec             	mov    %rbp,%rsp
  409964:	5d                   	pop    %rbp
  409965:	c3                   	retq   
  409966:	0f 1f 00             	nopl   (%rax)
  409969:	0f 1f 80 00 00 00 00 	nopl   0x0(%rax)

0000000000409970 <sbox__1>:
  409970:	c4 41 15 76 ed       	vpcmpeqd %ymm13,%ymm13,%ymm13
  409975:	c5 15 ef fc          	vpxor  %ymm4,%ymm13,%ymm15
  409979:	c5 15 ef d8          	vpxor  %ymm0,%ymm13,%ymm11
  40997d:	c5 d5 ef fc          	vpxor  %ymm4,%ymm5,%ymm7
  409981:	c5 05 eb cd          	vpor   %ymm5,%ymm15,%ymm9
  409985:	c5 a5 ef f7          	vpxor  %ymm7,%ymm11,%ymm6
  409989:	c4 41 25 eb f1       	vpor   %ymm9,%ymm11,%ymm14
  40998e:	c5 35 ef cc          	vpxor  %ymm4,%ymm9,%ymm9
  409992:	c5 75 ef e6          	vpxor  %ymm6,%ymm1,%ymm12
  409996:	c5 0d db e9          	vpand  %ymm1,%ymm14,%ymm13
  40999a:	c5 35 eb d2          	vpor   %ymm2,%ymm9,%ymm10
  40999e:	c5 15 ef f5          	vpxor  %ymm5,%ymm13,%ymm14
  4099a2:	c5 0d db c1          	vpand  %ymm1,%ymm14,%ymm8
  4099a6:	c5 0d db fa          	vpand  %ymm2,%ymm14,%ymm15
  4099aa:	c4 41 2d ef d0       	vpxor  %ymm8,%ymm10,%ymm10
  4099af:	c4 41 05 ef f4       	vpxor  %ymm12,%ymm15,%ymm14
  4099b4:	c5 2d db eb          	vpand  %ymm3,%ymm10,%ymm13
  4099b8:	c5 2d eb d0          	vpor   %ymm0,%ymm10,%ymm10
  4099bc:	c4 41 15 ef c6       	vpxor  %ymm14,%ymm13,%ymm8
  4099c1:	c5 7d eb ec          	vpor   %ymm4,%ymm0,%ymm13
  4099c5:	c4 41 35 ef d2       	vpxor  %ymm10,%ymm9,%ymm10
  4099ca:	c5 7e 7f 06          	vmovdqu %ymm8,(%rsi)
  4099ce:	c5 15 eb f5          	vpor   %ymm5,%ymm13,%ymm14
  4099d2:	c4 41 0d ef f9       	vpxor  %ymm9,%ymm14,%ymm15
  4099d7:	c4 c1 75 ef c7       	vpxor  %ymm15,%ymm1,%ymm0
  4099dc:	c5 25 eb fd          	vpor   %ymm5,%ymm11,%ymm15
  4099e0:	c5 cd eb ed          	vpor   %ymm5,%ymm6,%ymm5
  4099e4:	c5 a5 db f4          	vpand  %ymm4,%ymm11,%ymm6
  4099e8:	c5 bd db ed          	vpand  %ymm5,%ymm8,%ymm5
  4099ec:	c5 cd eb e1          	vpor   %ymm1,%ymm6,%ymm4
  4099f0:	c5 cd ef f7          	vpxor  %ymm7,%ymm6,%ymm6
  4099f4:	c4 c1 0d ef fb       	vpxor  %ymm11,%ymm14,%ymm7
  4099f9:	c5 d5 eb ea          	vpor   %ymm2,%ymm5,%ymm5
  4099fd:	c4 41 5d ef c7       	vpxor  %ymm15,%ymm4,%ymm8
  409a02:	c5 2d eb cc          	vpor   %ymm4,%ymm10,%ymm9
  409a06:	c5 c5 db f9          	vpand  %ymm1,%ymm7,%ymm7
  409a0a:	c4 c1 5d db e5       	vpand  %ymm13,%ymm4,%ymm4
  409a0f:	c5 35 db cb          	vpand  %ymm3,%ymm9,%ymm9
  409a13:	c5 c5 ef f6          	vpxor  %ymm6,%ymm7,%ymm6
  409a17:	c5 c5 db f8          	vpand  %ymm0,%ymm7,%ymm7
  409a1b:	c5 cd db c9          	vpand  %ymm1,%ymm6,%ymm1
  409a1f:	c5 4d db da          	vpand  %ymm2,%ymm6,%ymm11
  409a23:	c5 1d ef e7          	vpxor  %ymm7,%ymm12,%ymm12
  409a27:	c5 fd ef c9          	vpxor  %ymm1,%ymm0,%ymm1
  409a2b:	c4 41 25 ef d8       	vpxor  %ymm8,%ymm11,%ymm11
  409a30:	c5 75 db ec          	vpand  %ymm4,%ymm1,%ymm13
  409a34:	c5 25 eb c3          	vpor   %ymm3,%ymm11,%ymm8
  409a38:	c5 55 ef d8          	vpxor  %ymm0,%ymm5,%ymm11
  409a3c:	c5 ad eb ea          	vpor   %ymm2,%ymm10,%ymm5
  409a40:	c5 95 eb e3          	vpor   %ymm3,%ymm13,%ymm4
  409a44:	c5 f5 db da          	vpand  %ymm2,%ymm1,%ymm3
  409a48:	c4 c1 7d db d6       	vpand  %ymm14,%ymm0,%ymm2
  409a4d:	c4 c1 55 ef ec       	vpxor  %ymm12,%ymm5,%ymm5
  409a52:	c4 41 3d ef c3       	vpxor  %ymm11,%ymm8,%ymm8
  409a57:	c5 85 ef c2          	vpxor  %ymm2,%ymm15,%ymm0
  409a5b:	c5 b5 ef fd          	vpxor  %ymm5,%ymm9,%ymm7
  409a5f:	c5 7e 7f 02          	vmovdqu %ymm8,(%rdx)
  409a63:	c5 e5 ef c8          	vpxor  %ymm0,%ymm3,%ymm1
  409a67:	c5 fe 7f 3f          	vmovdqu %ymm7,(%rdi)
  409a6b:	c5 dd ef d1          	vpxor  %ymm1,%ymm4,%ymm2
  409a6f:	c5 fe 7f 11          	vmovdqu %ymm2,(%rcx)
  409a73:	c5 f8 77             	vzeroupper 
  409a76:	c3                   	retq   
  409a77:	66 0f 1f 84 00 00 00 	nopw   0x0(%rax,%rax,1)
  409a7e:	00 00 

0000000000409a80 <sbox__2>:
  409a80:	55                   	push   %rbp
  409a81:	48 89 e5             	mov    %rsp,%rbp
  409a84:	48 83 e4 e0          	and    $0xffffffffffffffe0,%rsp
  409a88:	c4 41 15 76 ed       	vpcmpeqd %ymm13,%ymm13,%ymm13
  409a8d:	c5 15 ef e4          	vpxor  %ymm4,%ymm13,%ymm12
  409a91:	c5 15 ef ed          	vpxor  %ymm5,%ymm13,%ymm13
  409a95:	c5 6d db dc          	vpand  %ymm4,%ymm2,%ymm11
  409a99:	c5 1d db fa          	vpand  %ymm2,%ymm12,%ymm15
  409a9d:	c4 41 55 ef cb       	vpxor  %ymm11,%ymm5,%ymm9
  409aa2:	c5 1d db db          	vpand  %ymm3,%ymm12,%ymm11
  409aa6:	c5 15 ef e4          	vpxor  %ymm4,%ymm13,%ymm12
  409aaa:	c4 41 25 ef d1       	vpxor  %ymm9,%ymm11,%ymm10
  409aaf:	c5 1d eb f3          	vpor   %ymm3,%ymm12,%ymm14
  409ab3:	c4 c1 75 ef fa       	vpxor  %ymm10,%ymm1,%ymm7
  409ab8:	c4 41 0d ef f7       	vpxor  %ymm15,%ymm14,%ymm14
  409abd:	c5 8d ef e4          	vpxor  %ymm4,%ymm14,%ymm4
  409ac1:	c5 0d db c7          	vpand  %ymm7,%ymm14,%ymm8
  409ac5:	c5 c5 eb f4          	vpor   %ymm4,%ymm7,%ymm6
  409ac9:	c5 fe 7f 64 24 e0    	vmovdqu %ymm4,-0x20(%rsp)
  409acf:	c5 cd db f3          	vpand  %ymm3,%ymm6,%ymm6
  409ad3:	c4 c1 4d ef e0       	vpxor  %ymm8,%ymm6,%ymm4
  409ad8:	c5 dd db e1          	vpand  %ymm1,%ymm4,%ymm4
  409adc:	c4 c1 5d ef e6       	vpxor  %ymm14,%ymm4,%ymm4
  409ae1:	c5 0d db f5          	vpand  %ymm5,%ymm14,%ymm14
  409ae5:	c5 dd db e0          	vpand  %ymm0,%ymm4,%ymm4
  409ae9:	c4 41 2d eb d6       	vpor   %ymm14,%ymm10,%ymm10
  409aee:	c5 dd ef ff          	vpxor  %ymm7,%ymm4,%ymm7
  409af2:	c5 cd ef e2          	vpxor  %ymm2,%ymm6,%ymm4
  409af6:	c5 fe 7f 39          	vmovdqu %ymm7,(%rcx)
  409afa:	c4 c1 35 eb fd       	vpor   %ymm13,%ymm9,%ymm7
  409aff:	c5 05 ef ff          	vpxor  %ymm7,%ymm15,%ymm15
  409b03:	c5 c5 ef ed          	vpxor  %ymm5,%ymm7,%ymm5
  409b07:	c5 85 eb f1          	vpor   %ymm1,%ymm15,%ymm6
  409b0b:	c4 41 5d eb f9       	vpor   %ymm9,%ymm4,%ymm15
  409b10:	c5 25 eb cc          	vpor   %ymm4,%ymm11,%ymm9
  409b14:	c4 c1 45 db e0       	vpand  %ymm8,%ymm7,%ymm4
  409b19:	c5 65 eb c5          	vpor   %ymm5,%ymm3,%ymm8
  409b1d:	c4 41 65 ef ff       	vpxor  %ymm15,%ymm3,%ymm15
  409b22:	c5 35 eb c9          	vpor   %ymm1,%ymm9,%ymm9
  409b26:	c5 e5 ef da          	vpxor  %ymm2,%ymm3,%ymm3
  409b2a:	c5 bd ef fd          	vpxor  %ymm5,%ymm8,%ymm7
  409b2e:	c5 9d ef d2          	vpxor  %ymm2,%ymm12,%ymm2
  409b32:	c4 41 35 ef c8       	vpxor  %ymm8,%ymm9,%ymm9
  409b37:	c5 9d ef db          	vpxor  %ymm3,%ymm12,%ymm3
  409b3b:	c5 a5 eb d2          	vpor   %ymm2,%ymm11,%ymm2
  409b3f:	c5 35 eb c0          	vpor   %ymm0,%ymm9,%ymm8
  409b43:	c5 cd ef eb          	vpxor  %ymm3,%ymm6,%ymm5
  409b47:	c5 bd ef f5          	vpxor  %ymm5,%ymm8,%ymm6
  409b4b:	c5 85 eb e9          	vpor   %ymm1,%ymm15,%ymm5
  409b4f:	c5 05 ef c6          	vpxor  %ymm6,%ymm15,%ymm8
  409b53:	c5 fe 7f 37          	vmovdqu %ymm6,(%rdi)
  409b57:	c4 41 0d ef c8       	vpxor  %ymm8,%ymm14,%ymm9
  409b5c:	c5 b5 db d9          	vpand  %ymm1,%ymm9,%ymm3
  409b60:	c4 c1 65 ef da       	vpxor  %ymm10,%ymm3,%ymm3
  409b65:	c5 e5 eb f0          	vpor   %ymm0,%ymm3,%ymm6
  409b69:	c5 d5 ef da          	vpxor  %ymm2,%ymm5,%ymm3
  409b6d:	c5 c5 eb d1          	vpor   %ymm1,%ymm7,%ymm2
  409b71:	c5 4d ef c3          	vpxor  %ymm3,%ymm6,%ymm8
  409b75:	c5 ed db cc          	vpand  %ymm4,%ymm2,%ymm1
  409b79:	c5 7e 7f 02          	vmovdqu %ymm8,(%rdx)
  409b7d:	c5 f5 eb c8          	vpor   %ymm0,%ymm1,%ymm1
  409b81:	c4 c1 05 eb c5       	vpor   %ymm13,%ymm15,%ymm0
  409b86:	c5 fd ef 44 24 e0    	vpxor  -0x20(%rsp),%ymm0,%ymm0
  409b8c:	c5 ed ef d8          	vpxor  %ymm0,%ymm2,%ymm3
  409b90:	c5 f5 ef e3          	vpxor  %ymm3,%ymm1,%ymm4
  409b94:	c5 fe 7f 26          	vmovdqu %ymm4,(%rsi)
  409b98:	c5 f8 77             	vzeroupper 
  409b9b:	48 89 ec             	mov    %rbp,%rsp
  409b9e:	5d                   	pop    %rbp
  409b9f:	c3                   	retq   

0000000000409ba0 <sbox__4>:
  409ba0:	55                   	push   %rbp
  409ba1:	48 89 e5             	mov    %rsp,%rbp
  409ba4:	48 83 e4 e0          	and    $0xffffffffffffffe0,%rsp
  409ba8:	c4 41 2d 76 d2       	vpcmpeqd %ymm10,%ymm10,%ymm10
  409bad:	c5 ad ef f2          	vpxor  %ymm2,%ymm10,%ymm6
  409bb1:	c5 2d ef ed          	vpxor  %ymm5,%ymm10,%ymm13
  409bb5:	c5 65 eb fd          	vpor   %ymm5,%ymm3,%ymm15
  409bb9:	c4 41 4d eb e5       	vpor   %ymm13,%ymm6,%ymm12
  409bbe:	c4 41 6d ef c7       	vpxor  %ymm15,%ymm2,%ymm8
  409bc3:	c5 05 eb ea          	vpor   %ymm2,%ymm15,%ymm13
  409bc7:	c4 41 65 ef dc       	vpxor  %ymm12,%ymm3,%ymm11
  409bcc:	c5 1d db e0          	vpand  %ymm0,%ymm12,%ymm12
  409bd0:	c5 95 eb f8          	vpor   %ymm0,%ymm13,%ymm7
  409bd4:	c4 41 2d ef cb       	vpxor  %ymm11,%ymm10,%ymm9
  409bd9:	c4 41 05 ef fc       	vpxor  %ymm12,%ymm15,%ymm15
  409bde:	c4 41 45 ef e8       	vpxor  %ymm8,%ymm7,%ymm13
  409be3:	c4 c1 55 db d1       	vpand  %ymm9,%ymm5,%ymm2
  409be8:	c5 7e 7f 7c 24 c0    	vmovdqu %ymm15,-0x40(%rsp)
  409bee:	c5 15 db fc          	vpand  %ymm4,%ymm13,%ymm15
  409bf2:	c5 6d eb f0          	vpor   %ymm0,%ymm2,%ymm14
  409bf6:	c4 41 0d ef c0       	vpxor  %ymm8,%ymm14,%ymm8
  409bfb:	c5 3d eb c4          	vpor   %ymm4,%ymm8,%ymm8
  409bff:	c5 bd ef ff          	vpxor  %ymm7,%ymm8,%ymm7
  409c03:	c5 45 eb c1          	vpor   %ymm1,%ymm7,%ymm8
  409c07:	c4 c1 45 ef f9       	vpxor  %ymm9,%ymm7,%ymm7
  409c0c:	c5 fe 7f 7c 24 e0    	vmovdqu %ymm7,-0x20(%rsp)
  409c12:	c4 c1 1d ef fb       	vpxor  %ymm11,%ymm12,%ymm7
  409c17:	c5 05 ef ff          	vpxor  %ymm7,%ymm15,%ymm15
  409c1b:	c4 41 3d ef c7       	vpxor  %ymm15,%ymm8,%ymm8
  409c20:	c5 7e 7f 02          	vmovdqu %ymm8,(%rdx)
  409c24:	c5 6d eb c6          	vpor   %ymm6,%ymm2,%ymm8
  409c28:	c4 c1 55 ef f8       	vpxor  %ymm8,%ymm5,%ymm7
  409c2d:	c5 ed ef ee          	vpxor  %ymm6,%ymm2,%ymm5
  409c31:	c5 9d ef f6          	vpxor  %ymm6,%ymm12,%ymm6
  409c35:	c5 3d ef fb          	vpxor  %ymm3,%ymm8,%ymm15
  409c39:	c5 d5 db d0          	vpand  %ymm0,%ymm5,%ymm2
  409c3d:	c5 8d db f6          	vpand  %ymm6,%ymm14,%ymm6
  409c41:	c4 c1 6d ef e9       	vpxor  %ymm9,%ymm2,%ymm5
  409c46:	c4 41 0d ef cb       	vpxor  %ymm11,%ymm14,%ymm9
  409c4b:	c5 15 ef f0          	vpxor  %ymm0,%ymm13,%ymm14
  409c4f:	c5 85 db c0          	vpand  %ymm0,%ymm15,%ymm0
  409c53:	c4 41 3d db c6       	vpand  %ymm14,%ymm8,%ymm8
  409c58:	c5 8d eb db          	vpor   %ymm3,%ymm14,%ymm3
  409c5c:	c5 fd ef ff          	vpxor  %ymm7,%ymm0,%ymm7
  409c60:	c4 41 0d db db       	vpand  %ymm11,%ymm14,%ymm11
  409c65:	c5 3d eb c4          	vpor   %ymm4,%ymm8,%ymm8
  409c69:	c5 2d ef d3          	vpxor  %ymm3,%ymm10,%ymm10
  409c6d:	c5 bd ef ff          	vpxor  %ymm7,%ymm8,%ymm7
  409c71:	c5 ad eb c1          	vpor   %ymm1,%ymm10,%ymm0
  409c75:	c4 41 45 db c9       	vpand  %ymm9,%ymm7,%ymm9
  409c7a:	c5 7d ef d7          	vpxor  %ymm7,%ymm0,%ymm10
  409c7e:	c5 a5 db c4          	vpand  %ymm4,%ymm11,%ymm0
  409c82:	c5 ad db 5c 24 c0    	vpand  -0x40(%rsp),%ymm10,%ymm3
  409c88:	c5 fd ef d6          	vpxor  %ymm6,%ymm0,%ymm2
  409c8c:	c5 7e 7f 16          	vmovdqu %ymm10,(%rsi)
  409c90:	c5 e5 eb f4          	vpor   %ymm4,%ymm3,%ymm6
  409c94:	c5 6d eb c1          	vpor   %ymm1,%ymm2,%ymm8
  409c98:	c5 2d ef 54 24 e0    	vpxor  -0x20(%rsp),%ymm10,%ymm10
  409c9e:	c5 cd ef ed          	vpxor  %ymm5,%ymm6,%ymm5
  409ca2:	c5 3d ef dd          	vpxor  %ymm5,%ymm8,%ymm11
  409ca6:	c4 41 25 db f7       	vpand  %ymm15,%ymm11,%ymm14
  409cab:	c5 7e 7f 1f          	vmovdqu %ymm11,(%rdi)
  409caf:	c4 c1 1d ef c6       	vpxor  %ymm14,%ymm12,%ymm0
  409cb4:	c5 35 db e4          	vpand  %ymm4,%ymm9,%ymm12
  409cb8:	c4 41 1d ef fa       	vpxor  %ymm10,%ymm12,%ymm15
  409cbd:	c5 85 eb d1          	vpor   %ymm1,%ymm15,%ymm2
  409cc1:	c4 c1 45 ef cd       	vpxor  %ymm13,%ymm7,%ymm1
  409cc6:	c5 fd eb c9          	vpor   %ymm1,%ymm0,%ymm1
  409cca:	c5 f5 db e4          	vpand  %ymm4,%ymm1,%ymm4
  409cce:	c5 dd ef c8          	vpxor  %ymm0,%ymm4,%ymm1
  409cd2:	c5 ed ef d9          	vpxor  %ymm1,%ymm2,%ymm3
  409cd6:	c5 fe 7f 19          	vmovdqu %ymm3,(%rcx)
  409cda:	c5 f8 77             	vzeroupper 
  409cdd:	48 89 ec             	mov    %rbp,%rsp
  409ce0:	5d                   	pop    %rbp
  409ce1:	c3                   	retq   
  409ce2:	0f 1f 80 00 00 00 00 	nopl   0x0(%rax)
  409ce9:	0f 1f 80 00 00 00 00 	nopl   0x0(%rax)

0000000000409cf0 <sbox__5>:
  409cf0:	55                   	push   %rbp
  409cf1:	48 89 e5             	mov    %rsp,%rbp
  409cf4:	48 83 e4 e0          	and    $0xffffffffffffffe0,%rsp
  409cf8:	c5 7d 6f e5          	vmovdqa %ymm5,%ymm12
  409cfc:	c4 41 25 76 db       	vpcmpeqd %ymm11,%ymm11,%ymm11
  409d01:	c5 25 ef f4          	vpxor  %ymm4,%ymm11,%ymm14
  409d05:	c5 1d ef c9          	vpxor  %ymm1,%ymm12,%ymm9
  409d09:	c5 a5 ef f1          	vpxor  %ymm1,%ymm11,%ymm6
  409d0d:	c4 41 0d ef c1       	vpxor  %ymm9,%ymm14,%ymm8
  409d12:	c5 1d db cc          	vpand  %ymm4,%ymm12,%ymm9
  409d16:	c4 41 7d ef c0       	vpxor  %ymm8,%ymm0,%ymm8
  409d1b:	c4 41 4d eb e9       	vpor   %ymm9,%ymm6,%ymm13
  409d20:	c5 bd db fc          	vpand  %ymm4,%ymm8,%ymm7
  409d24:	c5 fe 7f 7c 24 e0    	vmovdqu %ymm7,-0x20(%rsp)
  409d2a:	c5 45 db d0          	vpand  %ymm0,%ymm7,%ymm10
  409d2e:	c5 9d db f9          	vpand  %ymm1,%ymm12,%ymm7
  409d32:	c4 41 2d ef ed       	vpxor  %ymm13,%ymm10,%ymm13
  409d37:	c5 5d ef d7          	vpxor  %ymm7,%ymm4,%ymm10
  409d3b:	c5 2d db f8          	vpand  %ymm0,%ymm10,%ymm15
  409d3f:	c4 c1 05 ef ee       	vpxor  %ymm14,%ymm15,%ymm5
  409d44:	c5 05 ef f1          	vpxor  %ymm1,%ymm15,%ymm14
  409d48:	c4 41 15 ef fc       	vpxor  %ymm12,%ymm13,%ymm15
  409d4d:	c5 15 db eb          	vpand  %ymm3,%ymm13,%ymm13
  409d51:	c5 d5 eb cb          	vpor   %ymm3,%ymm5,%ymm1
  409d55:	c4 c1 55 ef ec       	vpxor  %ymm12,%ymm5,%ymm5
  409d5a:	c4 41 7d db ff       	vpand  %ymm15,%ymm0,%ymm15
  409d5f:	c5 d5 db c0          	vpand  %ymm0,%ymm5,%ymm0
  409d63:	c4 c1 75 ef cf       	vpxor  %ymm15,%ymm1,%ymm1
  409d68:	c5 75 db fa          	vpand  %ymm2,%ymm1,%ymm15
  409d6c:	c4 c1 15 ef c8       	vpxor  %ymm8,%ymm13,%ymm1
  409d71:	c4 41 35 eb ee       	vpor   %ymm14,%ymm9,%ymm13
  409d76:	c4 41 25 ef f6       	vpxor  %ymm14,%ymm11,%ymm14
  409d7b:	c5 05 ef f9          	vpxor  %ymm1,%ymm15,%ymm15
  409d7f:	c5 fd ef cc          	vpxor  %ymm4,%ymm0,%ymm1
  409d83:	c5 d5 db e4          	vpand  %ymm4,%ymm5,%ymm4
  409d87:	c4 c1 7d eb ea       	vpor   %ymm10,%ymm0,%ymm5
  409d8c:	c5 fd ef c7          	vpxor  %ymm7,%ymm0,%ymm0
  409d90:	c5 7e 7f 3e          	vmovdqu %ymm15,(%rsi)
  409d94:	c5 15 db fb          	vpand  %ymm3,%ymm13,%ymm15
  409d98:	c5 cd ef f5          	vpxor  %ymm5,%ymm6,%ymm6
  409d9c:	c5 05 ef f9          	vpxor  %ymm1,%ymm15,%ymm15
  409da0:	c4 41 05 eb e4       	vpor   %ymm12,%ymm15,%ymm12
  409da5:	c4 41 25 ef dc       	vpxor  %ymm12,%ymm11,%ymm11
  409daa:	c5 9d ef f8          	vpxor  %ymm0,%ymm12,%ymm7
  409dae:	c5 25 db db          	vpand  %ymm3,%ymm11,%ymm11
  409db2:	c5 45 eb d3          	vpor   %ymm3,%ymm7,%ymm10
  409db6:	c4 41 25 ef de       	vpxor  %ymm14,%ymm11,%ymm11
  409dbb:	c5 ad ef c6          	vpxor  %ymm6,%ymm10,%ymm0
  409dbf:	c4 c1 4d db f6       	vpand  %ymm14,%ymm6,%ymm6
  409dc4:	c5 25 db ea          	vpand  %ymm2,%ymm11,%ymm13
  409dc8:	c5 fd eb fa          	vpor   %ymm2,%ymm0,%ymm7
  409dcc:	c5 cd eb c2          	vpor   %ymm2,%ymm6,%ymm0
  409dd0:	c5 9d db 54 24 e0    	vpand  -0x20(%rsp),%ymm12,%ymm2
  409dd6:	c4 c1 15 ef cf       	vpxor  %ymm15,%ymm13,%ymm1
  409ddb:	c4 41 25 ef d9       	vpxor  %ymm9,%ymm11,%ymm11
  409de0:	c5 ed eb d3          	vpor   %ymm3,%ymm2,%ymm2
  409de4:	c5 fe 7f 09          	vmovdqu %ymm1,(%rcx)
  409de8:	c5 bd ef cc          	vpxor  %ymm4,%ymm8,%ymm1
  409dec:	c5 f5 eb eb          	vpor   %ymm3,%ymm1,%ymm5
  409df0:	c4 c1 5d eb d8       	vpor   %ymm8,%ymm4,%ymm3
  409df5:	c4 41 55 ef d3       	vpxor  %ymm11,%ymm5,%ymm10
  409dfa:	c5 b5 ef db          	vpxor  %ymm3,%ymm9,%ymm3
  409dfe:	c4 41 45 ef ea       	vpxor  %ymm10,%ymm7,%ymm13
  409e03:	c5 ed ef cb          	vpxor  %ymm3,%ymm2,%ymm1
  409e07:	c5 7e 7f 2f          	vmovdqu %ymm13,(%rdi)
  409e0b:	c5 fd ef e1          	vpxor  %ymm1,%ymm0,%ymm4
  409e0f:	c5 fe 7f 22          	vmovdqu %ymm4,(%rdx)
  409e13:	c5 f8 77             	vzeroupper 
  409e16:	48 89 ec             	mov    %rbp,%rsp
  409e19:	5d                   	pop    %rbp
  409e1a:	c3                   	retq   
  409e1b:	0f 1f 44 00 00       	nopl   0x0(%rax,%rax,1)

0000000000409e20 <sbox__6>:
  409e20:	c5 fd 6f fa          	vmovdqa %ymm2,%ymm7
  409e24:	c5 fd 6f d1          	vmovdqa %ymm1,%ymm2
  409e28:	c5 65 db da          	vpand  %ymm2,%ymm3,%ymm11
  409e2c:	c4 41 0d 76 f6       	vpcmpeqd %ymm14,%ymm14,%ymm14
  409e31:	c5 0d ef fa          	vpxor  %ymm2,%ymm14,%ymm15
  409e35:	c5 0d ef e4          	vpxor  %ymm4,%ymm14,%ymm12
  409e39:	c4 41 5d ef f3       	vpxor  %ymm11,%ymm4,%ymm14
  409e3e:	c5 9d db cb          	vpand  %ymm3,%ymm12,%ymm1
  409e42:	c5 0d db c3          	vpand  %ymm3,%ymm14,%ymm8
  409e46:	c4 41 45 ef ce       	vpxor  %ymm14,%ymm7,%ymm9
  409e4b:	c5 1d eb e2          	vpor   %ymm2,%ymm12,%ymm12
  409e4f:	c4 c1 6d ef f0       	vpxor  %ymm8,%ymm2,%ymm6
  409e54:	c5 1d db ef          	vpand  %ymm7,%ymm12,%ymm13
  409e58:	c5 4d db f7          	vpand  %ymm7,%ymm6,%ymm14
  409e5c:	c5 cd eb f7          	vpor   %ymm7,%ymm6,%ymm6
  409e60:	c5 0d ef d0          	vpxor  %ymm0,%ymm14,%ymm10
  409e64:	c5 2d eb dd          	vpor   %ymm5,%ymm10,%ymm11
  409e68:	c5 6d eb d1          	vpor   %ymm1,%ymm2,%ymm10
  409e6c:	c4 41 25 ef d9       	vpxor  %ymm9,%ymm11,%ymm11
  409e71:	c4 41 15 ef e2       	vpxor  %ymm10,%ymm13,%ymm12
  409e76:	c4 41 3d ef c9       	vpxor  %ymm9,%ymm8,%ymm9
  409e7b:	c5 2d db d3          	vpand  %ymm3,%ymm10,%ymm10
  409e7f:	c4 c1 25 ef e0       	vpxor  %ymm8,%ymm11,%ymm4
  409e84:	c4 c1 75 eb c9       	vpor   %ymm9,%ymm1,%ymm1
  409e89:	c4 c1 4d ef f2       	vpxor  %ymm10,%ymm6,%ymm6
  409e8e:	c5 dd eb fd          	vpor   %ymm5,%ymm4,%ymm7
  409e92:	c4 c1 45 ef fc       	vpxor  %ymm12,%ymm7,%ymm7
  409e97:	c5 1d db e3          	vpand  %ymm3,%ymm12,%ymm12
  409e9b:	c5 b5 ef db          	vpxor  %ymm3,%ymm9,%ymm3
  409e9f:	c5 c5 db e0          	vpand  %ymm0,%ymm7,%ymm4
  409ea3:	c4 c1 5d ef e3       	vpxor  %ymm11,%ymm4,%ymm4
  409ea8:	c5 dd eb d2          	vpor   %ymm2,%ymm4,%ymm2
  409eac:	c5 fe 7f 27          	vmovdqu %ymm4,(%rdi)
  409eb0:	c5 bd ef e2          	vpxor  %ymm2,%ymm8,%ymm4
  409eb4:	c4 41 15 ef c0       	vpxor  %ymm8,%ymm13,%ymm8
  409eb9:	c5 95 ef d4          	vpxor  %ymm4,%ymm13,%ymm2
  409ebd:	c5 75 db ec          	vpand  %ymm4,%ymm1,%ymm13
  409ec1:	c4 c1 45 db e7       	vpand  %ymm15,%ymm7,%ymm4
  409ec6:	c5 f5 eb cd          	vpor   %ymm5,%ymm1,%ymm1
  409eca:	c5 15 db ed          	vpand  %ymm5,%ymm13,%ymm13
  409ece:	c5 f5 ef ca          	vpxor  %ymm2,%ymm1,%ymm1
  409ed2:	c4 c1 6d eb d7       	vpor   %ymm15,%ymm2,%ymm2
  409ed7:	c5 15 ef ec          	vpxor  %ymm4,%ymm13,%ymm13
  409edb:	c4 41 05 eb fc       	vpor   %ymm12,%ymm15,%ymm15
  409ee0:	c5 15 eb e8          	vpor   %ymm0,%ymm13,%ymm13
  409ee4:	c5 05 db e5          	vpand  %ymm5,%ymm15,%ymm12
  409ee8:	c5 95 ef e1          	vpxor  %ymm1,%ymm13,%ymm4
  409eec:	c5 ed eb cd          	vpor   %ymm5,%ymm2,%ymm1
  409ef0:	c4 c1 1d ef d3       	vpxor  %ymm11,%ymm12,%ymm2
  409ef5:	c5 fe 7f 21          	vmovdqu %ymm4,(%rcx)
  409ef9:	c5 75 ef d6          	vpxor  %ymm6,%ymm1,%ymm10
  409efd:	c5 ad eb c8          	vpor   %ymm0,%ymm10,%ymm1
  409f01:	c5 f5 ef e2          	vpxor  %ymm2,%ymm1,%ymm4
  409f05:	c5 dd db cb          	vpand  %ymm3,%ymm4,%ymm1
  409f09:	c5 ad ef df          	vpxor  %ymm7,%ymm10,%ymm3
  409f0d:	c5 fe 7f 26          	vmovdqu %ymm4,(%rsi)
  409f11:	c5 f5 db d5          	vpand  %ymm5,%ymm1,%ymm2
  409f15:	c5 ed ef e3          	vpxor  %ymm3,%ymm2,%ymm4
  409f19:	c5 dd eb c8          	vpor   %ymm0,%ymm4,%ymm1
  409f1d:	c5 bd eb c5          	vpor   %ymm5,%ymm8,%ymm0
  409f21:	c4 c1 2d ef ee       	vpxor  %ymm14,%ymm10,%ymm5
  409f26:	c5 fd ef c5          	vpxor  %ymm5,%ymm0,%ymm0
  409f2a:	c5 f5 ef d0          	vpxor  %ymm0,%ymm1,%ymm2
  409f2e:	c5 fe 7f 12          	vmovdqu %ymm2,(%rdx)
  409f32:	c5 f8 77             	vzeroupper 
  409f35:	c3                   	retq   
  409f36:	0f 1f 00             	nopl   (%rax)
  409f39:	0f 1f 80 00 00 00 00 	nopl   0x0(%rax)

0000000000409f40 <sbox__7>:
  409f40:	c4 41 0d 76 f6       	vpcmpeqd %ymm14,%ymm14,%ymm14
  409f45:	c5 0d ef e8          	vpxor  %ymm0,%ymm14,%ymm13
  409f49:	c5 0d ef d3          	vpxor  %ymm3,%ymm14,%ymm10
  409f4d:	c5 15 eb fa          	vpor   %ymm2,%ymm13,%ymm15
  409f51:	c5 95 ef fa          	vpxor  %ymm2,%ymm13,%ymm7
  409f55:	c5 8d ef d2          	vpxor  %ymm2,%ymm14,%ymm2
  409f59:	c4 c1 2d ef f7       	vpxor  %ymm15,%ymm10,%ymm6
  409f5e:	c5 05 db fc          	vpand  %ymm4,%ymm15,%ymm15
  409f62:	c4 41 4d eb e5       	vpor   %ymm13,%ymm6,%ymm12
  409f67:	c5 4d eb cc          	vpor   %ymm4,%ymm6,%ymm9
  409f6b:	c4 41 1d ef c2       	vpxor  %ymm10,%ymm12,%ymm8
  409f70:	c5 35 ef df          	vpxor  %ymm7,%ymm9,%ymm11
  409f74:	c5 b5 ef f6          	vpxor  %ymm6,%ymm9,%ymm6
  409f78:	c5 9d db d2          	vpand  %ymm2,%ymm12,%ymm2
  409f7c:	c5 3d db ec          	vpand  %ymm4,%ymm8,%ymm13
  409f80:	c4 41 3d ef c9       	vpxor  %ymm9,%ymm8,%ymm9
  409f85:	c5 3d db c7          	vpand  %ymm7,%ymm8,%ymm8
  409f89:	c5 c5 eb fc          	vpor   %ymm4,%ymm7,%ymm7
  409f8d:	c5 9d db e4          	vpand  %ymm4,%ymm12,%ymm4
  409f91:	c5 85 ef d2          	vpxor  %ymm2,%ymm15,%ymm2
  409f95:	c4 41 15 ef fc       	vpxor  %ymm12,%ymm13,%ymm15
  409f9a:	c4 41 5d ef c0       	vpxor  %ymm8,%ymm4,%ymm8
  409f9f:	c5 ed eb d1          	vpor   %ymm1,%ymm2,%ymm2
  409fa3:	c5 05 db f9          	vpand  %ymm1,%ymm15,%ymm15
  409fa7:	c5 bd eb e1          	vpor   %ymm1,%ymm8,%ymm4
  409fab:	c4 41 05 ef fb       	vpxor  %ymm11,%ymm15,%ymm15
  409fb0:	c4 41 5d ef c9       	vpxor  %ymm9,%ymm4,%ymm9
  409fb5:	c5 85 eb db          	vpor   %ymm3,%ymm15,%ymm3
  409fb9:	c5 35 eb c5          	vpor   %ymm5,%ymm9,%ymm8
  409fbd:	c5 e5 db d9          	vpand  %ymm1,%ymm3,%ymm3
  409fc1:	c4 c1 3d ef e7       	vpxor  %ymm15,%ymm8,%ymm4
  409fc6:	c5 fe 7f 27          	vmovdqu %ymm4,(%rdi)
  409fca:	c5 ad db e7          	vpand  %ymm7,%ymm10,%ymm4
  409fce:	c5 6d ef d4          	vpxor  %ymm4,%ymm2,%ymm10
  409fd2:	c5 5d ef c0          	vpxor  %ymm0,%ymm4,%ymm8
  409fd6:	c5 ad db d5          	vpand  %ymm5,%ymm10,%ymm2
  409fda:	c4 c1 25 db e0       	vpand  %ymm8,%ymm11,%ymm4
  409fdf:	c4 41 0d ef db       	vpxor  %ymm11,%ymm14,%ymm11
  409fe4:	c4 c1 6d ef d7       	vpxor  %ymm15,%ymm2,%ymm2
  409fe9:	c5 5d db c1          	vpand  %ymm1,%ymm4,%ymm8
  409fed:	c5 fe 7f 11          	vmovdqu %ymm2,(%rcx)
  409ff1:	c5 c5 ef d6          	vpxor  %ymm6,%ymm7,%ymm2
  409ff5:	c5 ed db f0          	vpand  %ymm0,%ymm2,%ymm6
  409ff9:	c5 95 ef c0          	vpxor  %ymm0,%ymm13,%ymm0
  409ffd:	c5 e5 ef d2          	vpxor  %ymm2,%ymm3,%ymm2
  40a001:	c5 9d ef f6          	vpxor  %ymm6,%ymm12,%ymm6
  40a005:	c4 41 1d db e3       	vpand  %ymm11,%ymm12,%ymm12
  40a00a:	c5 45 ef f0          	vpxor  %ymm0,%ymm7,%ymm14
  40a00e:	c5 bd ef e6          	vpxor  %ymm6,%ymm8,%ymm4
  40a012:	c4 41 2d ef c1       	vpxor  %ymm9,%ymm10,%ymm8
  40a017:	c5 9d eb c9          	vpor   %ymm1,%ymm12,%ymm1
  40a01b:	c5 dd eb e5          	vpor   %ymm5,%ymm4,%ymm4
  40a01f:	c4 c1 4d eb f0       	vpor   %ymm8,%ymm6,%ymm6
  40a024:	c4 c1 75 ef c6       	vpxor  %ymm14,%ymm1,%ymm0
  40a029:	c5 dd ef e2          	vpxor  %ymm2,%ymm4,%ymm4
  40a02d:	c5 cd db ed          	vpand  %ymm5,%ymm6,%ymm5
  40a031:	c5 fe 7f 22          	vmovdqu %ymm4,(%rdx)
  40a035:	c5 d5 ef c8          	vpxor  %ymm0,%ymm5,%ymm1
  40a039:	c5 fe 7f 0e          	vmovdqu %ymm1,(%rsi)
  40a03d:	c5 f8 77             	vzeroupper 
  40a040:	c3                   	retq   
  40a041:	0f 1f 84 00 00 00 00 	nopl   0x0(%rax,%rax,1)
  40a048:	00 
  40a049:	0f 1f 80 00 00 00 00 	nopl   0x0(%rax)

000000000040a050 <sbox__3>:
  40a050:	c5 6d eb c8          	vpor   %ymm0,%ymm2,%ymm9
  40a054:	c5 5d db c0          	vpand  %ymm0,%ymm4,%ymm8
  40a058:	c5 ed eb f1          	vpor   %ymm1,%ymm2,%ymm6
  40a05c:	c5 35 db ec          	vpand  %ymm4,%ymm9,%ymm13
  40a060:	c4 41 35 ef d8       	vpxor  %ymm8,%ymm9,%ymm11
  40a065:	c5 7d 6f d5          	vmovdqa %ymm5,%ymm10
  40a069:	c5 d5 76 ed          	vpcmpeqd %ymm5,%ymm5,%ymm5
  40a06d:	c5 d5 ef f8          	vpxor  %ymm0,%ymm5,%ymm7
  40a071:	c5 25 db c1          	vpand  %ymm1,%ymm11,%ymm8
  40a075:	c5 55 ef f2          	vpxor  %ymm2,%ymm5,%ymm14
  40a079:	c5 15 ef e7          	vpxor  %ymm7,%ymm13,%ymm12
  40a07d:	c5 3d ef cc          	vpxor  %ymm4,%ymm8,%ymm9
  40a081:	c5 8d ef e4          	vpxor  %ymm4,%ymm14,%ymm4
  40a085:	c5 bd ef d2          	vpxor  %ymm2,%ymm8,%ymm2
  40a089:	c4 c1 4d ef fc       	vpxor  %ymm12,%ymm6,%ymm7
  40a08e:	c5 35 db fb          	vpand  %ymm3,%ymm9,%ymm15
  40a092:	c5 35 db c9          	vpand  %ymm1,%ymm9,%ymm9
  40a096:	c5 85 ef f7          	vpxor  %ymm7,%ymm15,%ymm6
  40a09a:	c4 41 15 ef fe       	vpxor  %ymm14,%ymm13,%ymm15
  40a09f:	c5 5d eb f1          	vpor   %ymm1,%ymm4,%ymm14
  40a0a3:	c4 c1 05 db fc       	vpand  %ymm12,%ymm15,%ymm7
  40a0a8:	c5 05 db e1          	vpand  %ymm1,%ymm15,%ymm12
  40a0ac:	c5 0d ef ef          	vpxor  %ymm7,%ymm14,%ymm13
  40a0b0:	c4 41 1d ef db       	vpxor  %ymm11,%ymm12,%ymm11
  40a0b5:	c5 55 ef e6          	vpxor  %ymm6,%ymm5,%ymm12
  40a0b9:	c5 95 eb c3          	vpor   %ymm3,%ymm13,%ymm0
  40a0bd:	c4 41 7d ef fb       	vpxor  %ymm11,%ymm0,%ymm15
  40a0c2:	c5 8d ef c2          	vpxor  %ymm2,%ymm14,%ymm0
  40a0c6:	c4 c1 05 db e2       	vpand  %ymm10,%ymm15,%ymm4
  40a0cb:	c4 41 05 eb da       	vpor   %ymm10,%ymm15,%ymm11
  40a0d0:	c5 fd db d3          	vpand  %ymm3,%ymm0,%ymm2
  40a0d4:	c5 5d ef ee          	vpxor  %ymm6,%ymm4,%ymm13
  40a0d8:	c4 c1 25 ef ec       	vpxor  %ymm12,%ymm11,%ymm5
  40a0dd:	c4 c1 45 ef e1       	vpxor  %ymm9,%ymm7,%ymm4
  40a0e2:	c5 7e 7f 2e          	vmovdqu %ymm13,(%rsi)
  40a0e6:	c5 fe 7f 2f          	vmovdqu %ymm5,(%rdi)
  40a0ea:	c5 ed ef ec          	vpxor  %ymm4,%ymm2,%ymm5
  40a0ee:	c4 41 55 ef e4       	vpxor  %ymm12,%ymm5,%ymm12
  40a0f3:	c5 9d db c9          	vpand  %ymm1,%ymm12,%ymm1
  40a0f7:	c5 9d eb db          	vpor   %ymm3,%ymm12,%ymm3
  40a0fb:	c4 c1 75 ef cd       	vpxor  %ymm13,%ymm1,%ymm1
  40a100:	c5 e5 ef c1          	vpxor  %ymm1,%ymm3,%ymm0
  40a104:	c4 41 7d db d2       	vpand  %ymm10,%ymm0,%ymm10
  40a109:	c4 c1 7d ef d3       	vpxor  %ymm11,%ymm0,%ymm2
  40a10e:	c5 ad ef cd          	vpxor  %ymm5,%ymm10,%ymm1
  40a112:	c5 f5 ef da          	vpxor  %ymm2,%ymm1,%ymm3
  40a116:	c5 fe 7f 09          	vmovdqu %ymm1,(%rcx)
  40a11a:	c5 fe 7f 1a          	vmovdqu %ymm3,(%rdx)
  40a11e:	c5 f8 77             	vzeroupper 
  40a121:	c3                   	retq   
  40a122:	0f 1f 80 00 00 00 00 	nopl   0x0(%rax)
  40a129:	0f 1f 80 00 00 00 00 	nopl   0x0(%rax)

000000000040a130 <__intel_new_feature_proc_init>:
  40a130:	41 54                	push   %r12
  40a132:	41 55                	push   %r13
  40a134:	41 56                	push   %r14
  40a136:	41 57                	push   %r15
  40a138:	48 81 ec 38 04 00 00 	sub    $0x438,%rsp
  40a13f:	49 89 f6             	mov    %rsi,%r14
  40a142:	4c 8d 3d f7 6b 20 00 	lea    0x206bf7(%rip),%r15        # 610d40 <__intel_cpu_feature_indicator>
  40a149:	41 89 fd             	mov    %edi,%r13d
  40a14c:	64 48 8b 04 25 28 00 	mov    %fs:0x28,%rax
  40a153:	00 00 
  40a155:	48 33 c4             	xor    %rsp,%rax
  40a158:	4d 8b 27             	mov    (%r15),%r12
  40a15b:	48 89 84 24 28 04 00 	mov    %rax,0x428(%rsp)
  40a162:	00 
  40a163:	4d 85 e4             	test   %r12,%r12
  40a166:	0f 84 f8 02 00 00    	je     40a464 <__intel_new_feature_proc_init+0x334>
  40a16c:	4c 89 e0             	mov    %r12,%rax
  40a16f:	49 23 c6             	and    %r14,%rax
  40a172:	49 3b c6             	cmp    %r14,%rax
  40a175:	0f 84 4c 02 00 00    	je     40a3c7 <__intel_new_feature_proc_init+0x297>
  40a17b:	49 f7 c6 01 00 00 00 	test   $0x1,%r14
  40a182:	0f 85 b3 02 00 00    	jne    40a43b <__intel_new_feature_proc_init+0x30b>
  40a188:	45 33 ff             	xor    %r15d,%r15d
  40a18b:	49 f7 d4             	not    %r12
  40a18e:	bf 39 00 00 00       	mov    $0x39,%edi
  40a193:	33 f6                	xor    %esi,%esi
  40a195:	33 c0                	xor    %eax,%eax
  40a197:	4d 23 e6             	and    %r14,%r12
  40a19a:	45 33 f6             	xor    %r14d,%r14d
  40a19d:	e8 be 1a 00 00       	callq  40bc60 <__libirc_get_msg>
  40a1a2:	c6 44 24 28 00       	movb   $0x0,0x28(%rsp)
  40a1a7:	4c 89 f2             	mov    %r14,%rdx
  40a1aa:	48 89 44 24 20       	mov    %rax,0x20(%rsp)
  40a1af:	41 bd 01 00 00 00    	mov    $0x1,%r13d
  40a1b5:	48 89 5c 24 18       	mov    %rbx,0x18(%rsp)
  40a1ba:	48 89 6c 24 10       	mov    %rbp,0x10(%rsp)
  40a1bf:	4c 89 f5             	mov    %r14,%rbp
  40a1c2:	b8 01 00 00 00       	mov    $0x1,%eax
  40a1c7:	41 8d 4d 3f          	lea    0x3f(%r13),%ecx
  40a1cb:	48 d3 e0             	shl    %cl,%rax
  40a1ce:	41 83 fd 2b          	cmp    $0x2b,%r13d
  40a1d2:	48 0f 47 c5          	cmova  %rbp,%rax
  40a1d6:	4c 85 e0             	test   %r12,%rax
  40a1d9:	0f 84 ff 00 00 00    	je     40a2de <__intel_new_feature_proc_init+0x1ae>
  40a1df:	48 8d 05 5a 56 20 00 	lea    0x20565a(%rip),%rax        # 60f840 <c_feature_names>
  40a1e6:	4a 8b 1c e8          	mov    (%rax,%r13,8),%rbx
  40a1ea:	48 85 db             	test   %rbx,%rbx
  40a1ed:	0f 84 39 02 00 00    	je     40a42c <__intel_new_feature_proc_init+0x2fc>
  40a1f3:	80 3b 00             	cmpb   $0x0,(%rbx)
  40a1f6:	0f 84 30 02 00 00    	je     40a42c <__intel_new_feature_proc_init+0x2fc>
  40a1fc:	80 7c 24 28 00       	cmpb   $0x0,0x28(%rsp)
  40a201:	0f 84 ab 00 00 00    	je     40a2b2 <__intel_new_feature_proc_init+0x182>
  40a207:	4d 85 ff             	test   %r15,%r15
  40a20a:	0f 84 9d 00 00 00    	je     40a2ad <__intel_new_feature_proc_init+0x17d>
  40a210:	4c 89 ff             	mov    %r15,%rdi
  40a213:	e8 d8 66 ff ff       	callq  4008f0 <strlen@plt>
  40a218:	48 8b 7c 24 20       	mov    0x20(%rsp),%rdi
  40a21d:	48 89 44 24 08       	mov    %rax,0x8(%rsp)
  40a222:	e8 c9 66 ff ff       	callq  4008f0 <strlen@plt>
  40a227:	48 89 df             	mov    %rbx,%rdi
  40a22a:	48 89 04 24          	mov    %rax,(%rsp)
  40a22e:	e8 bd 66 ff ff       	callq  4008f0 <strlen@plt>
  40a233:	48 89 c1             	mov    %rax,%rcx
  40a236:	48 8b 44 24 08       	mov    0x8(%rsp),%rax
  40a23b:	49 03 c6             	add    %r14,%rax
  40a23e:	48 03 04 24          	add    (%rsp),%rax
  40a242:	4c 8d 44 08 02       	lea    0x2(%rax,%rcx,1),%r8
  40a247:	49 81 f8 00 04 00 00 	cmp    $0x400,%r8
  40a24e:	0f 83 a6 01 00 00    	jae    40a3fa <__intel_new_feature_proc_init+0x2ca>
  40a254:	49 f7 de             	neg    %r14
  40a257:	48 8d 7c 24 28       	lea    0x28(%rsp),%rdi
  40a25c:	49 81 c6 ff 03 00 00 	add    $0x3ff,%r14
  40a263:	48 8d 35 36 33 00 00 	lea    0x3336(%rip),%rsi        # 40d5a0 <__dso_handle+0x1b8>
  40a26a:	4c 89 f2             	mov    %r14,%rdx
  40a26d:	b9 00 04 00 00       	mov    $0x400,%ecx
  40a272:	e8 39 67 ff ff       	callq  4009b0 <__strncat_chk@plt>
  40a277:	48 8d 7c 24 28       	lea    0x28(%rsp),%rdi
  40a27c:	e8 6f 66 ff ff       	callq  4008f0 <strlen@plt>
  40a281:	48 63 d0             	movslq %eax,%rdx
  40a284:	48 8d 7c 24 28       	lea    0x28(%rsp),%rdi
  40a289:	48 f7 da             	neg    %rdx
  40a28c:	4c 89 fe             	mov    %r15,%rsi
  40a28f:	48 81 c2 ff 03 00 00 	add    $0x3ff,%rdx
  40a296:	b9 00 04 00 00       	mov    $0x400,%ecx
  40a29b:	e8 10 67 ff ff       	callq  4009b0 <__strncat_chk@plt>
  40a2a0:	48 8d 7c 24 28       	lea    0x28(%rsp),%rdi
  40a2a5:	e8 46 66 ff ff       	callq  4008f0 <strlen@plt>
  40a2aa:	4c 63 f0             	movslq %eax,%r14
  40a2ad:	49 89 df             	mov    %rbx,%r15
  40a2b0:	eb 2c                	jmp    40a2de <__intel_new_feature_proc_init+0x1ae>
  40a2b2:	49 f7 de             	neg    %r14
  40a2b5:	48 8d 7c 24 28       	lea    0x28(%rsp),%rdi
  40a2ba:	49 81 c6 ff 03 00 00 	add    $0x3ff,%r14
  40a2c1:	48 89 de             	mov    %rbx,%rsi
  40a2c4:	4c 89 f2             	mov    %r14,%rdx
  40a2c7:	b9 00 04 00 00       	mov    $0x400,%ecx
  40a2cc:	e8 df 66 ff ff       	callq  4009b0 <__strncat_chk@plt>
  40a2d1:	48 8d 7c 24 28       	lea    0x28(%rsp),%rdi
  40a2d6:	e8 15 66 ff ff       	callq  4008f0 <strlen@plt>
  40a2db:	4c 63 f0             	movslq %eax,%r14
  40a2de:	41 ff c5             	inc    %r13d
  40a2e1:	41 83 fd 2b          	cmp    $0x2b,%r13d
  40a2e5:	0f 8e d7 fe ff ff    	jle    40a1c2 <__intel_new_feature_proc_init+0x92>
  40a2eb:	48 8b 44 24 20       	mov    0x20(%rsp),%rax
  40a2f0:	4c 89 f2             	mov    %r14,%rdx
  40a2f3:	48 8b 5c 24 18       	mov    0x18(%rsp),%rbx
  40a2f8:	48 8b 6c 24 10       	mov    0x10(%rsp),%rbp
  40a2fd:	4d 85 ff             	test   %r15,%r15
  40a300:	74 45                	je     40a347 <__intel_new_feature_proc_init+0x217>
  40a302:	48 f7 da             	neg    %rdx
  40a305:	48 8d 7c 24 28       	lea    0x28(%rsp),%rdi
  40a30a:	48 81 c2 ff 03 00 00 	add    $0x3ff,%rdx
  40a311:	48 89 c6             	mov    %rax,%rsi
  40a314:	b9 00 04 00 00       	mov    $0x400,%ecx
  40a319:	e8 92 66 ff ff       	callq  4009b0 <__strncat_chk@plt>
  40a31e:	48 8d 7c 24 28       	lea    0x28(%rsp),%rdi
  40a323:	e8 c8 65 ff ff       	callq  4008f0 <strlen@plt>
  40a328:	48 63 d0             	movslq %eax,%rdx
  40a32b:	48 8d 7c 24 28       	lea    0x28(%rsp),%rdi
  40a330:	48 f7 da             	neg    %rdx
  40a333:	4c 89 fe             	mov    %r15,%rsi
  40a336:	48 81 c2 ff 03 00 00 	add    $0x3ff,%rdx
  40a33d:	b9 00 04 00 00       	mov    $0x400,%ecx
  40a342:	e8 69 66 ff ff       	callq  4009b0 <__strncat_chk@plt>
  40a347:	80 7c 24 28 00       	cmpb   $0x0,0x28(%rsp)
  40a34c:	75 3d                	jne    40a38b <__intel_new_feature_proc_init+0x25b>
  40a34e:	33 f6                	xor    %esi,%esi
  40a350:	bf 01 00 00 00       	mov    $0x1,%edi
  40a355:	33 d2                	xor    %edx,%edx
  40a357:	33 c0                	xor    %eax,%eax
  40a359:	e8 82 1b 00 00       	callq  40bee0 <__libirc_print>
  40a35e:	bf 01 00 00 00       	mov    $0x1,%edi
  40a363:	be 3a 00 00 00       	mov    $0x3a,%esi
  40a368:	33 d2                	xor    %edx,%edx
  40a36a:	33 c0                	xor    %eax,%eax
  40a36c:	e8 6f 1b 00 00       	callq  40bee0 <__libirc_print>
  40a371:	33 f6                	xor    %esi,%esi
  40a373:	bf 01 00 00 00       	mov    $0x1,%edi
  40a378:	33 d2                	xor    %edx,%edx
  40a37a:	33 c0                	xor    %eax,%eax
  40a37c:	e8 5f 1b 00 00       	callq  40bee0 <__libirc_print>
  40a381:	bf 01 00 00 00       	mov    $0x1,%edi
  40a386:	e8 f5 65 ff ff       	callq  400980 <exit@plt>
  40a38b:	33 f6                	xor    %esi,%esi
  40a38d:	bf 01 00 00 00       	mov    $0x1,%edi
  40a392:	33 d2                	xor    %edx,%edx
  40a394:	33 c0                	xor    %eax,%eax
  40a396:	e8 45 1b 00 00       	callq  40bee0 <__libirc_print>
  40a39b:	bf 01 00 00 00       	mov    $0x1,%edi
  40a3a0:	be 38 00 00 00       	mov    $0x38,%esi
  40a3a5:	89 fa                	mov    %edi,%edx
  40a3a7:	48 8d 4c 24 28       	lea    0x28(%rsp),%rcx
  40a3ac:	33 c0                	xor    %eax,%eax
  40a3ae:	e8 2d 1b 00 00       	callq  40bee0 <__libirc_print>
  40a3b3:	eb bc                	jmp    40a371 <__intel_new_feature_proc_init+0x241>
  40a3b5:	33 f6                	xor    %esi,%esi
  40a3b7:	bf 01 00 00 00       	mov    $0x1,%edi
  40a3bc:	33 d2                	xor    %edx,%edx
  40a3be:	33 c0                	xor    %eax,%eax
  40a3c0:	e8 1b 1b 00 00       	callq  40bee0 <__libirc_print>
  40a3c5:	eb 97                	jmp    40a35e <__intel_new_feature_proc_init+0x22e>
  40a3c7:	49 f7 c4 20 00 00 00 	test   $0x20,%r12
  40a3ce:	0f 85 81 00 00 00    	jne    40a455 <__intel_new_feature_proc_init+0x325>
  40a3d4:	48 8b 84 24 28 04 00 	mov    0x428(%rsp),%rax
  40a3db:	00 
  40a3dc:	48 33 c4             	xor    %rsp,%rax
  40a3df:	64 48 3b 04 25 28 00 	cmp    %fs:0x28,%rax
  40a3e6:	00 00 
  40a3e8:	75 66                	jne    40a450 <__intel_new_feature_proc_init+0x320>
  40a3ea:	48 81 c4 38 04 00 00 	add    $0x438,%rsp
  40a3f1:	41 5f                	pop    %r15
  40a3f3:	41 5e                	pop    %r14
  40a3f5:	41 5d                	pop    %r13
  40a3f7:	41 5c                	pop    %r12
  40a3f9:	c3                   	retq   
  40a3fa:	4c 89 f2             	mov    %r14,%rdx
  40a3fd:	48 8d 7c 24 28       	lea    0x28(%rsp),%rdi
  40a402:	48 f7 da             	neg    %rdx
  40a405:	b9 00 04 00 00       	mov    $0x400,%ecx
  40a40a:	48 8b 47 f8          	mov    -0x8(%rdi),%rax
  40a40e:	48 81 c2 ff 03 00 00 	add    $0x3ff,%rdx
  40a415:	48 89 c6             	mov    %rax,%rsi
  40a418:	48 8b 5c 24 18       	mov    0x18(%rsp),%rbx
  40a41d:	48 8b 6c 24 10       	mov    0x10(%rsp),%rbp
  40a422:	e8 89 65 ff ff       	callq  4009b0 <__strncat_chk@plt>
  40a427:	e9 f2 fe ff ff       	jmpq   40a31e <__intel_new_feature_proc_init+0x1ee>
  40a42c:	48 8b 5c 24 18       	mov    0x18(%rsp),%rbx
  40a431:	48 8b 6c 24 10       	mov    0x10(%rsp),%rbp
  40a436:	e9 7a ff ff ff       	jmpq   40a3b5 <__intel_new_feature_proc_init+0x285>
  40a43b:	33 f6                	xor    %esi,%esi
  40a43d:	bf 01 00 00 00       	mov    $0x1,%edi
  40a442:	33 d2                	xor    %edx,%edx
  40a444:	33 c0                	xor    %eax,%eax
  40a446:	e8 95 1a 00 00       	callq  40bee0 <__libirc_print>
  40a44b:	e9 0e ff ff ff       	jmpq   40a35e <__intel_new_feature_proc_init+0x22e>
  40a450:	e8 ab 64 ff ff       	callq  400900 <__stack_chk_fail@plt>
  40a455:	33 ff                	xor    %edi,%edi
  40a457:	44 89 ee             	mov    %r13d,%esi
  40a45a:	e8 01 2e 00 00       	callq  40d260 <__intel_proc_init_ftzdazule>
  40a45f:	e9 70 ff ff ff       	jmpq   40a3d4 <__intel_new_feature_proc_init+0x2a4>
  40a464:	33 c0                	xor    %eax,%eax
  40a466:	e8 85 1d 00 00       	callq  40c1f0 <__intel_cpu_features_init>
  40a46b:	4d 8b 27             	mov    (%r15),%r12
  40a46e:	4d 85 e4             	test   %r12,%r12
  40a471:	0f 85 f5 fc ff ff    	jne    40a16c <__intel_new_feature_proc_init+0x3c>
  40a477:	33 f6                	xor    %esi,%esi
  40a479:	bf 01 00 00 00       	mov    $0x1,%edi
  40a47e:	33 d2                	xor    %edx,%edx
  40a480:	33 c0                	xor    %eax,%eax
  40a482:	e8 59 1a 00 00       	callq  40bee0 <__libirc_print>
  40a487:	bf 01 00 00 00       	mov    $0x1,%edi
  40a48c:	be 3b 00 00 00       	mov    $0x3b,%esi
  40a491:	33 d2                	xor    %edx,%edx
  40a493:	33 c0                	xor    %eax,%eax
  40a495:	e8 46 1a 00 00       	callq  40bee0 <__libirc_print>
  40a49a:	e9 d2 fe ff ff       	jmpq   40a371 <__intel_new_feature_proc_init+0x241>
  40a49f:	90                   	nop

000000000040a4a0 <__intel_avx_rep_memcpy>:
  40a4a0:	41 54                	push   %r12
  40a4a2:	48 89 d1             	mov    %rdx,%rcx
  40a4a5:	4c 8d 15 38 64 20 00 	lea    0x206438(%rip),%r10        # 6108e4 <__libirc_largest_cache_size_half>
  40a4ac:	4c 8d 05 39 64 20 00 	lea    0x206439(%rip),%r8        # 6108ec <__libirc_data_cache_size_half>
  40a4b3:	48 89 f8             	mov    %rdi,%rax
  40a4b6:	48 81 f9 00 01 00 00 	cmp    $0x100,%rcx
  40a4bd:	77 11                	ja     40a4d0 <__intel_avx_rep_memcpy+0x30>
  40a4bf:	4c 8d 0d 7a 0f 00 00 	lea    0xf7a(%rip),%r9        # 40b440 <__intel_avx_rep_memcpy+0xfa0>
  40a4c6:	4d 2b 0c c9          	sub    (%r9,%rcx,8),%r9
  40a4ca:	41 ff e1             	jmpq   *%r9
  40a4cd:	0f 1f 00             	nopl   (%rax)
  40a4d0:	4c 8d 0d 69 06 00 00 	lea    0x669(%rip),%r9        # 40ab40 <__intel_avx_rep_memcpy+0x6a0>
  40a4d7:	49 89 fb             	mov    %rdi,%r11
  40a4da:	49 83 e3 1f          	and    $0x1f,%r11
  40a4de:	74 26                	je     40a506 <__intel_avx_rep_memcpy+0x66>
  40a4e0:	49 f7 db             	neg    %r11
  40a4e3:	49 83 c3 20          	add    $0x20,%r11
  40a4e7:	49 2b cb             	sub    %r11,%rcx
  40a4ea:	49 89 fc             	mov    %rdi,%r12
  40a4ed:	4d 03 e3             	add    %r11,%r12
  40a4f0:	48 89 f2             	mov    %rsi,%rdx
  40a4f3:	49 03 d3             	add    %r11,%rdx
  40a4f6:	4f 2b 0c d9          	sub    (%r9,%r11,8),%r9
  40a4fa:	41 ff e1             	jmpq   *%r9
  40a4fd:	0f 1f 00             	nopl   (%rax)
  40a500:	49 03 fb             	add    %r11,%rdi
  40a503:	49 03 f3             	add    %r11,%rsi
  40a506:	48 81 f9 00 01 00 00 	cmp    $0x100,%rcx
  40a50d:	0f 8c 4d 02 00 00    	jl     40a760 <__intel_avx_rep_memcpy+0x2c0>
  40a513:	45 8b 08             	mov    (%r8),%r9d
  40a516:	4d 89 cb             	mov    %r9,%r11
  40a519:	49 c1 e9 02          	shr    $0x2,%r9
  40a51d:	4d 2b d9             	sub    %r9,%r11
  40a520:	49 3b cb             	cmp    %r11,%rcx
  40a523:	0f 83 97 00 00 00    	jae    40a5c0 <__intel_avx_rep_memcpy+0x120>
  40a529:	0f 1f 80 00 00 00 00 	nopl   0x0(%rax)
  40a530:	c5 fe 6f 0e          	vmovdqu (%rsi),%ymm1
  40a534:	c5 fe 6f 56 20       	vmovdqu 0x20(%rsi),%ymm2
  40a539:	c5 fe 6f 5e 40       	vmovdqu 0x40(%rsi),%ymm3
  40a53e:	c5 fe 6f 66 60       	vmovdqu 0x60(%rsi),%ymm4
  40a543:	c5 fe 6f ae 80 00 00 	vmovdqu 0x80(%rsi),%ymm5
  40a54a:	00 
  40a54b:	c5 fe 6f b6 a0 00 00 	vmovdqu 0xa0(%rsi),%ymm6
  40a552:	00 
  40a553:	c5 fe 6f be c0 00 00 	vmovdqu 0xc0(%rsi),%ymm7
  40a55a:	00 
  40a55b:	c5 7e 6f 86 e0 00 00 	vmovdqu 0xe0(%rsi),%ymm8
  40a562:	00 
  40a563:	c5 fd 7f 0f          	vmovdqa %ymm1,(%rdi)
  40a567:	c5 fd 7f 57 20       	vmovdqa %ymm2,0x20(%rdi)
  40a56c:	c5 fd 7f 5f 40       	vmovdqa %ymm3,0x40(%rdi)
  40a571:	c5 fd 7f 67 60       	vmovdqa %ymm4,0x60(%rdi)
  40a576:	c5 fd 7f af 80 00 00 	vmovdqa %ymm5,0x80(%rdi)
  40a57d:	00 
  40a57e:	c5 fd 7f b7 a0 00 00 	vmovdqa %ymm6,0xa0(%rdi)
  40a585:	00 
  40a586:	c5 fd 7f bf c0 00 00 	vmovdqa %ymm7,0xc0(%rdi)
  40a58d:	00 
  40a58e:	c5 7d 7f 87 e0 00 00 	vmovdqa %ymm8,0xe0(%rdi)
  40a595:	00 
  40a596:	48 81 c7 00 01 00 00 	add    $0x100,%rdi
  40a59d:	48 81 c6 00 01 00 00 	add    $0x100,%rsi
  40a5a4:	48 81 e9 00 01 00 00 	sub    $0x100,%rcx
  40a5ab:	48 81 f9 00 01 00 00 	cmp    $0x100,%rcx
  40a5b2:	0f 83 78 ff ff ff    	jae    40a530 <__intel_avx_rep_memcpy+0x90>
  40a5b8:	e9 a3 01 00 00       	jmpq   40a760 <__intel_avx_rep_memcpy+0x2c0>
  40a5bd:	0f 1f 00             	nopl   (%rax)
  40a5c0:	45 8b 0a             	mov    (%r10),%r9d
  40a5c3:	49 3b c9             	cmp    %r9,%rcx
  40a5c6:	73 18                	jae    40a5e0 <__intel_avx_rep_memcpy+0x140>
  40a5c8:	0f 1f 84 00 00 00 00 	nopl   0x0(%rax,%rax,1)
  40a5cf:	00 
  40a5d0:	f3 a4                	rep movsb %ds:(%rsi),%es:(%rdi)
  40a5d2:	e9 79 16 00 00       	jmpq   40bc50 <__intel_avx_rep_memcpy+0x17b0>
  40a5d7:	66 0f 1f 84 00 00 00 	nopw   0x0(%rax,%rax,1)
  40a5de:	00 00 
  40a5e0:	0f 18 8e 00 02 00 00 	prefetcht0 0x200(%rsi)
  40a5e7:	0f 18 8e 40 02 00 00 	prefetcht0 0x240(%rsi)
  40a5ee:	0f 18 8e 80 02 00 00 	prefetcht0 0x280(%rsi)
  40a5f5:	0f 18 8e c0 02 00 00 	prefetcht0 0x2c0(%rsi)
  40a5fc:	c5 fe 6f 0e          	vmovdqu (%rsi),%ymm1
  40a600:	c5 fe 6f 56 20       	vmovdqu 0x20(%rsi),%ymm2
  40a605:	c5 fe 6f 5e 40       	vmovdqu 0x40(%rsi),%ymm3
  40a60a:	c5 fe 6f 66 60       	vmovdqu 0x60(%rsi),%ymm4
  40a60f:	c5 fe 6f ae 80 00 00 	vmovdqu 0x80(%rsi),%ymm5
  40a616:	00 
  40a617:	c5 fe 6f b6 a0 00 00 	vmovdqu 0xa0(%rsi),%ymm6
  40a61e:	00 
  40a61f:	c5 fe 6f be c0 00 00 	vmovdqu 0xc0(%rsi),%ymm7
  40a626:	00 
  40a627:	c5 7e 6f 86 e0 00 00 	vmovdqu 0xe0(%rsi),%ymm8
  40a62e:	00 
  40a62f:	48 81 e9 00 01 00 00 	sub    $0x100,%rcx
  40a636:	c5 fd e7 0f          	vmovntdq %ymm1,(%rdi)
  40a63a:	c5 fd e7 57 20       	vmovntdq %ymm2,0x20(%rdi)
  40a63f:	c5 fd e7 5f 40       	vmovntdq %ymm3,0x40(%rdi)
  40a644:	c5 fd e7 67 60       	vmovntdq %ymm4,0x60(%rdi)
  40a649:	c5 fd e7 af 80 00 00 	vmovntdq %ymm5,0x80(%rdi)
  40a650:	00 
  40a651:	c5 fd e7 b7 a0 00 00 	vmovntdq %ymm6,0xa0(%rdi)
  40a658:	00 
  40a659:	c5 fd e7 bf c0 00 00 	vmovntdq %ymm7,0xc0(%rdi)
  40a660:	00 
  40a661:	c5 7d e7 87 e0 00 00 	vmovntdq %ymm8,0xe0(%rdi)
  40a668:	00 
  40a669:	48 8d bf 00 01 00 00 	lea    0x100(%rdi),%rdi
  40a670:	48 8d b6 00 01 00 00 	lea    0x100(%rsi),%rsi
  40a677:	48 81 f9 00 03 00 00 	cmp    $0x300,%rcx
  40a67e:	0f 8d 5c ff ff ff    	jge    40a5e0 <__intel_avx_rep_memcpy+0x140>
  40a684:	0f ae f8             	sfence 
  40a687:	e9 a4 fe ff ff       	jmpq   40a530 <__intel_avx_rep_memcpy+0x90>
  40a68c:	0f 1f 40 00          	nopl   0x0(%rax)
  40a690:	44 8a 0e             	mov    (%rsi),%r9b
  40a693:	44 88 0f             	mov    %r9b,(%rdi)
  40a696:	e9 65 fe ff ff       	jmpq   40a500 <__intel_avx_rep_memcpy+0x60>
  40a69b:	0f 1f 44 00 00       	nopl   0x0(%rax,%rax,1)
  40a6a0:	66 44 8b 0e          	mov    (%rsi),%r9w
  40a6a4:	66 44 89 0f          	mov    %r9w,(%rdi)
  40a6a8:	e9 53 fe ff ff       	jmpq   40a500 <__intel_avx_rep_memcpy+0x60>
  40a6ad:	0f 1f 00             	nopl   (%rax)
  40a6b0:	66 44 8b 0e          	mov    (%rsi),%r9w
  40a6b4:	66 44 89 0f          	mov    %r9w,(%rdi)
  40a6b8:	44 8a 4e 02          	mov    0x2(%rsi),%r9b
  40a6bc:	44 88 4f 02          	mov    %r9b,0x2(%rdi)
  40a6c0:	e9 3b fe ff ff       	jmpq   40a500 <__intel_avx_rep_memcpy+0x60>
  40a6c5:	0f 1f 40 00          	nopl   0x0(%rax)
  40a6c9:	0f 1f 80 00 00 00 00 	nopl   0x0(%rax)
  40a6d0:	44 8b 0e             	mov    (%rsi),%r9d
  40a6d3:	44 89 0f             	mov    %r9d,(%rdi)
  40a6d6:	e9 25 fe ff ff       	jmpq   40a500 <__intel_avx_rep_memcpy+0x60>
  40a6db:	0f 1f 44 00 00       	nopl   0x0(%rax,%rax,1)
  40a6e0:	44 8b 0e             	mov    (%rsi),%r9d
  40a6e3:	44 89 0f             	mov    %r9d,(%rdi)
  40a6e6:	44 8b 4a fc          	mov    -0x4(%rdx),%r9d
  40a6ea:	45 89 4c 24 fc       	mov    %r9d,-0x4(%r12)
  40a6ef:	e9 0c fe ff ff       	jmpq   40a500 <__intel_avx_rep_memcpy+0x60>
  40a6f4:	0f 1f 44 00 00       	nopl   0x0(%rax,%rax,1)
  40a6f9:	0f 1f 80 00 00 00 00 	nopl   0x0(%rax)
  40a700:	4c 8b 0e             	mov    (%rsi),%r9
  40a703:	4c 89 0f             	mov    %r9,(%rdi)
  40a706:	e9 f5 fd ff ff       	jmpq   40a500 <__intel_avx_rep_memcpy+0x60>
  40a70b:	0f 1f 44 00 00       	nopl   0x0(%rax,%rax,1)
  40a710:	4c 8b 0e             	mov    (%rsi),%r9
  40a713:	4c 89 0f             	mov    %r9,(%rdi)
  40a716:	4c 8b 4a f8          	mov    -0x8(%rdx),%r9
  40a71a:	4d 89 4c 24 f8       	mov    %r9,-0x8(%r12)
  40a71f:	e9 dc fd ff ff       	jmpq   40a500 <__intel_avx_rep_memcpy+0x60>
  40a724:	0f 1f 44 00 00       	nopl   0x0(%rax,%rax,1)
  40a729:	0f 1f 80 00 00 00 00 	nopl   0x0(%rax)
  40a730:	c5 f8 10 06          	vmovups (%rsi),%xmm0
  40a734:	c5 f8 11 07          	vmovups %xmm0,(%rdi)
  40a738:	e9 c3 fd ff ff       	jmpq   40a500 <__intel_avx_rep_memcpy+0x60>
  40a73d:	0f 1f 00             	nopl   (%rax)
  40a740:	c5 f8 10 06          	vmovups (%rsi),%xmm0
  40a744:	c5 f8 11 07          	vmovups %xmm0,(%rdi)
  40a748:	c5 f8 10 42 f0       	vmovups -0x10(%rdx),%xmm0
  40a74d:	c4 c1 78 11 44 24 f0 	vmovups %xmm0,-0x10(%r12)
  40a754:	e9 a7 fd ff ff       	jmpq   40a500 <__intel_avx_rep_memcpy+0x60>
  40a759:	0f 1f 80 00 00 00 00 	nopl   0x0(%rax)
  40a760:	48 03 f9             	add    %rcx,%rdi
  40a763:	49 89 fc             	mov    %rdi,%r12
  40a766:	4d 89 e3             	mov    %r12,%r11
  40a769:	48 83 e7 e0          	and    $0xffffffffffffffe0,%rdi
  40a76d:	48 03 f1             	add    %rcx,%rsi
  40a770:	48 89 f2             	mov    %rsi,%rdx
  40a773:	4c 2b df             	sub    %rdi,%r11
  40a776:	49 2b f3             	sub    %r11,%rsi
  40a779:	4c 8d 0d c0 04 00 00 	lea    0x4c0(%rip),%r9        # 40ac40 <__intel_avx_rep_memcpy+0x7a0>
  40a780:	4d 2b 0c c9          	sub    (%r9,%rcx,8),%r9
  40a784:	41 ff e1             	jmpq   *%r9
  40a787:	66 0f 1f 84 00 00 00 	nopw   0x0(%rax,%rax,1)
  40a78e:	00 00 
  40a790:	c5 fc 10 86 20 ff ff 	vmovups -0xe0(%rsi),%ymm0
  40a797:	ff 
  40a798:	c5 fc 29 87 20 ff ff 	vmovaps %ymm0,-0xe0(%rdi)
  40a79f:	ff 
  40a7a0:	c5 fc 10 86 40 ff ff 	vmovups -0xc0(%rsi),%ymm0
  40a7a7:	ff 
  40a7a8:	c5 fc 29 87 40 ff ff 	vmovaps %ymm0,-0xc0(%rdi)
  40a7af:	ff 
  40a7b0:	c5 fc 10 86 60 ff ff 	vmovups -0xa0(%rsi),%ymm0
  40a7b7:	ff 
  40a7b8:	c5 fc 29 87 60 ff ff 	vmovaps %ymm0,-0xa0(%rdi)
  40a7bf:	ff 
  40a7c0:	c5 fc 10 46 80       	vmovups -0x80(%rsi),%ymm0
  40a7c5:	c5 fc 29 47 80       	vmovaps %ymm0,-0x80(%rdi)
  40a7ca:	c5 fc 10 46 a0       	vmovups -0x60(%rsi),%ymm0
  40a7cf:	c5 fc 29 47 a0       	vmovaps %ymm0,-0x60(%rdi)
  40a7d4:	c5 fc 10 46 c0       	vmovups -0x40(%rsi),%ymm0
  40a7d9:	c5 fc 29 47 c0       	vmovaps %ymm0,-0x40(%rdi)
  40a7de:	c5 fc 10 46 e0       	vmovups -0x20(%rsi),%ymm0
  40a7e3:	c5 fc 29 47 e0       	vmovaps %ymm0,-0x20(%rdi)
  40a7e8:	4c 8d 0d 51 04 00 00 	lea    0x451(%rip),%r9        # 40ac40 <__intel_avx_rep_memcpy+0x7a0>
  40a7ef:	4c 89 d9             	mov    %r11,%rcx
  40a7f2:	4f 2b 0c d9          	sub    (%r9,%r11,8),%r9
  40a7f6:	41 ff e1             	jmpq   *%r9
  40a7f9:	0f 1f 80 00 00 00 00 	nopl   0x0(%rax)
  40a800:	44 8a 0e             	mov    (%rsi),%r9b
  40a803:	44 88 0f             	mov    %r9b,(%rdi)
  40a806:	e9 45 14 00 00       	jmpq   40bc50 <__intel_avx_rep_memcpy+0x17b0>
  40a80b:	0f 1f 44 00 00       	nopl   0x0(%rax,%rax,1)
  40a810:	e9 3b 14 00 00       	jmpq   40bc50 <__intel_avx_rep_memcpy+0x17b0>
  40a815:	0f 1f 40 00          	nopl   0x0(%rax)
  40a819:	0f 1f 80 00 00 00 00 	nopl   0x0(%rax)
  40a820:	66 44 8b 0e          	mov    (%rsi),%r9w
  40a824:	66 44 89 0f          	mov    %r9w,(%rdi)
  40a828:	e9 23 14 00 00       	jmpq   40bc50 <__intel_avx_rep_memcpy+0x17b0>
  40a82d:	0f 1f 00             	nopl   (%rax)
  40a830:	66 44 8b 0e          	mov    (%rsi),%r9w
  40a834:	66 44 89 0f          	mov    %r9w,(%rdi)
  40a838:	44 8a 4e 02          	mov    0x2(%rsi),%r9b
  40a83c:	44 88 4f 02          	mov    %r9b,0x2(%rdi)
  40a840:	e9 0b 14 00 00       	jmpq   40bc50 <__intel_avx_rep_memcpy+0x17b0>
  40a845:	0f 1f 40 00          	nopl   0x0(%rax)
  40a849:	0f 1f 80 00 00 00 00 	nopl   0x0(%rax)
  40a850:	44 8b 0e             	mov    (%rsi),%r9d
  40a853:	44 89 0f             	mov    %r9d,(%rdi)
  40a856:	e9 f5 13 00 00       	jmpq   40bc50 <__intel_avx_rep_memcpy+0x17b0>
  40a85b:	0f 1f 44 00 00       	nopl   0x0(%rax,%rax,1)
  40a860:	44 8b 0e             	mov    (%rsi),%r9d
  40a863:	44 89 0f             	mov    %r9d,(%rdi)
  40a866:	44 8b 4c 0e fc       	mov    -0x4(%rsi,%rcx,1),%r9d
  40a86b:	44 89 4c 0f fc       	mov    %r9d,-0x4(%rdi,%rcx,1)
  40a870:	e9 db 13 00 00       	jmpq   40bc50 <__intel_avx_rep_memcpy+0x17b0>
  40a875:	0f 1f 40 00          	nopl   0x0(%rax)
  40a879:	0f 1f 80 00 00 00 00 	nopl   0x0(%rax)
  40a880:	4c 8b 0e             	mov    (%rsi),%r9
  40a883:	4c 89 0f             	mov    %r9,(%rdi)
  40a886:	e9 c5 13 00 00       	jmpq   40bc50 <__intel_avx_rep_memcpy+0x17b0>
  40a88b:	0f 1f 44 00 00       	nopl   0x0(%rax,%rax,1)
  40a890:	4c 8b 0e             	mov    (%rsi),%r9
  40a893:	4c 89 0f             	mov    %r9,(%rdi)
  40a896:	4c 8b 4c 0e f8       	mov    -0x8(%rsi,%rcx,1),%r9
  40a89b:	4c 89 4c 0f f8       	mov    %r9,-0x8(%rdi,%rcx,1)
  40a8a0:	e9 ab 13 00 00       	jmpq   40bc50 <__intel_avx_rep_memcpy+0x17b0>
  40a8a5:	0f 1f 40 00          	nopl   0x0(%rax)
  40a8a9:	0f 1f 80 00 00 00 00 	nopl   0x0(%rax)
  40a8b0:	c5 f8 10 06          	vmovups (%rsi),%xmm0
  40a8b4:	c5 f8 11 07          	vmovups %xmm0,(%rdi)
  40a8b8:	e9 93 13 00 00       	jmpq   40bc50 <__intel_avx_rep_memcpy+0x17b0>
  40a8bd:	0f 1f 00             	nopl   (%rax)
  40a8c0:	c5 f8 10 06          	vmovups (%rsi),%xmm0
  40a8c4:	c5 f8 11 07          	vmovups %xmm0,(%rdi)
  40a8c8:	c5 f8 10 44 0e f0    	vmovups -0x10(%rsi,%rcx,1),%xmm0
  40a8ce:	c5 f8 11 44 0f f0    	vmovups %xmm0,-0x10(%rdi,%rcx,1)
  40a8d4:	e9 77 13 00 00       	jmpq   40bc50 <__intel_avx_rep_memcpy+0x17b0>
  40a8d9:	0f 1f 80 00 00 00 00 	nopl   0x0(%rax)
  40a8e0:	c5 fc 10 06          	vmovups (%rsi),%ymm0
  40a8e4:	c5 fc 11 07          	vmovups %ymm0,(%rdi)
  40a8e8:	c5 fc 10 44 0e e0    	vmovups -0x20(%rsi,%rcx,1),%ymm0
  40a8ee:	c5 fc 11 44 0f e0    	vmovups %ymm0,-0x20(%rdi,%rcx,1)
  40a8f4:	e9 57 13 00 00       	jmpq   40bc50 <__intel_avx_rep_memcpy+0x17b0>
  40a8f9:	0f 1f 80 00 00 00 00 	nopl   0x0(%rax)
  40a900:	c5 fc 10 06          	vmovups (%rsi),%ymm0
  40a904:	c5 fc 11 07          	vmovups %ymm0,(%rdi)
  40a908:	c5 fc 10 46 20       	vmovups 0x20(%rsi),%ymm0
  40a90d:	c5 fc 11 47 20       	vmovups %ymm0,0x20(%rdi)
  40a912:	c5 fc 10 44 0e e0    	vmovups -0x20(%rsi,%rcx,1),%ymm0
  40a918:	c5 fc 11 44 0f e0    	vmovups %ymm0,-0x20(%rdi,%rcx,1)
  40a91e:	e9 2d 13 00 00       	jmpq   40bc50 <__intel_avx_rep_memcpy+0x17b0>
  40a923:	0f 1f 44 00 00       	nopl   0x0(%rax,%rax,1)
  40a928:	0f 1f 84 00 00 00 00 	nopl   0x0(%rax,%rax,1)
  40a92f:	00 
  40a930:	c5 fc 10 06          	vmovups (%rsi),%ymm0
  40a934:	c5 fc 11 07          	vmovups %ymm0,(%rdi)
  40a938:	c5 fc 10 46 20       	vmovups 0x20(%rsi),%ymm0
  40a93d:	c5 fc 11 47 20       	vmovups %ymm0,0x20(%rdi)
  40a942:	c5 fc 10 46 40       	vmovups 0x40(%rsi),%ymm0
  40a947:	c5 fc 11 47 40       	vmovups %ymm0,0x40(%rdi)
  40a94c:	c5 fc 10 44 0e e0    	vmovups -0x20(%rsi,%rcx,1),%ymm0
  40a952:	c5 fc 11 44 0f e0    	vmovups %ymm0,-0x20(%rdi,%rcx,1)
  40a958:	e9 f3 12 00 00       	jmpq   40bc50 <__intel_avx_rep_memcpy+0x17b0>
  40a95d:	0f 1f 00             	nopl   (%rax)
  40a960:	c5 fc 10 06          	vmovups (%rsi),%ymm0
  40a964:	c5 fc 11 07          	vmovups %ymm0,(%rdi)
  40a968:	c5 fc 10 46 20       	vmovups 0x20(%rsi),%ymm0
  40a96d:	c5 fc 11 47 20       	vmovups %ymm0,0x20(%rdi)
  40a972:	c5 fc 10 46 40       	vmovups 0x40(%rsi),%ymm0
  40a977:	c5 fc 11 47 40       	vmovups %ymm0,0x40(%rdi)
  40a97c:	c5 fc 10 46 60       	vmovups 0x60(%rsi),%ymm0
  40a981:	c5 fc 11 47 60       	vmovups %ymm0,0x60(%rdi)
  40a986:	c5 fc 10 44 0e e0    	vmovups -0x20(%rsi,%rcx,1),%ymm0
  40a98c:	c5 fc 11 44 0f e0    	vmovups %ymm0,-0x20(%rdi,%rcx,1)
  40a992:	e9 b9 12 00 00       	jmpq   40bc50 <__intel_avx_rep_memcpy+0x17b0>
  40a997:	66 0f 1f 84 00 00 00 	nopw   0x0(%rax,%rax,1)
  40a99e:	00 00 
  40a9a0:	c5 fc 10 06          	vmovups (%rsi),%ymm0
  40a9a4:	c5 fc 11 07          	vmovups %ymm0,(%rdi)
  40a9a8:	c5 fc 10 46 20       	vmovups 0x20(%rsi),%ymm0
  40a9ad:	c5 fc 11 47 20       	vmovups %ymm0,0x20(%rdi)
  40a9b2:	c5 fc 10 46 40       	vmovups 0x40(%rsi),%ymm0
  40a9b7:	c5 fc 11 47 40       	vmovups %ymm0,0x40(%rdi)
  40a9bc:	c5 fc 10 46 60       	vmovups 0x60(%rsi),%ymm0
  40a9c1:	c5 fc 11 47 60       	vmovups %ymm0,0x60(%rdi)
  40a9c6:	c5 fc 10 86 80 00 00 	vmovups 0x80(%rsi),%ymm0
  40a9cd:	00 
  40a9ce:	c5 fc 11 87 80 00 00 	vmovups %ymm0,0x80(%rdi)
  40a9d5:	00 
  40a9d6:	c5 fc 10 44 0e e0    	vmovups -0x20(%rsi,%rcx,1),%ymm0
  40a9dc:	c5 fc 11 44 0f e0    	vmovups %ymm0,-0x20(%rdi,%rcx,1)
  40a9e2:	e9 69 12 00 00       	jmpq   40bc50 <__intel_avx_rep_memcpy+0x17b0>
  40a9e7:	66 0f 1f 84 00 00 00 	nopw   0x0(%rax,%rax,1)
  40a9ee:	00 00 
  40a9f0:	c5 fc 10 06          	vmovups (%rsi),%ymm0
  40a9f4:	c5 fc 11 07          	vmovups %ymm0,(%rdi)
  40a9f8:	c5 fc 10 46 20       	vmovups 0x20(%rsi),%ymm0
  40a9fd:	c5 fc 11 47 20       	vmovups %ymm0,0x20(%rdi)
  40aa02:	c5 fc 10 46 40       	vmovups 0x40(%rsi),%ymm0
  40aa07:	c5 fc 11 47 40       	vmovups %ymm0,0x40(%rdi)
  40aa0c:	c5 fc 10 46 60       	vmovups 0x60(%rsi),%ymm0
  40aa11:	c5 fc 11 47 60       	vmovups %ymm0,0x60(%rdi)
  40aa16:	c5 fc 10 86 80 00 00 	vmovups 0x80(%rsi),%ymm0
  40aa1d:	00 
  40aa1e:	c5 fc 11 87 80 00 00 	vmovups %ymm0,0x80(%rdi)
  40aa25:	00 
  40aa26:	c5 fc 10 86 a0 00 00 	vmovups 0xa0(%rsi),%ymm0
  40aa2d:	00 
  40aa2e:	c5 fc 11 87 a0 00 00 	vmovups %ymm0,0xa0(%rdi)
  40aa35:	00 
  40aa36:	c5 fc 10 44 0e e0    	vmovups -0x20(%rsi,%rcx,1),%ymm0
  40aa3c:	c5 fc 11 44 0f e0    	vmovups %ymm0,-0x20(%rdi,%rcx,1)
  40aa42:	e9 09 12 00 00       	jmpq   40bc50 <__intel_avx_rep_memcpy+0x17b0>
  40aa47:	66 0f 1f 84 00 00 00 	nopw   0x0(%rax,%rax,1)
  40aa4e:	00 00 
  40aa50:	c5 fc 10 06          	vmovups (%rsi),%ymm0
  40aa54:	c5 fc 11 07          	vmovups %ymm0,(%rdi)
  40aa58:	c5 fc 10 46 20       	vmovups 0x20(%rsi),%ymm0
  40aa5d:	c5 fc 11 47 20       	vmovups %ymm0,0x20(%rdi)
  40aa62:	c5 fc 10 46 40       	vmovups 0x40(%rsi),%ymm0
  40aa67:	c5 fc 11 47 40       	vmovups %ymm0,0x40(%rdi)
  40aa6c:	c5 fc 10 46 60       	vmovups 0x60(%rsi),%ymm0
  40aa71:	c5 fc 11 47 60       	vmovups %ymm0,0x60(%rdi)
  40aa76:	c5 fc 10 86 80 00 00 	vmovups 0x80(%rsi),%ymm0
  40aa7d:	00 
  40aa7e:	c5 fc 11 87 80 00 00 	vmovups %ymm0,0x80(%rdi)
  40aa85:	00 
  40aa86:	c5 fc 10 86 a0 00 00 	vmovups 0xa0(%rsi),%ymm0
  40aa8d:	00 
  40aa8e:	c5 fc 11 87 a0 00 00 	vmovups %ymm0,0xa0(%rdi)
  40aa95:	00 
  40aa96:	c5 fc 10 86 c0 00 00 	vmovups 0xc0(%rsi),%ymm0
  40aa9d:	00 
  40aa9e:	c5 fc 11 87 c0 00 00 	vmovups %ymm0,0xc0(%rdi)
  40aaa5:	00 
  40aaa6:	c5 fc 10 44 0e e0    	vmovups -0x20(%rsi,%rcx,1),%ymm0
  40aaac:	c5 fc 11 44 0f e0    	vmovups %ymm0,-0x20(%rdi,%rcx,1)
  40aab2:	e9 99 11 00 00       	jmpq   40bc50 <__intel_avx_rep_memcpy+0x17b0>
  40aab7:	66 0f 1f 84 00 00 00 	nopw   0x0(%rax,%rax,1)
  40aabe:	00 00 
  40aac0:	c5 fc 10 84 0e 00 ff 	vmovups -0x100(%rsi,%rcx,1),%ymm0
  40aac7:	ff ff 
  40aac9:	c5 fc 11 84 0f 00 ff 	vmovups %ymm0,-0x100(%rdi,%rcx,1)
  40aad0:	ff ff 
  40aad2:	c5 fc 10 84 0e 20 ff 	vmovups -0xe0(%rsi,%rcx,1),%ymm0
  40aad9:	ff ff 
  40aadb:	c5 fc 11 84 0f 20 ff 	vmovups %ymm0,-0xe0(%rdi,%rcx,1)
  40aae2:	ff ff 
  40aae4:	c5 fc 10 84 0e 40 ff 	vmovups -0xc0(%rsi,%rcx,1),%ymm0
  40aaeb:	ff ff 
  40aaed:	c5 fc 11 84 0f 40 ff 	vmovups %ymm0,-0xc0(%rdi,%rcx,1)
  40aaf4:	ff ff 
  40aaf6:	c5 fc 10 84 0e 60 ff 	vmovups -0xa0(%rsi,%rcx,1),%ymm0
  40aafd:	ff ff 
  40aaff:	c5 fc 11 84 0f 60 ff 	vmovups %ymm0,-0xa0(%rdi,%rcx,1)
  40ab06:	ff ff 
  40ab08:	c5 fc 10 44 0e 80    	vmovups -0x80(%rsi,%rcx,1),%ymm0
  40ab0e:	c5 fc 11 44 0f 80    	vmovups %ymm0,-0x80(%rdi,%rcx,1)
  40ab14:	c5 fc 10 44 0e a0    	vmovups -0x60(%rsi,%rcx,1),%ymm0
  40ab1a:	c5 fc 11 44 0f a0    	vmovups %ymm0,-0x60(%rdi,%rcx,1)
  40ab20:	c5 fc 10 44 0e c0    	vmovups -0x40(%rsi,%rcx,1),%ymm0
  40ab26:	c5 fc 11 44 0f c0    	vmovups %ymm0,-0x40(%rdi,%rcx,1)
  40ab2c:	c5 fc 10 44 0e e0    	vmovups -0x20(%rsi,%rcx,1),%ymm0
  40ab32:	c5 fc 11 44 0f e0    	vmovups %ymm0,-0x20(%rdi,%rcx,1)
  40ab38:	e9 13 11 00 00       	jmpq   40bc50 <__intel_avx_rep_memcpy+0x17b0>
  40ab3d:	0f 1f 00             	nopl   (%rax)
  40ab40:	aa                   	stos   %al,%es:(%rdi)
  40ab41:	04 00                	add    $0x0,%al
  40ab43:	00 00                	add    %al,(%rax)
  40ab45:	00 00                	add    %al,(%rax)
  40ab47:	00 b0 04 00 00 00    	add    %dh,0x4(%rax)
  40ab4d:	00 00                	add    %al,(%rax)
  40ab4f:	00 a0 04 00 00 00    	add    %ah,0x4(%rax)
  40ab55:	00 00                	add    %al,(%rax)
  40ab57:	00 90 04 00 00 00    	add    %dl,0x4(%rax)
  40ab5d:	00 00                	add    %al,(%rax)
  40ab5f:	00 70 04             	add    %dh,0x4(%rax)
  40ab62:	00 00                	add    %al,(%rax)
  40ab64:	00 00                	add    %al,(%rax)
  40ab66:	00 00                	add    %al,(%rax)
  40ab68:	60                   	(bad)  
  40ab69:	04 00                	add    $0x0,%al
  40ab6b:	00 00                	add    %al,(%rax)
  40ab6d:	00 00                	add    %al,(%rax)
  40ab6f:	00 60 04             	add    %ah,0x4(%rax)
  40ab72:	00 00                	add    %al,(%rax)
  40ab74:	00 00                	add    %al,(%rax)
  40ab76:	00 00                	add    %al,(%rax)
  40ab78:	60                   	(bad)  
  40ab79:	04 00                	add    $0x0,%al
  40ab7b:	00 00                	add    %al,(%rax)
  40ab7d:	00 00                	add    %al,(%rax)
  40ab7f:	00 40 04             	add    %al,0x4(%rax)
  40ab82:	00 00                	add    %al,(%rax)
  40ab84:	00 00                	add    %al,(%rax)
  40ab86:	00 00                	add    %al,(%rax)
  40ab88:	30 04 00             	xor    %al,(%rax,%rax,1)
  40ab8b:	00 00                	add    %al,(%rax)
  40ab8d:	00 00                	add    %al,(%rax)
  40ab8f:	00 30                	add    %dh,(%rax)
  40ab91:	04 00                	add    $0x0,%al
  40ab93:	00 00                	add    %al,(%rax)
  40ab95:	00 00                	add    %al,(%rax)
  40ab97:	00 30                	add    %dh,(%rax)
  40ab99:	04 00                	add    $0x0,%al
  40ab9b:	00 00                	add    %al,(%rax)
  40ab9d:	00 00                	add    %al,(%rax)
  40ab9f:	00 30                	add    %dh,(%rax)
  40aba1:	04 00                	add    $0x0,%al
  40aba3:	00 00                	add    %al,(%rax)
  40aba5:	00 00                	add    %al,(%rax)
  40aba7:	00 30                	add    %dh,(%rax)
  40aba9:	04 00                	add    $0x0,%al
  40abab:	00 00                	add    %al,(%rax)
  40abad:	00 00                	add    %al,(%rax)
  40abaf:	00 30                	add    %dh,(%rax)
  40abb1:	04 00                	add    $0x0,%al
  40abb3:	00 00                	add    %al,(%rax)
  40abb5:	00 00                	add    %al,(%rax)
  40abb7:	00 30                	add    %dh,(%rax)
  40abb9:	04 00                	add    $0x0,%al
  40abbb:	00 00                	add    %al,(%rax)
  40abbd:	00 00                	add    %al,(%rax)
  40abbf:	00 10                	add    %dl,(%rax)
  40abc1:	04 00                	add    $0x0,%al
  40abc3:	00 00                	add    %al,(%rax)
  40abc5:	00 00                	add    %al,(%rax)
  40abc7:	00 00                	add    %al,(%rax)
  40abc9:	04 00                	add    $0x0,%al
  40abcb:	00 00                	add    %al,(%rax)
  40abcd:	00 00                	add    %al,(%rax)
  40abcf:	00 00                	add    %al,(%rax)
  40abd1:	04 00                	add    $0x0,%al
  40abd3:	00 00                	add    %al,(%rax)
  40abd5:	00 00                	add    %al,(%rax)
  40abd7:	00 00                	add    %al,(%rax)
  40abd9:	04 00                	add    $0x0,%al
  40abdb:	00 00                	add    %al,(%rax)
  40abdd:	00 00                	add    %al,(%rax)
  40abdf:	00 00                	add    %al,(%rax)
  40abe1:	04 00                	add    $0x0,%al
  40abe3:	00 00                	add    %al,(%rax)
  40abe5:	00 00                	add    %al,(%rax)
  40abe7:	00 00                	add    %al,(%rax)
  40abe9:	04 00                	add    $0x0,%al
  40abeb:	00 00                	add    %al,(%rax)
  40abed:	00 00                	add    %al,(%rax)
  40abef:	00 00                	add    %al,(%rax)
  40abf1:	04 00                	add    $0x0,%al
  40abf3:	00 00                	add    %al,(%rax)
  40abf5:	00 00                	add    %al,(%rax)
  40abf7:	00 00                	add    %al,(%rax)
  40abf9:	04 00                	add    $0x0,%al
  40abfb:	00 00                	add    %al,(%rax)
  40abfd:	00 00                	add    %al,(%rax)
  40abff:	00 00                	add    %al,(%rax)
  40ac01:	04 00                	add    $0x0,%al
  40ac03:	00 00                	add    %al,(%rax)
  40ac05:	00 00                	add    %al,(%rax)
  40ac07:	00 00                	add    %al,(%rax)
  40ac09:	04 00                	add    $0x0,%al
  40ac0b:	00 00                	add    %al,(%rax)
  40ac0d:	00 00                	add    %al,(%rax)
  40ac0f:	00 00                	add    %al,(%rax)
  40ac11:	04 00                	add    $0x0,%al
  40ac13:	00 00                	add    %al,(%rax)
  40ac15:	00 00                	add    %al,(%rax)
  40ac17:	00 00                	add    %al,(%rax)
  40ac19:	04 00                	add    $0x0,%al
  40ac1b:	00 00                	add    %al,(%rax)
  40ac1d:	00 00                	add    %al,(%rax)
  40ac1f:	00 00                	add    %al,(%rax)
  40ac21:	04 00                	add    $0x0,%al
  40ac23:	00 00                	add    %al,(%rax)
  40ac25:	00 00                	add    %al,(%rax)
  40ac27:	00 00                	add    %al,(%rax)
  40ac29:	04 00                	add    $0x0,%al
  40ac2b:	00 00                	add    %al,(%rax)
  40ac2d:	00 00                	add    %al,(%rax)
  40ac2f:	00 00                	add    %al,(%rax)
  40ac31:	04 00                	add    $0x0,%al
  40ac33:	00 00                	add    %al,(%rax)
  40ac35:	00 00                	add    %al,(%rax)
  40ac37:	00 00                	add    %al,(%rax)
  40ac39:	04 00                	add    $0x0,%al
  40ac3b:	00 00                	add    %al,(%rax)
  40ac3d:	00 00                	add    %al,(%rax)
  40ac3f:	00 30                	add    %dh,(%rax)
  40ac41:	04 00                	add    $0x0,%al
  40ac43:	00 00                	add    %al,(%rax)
  40ac45:	00 00                	add    %al,(%rax)
  40ac47:	00 40 04             	add    %al,0x4(%rax)
  40ac4a:	00 00                	add    %al,(%rax)
  40ac4c:	00 00                	add    %al,(%rax)
  40ac4e:	00 00                	add    %al,(%rax)
  40ac50:	20 04 00             	and    %al,(%rax,%rax,1)
  40ac53:	00 00                	add    %al,(%rax)
  40ac55:	00 00                	add    %al,(%rax)
  40ac57:	00 10                	add    %dl,(%rax)
  40ac59:	04 00                	add    $0x0,%al
  40ac5b:	00 00                	add    %al,(%rax)
  40ac5d:	00 00                	add    %al,(%rax)
  40ac5f:	00 f0                	add    %dh,%al
  40ac61:	03 00                	add    (%rax),%eax
  40ac63:	00 00                	add    %al,(%rax)
  40ac65:	00 00                	add    %al,(%rax)
  40ac67:	00 e0                	add    %ah,%al
  40ac69:	03 00                	add    (%rax),%eax
  40ac6b:	00 00                	add    %al,(%rax)
  40ac6d:	00 00                	add    %al,(%rax)
  40ac6f:	00 e0                	add    %ah,%al
  40ac71:	03 00                	add    (%rax),%eax
  40ac73:	00 00                	add    %al,(%rax)
  40ac75:	00 00                	add    %al,(%rax)
  40ac77:	00 e0                	add    %ah,%al
  40ac79:	03 00                	add    (%rax),%eax
  40ac7b:	00 00                	add    %al,(%rax)
  40ac7d:	00 00                	add    %al,(%rax)
  40ac7f:	00 c0                	add    %al,%al
  40ac81:	03 00                	add    (%rax),%eax
  40ac83:	00 00                	add    %al,(%rax)
  40ac85:	00 00                	add    %al,(%rax)
  40ac87:	00 b0 03 00 00 00    	add    %dh,0x3(%rax)
  40ac8d:	00 00                	add    %al,(%rax)
  40ac8f:	00 b0 03 00 00 00    	add    %dh,0x3(%rax)
  40ac95:	00 00                	add    %al,(%rax)
  40ac97:	00 b0 03 00 00 00    	add    %dh,0x3(%rax)
  40ac9d:	00 00                	add    %al,(%rax)
  40ac9f:	00 b0 03 00 00 00    	add    %dh,0x3(%rax)
  40aca5:	00 00                	add    %al,(%rax)
  40aca7:	00 b0 03 00 00 00    	add    %dh,0x3(%rax)
  40acad:	00 00                	add    %al,(%rax)
  40acaf:	00 b0 03 00 00 00    	add    %dh,0x3(%rax)
  40acb5:	00 00                	add    %al,(%rax)
  40acb7:	00 b0 03 00 00 00    	add    %dh,0x3(%rax)
  40acbd:	00 00                	add    %al,(%rax)
  40acbf:	00 90 03 00 00 00    	add    %dl,0x3(%rax)
  40acc5:	00 00                	add    %al,(%rax)
  40acc7:	00 80 03 00 00 00    	add    %al,0x3(%rax)
  40accd:	00 00                	add    %al,(%rax)
  40accf:	00 80 03 00 00 00    	add    %al,0x3(%rax)
  40acd5:	00 00                	add    %al,(%rax)
  40acd7:	00 80 03 00 00 00    	add    %al,0x3(%rax)
  40acdd:	00 00                	add    %al,(%rax)
  40acdf:	00 80 03 00 00 00    	add    %al,0x3(%rax)
  40ace5:	00 00                	add    %al,(%rax)
  40ace7:	00 80 03 00 00 00    	add    %al,0x3(%rax)
  40aced:	00 00                	add    %al,(%rax)
  40acef:	00 80 03 00 00 00    	add    %al,0x3(%rax)
  40acf5:	00 00                	add    %al,(%rax)
  40acf7:	00 80 03 00 00 00    	add    %al,0x3(%rax)
  40acfd:	00 00                	add    %al,(%rax)
  40acff:	00 80 03 00 00 00    	add    %al,0x3(%rax)
  40ad05:	00 00                	add    %al,(%rax)
  40ad07:	00 80 03 00 00 00    	add    %al,0x3(%rax)
  40ad0d:	00 00                	add    %al,(%rax)
  40ad0f:	00 80 03 00 00 00    	add    %al,0x3(%rax)
  40ad15:	00 00                	add    %al,(%rax)
  40ad17:	00 80 03 00 00 00    	add    %al,0x3(%rax)
  40ad1d:	00 00                	add    %al,(%rax)
  40ad1f:	00 80 03 00 00 00    	add    %al,0x3(%rax)
  40ad25:	00 00                	add    %al,(%rax)
  40ad27:	00 80 03 00 00 00    	add    %al,0x3(%rax)
  40ad2d:	00 00                	add    %al,(%rax)
  40ad2f:	00 80 03 00 00 00    	add    %al,0x3(%rax)
  40ad35:	00 00                	add    %al,(%rax)
  40ad37:	00 80 03 00 00 00    	add    %al,0x3(%rax)
  40ad3d:	00 00                	add    %al,(%rax)
  40ad3f:	00 62 04             	add    %ah,0x4(%rdx)
  40ad42:	00 00                	add    %al,(%rax)
  40ad44:	00 00                	add    %al,(%rax)
  40ad46:	00 00                	add    %al,(%rax)
  40ad48:	62                   	(bad)  
  40ad49:	04 00                	add    $0x0,%al
  40ad4b:	00 00                	add    %al,(%rax)
  40ad4d:	00 00                	add    %al,(%rax)
  40ad4f:	00 62 04             	add    %ah,0x4(%rdx)
  40ad52:	00 00                	add    %al,(%rax)
  40ad54:	00 00                	add    %al,(%rax)
  40ad56:	00 00                	add    %al,(%rax)
  40ad58:	62                   	(bad)  
  40ad59:	04 00                	add    $0x0,%al
  40ad5b:	00 00                	add    %al,(%rax)
  40ad5d:	00 00                	add    %al,(%rax)
  40ad5f:	00 62 04             	add    %ah,0x4(%rdx)
  40ad62:	00 00                	add    %al,(%rax)
  40ad64:	00 00                	add    %al,(%rax)
  40ad66:	00 00                	add    %al,(%rax)
  40ad68:	62                   	(bad)  
  40ad69:	04 00                	add    $0x0,%al
  40ad6b:	00 00                	add    %al,(%rax)
  40ad6d:	00 00                	add    %al,(%rax)
  40ad6f:	00 62 04             	add    %ah,0x4(%rdx)
  40ad72:	00 00                	add    %al,(%rax)
  40ad74:	00 00                	add    %al,(%rax)
  40ad76:	00 00                	add    %al,(%rax)
  40ad78:	62                   	(bad)  
  40ad79:	04 00                	add    $0x0,%al
  40ad7b:	00 00                	add    %al,(%rax)
  40ad7d:	00 00                	add    %al,(%rax)
  40ad7f:	00 62 04             	add    %ah,0x4(%rdx)
  40ad82:	00 00                	add    %al,(%rax)
  40ad84:	00 00                	add    %al,(%rax)
  40ad86:	00 00                	add    %al,(%rax)
  40ad88:	62                   	(bad)  
  40ad89:	04 00                	add    $0x0,%al
  40ad8b:	00 00                	add    %al,(%rax)
  40ad8d:	00 00                	add    %al,(%rax)
  40ad8f:	00 62 04             	add    %ah,0x4(%rdx)
  40ad92:	00 00                	add    %al,(%rax)
  40ad94:	00 00                	add    %al,(%rax)
  40ad96:	00 00                	add    %al,(%rax)
  40ad98:	62                   	(bad)  
  40ad99:	04 00                	add    $0x0,%al
  40ad9b:	00 00                	add    %al,(%rax)
  40ad9d:	00 00                	add    %al,(%rax)
  40ad9f:	00 62 04             	add    %ah,0x4(%rdx)
  40ada2:	00 00                	add    %al,(%rax)
  40ada4:	00 00                	add    %al,(%rax)
  40ada6:	00 00                	add    %al,(%rax)
  40ada8:	62                   	(bad)  
  40ada9:	04 00                	add    $0x0,%al
  40adab:	00 00                	add    %al,(%rax)
  40adad:	00 00                	add    %al,(%rax)
  40adaf:	00 62 04             	add    %ah,0x4(%rdx)
  40adb2:	00 00                	add    %al,(%rax)
  40adb4:	00 00                	add    %al,(%rax)
  40adb6:	00 00                	add    %al,(%rax)
  40adb8:	62                   	(bad)  
  40adb9:	04 00                	add    $0x0,%al
  40adbb:	00 00                	add    %al,(%rax)
  40adbd:	00 00                	add    %al,(%rax)
  40adbf:	00 62 04             	add    %ah,0x4(%rdx)
  40adc2:	00 00                	add    %al,(%rax)
  40adc4:	00 00                	add    %al,(%rax)
  40adc6:	00 00                	add    %al,(%rax)
  40adc8:	62                   	(bad)  
  40adc9:	04 00                	add    $0x0,%al
  40adcb:	00 00                	add    %al,(%rax)
  40adcd:	00 00                	add    %al,(%rax)
  40adcf:	00 62 04             	add    %ah,0x4(%rdx)
  40add2:	00 00                	add    %al,(%rax)
  40add4:	00 00                	add    %al,(%rax)
  40add6:	00 00                	add    %al,(%rax)
  40add8:	62                   	(bad)  
  40add9:	04 00                	add    $0x0,%al
  40addb:	00 00                	add    %al,(%rax)
  40addd:	00 00                	add    %al,(%rax)
  40addf:	00 62 04             	add    %ah,0x4(%rdx)
  40ade2:	00 00                	add    %al,(%rax)
  40ade4:	00 00                	add    %al,(%rax)
  40ade6:	00 00                	add    %al,(%rax)
  40ade8:	62                   	(bad)  
  40ade9:	04 00                	add    $0x0,%al
  40adeb:	00 00                	add    %al,(%rax)
  40aded:	00 00                	add    %al,(%rax)
  40adef:	00 62 04             	add    %ah,0x4(%rdx)
  40adf2:	00 00                	add    %al,(%rax)
  40adf4:	00 00                	add    %al,(%rax)
  40adf6:	00 00                	add    %al,(%rax)
  40adf8:	62                   	(bad)  
  40adf9:	04 00                	add    $0x0,%al
  40adfb:	00 00                	add    %al,(%rax)
  40adfd:	00 00                	add    %al,(%rax)
  40adff:	00 62 04             	add    %ah,0x4(%rdx)
  40ae02:	00 00                	add    %al,(%rax)
  40ae04:	00 00                	add    %al,(%rax)
  40ae06:	00 00                	add    %al,(%rax)
  40ae08:	62                   	(bad)  
  40ae09:	04 00                	add    $0x0,%al
  40ae0b:	00 00                	add    %al,(%rax)
  40ae0d:	00 00                	add    %al,(%rax)
  40ae0f:	00 62 04             	add    %ah,0x4(%rdx)
  40ae12:	00 00                	add    %al,(%rax)
  40ae14:	00 00                	add    %al,(%rax)
  40ae16:	00 00                	add    %al,(%rax)
  40ae18:	62                   	(bad)  
  40ae19:	04 00                	add    $0x0,%al
  40ae1b:	00 00                	add    %al,(%rax)
  40ae1d:	00 00                	add    %al,(%rax)
  40ae1f:	00 62 04             	add    %ah,0x4(%rdx)
  40ae22:	00 00                	add    %al,(%rax)
  40ae24:	00 00                	add    %al,(%rax)
  40ae26:	00 00                	add    %al,(%rax)
  40ae28:	62                   	(bad)  
  40ae29:	04 00                	add    $0x0,%al
  40ae2b:	00 00                	add    %al,(%rax)
  40ae2d:	00 00                	add    %al,(%rax)
  40ae2f:	00 62 04             	add    %ah,0x4(%rdx)
  40ae32:	00 00                	add    %al,(%rax)
  40ae34:	00 00                	add    %al,(%rax)
  40ae36:	00 00                	add    %al,(%rax)
  40ae38:	62                   	(bad)  
  40ae39:	04 00                	add    $0x0,%al
  40ae3b:	00 00                	add    %al,(%rax)
  40ae3d:	00 00                	add    %al,(%rax)
  40ae3f:	00 6c 04 00          	add    %ch,0x0(%rsp,%rax,1)
  40ae43:	00 00                	add    %al,(%rax)
  40ae45:	00 00                	add    %al,(%rax)
  40ae47:	00 6c 04 00          	add    %ch,0x0(%rsp,%rax,1)
  40ae4b:	00 00                	add    %al,(%rax)
  40ae4d:	00 00                	add    %al,(%rax)
  40ae4f:	00 6c 04 00          	add    %ch,0x0(%rsp,%rax,1)
  40ae53:	00 00                	add    %al,(%rax)
  40ae55:	00 00                	add    %al,(%rax)
  40ae57:	00 6c 04 00          	add    %ch,0x0(%rsp,%rax,1)
  40ae5b:	00 00                	add    %al,(%rax)
  40ae5d:	00 00                	add    %al,(%rax)
  40ae5f:	00 6c 04 00          	add    %ch,0x0(%rsp,%rax,1)
  40ae63:	00 00                	add    %al,(%rax)
  40ae65:	00 00                	add    %al,(%rax)
  40ae67:	00 6c 04 00          	add    %ch,0x0(%rsp,%rax,1)
  40ae6b:	00 00                	add    %al,(%rax)
  40ae6d:	00 00                	add    %al,(%rax)
  40ae6f:	00 6c 04 00          	add    %ch,0x0(%rsp,%rax,1)
  40ae73:	00 00                	add    %al,(%rax)
  40ae75:	00 00                	add    %al,(%rax)
  40ae77:	00 6c 04 00          	add    %ch,0x0(%rsp,%rax,1)
  40ae7b:	00 00                	add    %al,(%rax)
  40ae7d:	00 00                	add    %al,(%rax)
  40ae7f:	00 6c 04 00          	add    %ch,0x0(%rsp,%rax,1)
  40ae83:	00 00                	add    %al,(%rax)
  40ae85:	00 00                	add    %al,(%rax)
  40ae87:	00 6c 04 00          	add    %ch,0x0(%rsp,%rax,1)
  40ae8b:	00 00                	add    %al,(%rax)
  40ae8d:	00 00                	add    %al,(%rax)
  40ae8f:	00 6c 04 00          	add    %ch,0x0(%rsp,%rax,1)
  40ae93:	00 00                	add    %al,(%rax)
  40ae95:	00 00                	add    %al,(%rax)
  40ae97:	00 6c 04 00          	add    %ch,0x0(%rsp,%rax,1)
  40ae9b:	00 00                	add    %al,(%rax)
  40ae9d:	00 00                	add    %al,(%rax)
  40ae9f:	00 6c 04 00          	add    %ch,0x0(%rsp,%rax,1)
  40aea3:	00 00                	add    %al,(%rax)
  40aea5:	00 00                	add    %al,(%rax)
  40aea7:	00 6c 04 00          	add    %ch,0x0(%rsp,%rax,1)
  40aeab:	00 00                	add    %al,(%rax)
  40aead:	00 00                	add    %al,(%rax)
  40aeaf:	00 6c 04 00          	add    %ch,0x0(%rsp,%rax,1)
  40aeb3:	00 00                	add    %al,(%rax)
  40aeb5:	00 00                	add    %al,(%rax)
  40aeb7:	00 6c 04 00          	add    %ch,0x0(%rsp,%rax,1)
  40aebb:	00 00                	add    %al,(%rax)
  40aebd:	00 00                	add    %al,(%rax)
  40aebf:	00 6c 04 00          	add    %ch,0x0(%rsp,%rax,1)
  40aec3:	00 00                	add    %al,(%rax)
  40aec5:	00 00                	add    %al,(%rax)
  40aec7:	00 6c 04 00          	add    %ch,0x0(%rsp,%rax,1)
  40aecb:	00 00                	add    %al,(%rax)
  40aecd:	00 00                	add    %al,(%rax)
  40aecf:	00 6c 04 00          	add    %ch,0x0(%rsp,%rax,1)
  40aed3:	00 00                	add    %al,(%rax)
  40aed5:	00 00                	add    %al,(%rax)
  40aed7:	00 6c 04 00          	add    %ch,0x0(%rsp,%rax,1)
  40aedb:	00 00                	add    %al,(%rax)
  40aedd:	00 00                	add    %al,(%rax)
  40aedf:	00 6c 04 00          	add    %ch,0x0(%rsp,%rax,1)
  40aee3:	00 00                	add    %al,(%rax)
  40aee5:	00 00                	add    %al,(%rax)
  40aee7:	00 6c 04 00          	add    %ch,0x0(%rsp,%rax,1)
  40aeeb:	00 00                	add    %al,(%rax)
  40aeed:	00 00                	add    %al,(%rax)
  40aeef:	00 6c 04 00          	add    %ch,0x0(%rsp,%rax,1)
  40aef3:	00 00                	add    %al,(%rax)
  40aef5:	00 00                	add    %al,(%rax)
  40aef7:	00 6c 04 00          	add    %ch,0x0(%rsp,%rax,1)
  40aefb:	00 00                	add    %al,(%rax)
  40aefd:	00 00                	add    %al,(%rax)
  40aeff:	00 6c 04 00          	add    %ch,0x0(%rsp,%rax,1)
  40af03:	00 00                	add    %al,(%rax)
  40af05:	00 00                	add    %al,(%rax)
  40af07:	00 6c 04 00          	add    %ch,0x0(%rsp,%rax,1)
  40af0b:	00 00                	add    %al,(%rax)
  40af0d:	00 00                	add    %al,(%rax)
  40af0f:	00 6c 04 00          	add    %ch,0x0(%rsp,%rax,1)
  40af13:	00 00                	add    %al,(%rax)
  40af15:	00 00                	add    %al,(%rax)
  40af17:	00 6c 04 00          	add    %ch,0x0(%rsp,%rax,1)
  40af1b:	00 00                	add    %al,(%rax)
  40af1d:	00 00                	add    %al,(%rax)
  40af1f:	00 6c 04 00          	add    %ch,0x0(%rsp,%rax,1)
  40af23:	00 00                	add    %al,(%rax)
  40af25:	00 00                	add    %al,(%rax)
  40af27:	00 6c 04 00          	add    %ch,0x0(%rsp,%rax,1)
  40af2b:	00 00                	add    %al,(%rax)
  40af2d:	00 00                	add    %al,(%rax)
  40af2f:	00 6c 04 00          	add    %ch,0x0(%rsp,%rax,1)
  40af33:	00 00                	add    %al,(%rax)
  40af35:	00 00                	add    %al,(%rax)
  40af37:	00 6c 04 00          	add    %ch,0x0(%rsp,%rax,1)
  40af3b:	00 00                	add    %al,(%rax)
  40af3d:	00 00                	add    %al,(%rax)
  40af3f:	00 76 04             	add    %dh,0x4(%rsi)
  40af42:	00 00                	add    %al,(%rax)
  40af44:	00 00                	add    %al,(%rax)
  40af46:	00 00                	add    %al,(%rax)
  40af48:	76 04                	jbe    40af4e <__intel_avx_rep_memcpy+0xaae>
  40af4a:	00 00                	add    %al,(%rax)
  40af4c:	00 00                	add    %al,(%rax)
  40af4e:	00 00                	add    %al,(%rax)
  40af50:	76 04                	jbe    40af56 <__intel_avx_rep_memcpy+0xab6>
  40af52:	00 00                	add    %al,(%rax)
  40af54:	00 00                	add    %al,(%rax)
  40af56:	00 00                	add    %al,(%rax)
  40af58:	76 04                	jbe    40af5e <__intel_avx_rep_memcpy+0xabe>
  40af5a:	00 00                	add    %al,(%rax)
  40af5c:	00 00                	add    %al,(%rax)
  40af5e:	00 00                	add    %al,(%rax)
  40af60:	76 04                	jbe    40af66 <__intel_avx_rep_memcpy+0xac6>
  40af62:	00 00                	add    %al,(%rax)
  40af64:	00 00                	add    %al,(%rax)
  40af66:	00 00                	add    %al,(%rax)
  40af68:	76 04                	jbe    40af6e <__intel_avx_rep_memcpy+0xace>
  40af6a:	00 00                	add    %al,(%rax)
  40af6c:	00 00                	add    %al,(%rax)
  40af6e:	00 00                	add    %al,(%rax)
  40af70:	76 04                	jbe    40af76 <__intel_avx_rep_memcpy+0xad6>
  40af72:	00 00                	add    %al,(%rax)
  40af74:	00 00                	add    %al,(%rax)
  40af76:	00 00                	add    %al,(%rax)
  40af78:	76 04                	jbe    40af7e <__intel_avx_rep_memcpy+0xade>
  40af7a:	00 00                	add    %al,(%rax)
  40af7c:	00 00                	add    %al,(%rax)
  40af7e:	00 00                	add    %al,(%rax)
  40af80:	76 04                	jbe    40af86 <__intel_avx_rep_memcpy+0xae6>
  40af82:	00 00                	add    %al,(%rax)
  40af84:	00 00                	add    %al,(%rax)
  40af86:	00 00                	add    %al,(%rax)
  40af88:	76 04                	jbe    40af8e <__intel_avx_rep_memcpy+0xaee>
  40af8a:	00 00                	add    %al,(%rax)
  40af8c:	00 00                	add    %al,(%rax)
  40af8e:	00 00                	add    %al,(%rax)
  40af90:	76 04                	jbe    40af96 <__intel_avx_rep_memcpy+0xaf6>
  40af92:	00 00                	add    %al,(%rax)
  40af94:	00 00                	add    %al,(%rax)
  40af96:	00 00                	add    %al,(%rax)
  40af98:	76 04                	jbe    40af9e <__intel_avx_rep_memcpy+0xafe>
  40af9a:	00 00                	add    %al,(%rax)
  40af9c:	00 00                	add    %al,(%rax)
  40af9e:	00 00                	add    %al,(%rax)
  40afa0:	76 04                	jbe    40afa6 <__intel_avx_rep_memcpy+0xb06>
  40afa2:	00 00                	add    %al,(%rax)
  40afa4:	00 00                	add    %al,(%rax)
  40afa6:	00 00                	add    %al,(%rax)
  40afa8:	76 04                	jbe    40afae <__intel_avx_rep_memcpy+0xb0e>
  40afaa:	00 00                	add    %al,(%rax)
  40afac:	00 00                	add    %al,(%rax)
  40afae:	00 00                	add    %al,(%rax)
  40afb0:	76 04                	jbe    40afb6 <__intel_avx_rep_memcpy+0xb16>
  40afb2:	00 00                	add    %al,(%rax)
  40afb4:	00 00                	add    %al,(%rax)
  40afb6:	00 00                	add    %al,(%rax)
  40afb8:	76 04                	jbe    40afbe <__intel_avx_rep_memcpy+0xb1e>
  40afba:	00 00                	add    %al,(%rax)
  40afbc:	00 00                	add    %al,(%rax)
  40afbe:	00 00                	add    %al,(%rax)
  40afc0:	76 04                	jbe    40afc6 <__intel_avx_rep_memcpy+0xb26>
  40afc2:	00 00                	add    %al,(%rax)
  40afc4:	00 00                	add    %al,(%rax)
  40afc6:	00 00                	add    %al,(%rax)
  40afc8:	76 04                	jbe    40afce <__intel_avx_rep_memcpy+0xb2e>
  40afca:	00 00                	add    %al,(%rax)
  40afcc:	00 00                	add    %al,(%rax)
  40afce:	00 00                	add    %al,(%rax)
  40afd0:	76 04                	jbe    40afd6 <__intel_avx_rep_memcpy+0xb36>
  40afd2:	00 00                	add    %al,(%rax)
  40afd4:	00 00                	add    %al,(%rax)
  40afd6:	00 00                	add    %al,(%rax)
  40afd8:	76 04                	jbe    40afde <__intel_avx_rep_memcpy+0xb3e>
  40afda:	00 00                	add    %al,(%rax)
  40afdc:	00 00                	add    %al,(%rax)
  40afde:	00 00                	add    %al,(%rax)
  40afe0:	76 04                	jbe    40afe6 <__intel_avx_rep_memcpy+0xb46>
  40afe2:	00 00                	add    %al,(%rax)
  40afe4:	00 00                	add    %al,(%rax)
  40afe6:	00 00                	add    %al,(%rax)
  40afe8:	76 04                	jbe    40afee <__intel_avx_rep_memcpy+0xb4e>
  40afea:	00 00                	add    %al,(%rax)
  40afec:	00 00                	add    %al,(%rax)
  40afee:	00 00                	add    %al,(%rax)
  40aff0:	76 04                	jbe    40aff6 <__intel_avx_rep_memcpy+0xb56>
  40aff2:	00 00                	add    %al,(%rax)
  40aff4:	00 00                	add    %al,(%rax)
  40aff6:	00 00                	add    %al,(%rax)
  40aff8:	76 04                	jbe    40affe <__intel_avx_rep_memcpy+0xb5e>
  40affa:	00 00                	add    %al,(%rax)
  40affc:	00 00                	add    %al,(%rax)
  40affe:	00 00                	add    %al,(%rax)
  40b000:	76 04                	jbe    40b006 <__intel_avx_rep_memcpy+0xb66>
  40b002:	00 00                	add    %al,(%rax)
  40b004:	00 00                	add    %al,(%rax)
  40b006:	00 00                	add    %al,(%rax)
  40b008:	76 04                	jbe    40b00e <__intel_avx_rep_memcpy+0xb6e>
  40b00a:	00 00                	add    %al,(%rax)
  40b00c:	00 00                	add    %al,(%rax)
  40b00e:	00 00                	add    %al,(%rax)
  40b010:	76 04                	jbe    40b016 <__intel_avx_rep_memcpy+0xb76>
  40b012:	00 00                	add    %al,(%rax)
  40b014:	00 00                	add    %al,(%rax)
  40b016:	00 00                	add    %al,(%rax)
  40b018:	76 04                	jbe    40b01e <__intel_avx_rep_memcpy+0xb7e>
  40b01a:	00 00                	add    %al,(%rax)
  40b01c:	00 00                	add    %al,(%rax)
  40b01e:	00 00                	add    %al,(%rax)
  40b020:	76 04                	jbe    40b026 <__intel_avx_rep_memcpy+0xb86>
  40b022:	00 00                	add    %al,(%rax)
  40b024:	00 00                	add    %al,(%rax)
  40b026:	00 00                	add    %al,(%rax)
  40b028:	76 04                	jbe    40b02e <__intel_avx_rep_memcpy+0xb8e>
  40b02a:	00 00                	add    %al,(%rax)
  40b02c:	00 00                	add    %al,(%rax)
  40b02e:	00 00                	add    %al,(%rax)
  40b030:	76 04                	jbe    40b036 <__intel_avx_rep_memcpy+0xb96>
  40b032:	00 00                	add    %al,(%rax)
  40b034:	00 00                	add    %al,(%rax)
  40b036:	00 00                	add    %al,(%rax)
  40b038:	76 04                	jbe    40b03e <__intel_avx_rep_memcpy+0xb9e>
  40b03a:	00 00                	add    %al,(%rax)
  40b03c:	00 00                	add    %al,(%rax)
  40b03e:	00 00                	add    %al,(%rax)
  40b040:	80 04 00 00          	addb   $0x0,(%rax,%rax,1)
  40b044:	00 00                	add    %al,(%rax)
  40b046:	00 00                	add    %al,(%rax)
  40b048:	80 04 00 00          	addb   $0x0,(%rax,%rax,1)
  40b04c:	00 00                	add    %al,(%rax)
  40b04e:	00 00                	add    %al,(%rax)
  40b050:	80 04 00 00          	addb   $0x0,(%rax,%rax,1)
  40b054:	00 00                	add    %al,(%rax)
  40b056:	00 00                	add    %al,(%rax)
  40b058:	80 04 00 00          	addb   $0x0,(%rax,%rax,1)
  40b05c:	00 00                	add    %al,(%rax)
  40b05e:	00 00                	add    %al,(%rax)
  40b060:	80 04 00 00          	addb   $0x0,(%rax,%rax,1)
  40b064:	00 00                	add    %al,(%rax)
  40b066:	00 00                	add    %al,(%rax)
  40b068:	80 04 00 00          	addb   $0x0,(%rax,%rax,1)
  40b06c:	00 00                	add    %al,(%rax)
  40b06e:	00 00                	add    %al,(%rax)
  40b070:	80 04 00 00          	addb   $0x0,(%rax,%rax,1)
  40b074:	00 00                	add    %al,(%rax)
  40b076:	00 00                	add    %al,(%rax)
  40b078:	80 04 00 00          	addb   $0x0,(%rax,%rax,1)
  40b07c:	00 00                	add    %al,(%rax)
  40b07e:	00 00                	add    %al,(%rax)
  40b080:	80 04 00 00          	addb   $0x0,(%rax,%rax,1)
  40b084:	00 00                	add    %al,(%rax)
  40b086:	00 00                	add    %al,(%rax)
  40b088:	80 04 00 00          	addb   $0x0,(%rax,%rax,1)
  40b08c:	00 00                	add    %al,(%rax)
  40b08e:	00 00                	add    %al,(%rax)
  40b090:	80 04 00 00          	addb   $0x0,(%rax,%rax,1)
  40b094:	00 00                	add    %al,(%rax)
  40b096:	00 00                	add    %al,(%rax)
  40b098:	80 04 00 00          	addb   $0x0,(%rax,%rax,1)
  40b09c:	00 00                	add    %al,(%rax)
  40b09e:	00 00                	add    %al,(%rax)
  40b0a0:	80 04 00 00          	addb   $0x0,(%rax,%rax,1)
  40b0a4:	00 00                	add    %al,(%rax)
  40b0a6:	00 00                	add    %al,(%rax)
  40b0a8:	80 04 00 00          	addb   $0x0,(%rax,%rax,1)
  40b0ac:	00 00                	add    %al,(%rax)
  40b0ae:	00 00                	add    %al,(%rax)
  40b0b0:	80 04 00 00          	addb   $0x0,(%rax,%rax,1)
  40b0b4:	00 00                	add    %al,(%rax)
  40b0b6:	00 00                	add    %al,(%rax)
  40b0b8:	80 04 00 00          	addb   $0x0,(%rax,%rax,1)
  40b0bc:	00 00                	add    %al,(%rax)
  40b0be:	00 00                	add    %al,(%rax)
  40b0c0:	80 04 00 00          	addb   $0x0,(%rax,%rax,1)
  40b0c4:	00 00                	add    %al,(%rax)
  40b0c6:	00 00                	add    %al,(%rax)
  40b0c8:	80 04 00 00          	addb   $0x0,(%rax,%rax,1)
  40b0cc:	00 00                	add    %al,(%rax)
  40b0ce:	00 00                	add    %al,(%rax)
  40b0d0:	80 04 00 00          	addb   $0x0,(%rax,%rax,1)
  40b0d4:	00 00                	add    %al,(%rax)
  40b0d6:	00 00                	add    %al,(%rax)
  40b0d8:	80 04 00 00          	addb   $0x0,(%rax,%rax,1)
  40b0dc:	00 00                	add    %al,(%rax)
  40b0de:	00 00                	add    %al,(%rax)
  40b0e0:	80 04 00 00          	addb   $0x0,(%rax,%rax,1)
  40b0e4:	00 00                	add    %al,(%rax)
  40b0e6:	00 00                	add    %al,(%rax)
  40b0e8:	80 04 00 00          	addb   $0x0,(%rax,%rax,1)
  40b0ec:	00 00                	add    %al,(%rax)
  40b0ee:	00 00                	add    %al,(%rax)
  40b0f0:	80 04 00 00          	addb   $0x0,(%rax,%rax,1)
  40b0f4:	00 00                	add    %al,(%rax)
  40b0f6:	00 00                	add    %al,(%rax)
  40b0f8:	80 04 00 00          	addb   $0x0,(%rax,%rax,1)
  40b0fc:	00 00                	add    %al,(%rax)
  40b0fe:	00 00                	add    %al,(%rax)
  40b100:	80 04 00 00          	addb   $0x0,(%rax,%rax,1)
  40b104:	00 00                	add    %al,(%rax)
  40b106:	00 00                	add    %al,(%rax)
  40b108:	80 04 00 00          	addb   $0x0,(%rax,%rax,1)
  40b10c:	00 00                	add    %al,(%rax)
  40b10e:	00 00                	add    %al,(%rax)
  40b110:	80 04 00 00          	addb   $0x0,(%rax,%rax,1)
  40b114:	00 00                	add    %al,(%rax)
  40b116:	00 00                	add    %al,(%rax)
  40b118:	80 04 00 00          	addb   $0x0,(%rax,%rax,1)
  40b11c:	00 00                	add    %al,(%rax)
  40b11e:	00 00                	add    %al,(%rax)
  40b120:	80 04 00 00          	addb   $0x0,(%rax,%rax,1)
  40b124:	00 00                	add    %al,(%rax)
  40b126:	00 00                	add    %al,(%rax)
  40b128:	80 04 00 00          	addb   $0x0,(%rax,%rax,1)
  40b12c:	00 00                	add    %al,(%rax)
  40b12e:	00 00                	add    %al,(%rax)
  40b130:	80 04 00 00          	addb   $0x0,(%rax,%rax,1)
  40b134:	00 00                	add    %al,(%rax)
  40b136:	00 00                	add    %al,(%rax)
  40b138:	80 04 00 00          	addb   $0x0,(%rax,%rax,1)
  40b13c:	00 00                	add    %al,(%rax)
  40b13e:	00 00                	add    %al,(%rax)
  40b140:	90                   	nop
  40b141:	04 00                	add    $0x0,%al
  40b143:	00 00                	add    %al,(%rax)
  40b145:	00 00                	add    %al,(%rax)
  40b147:	00 90 04 00 00 00    	add    %dl,0x4(%rax)
  40b14d:	00 00                	add    %al,(%rax)
  40b14f:	00 90 04 00 00 00    	add    %dl,0x4(%rax)
  40b155:	00 00                	add    %al,(%rax)
  40b157:	00 90 04 00 00 00    	add    %dl,0x4(%rax)
  40b15d:	00 00                	add    %al,(%rax)
  40b15f:	00 90 04 00 00 00    	add    %dl,0x4(%rax)
  40b165:	00 00                	add    %al,(%rax)
  40b167:	00 90 04 00 00 00    	add    %dl,0x4(%rax)
  40b16d:	00 00                	add    %al,(%rax)
  40b16f:	00 90 04 00 00 00    	add    %dl,0x4(%rax)
  40b175:	00 00                	add    %al,(%rax)
  40b177:	00 90 04 00 00 00    	add    %dl,0x4(%rax)
  40b17d:	00 00                	add    %al,(%rax)
  40b17f:	00 90 04 00 00 00    	add    %dl,0x4(%rax)
  40b185:	00 00                	add    %al,(%rax)
  40b187:	00 90 04 00 00 00    	add    %dl,0x4(%rax)
  40b18d:	00 00                	add    %al,(%rax)
  40b18f:	00 90 04 00 00 00    	add    %dl,0x4(%rax)
  40b195:	00 00                	add    %al,(%rax)
  40b197:	00 90 04 00 00 00    	add    %dl,0x4(%rax)
  40b19d:	00 00                	add    %al,(%rax)
  40b19f:	00 90 04 00 00 00    	add    %dl,0x4(%rax)
  40b1a5:	00 00                	add    %al,(%rax)
  40b1a7:	00 90 04 00 00 00    	add    %dl,0x4(%rax)
  40b1ad:	00 00                	add    %al,(%rax)
  40b1af:	00 90 04 00 00 00    	add    %dl,0x4(%rax)
  40b1b5:	00 00                	add    %al,(%rax)
  40b1b7:	00 90 04 00 00 00    	add    %dl,0x4(%rax)
  40b1bd:	00 00                	add    %al,(%rax)
  40b1bf:	00 90 04 00 00 00    	add    %dl,0x4(%rax)
  40b1c5:	00 00                	add    %al,(%rax)
  40b1c7:	00 90 04 00 00 00    	add    %dl,0x4(%rax)
  40b1cd:	00 00                	add    %al,(%rax)
  40b1cf:	00 90 04 00 00 00    	add    %dl,0x4(%rax)
  40b1d5:	00 00                	add    %al,(%rax)
  40b1d7:	00 90 04 00 00 00    	add    %dl,0x4(%rax)
  40b1dd:	00 00                	add    %al,(%rax)
  40b1df:	00 90 04 00 00 00    	add    %dl,0x4(%rax)
  40b1e5:	00 00                	add    %al,(%rax)
  40b1e7:	00 90 04 00 00 00    	add    %dl,0x4(%rax)
  40b1ed:	00 00                	add    %al,(%rax)
  40b1ef:	00 90 04 00 00 00    	add    %dl,0x4(%rax)
  40b1f5:	00 00                	add    %al,(%rax)
  40b1f7:	00 90 04 00 00 00    	add    %dl,0x4(%rax)
  40b1fd:	00 00                	add    %al,(%rax)
  40b1ff:	00 90 04 00 00 00    	add    %dl,0x4(%rax)
  40b205:	00 00                	add    %al,(%rax)
  40b207:	00 90 04 00 00 00    	add    %dl,0x4(%rax)
  40b20d:	00 00                	add    %al,(%rax)
  40b20f:	00 90 04 00 00 00    	add    %dl,0x4(%rax)
  40b215:	00 00                	add    %al,(%rax)
  40b217:	00 90 04 00 00 00    	add    %dl,0x4(%rax)
  40b21d:	00 00                	add    %al,(%rax)
  40b21f:	00 90 04 00 00 00    	add    %dl,0x4(%rax)
  40b225:	00 00                	add    %al,(%rax)
  40b227:	00 90 04 00 00 00    	add    %dl,0x4(%rax)
  40b22d:	00 00                	add    %al,(%rax)
  40b22f:	00 90 04 00 00 00    	add    %dl,0x4(%rax)
  40b235:	00 00                	add    %al,(%rax)
  40b237:	00 90 04 00 00 00    	add    %dl,0x4(%rax)
  40b23d:	00 00                	add    %al,(%rax)
  40b23f:	00 a0 04 00 00 00    	add    %ah,0x4(%rax)
  40b245:	00 00                	add    %al,(%rax)
  40b247:	00 a0 04 00 00 00    	add    %ah,0x4(%rax)
  40b24d:	00 00                	add    %al,(%rax)
  40b24f:	00 a0 04 00 00 00    	add    %ah,0x4(%rax)
  40b255:	00 00                	add    %al,(%rax)
  40b257:	00 a0 04 00 00 00    	add    %ah,0x4(%rax)
  40b25d:	00 00                	add    %al,(%rax)
  40b25f:	00 a0 04 00 00 00    	add    %ah,0x4(%rax)
  40b265:	00 00                	add    %al,(%rax)
  40b267:	00 a0 04 00 00 00    	add    %ah,0x4(%rax)
  40b26d:	00 00                	add    %al,(%rax)
  40b26f:	00 a0 04 00 00 00    	add    %ah,0x4(%rax)
  40b275:	00 00                	add    %al,(%rax)
  40b277:	00 a0 04 00 00 00    	add    %ah,0x4(%rax)
  40b27d:	00 00                	add    %al,(%rax)
  40b27f:	00 a0 04 00 00 00    	add    %ah,0x4(%rax)
  40b285:	00 00                	add    %al,(%rax)
  40b287:	00 a0 04 00 00 00    	add    %ah,0x4(%rax)
  40b28d:	00 00                	add    %al,(%rax)
  40b28f:	00 a0 04 00 00 00    	add    %ah,0x4(%rax)
  40b295:	00 00                	add    %al,(%rax)
  40b297:	00 a0 04 00 00 00    	add    %ah,0x4(%rax)
  40b29d:	00 00                	add    %al,(%rax)
  40b29f:	00 a0 04 00 00 00    	add    %ah,0x4(%rax)
  40b2a5:	00 00                	add    %al,(%rax)
  40b2a7:	00 a0 04 00 00 00    	add    %ah,0x4(%rax)
  40b2ad:	00 00                	add    %al,(%rax)
  40b2af:	00 a0 04 00 00 00    	add    %ah,0x4(%rax)
  40b2b5:	00 00                	add    %al,(%rax)
  40b2b7:	00 a0 04 00 00 00    	add    %ah,0x4(%rax)
  40b2bd:	00 00                	add    %al,(%rax)
  40b2bf:	00 a0 04 00 00 00    	add    %ah,0x4(%rax)
  40b2c5:	00 00                	add    %al,(%rax)
  40b2c7:	00 a0 04 00 00 00    	add    %ah,0x4(%rax)
  40b2cd:	00 00                	add    %al,(%rax)
  40b2cf:	00 a0 04 00 00 00    	add    %ah,0x4(%rax)
  40b2d5:	00 00                	add    %al,(%rax)
  40b2d7:	00 a0 04 00 00 00    	add    %ah,0x4(%rax)
  40b2dd:	00 00                	add    %al,(%rax)
  40b2df:	00 a0 04 00 00 00    	add    %ah,0x4(%rax)
  40b2e5:	00 00                	add    %al,(%rax)
  40b2e7:	00 a0 04 00 00 00    	add    %ah,0x4(%rax)
  40b2ed:	00 00                	add    %al,(%rax)
  40b2ef:	00 a0 04 00 00 00    	add    %ah,0x4(%rax)
  40b2f5:	00 00                	add    %al,(%rax)
  40b2f7:	00 a0 04 00 00 00    	add    %ah,0x4(%rax)
  40b2fd:	00 00                	add    %al,(%rax)
  40b2ff:	00 a0 04 00 00 00    	add    %ah,0x4(%rax)
  40b305:	00 00                	add    %al,(%rax)
  40b307:	00 a0 04 00 00 00    	add    %ah,0x4(%rax)
  40b30d:	00 00                	add    %al,(%rax)
  40b30f:	00 a0 04 00 00 00    	add    %ah,0x4(%rax)
  40b315:	00 00                	add    %al,(%rax)
  40b317:	00 a0 04 00 00 00    	add    %ah,0x4(%rax)
  40b31d:	00 00                	add    %al,(%rax)
  40b31f:	00 a0 04 00 00 00    	add    %ah,0x4(%rax)
  40b325:	00 00                	add    %al,(%rax)
  40b327:	00 a0 04 00 00 00    	add    %ah,0x4(%rax)
  40b32d:	00 00                	add    %al,(%rax)
  40b32f:	00 a0 04 00 00 00    	add    %ah,0x4(%rax)
  40b335:	00 00                	add    %al,(%rax)
  40b337:	00 a0 04 00 00 00    	add    %ah,0x4(%rax)
  40b33d:	00 00                	add    %al,(%rax)
  40b33f:	00 b0 04 00 00 00    	add    %dh,0x4(%rax)
  40b345:	00 00                	add    %al,(%rax)
  40b347:	00 b0 04 00 00 00    	add    %dh,0x4(%rax)
  40b34d:	00 00                	add    %al,(%rax)
  40b34f:	00 b0 04 00 00 00    	add    %dh,0x4(%rax)
  40b355:	00 00                	add    %al,(%rax)
  40b357:	00 b0 04 00 00 00    	add    %dh,0x4(%rax)
  40b35d:	00 00                	add    %al,(%rax)
  40b35f:	00 b0 04 00 00 00    	add    %dh,0x4(%rax)
  40b365:	00 00                	add    %al,(%rax)
  40b367:	00 b0 04 00 00 00    	add    %dh,0x4(%rax)
  40b36d:	00 00                	add    %al,(%rax)
  40b36f:	00 b0 04 00 00 00    	add    %dh,0x4(%rax)
  40b375:	00 00                	add    %al,(%rax)
  40b377:	00 b0 04 00 00 00    	add    %dh,0x4(%rax)
  40b37d:	00 00                	add    %al,(%rax)
  40b37f:	00 b0 04 00 00 00    	add    %dh,0x4(%rax)
  40b385:	00 00                	add    %al,(%rax)
  40b387:	00 b0 04 00 00 00    	add    %dh,0x4(%rax)
  40b38d:	00 00                	add    %al,(%rax)
  40b38f:	00 b0 04 00 00 00    	add    %dh,0x4(%rax)
  40b395:	00 00                	add    %al,(%rax)
  40b397:	00 b0 04 00 00 00    	add    %dh,0x4(%rax)
  40b39d:	00 00                	add    %al,(%rax)
  40b39f:	00 b0 04 00 00 00    	add    %dh,0x4(%rax)
  40b3a5:	00 00                	add    %al,(%rax)
  40b3a7:	00 b0 04 00 00 00    	add    %dh,0x4(%rax)
  40b3ad:	00 00                	add    %al,(%rax)
  40b3af:	00 b0 04 00 00 00    	add    %dh,0x4(%rax)
  40b3b5:	00 00                	add    %al,(%rax)
  40b3b7:	00 b0 04 00 00 00    	add    %dh,0x4(%rax)
  40b3bd:	00 00                	add    %al,(%rax)
  40b3bf:	00 b0 04 00 00 00    	add    %dh,0x4(%rax)
  40b3c5:	00 00                	add    %al,(%rax)
  40b3c7:	00 b0 04 00 00 00    	add    %dh,0x4(%rax)
  40b3cd:	00 00                	add    %al,(%rax)
  40b3cf:	00 b0 04 00 00 00    	add    %dh,0x4(%rax)
  40b3d5:	00 00                	add    %al,(%rax)
  40b3d7:	00 b0 04 00 00 00    	add    %dh,0x4(%rax)
  40b3dd:	00 00                	add    %al,(%rax)
  40b3df:	00 b0 04 00 00 00    	add    %dh,0x4(%rax)
  40b3e5:	00 00                	add    %al,(%rax)
  40b3e7:	00 b0 04 00 00 00    	add    %dh,0x4(%rax)
  40b3ed:	00 00                	add    %al,(%rax)
  40b3ef:	00 b0 04 00 00 00    	add    %dh,0x4(%rax)
  40b3f5:	00 00                	add    %al,(%rax)
  40b3f7:	00 b0 04 00 00 00    	add    %dh,0x4(%rax)
  40b3fd:	00 00                	add    %al,(%rax)
  40b3ff:	00 b0 04 00 00 00    	add    %dh,0x4(%rax)
  40b405:	00 00                	add    %al,(%rax)
  40b407:	00 b0 04 00 00 00    	add    %dh,0x4(%rax)
  40b40d:	00 00                	add    %al,(%rax)
  40b40f:	00 b0 04 00 00 00    	add    %dh,0x4(%rax)
  40b415:	00 00                	add    %al,(%rax)
  40b417:	00 b0 04 00 00 00    	add    %dh,0x4(%rax)
  40b41d:	00 00                	add    %al,(%rax)
  40b41f:	00 b0 04 00 00 00    	add    %dh,0x4(%rax)
  40b425:	00 00                	add    %al,(%rax)
  40b427:	00 b0 04 00 00 00    	add    %dh,0x4(%rax)
  40b42d:	00 00                	add    %al,(%rax)
  40b42f:	00 b0 04 00 00 00    	add    %dh,0x4(%rax)
  40b435:	00 00                	add    %al,(%rax)
  40b437:	00 b0 04 00 00 00    	add    %dh,0x4(%rax)
  40b43d:	00 00                	add    %al,(%rax)
  40b43f:	00 30                	add    %dh,(%rax)
  40b441:	0c 00                	or     $0x0,%al
  40b443:	00 00                	add    %al,(%rax)
  40b445:	00 00                	add    %al,(%rax)
  40b447:	00 40 0c             	add    %al,0xc(%rax)
  40b44a:	00 00                	add    %al,(%rax)
  40b44c:	00 00                	add    %al,(%rax)
  40b44e:	00 00                	add    %al,(%rax)
  40b450:	20 0c 00             	and    %cl,(%rax,%rax,1)
  40b453:	00 00                	add    %al,(%rax)
  40b455:	00 00                	add    %al,(%rax)
  40b457:	00 10                	add    %dl,(%rax)
  40b459:	0c 00                	or     $0x0,%al
  40b45b:	00 00                	add    %al,(%rax)
  40b45d:	00 00                	add    %al,(%rax)
  40b45f:	00 f0                	add    %dh,%al
  40b461:	0b 00                	or     (%rax),%eax
  40b463:	00 00                	add    %al,(%rax)
  40b465:	00 00                	add    %al,(%rax)
  40b467:	00 e0                	add    %ah,%al
  40b469:	0b 00                	or     (%rax),%eax
  40b46b:	00 00                	add    %al,(%rax)
  40b46d:	00 00                	add    %al,(%rax)
  40b46f:	00 e0                	add    %ah,%al
  40b471:	0b 00                	or     (%rax),%eax
  40b473:	00 00                	add    %al,(%rax)
  40b475:	00 00                	add    %al,(%rax)
  40b477:	00 e0                	add    %ah,%al
  40b479:	0b 00                	or     (%rax),%eax
  40b47b:	00 00                	add    %al,(%rax)
  40b47d:	00 00                	add    %al,(%rax)
  40b47f:	00 c0                	add    %al,%al
  40b481:	0b 00                	or     (%rax),%eax
  40b483:	00 00                	add    %al,(%rax)
  40b485:	00 00                	add    %al,(%rax)
  40b487:	00 b0 0b 00 00 00    	add    %dh,0xb(%rax)
  40b48d:	00 00                	add    %al,(%rax)
  40b48f:	00 b0 0b 00 00 00    	add    %dh,0xb(%rax)
  40b495:	00 00                	add    %al,(%rax)
  40b497:	00 b0 0b 00 00 00    	add    %dh,0xb(%rax)
  40b49d:	00 00                	add    %al,(%rax)
  40b49f:	00 b0 0b 00 00 00    	add    %dh,0xb(%rax)
  40b4a5:	00 00                	add    %al,(%rax)
  40b4a7:	00 b0 0b 00 00 00    	add    %dh,0xb(%rax)
  40b4ad:	00 00                	add    %al,(%rax)
  40b4af:	00 b0 0b 00 00 00    	add    %dh,0xb(%rax)
  40b4b5:	00 00                	add    %al,(%rax)
  40b4b7:	00 b0 0b 00 00 00    	add    %dh,0xb(%rax)
  40b4bd:	00 00                	add    %al,(%rax)
  40b4bf:	00 90 0b 00 00 00    	add    %dl,0xb(%rax)
  40b4c5:	00 00                	add    %al,(%rax)
  40b4c7:	00 80 0b 00 00 00    	add    %al,0xb(%rax)
  40b4cd:	00 00                	add    %al,(%rax)
  40b4cf:	00 80 0b 00 00 00    	add    %al,0xb(%rax)
  40b4d5:	00 00                	add    %al,(%rax)
  40b4d7:	00 80 0b 00 00 00    	add    %al,0xb(%rax)
  40b4dd:	00 00                	add    %al,(%rax)
  40b4df:	00 80 0b 00 00 00    	add    %al,0xb(%rax)
  40b4e5:	00 00                	add    %al,(%rax)
  40b4e7:	00 80 0b 00 00 00    	add    %al,0xb(%rax)
  40b4ed:	00 00                	add    %al,(%rax)
  40b4ef:	00 80 0b 00 00 00    	add    %al,0xb(%rax)
  40b4f5:	00 00                	add    %al,(%rax)
  40b4f7:	00 80 0b 00 00 00    	add    %al,0xb(%rax)
  40b4fd:	00 00                	add    %al,(%rax)
  40b4ff:	00 80 0b 00 00 00    	add    %al,0xb(%rax)
  40b505:	00 00                	add    %al,(%rax)
  40b507:	00 80 0b 00 00 00    	add    %al,0xb(%rax)
  40b50d:	00 00                	add    %al,(%rax)
  40b50f:	00 80 0b 00 00 00    	add    %al,0xb(%rax)
  40b515:	00 00                	add    %al,(%rax)
  40b517:	00 80 0b 00 00 00    	add    %al,0xb(%rax)
  40b51d:	00 00                	add    %al,(%rax)
  40b51f:	00 80 0b 00 00 00    	add    %al,0xb(%rax)
  40b525:	00 00                	add    %al,(%rax)
  40b527:	00 80 0b 00 00 00    	add    %al,0xb(%rax)
  40b52d:	00 00                	add    %al,(%rax)
  40b52f:	00 80 0b 00 00 00    	add    %al,0xb(%rax)
  40b535:	00 00                	add    %al,(%rax)
  40b537:	00 80 0b 00 00 00    	add    %al,0xb(%rax)
  40b53d:	00 00                	add    %al,(%rax)
  40b53f:	00 14 09             	add    %dl,(%rcx,%rcx,1)
  40b542:	00 00                	add    %al,(%rax)
  40b544:	00 00                	add    %al,(%rax)
  40b546:	00 00                	add    %al,(%rax)
  40b548:	60                   	(bad)  
  40b549:	0b 00                	or     (%rax),%eax
  40b54b:	00 00                	add    %al,(%rax)
  40b54d:	00 00                	add    %al,(%rax)
  40b54f:	00 60 0b             	add    %ah,0xb(%rax)
  40b552:	00 00                	add    %al,(%rax)
  40b554:	00 00                	add    %al,(%rax)
  40b556:	00 00                	add    %al,(%rax)
  40b558:	60                   	(bad)  
  40b559:	0b 00                	or     (%rax),%eax
  40b55b:	00 00                	add    %al,(%rax)
  40b55d:	00 00                	add    %al,(%rax)
  40b55f:	00 60 0b             	add    %ah,0xb(%rax)
  40b562:	00 00                	add    %al,(%rax)
  40b564:	00 00                	add    %al,(%rax)
  40b566:	00 00                	add    %al,(%rax)
  40b568:	60                   	(bad)  
  40b569:	0b 00                	or     (%rax),%eax
  40b56b:	00 00                	add    %al,(%rax)
  40b56d:	00 00                	add    %al,(%rax)
  40b56f:	00 60 0b             	add    %ah,0xb(%rax)
  40b572:	00 00                	add    %al,(%rax)
  40b574:	00 00                	add    %al,(%rax)
  40b576:	00 00                	add    %al,(%rax)
  40b578:	60                   	(bad)  
  40b579:	0b 00                	or     (%rax),%eax
  40b57b:	00 00                	add    %al,(%rax)
  40b57d:	00 00                	add    %al,(%rax)
  40b57f:	00 60 0b             	add    %ah,0xb(%rax)
  40b582:	00 00                	add    %al,(%rax)
  40b584:	00 00                	add    %al,(%rax)
  40b586:	00 00                	add    %al,(%rax)
  40b588:	60                   	(bad)  
  40b589:	0b 00                	or     (%rax),%eax
  40b58b:	00 00                	add    %al,(%rax)
  40b58d:	00 00                	add    %al,(%rax)
  40b58f:	00 60 0b             	add    %ah,0xb(%rax)
  40b592:	00 00                	add    %al,(%rax)
  40b594:	00 00                	add    %al,(%rax)
  40b596:	00 00                	add    %al,(%rax)
  40b598:	60                   	(bad)  
  40b599:	0b 00                	or     (%rax),%eax
  40b59b:	00 00                	add    %al,(%rax)
  40b59d:	00 00                	add    %al,(%rax)
  40b59f:	00 60 0b             	add    %ah,0xb(%rax)
  40b5a2:	00 00                	add    %al,(%rax)
  40b5a4:	00 00                	add    %al,(%rax)
  40b5a6:	00 00                	add    %al,(%rax)
  40b5a8:	60                   	(bad)  
  40b5a9:	0b 00                	or     (%rax),%eax
  40b5ab:	00 00                	add    %al,(%rax)
  40b5ad:	00 00                	add    %al,(%rax)
  40b5af:	00 60 0b             	add    %ah,0xb(%rax)
  40b5b2:	00 00                	add    %al,(%rax)
  40b5b4:	00 00                	add    %al,(%rax)
  40b5b6:	00 00                	add    %al,(%rax)
  40b5b8:	60                   	(bad)  
  40b5b9:	0b 00                	or     (%rax),%eax
  40b5bb:	00 00                	add    %al,(%rax)
  40b5bd:	00 00                	add    %al,(%rax)
  40b5bf:	00 60 0b             	add    %ah,0xb(%rax)
  40b5c2:	00 00                	add    %al,(%rax)
  40b5c4:	00 00                	add    %al,(%rax)
  40b5c6:	00 00                	add    %al,(%rax)
  40b5c8:	60                   	(bad)  
  40b5c9:	0b 00                	or     (%rax),%eax
  40b5cb:	00 00                	add    %al,(%rax)
  40b5cd:	00 00                	add    %al,(%rax)
  40b5cf:	00 60 0b             	add    %ah,0xb(%rax)
  40b5d2:	00 00                	add    %al,(%rax)
  40b5d4:	00 00                	add    %al,(%rax)
  40b5d6:	00 00                	add    %al,(%rax)
  40b5d8:	60                   	(bad)  
  40b5d9:	0b 00                	or     (%rax),%eax
  40b5db:	00 00                	add    %al,(%rax)
  40b5dd:	00 00                	add    %al,(%rax)
  40b5df:	00 60 0b             	add    %ah,0xb(%rax)
  40b5e2:	00 00                	add    %al,(%rax)
  40b5e4:	00 00                	add    %al,(%rax)
  40b5e6:	00 00                	add    %al,(%rax)
  40b5e8:	60                   	(bad)  
  40b5e9:	0b 00                	or     (%rax),%eax
  40b5eb:	00 00                	add    %al,(%rax)
  40b5ed:	00 00                	add    %al,(%rax)
  40b5ef:	00 60 0b             	add    %ah,0xb(%rax)
  40b5f2:	00 00                	add    %al,(%rax)
  40b5f4:	00 00                	add    %al,(%rax)
  40b5f6:	00 00                	add    %al,(%rax)
  40b5f8:	60                   	(bad)  
  40b5f9:	0b 00                	or     (%rax),%eax
  40b5fb:	00 00                	add    %al,(%rax)
  40b5fd:	00 00                	add    %al,(%rax)
  40b5ff:	00 60 0b             	add    %ah,0xb(%rax)
  40b602:	00 00                	add    %al,(%rax)
  40b604:	00 00                	add    %al,(%rax)
  40b606:	00 00                	add    %al,(%rax)
  40b608:	60                   	(bad)  
  40b609:	0b 00                	or     (%rax),%eax
  40b60b:	00 00                	add    %al,(%rax)
  40b60d:	00 00                	add    %al,(%rax)
  40b60f:	00 60 0b             	add    %ah,0xb(%rax)
  40b612:	00 00                	add    %al,(%rax)
  40b614:	00 00                	add    %al,(%rax)
  40b616:	00 00                	add    %al,(%rax)
  40b618:	60                   	(bad)  
  40b619:	0b 00                	or     (%rax),%eax
  40b61b:	00 00                	add    %al,(%rax)
  40b61d:	00 00                	add    %al,(%rax)
  40b61f:	00 60 0b             	add    %ah,0xb(%rax)
  40b622:	00 00                	add    %al,(%rax)
  40b624:	00 00                	add    %al,(%rax)
  40b626:	00 00                	add    %al,(%rax)
  40b628:	60                   	(bad)  
  40b629:	0b 00                	or     (%rax),%eax
  40b62b:	00 00                	add    %al,(%rax)
  40b62d:	00 00                	add    %al,(%rax)
  40b62f:	00 60 0b             	add    %ah,0xb(%rax)
  40b632:	00 00                	add    %al,(%rax)
  40b634:	00 00                	add    %al,(%rax)
  40b636:	00 00                	add    %al,(%rax)
  40b638:	60                   	(bad)  
  40b639:	0b 00                	or     (%rax),%eax
  40b63b:	00 00                	add    %al,(%rax)
  40b63d:	00 00                	add    %al,(%rax)
  40b63f:	00 20                	add    %ah,(%rax)
  40b641:	09 00                	or     %eax,(%rax)
  40b643:	00 00                	add    %al,(%rax)
  40b645:	00 00                	add    %al,(%rax)
  40b647:	00 40 0b             	add    %al,0xb(%rax)
  40b64a:	00 00                	add    %al,(%rax)
  40b64c:	00 00                	add    %al,(%rax)
  40b64e:	00 00                	add    %al,(%rax)
  40b650:	40 0b 00             	rex or (%rax),%eax
  40b653:	00 00                	add    %al,(%rax)
  40b655:	00 00                	add    %al,(%rax)
  40b657:	00 40 0b             	add    %al,0xb(%rax)
  40b65a:	00 00                	add    %al,(%rax)
  40b65c:	00 00                	add    %al,(%rax)
  40b65e:	00 00                	add    %al,(%rax)
  40b660:	40 0b 00             	rex or (%rax),%eax
  40b663:	00 00                	add    %al,(%rax)
  40b665:	00 00                	add    %al,(%rax)
  40b667:	00 40 0b             	add    %al,0xb(%rax)
  40b66a:	00 00                	add    %al,(%rax)
  40b66c:	00 00                	add    %al,(%rax)
  40b66e:	00 00                	add    %al,(%rax)
  40b670:	40 0b 00             	rex or (%rax),%eax
  40b673:	00 00                	add    %al,(%rax)
  40b675:	00 00                	add    %al,(%rax)
  40b677:	00 40 0b             	add    %al,0xb(%rax)
  40b67a:	00 00                	add    %al,(%rax)
  40b67c:	00 00                	add    %al,(%rax)
  40b67e:	00 00                	add    %al,(%rax)
  40b680:	40 0b 00             	rex or (%rax),%eax
  40b683:	00 00                	add    %al,(%rax)
  40b685:	00 00                	add    %al,(%rax)
  40b687:	00 40 0b             	add    %al,0xb(%rax)
  40b68a:	00 00                	add    %al,(%rax)
  40b68c:	00 00                	add    %al,(%rax)
  40b68e:	00 00                	add    %al,(%rax)
  40b690:	40 0b 00             	rex or (%rax),%eax
  40b693:	00 00                	add    %al,(%rax)
  40b695:	00 00                	add    %al,(%rax)
  40b697:	00 40 0b             	add    %al,0xb(%rax)
  40b69a:	00 00                	add    %al,(%rax)
  40b69c:	00 00                	add    %al,(%rax)
  40b69e:	00 00                	add    %al,(%rax)
  40b6a0:	40 0b 00             	rex or (%rax),%eax
  40b6a3:	00 00                	add    %al,(%rax)
  40b6a5:	00 00                	add    %al,(%rax)
  40b6a7:	00 40 0b             	add    %al,0xb(%rax)
  40b6aa:	00 00                	add    %al,(%rax)
  40b6ac:	00 00                	add    %al,(%rax)
  40b6ae:	00 00                	add    %al,(%rax)
  40b6b0:	40 0b 00             	rex or (%rax),%eax
  40b6b3:	00 00                	add    %al,(%rax)
  40b6b5:	00 00                	add    %al,(%rax)
  40b6b7:	00 40 0b             	add    %al,0xb(%rax)
  40b6ba:	00 00                	add    %al,(%rax)
  40b6bc:	00 00                	add    %al,(%rax)
  40b6be:	00 00                	add    %al,(%rax)
  40b6c0:	40 0b 00             	rex or (%rax),%eax
  40b6c3:	00 00                	add    %al,(%rax)
  40b6c5:	00 00                	add    %al,(%rax)
  40b6c7:	00 40 0b             	add    %al,0xb(%rax)
  40b6ca:	00 00                	add    %al,(%rax)
  40b6cc:	00 00                	add    %al,(%rax)
  40b6ce:	00 00                	add    %al,(%rax)
  40b6d0:	40 0b 00             	rex or (%rax),%eax
  40b6d3:	00 00                	add    %al,(%rax)
  40b6d5:	00 00                	add    %al,(%rax)
  40b6d7:	00 40 0b             	add    %al,0xb(%rax)
  40b6da:	00 00                	add    %al,(%rax)
  40b6dc:	00 00                	add    %al,(%rax)
  40b6de:	00 00                	add    %al,(%rax)
  40b6e0:	40 0b 00             	rex or (%rax),%eax
  40b6e3:	00 00                	add    %al,(%rax)
  40b6e5:	00 00                	add    %al,(%rax)
  40b6e7:	00 40 0b             	add    %al,0xb(%rax)
  40b6ea:	00 00                	add    %al,(%rax)
  40b6ec:	00 00                	add    %al,(%rax)
  40b6ee:	00 00                	add    %al,(%rax)
  40b6f0:	40 0b 00             	rex or (%rax),%eax
  40b6f3:	00 00                	add    %al,(%rax)
  40b6f5:	00 00                	add    %al,(%rax)
  40b6f7:	00 40 0b             	add    %al,0xb(%rax)
  40b6fa:	00 00                	add    %al,(%rax)
  40b6fc:	00 00                	add    %al,(%rax)
  40b6fe:	00 00                	add    %al,(%rax)
  40b700:	40 0b 00             	rex or (%rax),%eax
  40b703:	00 00                	add    %al,(%rax)
  40b705:	00 00                	add    %al,(%rax)
  40b707:	00 40 0b             	add    %al,0xb(%rax)
  40b70a:	00 00                	add    %al,(%rax)
  40b70c:	00 00                	add    %al,(%rax)
  40b70e:	00 00                	add    %al,(%rax)
  40b710:	40 0b 00             	rex or (%rax),%eax
  40b713:	00 00                	add    %al,(%rax)
  40b715:	00 00                	add    %al,(%rax)
  40b717:	00 40 0b             	add    %al,0xb(%rax)
  40b71a:	00 00                	add    %al,(%rax)
  40b71c:	00 00                	add    %al,(%rax)
  40b71e:	00 00                	add    %al,(%rax)
  40b720:	40 0b 00             	rex or (%rax),%eax
  40b723:	00 00                	add    %al,(%rax)
  40b725:	00 00                	add    %al,(%rax)
  40b727:	00 40 0b             	add    %al,0xb(%rax)
  40b72a:	00 00                	add    %al,(%rax)
  40b72c:	00 00                	add    %al,(%rax)
  40b72e:	00 00                	add    %al,(%rax)
  40b730:	40 0b 00             	rex or (%rax),%eax
  40b733:	00 00                	add    %al,(%rax)
  40b735:	00 00                	add    %al,(%rax)
  40b737:	00 40 0b             	add    %al,0xb(%rax)
  40b73a:	00 00                	add    %al,(%rax)
  40b73c:	00 00                	add    %al,(%rax)
  40b73e:	00 00                	add    %al,(%rax)
  40b740:	2c 09                	sub    $0x9,%al
  40b742:	00 00                	add    %al,(%rax)
  40b744:	00 00                	add    %al,(%rax)
  40b746:	00 00                	add    %al,(%rax)
  40b748:	10 0b                	adc    %cl,(%rbx)
  40b74a:	00 00                	add    %al,(%rax)
  40b74c:	00 00                	add    %al,(%rax)
  40b74e:	00 00                	add    %al,(%rax)
  40b750:	10 0b                	adc    %cl,(%rbx)
  40b752:	00 00                	add    %al,(%rax)
  40b754:	00 00                	add    %al,(%rax)
  40b756:	00 00                	add    %al,(%rax)
  40b758:	10 0b                	adc    %cl,(%rbx)
  40b75a:	00 00                	add    %al,(%rax)
  40b75c:	00 00                	add    %al,(%rax)
  40b75e:	00 00                	add    %al,(%rax)
  40b760:	10 0b                	adc    %cl,(%rbx)
  40b762:	00 00                	add    %al,(%rax)
  40b764:	00 00                	add    %al,(%rax)
  40b766:	00 00                	add    %al,(%rax)
  40b768:	10 0b                	adc    %cl,(%rbx)
  40b76a:	00 00                	add    %al,(%rax)
  40b76c:	00 00                	add    %al,(%rax)
  40b76e:	00 00                	add    %al,(%rax)
  40b770:	10 0b                	adc    %cl,(%rbx)
  40b772:	00 00                	add    %al,(%rax)
  40b774:	00 00                	add    %al,(%rax)
  40b776:	00 00                	add    %al,(%rax)
  40b778:	10 0b                	adc    %cl,(%rbx)
  40b77a:	00 00                	add    %al,(%rax)
  40b77c:	00 00                	add    %al,(%rax)
  40b77e:	00 00                	add    %al,(%rax)
  40b780:	10 0b                	adc    %cl,(%rbx)
  40b782:	00 00                	add    %al,(%rax)
  40b784:	00 00                	add    %al,(%rax)
  40b786:	00 00                	add    %al,(%rax)
  40b788:	10 0b                	adc    %cl,(%rbx)
  40b78a:	00 00                	add    %al,(%rax)
  40b78c:	00 00                	add    %al,(%rax)
  40b78e:	00 00                	add    %al,(%rax)
  40b790:	10 0b                	adc    %cl,(%rbx)
  40b792:	00 00                	add    %al,(%rax)
  40b794:	00 00                	add    %al,(%rax)
  40b796:	00 00                	add    %al,(%rax)
  40b798:	10 0b                	adc    %cl,(%rbx)
  40b79a:	00 00                	add    %al,(%rax)
  40b79c:	00 00                	add    %al,(%rax)
  40b79e:	00 00                	add    %al,(%rax)
  40b7a0:	10 0b                	adc    %cl,(%rbx)
  40b7a2:	00 00                	add    %al,(%rax)
  40b7a4:	00 00                	add    %al,(%rax)
  40b7a6:	00 00                	add    %al,(%rax)
  40b7a8:	10 0b                	adc    %cl,(%rbx)
  40b7aa:	00 00                	add    %al,(%rax)
  40b7ac:	00 00                	add    %al,(%rax)
  40b7ae:	00 00                	add    %al,(%rax)
  40b7b0:	10 0b                	adc    %cl,(%rbx)
  40b7b2:	00 00                	add    %al,(%rax)
  40b7b4:	00 00                	add    %al,(%rax)
  40b7b6:	00 00                	add    %al,(%rax)
  40b7b8:	10 0b                	adc    %cl,(%rbx)
  40b7ba:	00 00                	add    %al,(%rax)
  40b7bc:	00 00                	add    %al,(%rax)
  40b7be:	00 00                	add    %al,(%rax)
  40b7c0:	10 0b                	adc    %cl,(%rbx)
  40b7c2:	00 00                	add    %al,(%rax)
  40b7c4:	00 00                	add    %al,(%rax)
  40b7c6:	00 00                	add    %al,(%rax)
  40b7c8:	10 0b                	adc    %cl,(%rbx)
  40b7ca:	00 00                	add    %al,(%rax)
  40b7cc:	00 00                	add    %al,(%rax)
  40b7ce:	00 00                	add    %al,(%rax)
  40b7d0:	10 0b                	adc    %cl,(%rbx)
  40b7d2:	00 00                	add    %al,(%rax)
  40b7d4:	00 00                	add    %al,(%rax)
  40b7d6:	00 00                	add    %al,(%rax)
  40b7d8:	10 0b                	adc    %cl,(%rbx)
  40b7da:	00 00                	add    %al,(%rax)
  40b7dc:	00 00                	add    %al,(%rax)
  40b7de:	00 00                	add    %al,(%rax)
  40b7e0:	10 0b                	adc    %cl,(%rbx)
  40b7e2:	00 00                	add    %al,(%rax)
  40b7e4:	00 00                	add    %al,(%rax)
  40b7e6:	00 00                	add    %al,(%rax)
  40b7e8:	10 0b                	adc    %cl,(%rbx)
  40b7ea:	00 00                	add    %al,(%rax)
  40b7ec:	00 00                	add    %al,(%rax)
  40b7ee:	00 00                	add    %al,(%rax)
  40b7f0:	10 0b                	adc    %cl,(%rbx)
  40b7f2:	00 00                	add    %al,(%rax)
  40b7f4:	00 00                	add    %al,(%rax)
  40b7f6:	00 00                	add    %al,(%rax)
  40b7f8:	10 0b                	adc    %cl,(%rbx)
  40b7fa:	00 00                	add    %al,(%rax)
  40b7fc:	00 00                	add    %al,(%rax)
  40b7fe:	00 00                	add    %al,(%rax)
  40b800:	10 0b                	adc    %cl,(%rbx)
  40b802:	00 00                	add    %al,(%rax)
  40b804:	00 00                	add    %al,(%rax)
  40b806:	00 00                	add    %al,(%rax)
  40b808:	10 0b                	adc    %cl,(%rbx)
  40b80a:	00 00                	add    %al,(%rax)
  40b80c:	00 00                	add    %al,(%rax)
  40b80e:	00 00                	add    %al,(%rax)
  40b810:	10 0b                	adc    %cl,(%rbx)
  40b812:	00 00                	add    %al,(%rax)
  40b814:	00 00                	add    %al,(%rax)
  40b816:	00 00                	add    %al,(%rax)
  40b818:	10 0b                	adc    %cl,(%rbx)
  40b81a:	00 00                	add    %al,(%rax)
  40b81c:	00 00                	add    %al,(%rax)
  40b81e:	00 00                	add    %al,(%rax)
  40b820:	10 0b                	adc    %cl,(%rbx)
  40b822:	00 00                	add    %al,(%rax)
  40b824:	00 00                	add    %al,(%rax)
  40b826:	00 00                	add    %al,(%rax)
  40b828:	10 0b                	adc    %cl,(%rbx)
  40b82a:	00 00                	add    %al,(%rax)
  40b82c:	00 00                	add    %al,(%rax)
  40b82e:	00 00                	add    %al,(%rax)
  40b830:	10 0b                	adc    %cl,(%rbx)
  40b832:	00 00                	add    %al,(%rax)
  40b834:	00 00                	add    %al,(%rax)
  40b836:	00 00                	add    %al,(%rax)
  40b838:	10 0b                	adc    %cl,(%rbx)
  40b83a:	00 00                	add    %al,(%rax)
  40b83c:	00 00                	add    %al,(%rax)
  40b83e:	00 00                	add    %al,(%rax)
  40b840:	38 09                	cmp    %cl,(%rcx)
  40b842:	00 00                	add    %al,(%rax)
  40b844:	00 00                	add    %al,(%rax)
  40b846:	00 00                	add    %al,(%rax)
  40b848:	e0 0a                	loopne 40b854 <__intel_avx_rep_memcpy+0x13b4>
  40b84a:	00 00                	add    %al,(%rax)
  40b84c:	00 00                	add    %al,(%rax)
  40b84e:	00 00                	add    %al,(%rax)
  40b850:	e0 0a                	loopne 40b85c <__intel_avx_rep_memcpy+0x13bc>
  40b852:	00 00                	add    %al,(%rax)
  40b854:	00 00                	add    %al,(%rax)
  40b856:	00 00                	add    %al,(%rax)
  40b858:	e0 0a                	loopne 40b864 <__intel_avx_rep_memcpy+0x13c4>
  40b85a:	00 00                	add    %al,(%rax)
  40b85c:	00 00                	add    %al,(%rax)
  40b85e:	00 00                	add    %al,(%rax)
  40b860:	e0 0a                	loopne 40b86c <__intel_avx_rep_memcpy+0x13cc>
  40b862:	00 00                	add    %al,(%rax)
  40b864:	00 00                	add    %al,(%rax)
  40b866:	00 00                	add    %al,(%rax)
  40b868:	e0 0a                	loopne 40b874 <__intel_avx_rep_memcpy+0x13d4>
  40b86a:	00 00                	add    %al,(%rax)
  40b86c:	00 00                	add    %al,(%rax)
  40b86e:	00 00                	add    %al,(%rax)
  40b870:	e0 0a                	loopne 40b87c <__intel_avx_rep_memcpy+0x13dc>
  40b872:	00 00                	add    %al,(%rax)
  40b874:	00 00                	add    %al,(%rax)
  40b876:	00 00                	add    %al,(%rax)
  40b878:	e0 0a                	loopne 40b884 <__intel_avx_rep_memcpy+0x13e4>
  40b87a:	00 00                	add    %al,(%rax)
  40b87c:	00 00                	add    %al,(%rax)
  40b87e:	00 00                	add    %al,(%rax)
  40b880:	e0 0a                	loopne 40b88c <__intel_avx_rep_memcpy+0x13ec>
  40b882:	00 00                	add    %al,(%rax)
  40b884:	00 00                	add    %al,(%rax)
  40b886:	00 00                	add    %al,(%rax)
  40b888:	e0 0a                	loopne 40b894 <__intel_avx_rep_memcpy+0x13f4>
  40b88a:	00 00                	add    %al,(%rax)
  40b88c:	00 00                	add    %al,(%rax)
  40b88e:	00 00                	add    %al,(%rax)
  40b890:	e0 0a                	loopne 40b89c <__intel_avx_rep_memcpy+0x13fc>
  40b892:	00 00                	add    %al,(%rax)
  40b894:	00 00                	add    %al,(%rax)
  40b896:	00 00                	add    %al,(%rax)
  40b898:	e0 0a                	loopne 40b8a4 <__intel_avx_rep_memcpy+0x1404>
  40b89a:	00 00                	add    %al,(%rax)
  40b89c:	00 00                	add    %al,(%rax)
  40b89e:	00 00                	add    %al,(%rax)
  40b8a0:	e0 0a                	loopne 40b8ac <__intel_avx_rep_memcpy+0x140c>
  40b8a2:	00 00                	add    %al,(%rax)
  40b8a4:	00 00                	add    %al,(%rax)
  40b8a6:	00 00                	add    %al,(%rax)
  40b8a8:	e0 0a                	loopne 40b8b4 <__intel_avx_rep_memcpy+0x1414>
  40b8aa:	00 00                	add    %al,(%rax)
  40b8ac:	00 00                	add    %al,(%rax)
  40b8ae:	00 00                	add    %al,(%rax)
  40b8b0:	e0 0a                	loopne 40b8bc <__intel_avx_rep_memcpy+0x141c>
  40b8b2:	00 00                	add    %al,(%rax)
  40b8b4:	00 00                	add    %al,(%rax)
  40b8b6:	00 00                	add    %al,(%rax)
  40b8b8:	e0 0a                	loopne 40b8c4 <__intel_avx_rep_memcpy+0x1424>
  40b8ba:	00 00                	add    %al,(%rax)
  40b8bc:	00 00                	add    %al,(%rax)
  40b8be:	00 00                	add    %al,(%rax)
  40b8c0:	e0 0a                	loopne 40b8cc <__intel_avx_rep_memcpy+0x142c>
  40b8c2:	00 00                	add    %al,(%rax)
  40b8c4:	00 00                	add    %al,(%rax)
  40b8c6:	00 00                	add    %al,(%rax)
  40b8c8:	e0 0a                	loopne 40b8d4 <__intel_avx_rep_memcpy+0x1434>
  40b8ca:	00 00                	add    %al,(%rax)
  40b8cc:	00 00                	add    %al,(%rax)
  40b8ce:	00 00                	add    %al,(%rax)
  40b8d0:	e0 0a                	loopne 40b8dc <__intel_avx_rep_memcpy+0x143c>
  40b8d2:	00 00                	add    %al,(%rax)
  40b8d4:	00 00                	add    %al,(%rax)
  40b8d6:	00 00                	add    %al,(%rax)
  40b8d8:	e0 0a                	loopne 40b8e4 <__intel_avx_rep_memcpy+0x1444>
  40b8da:	00 00                	add    %al,(%rax)
  40b8dc:	00 00                	add    %al,(%rax)
  40b8de:	00 00                	add    %al,(%rax)
  40b8e0:	e0 0a                	loopne 40b8ec <__intel_avx_rep_memcpy+0x144c>
  40b8e2:	00 00                	add    %al,(%rax)
  40b8e4:	00 00                	add    %al,(%rax)
  40b8e6:	00 00                	add    %al,(%rax)
  40b8e8:	e0 0a                	loopne 40b8f4 <__intel_avx_rep_memcpy+0x1454>
  40b8ea:	00 00                	add    %al,(%rax)
  40b8ec:	00 00                	add    %al,(%rax)
  40b8ee:	00 00                	add    %al,(%rax)
  40b8f0:	e0 0a                	loopne 40b8fc <__intel_avx_rep_memcpy+0x145c>
  40b8f2:	00 00                	add    %al,(%rax)
  40b8f4:	00 00                	add    %al,(%rax)
  40b8f6:	00 00                	add    %al,(%rax)
  40b8f8:	e0 0a                	loopne 40b904 <__intel_avx_rep_memcpy+0x1464>
  40b8fa:	00 00                	add    %al,(%rax)
  40b8fc:	00 00                	add    %al,(%rax)
  40b8fe:	00 00                	add    %al,(%rax)
  40b900:	e0 0a                	loopne 40b90c <__intel_avx_rep_memcpy+0x146c>
  40b902:	00 00                	add    %al,(%rax)
  40b904:	00 00                	add    %al,(%rax)
  40b906:	00 00                	add    %al,(%rax)
  40b908:	e0 0a                	loopne 40b914 <__intel_avx_rep_memcpy+0x1474>
  40b90a:	00 00                	add    %al,(%rax)
  40b90c:	00 00                	add    %al,(%rax)
  40b90e:	00 00                	add    %al,(%rax)
  40b910:	e0 0a                	loopne 40b91c <__intel_avx_rep_memcpy+0x147c>
  40b912:	00 00                	add    %al,(%rax)
  40b914:	00 00                	add    %al,(%rax)
  40b916:	00 00                	add    %al,(%rax)
  40b918:	e0 0a                	loopne 40b924 <__intel_avx_rep_memcpy+0x1484>
  40b91a:	00 00                	add    %al,(%rax)
  40b91c:	00 00                	add    %al,(%rax)
  40b91e:	00 00                	add    %al,(%rax)
  40b920:	e0 0a                	loopne 40b92c <__intel_avx_rep_memcpy+0x148c>
  40b922:	00 00                	add    %al,(%rax)
  40b924:	00 00                	add    %al,(%rax)
  40b926:	00 00                	add    %al,(%rax)
  40b928:	e0 0a                	loopne 40b934 <__intel_avx_rep_memcpy+0x1494>
  40b92a:	00 00                	add    %al,(%rax)
  40b92c:	00 00                	add    %al,(%rax)
  40b92e:	00 00                	add    %al,(%rax)
  40b930:	e0 0a                	loopne 40b93c <__intel_avx_rep_memcpy+0x149c>
  40b932:	00 00                	add    %al,(%rax)
  40b934:	00 00                	add    %al,(%rax)
  40b936:	00 00                	add    %al,(%rax)
  40b938:	e0 0a                	loopne 40b944 <__intel_avx_rep_memcpy+0x14a4>
  40b93a:	00 00                	add    %al,(%rax)
  40b93c:	00 00                	add    %al,(%rax)
  40b93e:	00 00                	add    %al,(%rax)
  40b940:	4a 09 00             	rex.WX or %rax,(%rax)
  40b943:	00 00                	add    %al,(%rax)
  40b945:	00 00                	add    %al,(%rax)
  40b947:	00 a0 0a 00 00 00    	add    %ah,0xa(%rax)
  40b94d:	00 00                	add    %al,(%rax)
  40b94f:	00 a0 0a 00 00 00    	add    %ah,0xa(%rax)
  40b955:	00 00                	add    %al,(%rax)
  40b957:	00 a0 0a 00 00 00    	add    %ah,0xa(%rax)
  40b95d:	00 00                	add    %al,(%rax)
  40b95f:	00 a0 0a 00 00 00    	add    %ah,0xa(%rax)
  40b965:	00 00                	add    %al,(%rax)
  40b967:	00 a0 0a 00 00 00    	add    %ah,0xa(%rax)
  40b96d:	00 00                	add    %al,(%rax)
  40b96f:	00 a0 0a 00 00 00    	add    %ah,0xa(%rax)
  40b975:	00 00                	add    %al,(%rax)
  40b977:	00 a0 0a 00 00 00    	add    %ah,0xa(%rax)
  40b97d:	00 00                	add    %al,(%rax)
  40b97f:	00 a0 0a 00 00 00    	add    %ah,0xa(%rax)
  40b985:	00 00                	add    %al,(%rax)
  40b987:	00 a0 0a 00 00 00    	add    %ah,0xa(%rax)
  40b98d:	00 00                	add    %al,(%rax)
  40b98f:	00 a0 0a 00 00 00    	add    %ah,0xa(%rax)
  40b995:	00 00                	add    %al,(%rax)
  40b997:	00 a0 0a 00 00 00    	add    %ah,0xa(%rax)
  40b99d:	00 00                	add    %al,(%rax)
  40b99f:	00 a0 0a 00 00 00    	add    %ah,0xa(%rax)
  40b9a5:	00 00                	add    %al,(%rax)
  40b9a7:	00 a0 0a 00 00 00    	add    %ah,0xa(%rax)
  40b9ad:	00 00                	add    %al,(%rax)
  40b9af:	00 a0 0a 00 00 00    	add    %ah,0xa(%rax)
  40b9b5:	00 00                	add    %al,(%rax)
  40b9b7:	00 a0 0a 00 00 00    	add    %ah,0xa(%rax)
  40b9bd:	00 00                	add    %al,(%rax)
  40b9bf:	00 a0 0a 00 00 00    	add    %ah,0xa(%rax)
  40b9c5:	00 00                	add    %al,(%rax)
  40b9c7:	00 a0 0a 00 00 00    	add    %ah,0xa(%rax)
  40b9cd:	00 00                	add    %al,(%rax)
  40b9cf:	00 a0 0a 00 00 00    	add    %ah,0xa(%rax)
  40b9d5:	00 00                	add    %al,(%rax)
  40b9d7:	00 a0 0a 00 00 00    	add    %ah,0xa(%rax)
  40b9dd:	00 00                	add    %al,(%rax)
  40b9df:	00 a0 0a 00 00 00    	add    %ah,0xa(%rax)
  40b9e5:	00 00                	add    %al,(%rax)
  40b9e7:	00 a0 0a 00 00 00    	add    %ah,0xa(%rax)
  40b9ed:	00 00                	add    %al,(%rax)
  40b9ef:	00 a0 0a 00 00 00    	add    %ah,0xa(%rax)
  40b9f5:	00 00                	add    %al,(%rax)
  40b9f7:	00 a0 0a 00 00 00    	add    %ah,0xa(%rax)
  40b9fd:	00 00                	add    %al,(%rax)
  40b9ff:	00 a0 0a 00 00 00    	add    %ah,0xa(%rax)
  40ba05:	00 00                	add    %al,(%rax)
  40ba07:	00 a0 0a 00 00 00    	add    %ah,0xa(%rax)
  40ba0d:	00 00                	add    %al,(%rax)
  40ba0f:	00 a0 0a 00 00 00    	add    %ah,0xa(%rax)
  40ba15:	00 00                	add    %al,(%rax)
  40ba17:	00 a0 0a 00 00 00    	add    %ah,0xa(%rax)
  40ba1d:	00 00                	add    %al,(%rax)
  40ba1f:	00 a0 0a 00 00 00    	add    %ah,0xa(%rax)
  40ba25:	00 00                	add    %al,(%rax)
  40ba27:	00 a0 0a 00 00 00    	add    %ah,0xa(%rax)
  40ba2d:	00 00                	add    %al,(%rax)
  40ba2f:	00 a0 0a 00 00 00    	add    %ah,0xa(%rax)
  40ba35:	00 00                	add    %al,(%rax)
  40ba37:	00 a0 0a 00 00 00    	add    %ah,0xa(%rax)
  40ba3d:	00 00                	add    %al,(%rax)
  40ba3f:	00 5c 09 00          	add    %bl,0x0(%rcx,%rcx,1)
  40ba43:	00 00                	add    %al,(%rax)
  40ba45:	00 00                	add    %al,(%rax)
  40ba47:	00 50 0a             	add    %dl,0xa(%rax)
  40ba4a:	00 00                	add    %al,(%rax)
  40ba4c:	00 00                	add    %al,(%rax)
  40ba4e:	00 00                	add    %al,(%rax)
  40ba50:	50                   	push   %rax
  40ba51:	0a 00                	or     (%rax),%al
  40ba53:	00 00                	add    %al,(%rax)
  40ba55:	00 00                	add    %al,(%rax)
  40ba57:	00 50 0a             	add    %dl,0xa(%rax)
  40ba5a:	00 00                	add    %al,(%rax)
  40ba5c:	00 00                	add    %al,(%rax)
  40ba5e:	00 00                	add    %al,(%rax)
  40ba60:	50                   	push   %rax
  40ba61:	0a 00                	or     (%rax),%al
  40ba63:	00 00                	add    %al,(%rax)
  40ba65:	00 00                	add    %al,(%rax)
  40ba67:	00 50 0a             	add    %dl,0xa(%rax)
  40ba6a:	00 00                	add    %al,(%rax)
  40ba6c:	00 00                	add    %al,(%rax)
  40ba6e:	00 00                	add    %al,(%rax)
  40ba70:	50                   	push   %rax
  40ba71:	0a 00                	or     (%rax),%al
  40ba73:	00 00                	add    %al,(%rax)
  40ba75:	00 00                	add    %al,(%rax)
  40ba77:	00 50 0a             	add    %dl,0xa(%rax)
  40ba7a:	00 00                	add    %al,(%rax)
  40ba7c:	00 00                	add    %al,(%rax)
  40ba7e:	00 00                	add    %al,(%rax)
  40ba80:	50                   	push   %rax
  40ba81:	0a 00                	or     (%rax),%al
  40ba83:	00 00                	add    %al,(%rax)
  40ba85:	00 00                	add    %al,(%rax)
  40ba87:	00 50 0a             	add    %dl,0xa(%rax)
  40ba8a:	00 00                	add    %al,(%rax)
  40ba8c:	00 00                	add    %al,(%rax)
  40ba8e:	00 00                	add    %al,(%rax)
  40ba90:	50                   	push   %rax
  40ba91:	0a 00                	or     (%rax),%al
  40ba93:	00 00                	add    %al,(%rax)
  40ba95:	00 00                	add    %al,(%rax)
  40ba97:	00 50 0a             	add    %dl,0xa(%rax)
  40ba9a:	00 00                	add    %al,(%rax)
  40ba9c:	00 00                	add    %al,(%rax)
  40ba9e:	00 00                	add    %al,(%rax)
  40baa0:	50                   	push   %rax
  40baa1:	0a 00                	or     (%rax),%al
  40baa3:	00 00                	add    %al,(%rax)
  40baa5:	00 00                	add    %al,(%rax)
  40baa7:	00 50 0a             	add    %dl,0xa(%rax)
  40baaa:	00 00                	add    %al,(%rax)
  40baac:	00 00                	add    %al,(%rax)
  40baae:	00 00                	add    %al,(%rax)
  40bab0:	50                   	push   %rax
  40bab1:	0a 00                	or     (%rax),%al
  40bab3:	00 00                	add    %al,(%rax)
  40bab5:	00 00                	add    %al,(%rax)
  40bab7:	00 50 0a             	add    %dl,0xa(%rax)
  40baba:	00 00                	add    %al,(%rax)
  40babc:	00 00                	add    %al,(%rax)
  40babe:	00 00                	add    %al,(%rax)
  40bac0:	50                   	push   %rax
  40bac1:	0a 00                	or     (%rax),%al
  40bac3:	00 00                	add    %al,(%rax)
  40bac5:	00 00                	add    %al,(%rax)
  40bac7:	00 50 0a             	add    %dl,0xa(%rax)
  40baca:	00 00                	add    %al,(%rax)
  40bacc:	00 00                	add    %al,(%rax)
  40bace:	00 00                	add    %al,(%rax)
  40bad0:	50                   	push   %rax
  40bad1:	0a 00                	or     (%rax),%al
  40bad3:	00 00                	add    %al,(%rax)
  40bad5:	00 00                	add    %al,(%rax)
  40bad7:	00 50 0a             	add    %dl,0xa(%rax)
  40bada:	00 00                	add    %al,(%rax)
  40badc:	00 00                	add    %al,(%rax)
  40bade:	00 00                	add    %al,(%rax)
  40bae0:	50                   	push   %rax
  40bae1:	0a 00                	or     (%rax),%al
  40bae3:	00 00                	add    %al,(%rax)
  40bae5:	00 00                	add    %al,(%rax)
  40bae7:	00 50 0a             	add    %dl,0xa(%rax)
  40baea:	00 00                	add    %al,(%rax)
  40baec:	00 00                	add    %al,(%rax)
  40baee:	00 00                	add    %al,(%rax)
  40baf0:	50                   	push   %rax
  40baf1:	0a 00                	or     (%rax),%al
  40baf3:	00 00                	add    %al,(%rax)
  40baf5:	00 00                	add    %al,(%rax)
  40baf7:	00 50 0a             	add    %dl,0xa(%rax)
  40bafa:	00 00                	add    %al,(%rax)
  40bafc:	00 00                	add    %al,(%rax)
  40bafe:	00 00                	add    %al,(%rax)
  40bb00:	50                   	push   %rax
  40bb01:	0a 00                	or     (%rax),%al
  40bb03:	00 00                	add    %al,(%rax)
  40bb05:	00 00                	add    %al,(%rax)
  40bb07:	00 50 0a             	add    %dl,0xa(%rax)
  40bb0a:	00 00                	add    %al,(%rax)
  40bb0c:	00 00                	add    %al,(%rax)
  40bb0e:	00 00                	add    %al,(%rax)
  40bb10:	50                   	push   %rax
  40bb11:	0a 00                	or     (%rax),%al
  40bb13:	00 00                	add    %al,(%rax)
  40bb15:	00 00                	add    %al,(%rax)
  40bb17:	00 50 0a             	add    %dl,0xa(%rax)
  40bb1a:	00 00                	add    %al,(%rax)
  40bb1c:	00 00                	add    %al,(%rax)
  40bb1e:	00 00                	add    %al,(%rax)
  40bb20:	50                   	push   %rax
  40bb21:	0a 00                	or     (%rax),%al
  40bb23:	00 00                	add    %al,(%rax)
  40bb25:	00 00                	add    %al,(%rax)
  40bb27:	00 50 0a             	add    %dl,0xa(%rax)
  40bb2a:	00 00                	add    %al,(%rax)
  40bb2c:	00 00                	add    %al,(%rax)
  40bb2e:	00 00                	add    %al,(%rax)
  40bb30:	50                   	push   %rax
  40bb31:	0a 00                	or     (%rax),%al
  40bb33:	00 00                	add    %al,(%rax)
  40bb35:	00 00                	add    %al,(%rax)
  40bb37:	00 50 0a             	add    %dl,0xa(%rax)
  40bb3a:	00 00                	add    %al,(%rax)
  40bb3c:	00 00                	add    %al,(%rax)
  40bb3e:	00 00                	add    %al,(%rax)
  40bb40:	6e                   	outsb  %ds:(%rsi),(%dx)
  40bb41:	09 00                	or     %eax,(%rax)
  40bb43:	00 00                	add    %al,(%rax)
  40bb45:	00 00                	add    %al,(%rax)
  40bb47:	00 f0                	add    %dh,%al
  40bb49:	09 00                	or     %eax,(%rax)
  40bb4b:	00 00                	add    %al,(%rax)
  40bb4d:	00 00                	add    %al,(%rax)
  40bb4f:	00 f0                	add    %dh,%al
  40bb51:	09 00                	or     %eax,(%rax)
  40bb53:	00 00                	add    %al,(%rax)
  40bb55:	00 00                	add    %al,(%rax)
  40bb57:	00 f0                	add    %dh,%al
  40bb59:	09 00                	or     %eax,(%rax)
  40bb5b:	00 00                	add    %al,(%rax)
  40bb5d:	00 00                	add    %al,(%rax)
  40bb5f:	00 f0                	add    %dh,%al
  40bb61:	09 00                	or     %eax,(%rax)
  40bb63:	00 00                	add    %al,(%rax)
  40bb65:	00 00                	add    %al,(%rax)
  40bb67:	00 f0                	add    %dh,%al
  40bb69:	09 00                	or     %eax,(%rax)
  40bb6b:	00 00                	add    %al,(%rax)
  40bb6d:	00 00                	add    %al,(%rax)
  40bb6f:	00 f0                	add    %dh,%al
  40bb71:	09 00                	or     %eax,(%rax)
  40bb73:	00 00                	add    %al,(%rax)
  40bb75:	00 00                	add    %al,(%rax)
  40bb77:	00 f0                	add    %dh,%al
  40bb79:	09 00                	or     %eax,(%rax)
  40bb7b:	00 00                	add    %al,(%rax)
  40bb7d:	00 00                	add    %al,(%rax)
  40bb7f:	00 f0                	add    %dh,%al
  40bb81:	09 00                	or     %eax,(%rax)
  40bb83:	00 00                	add    %al,(%rax)
  40bb85:	00 00                	add    %al,(%rax)
  40bb87:	00 f0                	add    %dh,%al
  40bb89:	09 00                	or     %eax,(%rax)
  40bb8b:	00 00                	add    %al,(%rax)
  40bb8d:	00 00                	add    %al,(%rax)
  40bb8f:	00 f0                	add    %dh,%al
  40bb91:	09 00                	or     %eax,(%rax)
  40bb93:	00 00                	add    %al,(%rax)
  40bb95:	00 00                	add    %al,(%rax)
  40bb97:	00 f0                	add    %dh,%al
  40bb99:	09 00                	or     %eax,(%rax)
  40bb9b:	00 00                	add    %al,(%rax)
  40bb9d:	00 00                	add    %al,(%rax)
  40bb9f:	00 f0                	add    %dh,%al
  40bba1:	09 00                	or     %eax,(%rax)
  40bba3:	00 00                	add    %al,(%rax)
  40bba5:	00 00                	add    %al,(%rax)
  40bba7:	00 f0                	add    %dh,%al
  40bba9:	09 00                	or     %eax,(%rax)
  40bbab:	00 00                	add    %al,(%rax)
  40bbad:	00 00                	add    %al,(%rax)
  40bbaf:	00 f0                	add    %dh,%al
  40bbb1:	09 00                	or     %eax,(%rax)
  40bbb3:	00 00                	add    %al,(%rax)
  40bbb5:	00 00                	add    %al,(%rax)
  40bbb7:	00 f0                	add    %dh,%al
  40bbb9:	09 00                	or     %eax,(%rax)
  40bbbb:	00 00                	add    %al,(%rax)
  40bbbd:	00 00                	add    %al,(%rax)
  40bbbf:	00 f0                	add    %dh,%al
  40bbc1:	09 00                	or     %eax,(%rax)
  40bbc3:	00 00                	add    %al,(%rax)
  40bbc5:	00 00                	add    %al,(%rax)
  40bbc7:	00 f0                	add    %dh,%al
  40bbc9:	09 00                	or     %eax,(%rax)
  40bbcb:	00 00                	add    %al,(%rax)
  40bbcd:	00 00                	add    %al,(%rax)
  40bbcf:	00 f0                	add    %dh,%al
  40bbd1:	09 00                	or     %eax,(%rax)
  40bbd3:	00 00                	add    %al,(%rax)
  40bbd5:	00 00                	add    %al,(%rax)
  40bbd7:	00 f0                	add    %dh,%al
  40bbd9:	09 00                	or     %eax,(%rax)
  40bbdb:	00 00                	add    %al,(%rax)
  40bbdd:	00 00                	add    %al,(%rax)
  40bbdf:	00 f0                	add    %dh,%al
  40bbe1:	09 00                	or     %eax,(%rax)
  40bbe3:	00 00                	add    %al,(%rax)
  40bbe5:	00 00                	add    %al,(%rax)
  40bbe7:	00 f0                	add    %dh,%al
  40bbe9:	09 00                	or     %eax,(%rax)
  40bbeb:	00 00                	add    %al,(%rax)
  40bbed:	00 00                	add    %al,(%rax)
  40bbef:	00 f0                	add    %dh,%al
  40bbf1:	09 00                	or     %eax,(%rax)
  40bbf3:	00 00                	add    %al,(%rax)
  40bbf5:	00 00                	add    %al,(%rax)
  40bbf7:	00 f0                	add    %dh,%al
  40bbf9:	09 00                	or     %eax,(%rax)
  40bbfb:	00 00                	add    %al,(%rax)
  40bbfd:	00 00                	add    %al,(%rax)
  40bbff:	00 f0                	add    %dh,%al
  40bc01:	09 00                	or     %eax,(%rax)
  40bc03:	00 00                	add    %al,(%rax)
  40bc05:	00 00                	add    %al,(%rax)
  40bc07:	00 f0                	add    %dh,%al
  40bc09:	09 00                	or     %eax,(%rax)
  40bc0b:	00 00                	add    %al,(%rax)
  40bc0d:	00 00                	add    %al,(%rax)
  40bc0f:	00 f0                	add    %dh,%al
  40bc11:	09 00                	or     %eax,(%rax)
  40bc13:	00 00                	add    %al,(%rax)
  40bc15:	00 00                	add    %al,(%rax)
  40bc17:	00 f0                	add    %dh,%al
  40bc19:	09 00                	or     %eax,(%rax)
  40bc1b:	00 00                	add    %al,(%rax)
  40bc1d:	00 00                	add    %al,(%rax)
  40bc1f:	00 f0                	add    %dh,%al
  40bc21:	09 00                	or     %eax,(%rax)
  40bc23:	00 00                	add    %al,(%rax)
  40bc25:	00 00                	add    %al,(%rax)
  40bc27:	00 f0                	add    %dh,%al
  40bc29:	09 00                	or     %eax,(%rax)
  40bc2b:	00 00                	add    %al,(%rax)
  40bc2d:	00 00                	add    %al,(%rax)
  40bc2f:	00 f0                	add    %dh,%al
  40bc31:	09 00                	or     %eax,(%rax)
  40bc33:	00 00                	add    %al,(%rax)
  40bc35:	00 00                	add    %al,(%rax)
  40bc37:	00 f0                	add    %dh,%al
  40bc39:	09 00                	or     %eax,(%rax)
  40bc3b:	00 00                	add    %al,(%rax)
  40bc3d:	00 00                	add    %al,(%rax)
  40bc3f:	00 80 09 00 00 00    	add    %al,0x9(%rax)
  40bc45:	00 00                	add    %al,(%rax)
  40bc47:	00 0f                	add    %cl,(%rdi)
  40bc49:	1f                   	(bad)  
  40bc4a:	84 00                	test   %al,(%rax)
  40bc4c:	00 00                	add    %al,(%rax)
  40bc4e:	00 00                	add    %al,(%rax)
  40bc50:	c5 f8 77             	vzeroupper 
  40bc53:	41 5c                	pop    %r12
  40bc55:	c3                   	retq   
  40bc56:	0f 1f 00             	nopl   (%rax)
  40bc59:	0f 1f 80 00 00 00 00 	nopl   0x0(%rax)

000000000040bc60 <__libirc_get_msg>:
  40bc60:	41 54                	push   %r12
  40bc62:	41 55                	push   %r13
  40bc64:	41 56                	push   %r14
  40bc66:	48 81 ec 50 01 00 00 	sub    $0x150,%rsp
  40bc6d:	48 89 54 24 10       	mov    %rdx,0x10(%rsp)
  40bc72:	48 89 4c 24 18       	mov    %rcx,0x18(%rsp)
  40bc77:	4c 89 44 24 20       	mov    %r8,0x20(%rsp)
  40bc7c:	4c 89 4c 24 28       	mov    %r9,0x28(%rsp)
  40bc81:	44 0f b6 d8          	movzbl %al,%r11d
  40bc85:	4a 8d 04 9d 00 00 00 	lea    0x0(,%r11,4),%rax
  40bc8c:	00 
  40bc8d:	4c 8d 1d 2e 00 00 00 	lea    0x2e(%rip),%r11        # 40bcc2 <__libirc_get_msg+0x62>
  40bc94:	4c 2b d8             	sub    %rax,%r11
  40bc97:	48 8d 84 24 af 00 00 	lea    0xaf(%rsp),%rax
  40bc9e:	00 
  40bc9f:	41 ff e3             	jmpq   *%r11
  40bca2:	0f 29 78 f1          	movaps %xmm7,-0xf(%rax)
  40bca6:	0f 29 70 e1          	movaps %xmm6,-0x1f(%rax)
  40bcaa:	0f 29 68 d1          	movaps %xmm5,-0x2f(%rax)
  40bcae:	0f 29 60 c1          	movaps %xmm4,-0x3f(%rax)
  40bcb2:	0f 29 58 b1          	movaps %xmm3,-0x4f(%rax)
  40bcb6:	0f 29 50 a1          	movaps %xmm2,-0x5f(%rax)
  40bcba:	0f 29 48 91          	movaps %xmm1,-0x6f(%rax)
  40bcbe:	0f 29 40 81          	movaps %xmm0,-0x7f(%rax)
  40bcc2:	41 89 fd             	mov    %edi,%r13d
  40bcc5:	64 48 8b 04 25 28 00 	mov    %fs:0x28,%rax
  40bccc:	00 00 
  40bcce:	41 89 f6             	mov    %esi,%r14d
  40bcd1:	48 33 c4             	xor    %rsp,%rax
  40bcd4:	48 89 84 24 48 01 00 	mov    %rax,0x148(%rsp)
  40bcdb:	00 
  40bcdc:	45 85 ed             	test   %r13d,%r13d
  40bcdf:	0f 84 87 00 00 00    	je     40bd6c <__libirc_get_msg+0x10c>
  40bce5:	83 3d d8 43 20 00 00 	cmpl   $0x0,0x2043d8(%rip)        # 6100c4 <first_msg>
  40bcec:	74 5b                	je     40bd49 <__libirc_get_msg+0xe9>
  40bcee:	48 8d 3d af 18 00 00 	lea    0x18af(%rip),%rdi        # 40d5a4 <__dso_handle+0x1bc>
  40bcf5:	33 f6                	xor    %esi,%esi
  40bcf7:	c7 05 c3 43 20 00 00 	movl   $0x0,0x2043c3(%rip)        # 6100c4 <first_msg>
  40bcfe:	00 00 00 
  40bd01:	e8 3a 4c ff ff       	callq  400940 <catopen@plt>
  40bd06:	48 89 05 13 50 20 00 	mov    %rax,0x205013(%rip)        # 610d20 <message_catalog>
  40bd0d:	48 83 f8 ff          	cmp    $0xffffffffffffffff,%rax
  40bd11:	0f 84 0d 01 00 00    	je     40be24 <__libirc_get_msg+0x1c4>
  40bd17:	48 8b 3d 02 50 20 00 	mov    0x205002(%rip),%rdi        # 610d20 <message_catalog>
  40bd1e:	c7 05 a0 43 20 00 00 	movl   $0x0,0x2043a0(%rip)        # 6100c8 <use_internal_msg>
  40bd25:	00 00 00 
  40bd28:	49 63 c5             	movslq %r13d,%rax
  40bd2b:	4c 8d 05 d6 3c 20 00 	lea    0x203cd6(%rip),%r8        # 60fa08 <irc_msgtab+0x8>
  40bd32:	48 c1 e0 04          	shl    $0x4,%rax
  40bd36:	be 01 00 00 00       	mov    $0x1,%esi
  40bd3b:	44 89 ea             	mov    %r13d,%edx
  40bd3e:	4a 8b 0c 00          	mov    (%rax,%r8,1),%rcx
  40bd42:	e8 29 4c ff ff       	callq  400970 <catgets@plt>
  40bd47:	eb 2a                	jmp    40bd73 <__libirc_get_msg+0x113>
  40bd49:	8b 05 79 43 20 00    	mov    0x204379(%rip),%eax        # 6100c8 <use_internal_msg>
  40bd4f:	85 c0                	test   %eax,%eax
  40bd51:	0f 84 7d 01 00 00    	je     40bed4 <__libirc_get_msg+0x274>
  40bd57:	4d 63 ed             	movslq %r13d,%r13
  40bd5a:	48 8d 05 a7 3c 20 00 	lea    0x203ca7(%rip),%rax        # 60fa08 <irc_msgtab+0x8>
  40bd61:	49 c1 e5 04          	shl    $0x4,%r13
  40bd65:	49 8b 44 05 00       	mov    0x0(%r13,%rax,1),%rax
  40bd6a:	eb 07                	jmp    40bd73 <__libirc_get_msg+0x113>
  40bd6c:	48 8d 05 9d 16 00 00 	lea    0x169d(%rip),%rax        # 40d410 <__dso_handle+0x28>
  40bd73:	45 85 f6             	test   %r14d,%r14d
  40bd76:	0f 8e 80 00 00 00    	jle    40bdfc <__libirc_get_msg+0x19c>
  40bd7c:	c7 84 24 b0 00 00 00 	movl   $0x10,0xb0(%rsp)
  40bd83:	10 00 00 00 
  40bd87:	48 8d 94 24 70 01 00 	lea    0x170(%rsp),%rdx
  40bd8e:	00 
  40bd8f:	c7 84 24 b4 00 00 00 	movl   $0x30,0xb4(%rsp)
  40bd96:	30 00 00 00 
  40bd9a:	48 8d 34 24          	lea    (%rsp),%rsi
  40bd9e:	48 89 96 b8 00 00 00 	mov    %rdx,0xb8(%rsi)
  40bda5:	48 89 b6 c0 00 00 00 	mov    %rsi,0xc0(%rsi)
  40bdac:	48 8d 3d 6d 4b 20 00 	lea    0x204b6d(%rip),%rdi        # 610920 <get_msg_buf>
  40bdb3:	be 01 00 00 00       	mov    $0x1,%esi
  40bdb8:	ba 00 02 00 00       	mov    $0x200,%edx
  40bdbd:	48 89 c1             	mov    %rax,%rcx
  40bdc0:	4c 8d 84 24 b0 00 00 	lea    0xb0(%rsp),%r8
  40bdc7:	00 
  40bdc8:	e8 f3 4b ff ff       	callq  4009c0 <__vsprintf_chk@plt>
  40bdcd:	48 8b 84 24 48 01 00 	mov    0x148(%rsp),%rax
  40bdd4:	00 
  40bdd5:	48 33 c4             	xor    %rsp,%rax
  40bdd8:	64 48 3b 04 25 28 00 	cmp    %fs:0x28,%rax
  40bddf:	00 00 
  40bde1:	0f 85 e8 00 00 00    	jne    40becf <__libirc_get_msg+0x26f>
  40bde7:	48 8d 05 32 4b 20 00 	lea    0x204b32(%rip),%rax        # 610920 <get_msg_buf>
  40bdee:	48 81 c4 50 01 00 00 	add    $0x150,%rsp
  40bdf5:	41 5e                	pop    %r14
  40bdf7:	41 5d                	pop    %r13
  40bdf9:	41 5c                	pop    %r12
  40bdfb:	c3                   	retq   
  40bdfc:	48 8b 94 24 48 01 00 	mov    0x148(%rsp),%rdx
  40be03:	00 
  40be04:	48 33 d4             	xor    %rsp,%rdx
  40be07:	64 48 3b 14 25 28 00 	cmp    %fs:0x28,%rdx
  40be0e:	00 00 
  40be10:	0f 85 b9 00 00 00    	jne    40becf <__libirc_get_msg+0x26f>
  40be16:	48 81 c4 50 01 00 00 	add    $0x150,%rsp
  40be1d:	41 5e                	pop    %r14
  40be1f:	41 5d                	pop    %r13
  40be21:	41 5c                	pop    %r12
  40be23:	c3                   	retq   
  40be24:	48 8d 3d 1d 1d 00 00 	lea    0x1d1d(%rip),%rdi        # 40db48 <__dso_handle+0x760>
  40be2b:	e8 90 4a ff ff       	callq  4008c0 <getenv@plt>
  40be30:	48 85 c0             	test   %rax,%rax
  40be33:	0f 84 80 00 00 00    	je     40beb9 <__libirc_get_msg+0x259>
  40be39:	48 89 c6             	mov    %rax,%rsi
  40be3c:	48 8d bc 24 c8 00 00 	lea    0xc8(%rsp),%rdi
  40be43:	00 
  40be44:	ba 80 00 00 00       	mov    $0x80,%edx
  40be49:	e8 82 4a ff ff       	callq  4008d0 <strncpy@plt>
  40be4e:	be 2e 00 00 00       	mov    $0x2e,%esi
  40be53:	48 8d bc 24 c8 00 00 	lea    0xc8(%rsp),%rdi
  40be5a:	00 
  40be5b:	e8 b0 4a ff ff       	callq  400910 <strchr@plt>
  40be60:	49 89 c4             	mov    %rax,%r12
  40be63:	4d 85 e4             	test   %r12,%r12
  40be66:	74 51                	je     40beb9 <__libirc_get_msg+0x259>
  40be68:	48 8d 3d d9 1c 00 00 	lea    0x1cd9(%rip),%rdi        # 40db48 <__dso_handle+0x760>
  40be6f:	48 8d b4 24 c8 00 00 	lea    0xc8(%rsp),%rsi
  40be76:	00 
  40be77:	ba 01 00 00 00       	mov    $0x1,%edx
  40be7c:	41 c6 04 24 00       	movb   $0x0,(%r12)
  40be81:	e8 5a 4a ff ff       	callq  4008e0 <setenv@plt>
  40be86:	48 8d 3d 17 17 00 00 	lea    0x1717(%rip),%rdi        # 40d5a4 <__dso_handle+0x1bc>
  40be8d:	33 f6                	xor    %esi,%esi
  40be8f:	e8 ac 4a ff ff       	callq  400940 <catopen@plt>
  40be94:	48 8d 3d ad 1c 00 00 	lea    0x1cad(%rip),%rdi        # 40db48 <__dso_handle+0x760>
  40be9b:	48 8d b4 24 c8 00 00 	lea    0xc8(%rsp),%rsi
  40bea2:	00 
  40bea3:	ba 01 00 00 00       	mov    $0x1,%edx
  40bea8:	48 89 05 71 4e 20 00 	mov    %rax,0x204e71(%rip)        # 610d20 <message_catalog>
  40beaf:	41 c6 04 24 2e       	movb   $0x2e,(%r12)
  40beb4:	e8 27 4a ff ff       	callq  4008e0 <setenv@plt>
  40beb9:	48 8b 3d 60 4e 20 00 	mov    0x204e60(%rip),%rdi        # 610d20 <message_catalog>
  40bec0:	48 83 ff ff          	cmp    $0xffffffffffffffff,%rdi
  40bec4:	0f 85 54 fe ff ff    	jne    40bd1e <__libirc_get_msg+0xbe>
  40beca:	e9 7a fe ff ff       	jmpq   40bd49 <__libirc_get_msg+0xe9>
  40becf:	e8 2c 4a ff ff       	callq  400900 <__stack_chk_fail@plt>
  40bed4:	48 8b 3d 45 4e 20 00 	mov    0x204e45(%rip),%rdi        # 610d20 <message_catalog>
  40bedb:	e9 48 fe ff ff       	jmpq   40bd28 <__libirc_get_msg+0xc8>

000000000040bee0 <__libirc_print>:
  40bee0:	41 56                	push   %r14
  40bee2:	41 57                	push   %r15
  40bee4:	53                   	push   %rbx
  40bee5:	55                   	push   %rbp
  40bee6:	48 81 ec 58 01 00 00 	sub    $0x158,%rsp
  40beed:	48 89 4c 24 18       	mov    %rcx,0x18(%rsp)
  40bef2:	4c 89 44 24 20       	mov    %r8,0x20(%rsp)
  40bef7:	4c 89 4c 24 28       	mov    %r9,0x28(%rsp)
  40befc:	44 0f b6 d8          	movzbl %al,%r11d
  40bf00:	4a 8d 04 9d 00 00 00 	lea    0x0(,%r11,4),%rax
  40bf07:	00 
  40bf08:	4c 8d 1d 2e 00 00 00 	lea    0x2e(%rip),%r11        # 40bf3d <__libirc_print+0x5d>
  40bf0f:	4c 2b d8             	sub    %rax,%r11
  40bf12:	48 8d 84 24 af 00 00 	lea    0xaf(%rsp),%rax
  40bf19:	00 
  40bf1a:	41 ff e3             	jmpq   *%r11
  40bf1d:	0f 29 78 f1          	movaps %xmm7,-0xf(%rax)
  40bf21:	0f 29 70 e1          	movaps %xmm6,-0x1f(%rax)
  40bf25:	0f 29 68 d1          	movaps %xmm5,-0x2f(%rax)
  40bf29:	0f 29 60 c1          	movaps %xmm4,-0x3f(%rax)
  40bf2d:	0f 29 58 b1          	movaps %xmm3,-0x4f(%rax)
  40bf31:	0f 29 50 a1          	movaps %xmm2,-0x5f(%rax)
  40bf35:	0f 29 48 91          	movaps %xmm1,-0x6f(%rax)
  40bf39:	0f 29 40 81          	movaps %xmm0,-0x7f(%rax)
  40bf3d:	41 89 f6             	mov    %esi,%r14d
  40bf40:	64 48 8b 04 25 28 00 	mov    %fs:0x28,%rax
  40bf47:	00 00 
  40bf49:	41 89 d7             	mov    %edx,%r15d
  40bf4c:	48 33 c4             	xor    %rsp,%rax
  40bf4f:	89 fd                	mov    %edi,%ebp
  40bf51:	48 89 84 24 48 01 00 	mov    %rax,0x148(%rsp)
  40bf58:	00 
  40bf59:	45 85 f6             	test   %r14d,%r14d
  40bf5c:	75 44                	jne    40bfa2 <__libirc_print+0xc2>
  40bf5e:	83 fd 01             	cmp    $0x1,%ebp
  40bf61:	0f 84 72 01 00 00    	je     40c0d9 <__libirc_print+0x1f9>
  40bf67:	bf 01 00 00 00       	mov    $0x1,%edi
  40bf6c:	48 8d 35 3d 16 00 00 	lea    0x163d(%rip),%rsi        # 40d5b0 <__dso_handle+0x1c8>
  40bf73:	33 c0                	xor    %eax,%eax
  40bf75:	e8 d6 49 ff ff       	callq  400950 <__printf_chk@plt>
  40bf7a:	48 8b 84 24 48 01 00 	mov    0x148(%rsp),%rax
  40bf81:	00 
  40bf82:	48 33 c4             	xor    %rsp,%rax
  40bf85:	64 48 3b 04 25 28 00 	cmp    %fs:0x28,%rax
  40bf8c:	00 00 
  40bf8e:	0f 85 40 01 00 00    	jne    40c0d4 <__libirc_print+0x1f4>
  40bf94:	48 81 c4 58 01 00 00 	add    $0x158,%rsp
  40bf9b:	5d                   	pop    %rbp
  40bf9c:	5b                   	pop    %rbx
  40bf9d:	41 5f                	pop    %r15
  40bf9f:	41 5e                	pop    %r14
  40bfa1:	c3                   	retq   
  40bfa2:	83 3d 1b 41 20 00 00 	cmpl   $0x0,0x20411b(%rip)        # 6100c4 <first_msg>
  40bfa9:	74 3c                	je     40bfe7 <__libirc_print+0x107>
  40bfab:	48 8d 3d f2 15 00 00 	lea    0x15f2(%rip),%rdi        # 40d5a4 <__dso_handle+0x1bc>
  40bfb2:	33 f6                	xor    %esi,%esi
  40bfb4:	c7 05 06 41 20 00 00 	movl   $0x0,0x204106(%rip)        # 6100c4 <first_msg>
  40bfbb:	00 00 00 
  40bfbe:	e8 7d 49 ff ff       	callq  400940 <catopen@plt>
  40bfc3:	48 89 05 56 4d 20 00 	mov    %rax,0x204d56(%rip)        # 610d20 <message_catalog>
  40bfca:	48 83 f8 ff          	cmp    $0xffffffffffffffff,%rax
  40bfce:	0f 84 27 01 00 00    	je     40c0fb <__libirc_print+0x21b>
  40bfd4:	48 8b 3d 45 4d 20 00 	mov    0x204d45(%rip),%rdi        # 610d20 <message_catalog>
  40bfdb:	c7 05 e3 40 20 00 00 	movl   $0x0,0x2040e3(%rip)        # 6100c8 <use_internal_msg>
  40bfe2:	00 00 00 
  40bfe5:	eb 22                	jmp    40c009 <__libirc_print+0x129>
  40bfe7:	8b 05 db 40 20 00    	mov    0x2040db(%rip),%eax        # 6100c8 <use_internal_msg>
  40bfed:	85 c0                	test   %eax,%eax
  40bfef:	0f 84 dd 01 00 00    	je     40c1d2 <__libirc_print+0x2f2>
  40bff5:	4d 63 f6             	movslq %r14d,%r14
  40bff8:	48 8d 05 09 3a 20 00 	lea    0x203a09(%rip),%rax        # 60fa08 <irc_msgtab+0x8>
  40bfff:	49 c1 e6 04          	shl    $0x4,%r14
  40c003:	49 8b 0c 06          	mov    (%r14,%rax,1),%rcx
  40c007:	eb 22                	jmp    40c02b <__libirc_print+0x14b>
  40c009:	49 63 c6             	movslq %r14d,%rax
  40c00c:	48 8d 1d f5 39 20 00 	lea    0x2039f5(%rip),%rbx        # 60fa08 <irc_msgtab+0x8>
  40c013:	48 c1 e0 04          	shl    $0x4,%rax
  40c017:	be 01 00 00 00       	mov    $0x1,%esi
  40c01c:	44 89 f2             	mov    %r14d,%edx
  40c01f:	48 8b 0c 18          	mov    (%rax,%rbx,1),%rcx
  40c023:	e8 48 49 ff ff       	callq  400970 <catgets@plt>
  40c028:	48 89 c1             	mov    %rax,%rcx
  40c02b:	45 85 ff             	test   %r15d,%r15d
  40c02e:	7e 55                	jle    40c085 <__libirc_print+0x1a5>
  40c030:	c7 84 24 b0 00 00 00 	movl   $0x18,0xb0(%rsp)
  40c037:	18 00 00 00 
  40c03b:	48 8d 84 24 80 01 00 	lea    0x180(%rsp),%rax
  40c042:	00 
  40c043:	c7 84 24 b4 00 00 00 	movl   $0x30,0xb4(%rsp)
  40c04a:	30 00 00 00 
  40c04e:	48 8d 1c 24          	lea    (%rsp),%rbx
  40c052:	48 89 83 b8 00 00 00 	mov    %rax,0xb8(%rbx)
  40c059:	48 89 9b c0 00 00 00 	mov    %rbx,0xc0(%rbx)
  40c060:	48 8d 3d b9 4a 20 00 	lea    0x204ab9(%rip),%rdi        # 610b20 <print_buf>
  40c067:	be 01 00 00 00       	mov    $0x1,%esi
  40c06c:	ba 00 02 00 00       	mov    $0x200,%edx
  40c071:	4c 8d 84 24 b0 00 00 	lea    0xb0(%rsp),%r8
  40c078:	00 
  40c079:	e8 42 49 ff ff       	callq  4009c0 <__vsprintf_chk@plt>
  40c07e:	48 8d 0d 9b 4a 20 00 	lea    0x204a9b(%rip),%rcx        # 610b20 <print_buf>
  40c085:	83 fd 01             	cmp    $0x1,%ebp
  40c088:	0f 84 10 01 00 00    	je     40c19e <__libirc_print+0x2be>
  40c08e:	bf 01 00 00 00       	mov    $0x1,%edi
  40c093:	48 89 ce             	mov    %rcx,%rsi
  40c096:	33 c0                	xor    %eax,%eax
  40c098:	e8 b3 48 ff ff       	callq  400950 <__printf_chk@plt>
  40c09d:	bf 01 00 00 00       	mov    $0x1,%edi
  40c0a2:	48 8d 35 07 15 00 00 	lea    0x1507(%rip),%rsi        # 40d5b0 <__dso_handle+0x1c8>
  40c0a9:	33 c0                	xor    %eax,%eax
  40c0ab:	e8 a0 48 ff ff       	callq  400950 <__printf_chk@plt>
  40c0b0:	48 8b 84 24 48 01 00 	mov    0x148(%rsp),%rax
  40c0b7:	00 
  40c0b8:	48 33 c4             	xor    %rsp,%rax
  40c0bb:	64 48 3b 04 25 28 00 	cmp    %fs:0x28,%rax
  40c0c2:	00 00 
  40c0c4:	75 0e                	jne    40c0d4 <__libirc_print+0x1f4>
  40c0c6:	48 81 c4 58 01 00 00 	add    $0x158,%rsp
  40c0cd:	5d                   	pop    %rbp
  40c0ce:	5b                   	pop    %rbx
  40c0cf:	41 5f                	pop    %r15
  40c0d1:	41 5e                	pop    %r14
  40c0d3:	c3                   	retq   
  40c0d4:	e8 27 48 ff ff       	callq  400900 <__stack_chk_fail@plt>
  40c0d9:	48 8b 05 08 3f 20 00 	mov    0x203f08(%rip),%rax        # 60ffe8 <_DYNAMIC+0x208>
  40c0e0:	be 01 00 00 00       	mov    $0x1,%esi
  40c0e5:	48 8d 15 c4 14 00 00 	lea    0x14c4(%rip),%rdx        # 40d5b0 <__dso_handle+0x1c8>
  40c0ec:	48 8b 38             	mov    (%rax),%rdi
  40c0ef:	33 c0                	xor    %eax,%eax
  40c0f1:	e8 aa 48 ff ff       	callq  4009a0 <__fprintf_chk@plt>
  40c0f6:	e9 7f fe ff ff       	jmpq   40bf7a <__libirc_print+0x9a>
  40c0fb:	48 8d 3d 46 1a 00 00 	lea    0x1a46(%rip),%rdi        # 40db48 <__dso_handle+0x760>
  40c102:	e8 b9 47 ff ff       	callq  4008c0 <getenv@plt>
  40c107:	48 85 c0             	test   %rax,%rax
  40c10a:	74 7c                	je     40c188 <__libirc_print+0x2a8>
  40c10c:	48 89 c6             	mov    %rax,%rsi
  40c10f:	48 8d bc 24 c8 00 00 	lea    0xc8(%rsp),%rdi
  40c116:	00 
  40c117:	ba 80 00 00 00       	mov    $0x80,%edx
  40c11c:	e8 af 47 ff ff       	callq  4008d0 <strncpy@plt>
  40c121:	be 2e 00 00 00       	mov    $0x2e,%esi
  40c126:	48 8d bc 24 c8 00 00 	lea    0xc8(%rsp),%rdi
  40c12d:	00 
  40c12e:	e8 dd 47 ff ff       	callq  400910 <strchr@plt>
  40c133:	48 89 c3             	mov    %rax,%rbx
  40c136:	48 85 db             	test   %rbx,%rbx
  40c139:	74 4d                	je     40c188 <__libirc_print+0x2a8>
  40c13b:	48 8d 3d 06 1a 00 00 	lea    0x1a06(%rip),%rdi        # 40db48 <__dso_handle+0x760>
  40c142:	48 8d b4 24 c8 00 00 	lea    0xc8(%rsp),%rsi
  40c149:	00 
  40c14a:	ba 01 00 00 00       	mov    $0x1,%edx
  40c14f:	c6 03 00             	movb   $0x0,(%rbx)
  40c152:	e8 89 47 ff ff       	callq  4008e0 <setenv@plt>
  40c157:	48 8d 3d 46 14 00 00 	lea    0x1446(%rip),%rdi        # 40d5a4 <__dso_handle+0x1bc>
  40c15e:	33 f6                	xor    %esi,%esi
  40c160:	e8 db 47 ff ff       	callq  400940 <catopen@plt>
  40c165:	48 8d 3d dc 19 00 00 	lea    0x19dc(%rip),%rdi        # 40db48 <__dso_handle+0x760>
  40c16c:	48 8d b4 24 c8 00 00 	lea    0xc8(%rsp),%rsi
  40c173:	00 
  40c174:	ba 01 00 00 00       	mov    $0x1,%edx
  40c179:	48 89 05 a0 4b 20 00 	mov    %rax,0x204ba0(%rip)        # 610d20 <message_catalog>
  40c180:	c6 03 2e             	movb   $0x2e,(%rbx)
  40c183:	e8 58 47 ff ff       	callq  4008e0 <setenv@plt>
  40c188:	48 8b 3d 91 4b 20 00 	mov    0x204b91(%rip),%rdi        # 610d20 <message_catalog>
  40c18f:	48 83 ff ff          	cmp    $0xffffffffffffffff,%rdi
  40c193:	0f 85 42 fe ff ff    	jne    40bfdb <__libirc_print+0xfb>
  40c199:	e9 49 fe ff ff       	jmpq   40bfe7 <__libirc_print+0x107>
  40c19e:	48 8b 1d 43 3e 20 00 	mov    0x203e43(%rip),%rbx        # 60ffe8 <_DYNAMIC+0x208>
  40c1a5:	be 01 00 00 00       	mov    $0x1,%esi
  40c1aa:	48 89 ca             	mov    %rcx,%rdx
  40c1ad:	33 c0                	xor    %eax,%eax
  40c1af:	48 8b 3b             	mov    (%rbx),%rdi
  40c1b2:	e8 e9 47 ff ff       	callq  4009a0 <__fprintf_chk@plt>
  40c1b7:	be 01 00 00 00       	mov    $0x1,%esi
  40c1bc:	48 8d 15 ed 13 00 00 	lea    0x13ed(%rip),%rdx        # 40d5b0 <__dso_handle+0x1c8>
  40c1c3:	33 c0                	xor    %eax,%eax
  40c1c5:	48 8b 3b             	mov    (%rbx),%rdi
  40c1c8:	e8 d3 47 ff ff       	callq  4009a0 <__fprintf_chk@plt>
  40c1cd:	e9 de fe ff ff       	jmpq   40c0b0 <__libirc_print+0x1d0>
  40c1d2:	48 8b 3d 47 4b 20 00 	mov    0x204b47(%rip),%rdi        # 610d20 <message_catalog>
  40c1d9:	e9 2b fe ff ff       	jmpq   40c009 <__libirc_print+0x129>
  40c1de:	66 90                	xchg   %ax,%ax

000000000040c1e0 <__intel_cpu_features_init_x>:
  40c1e0:	50                   	push   %rax
  40c1e1:	33 c0                	xor    %eax,%eax
  40c1e3:	e8 18 00 00 00       	callq  40c200 <__intel_cpu_features_init_body>
  40c1e8:	58                   	pop    %rax
  40c1e9:	c3                   	retq   
  40c1ea:	66 0f 1f 44 00 00    	nopw   0x0(%rax,%rax,1)

000000000040c1f0 <__intel_cpu_features_init>:
  40c1f0:	50                   	push   %rax
  40c1f1:	b8 01 00 00 00       	mov    $0x1,%eax
  40c1f6:	e8 05 00 00 00       	callq  40c200 <__intel_cpu_features_init_body>
  40c1fb:	58                   	pop    %rax
  40c1fc:	c3                   	retq   
  40c1fd:	0f 1f 00             	nopl   (%rax)

000000000040c200 <__intel_cpu_features_init_body>:
  40c200:	52                   	push   %rdx
  40c201:	51                   	push   %rcx
  40c202:	53                   	push   %rbx
  40c203:	56                   	push   %rsi
  40c204:	57                   	push   %rdi
  40c205:	41 50                	push   %r8
  40c207:	41 56                	push   %r14
  40c209:	41 57                	push   %r15
  40c20b:	55                   	push   %rbp
  40c20c:	41 89 c7             	mov    %eax,%r15d
  40c20f:	33 c0                	xor    %eax,%eax
  40c211:	0f a2                	cpuid  
  40c213:	89 44 24 f0          	mov    %eax,-0x10(%rsp)
  40c217:	89 5c 24 f4          	mov    %ebx,-0xc(%rsp)
  40c21b:	89 4c 24 f8          	mov    %ecx,-0x8(%rsp)
  40c21f:	89 54 24 fc          	mov    %edx,-0x4(%rsp)
  40c223:	83 7c 24 f0 00       	cmpl   $0x0,-0x10(%rsp)
  40c228:	0f 84 b2 03 00 00    	je     40c5e0 <__intel_cpu_features_init_body+0x3e0>
  40c22e:	41 83 ff 01          	cmp    $0x1,%r15d
  40c232:	0f 84 c0 03 00 00    	je     40c5f8 <__intel_cpu_features_init_body+0x3f8>
  40c238:	b8 01 00 00 00       	mov    $0x1,%eax
  40c23d:	0f a2                	cpuid  
  40c23f:	89 d5                	mov    %edx,%ebp
  40c241:	89 d7                	mov    %edx,%edi
  40c243:	81 e5 00 80 00 00    	and    $0x8000,%ebp
  40c249:	83 e7 01             	and    $0x1,%edi
  40c24c:	89 ce                	mov    %ecx,%esi
  40c24e:	41 89 c6             	mov    %eax,%r14d
  40c251:	48 c1 ed 0d          	shr    $0xd,%rbp
  40c255:	f7 c2 00 00 80 00    	test   $0x800000,%edx
  40c25b:	48 8d 7c 7d 01       	lea    0x1(%rbp,%rdi,2),%rdi
  40c260:	4c 8d 47 08          	lea    0x8(%rdi),%r8
  40c264:	49 0f 45 f8          	cmovne %r8,%rdi
  40c268:	f7 c2 00 00 00 01    	test   $0x1000000,%edx
  40c26e:	75 28                	jne    40c298 <__intel_cpu_features_init_body+0x98>
  40c270:	41 89 f0             	mov    %esi,%r8d
  40c273:	41 81 e0 00 00 00 40 	and    $0x40000000,%r8d
  40c27a:	b8 07 00 00 00       	mov    $0x7,%eax
  40c27f:	33 c9                	xor    %ecx,%ecx
  40c281:	0f a2                	cpuid  
  40c283:	49 c1 e8 0d          	shr    $0xd,%r8
  40c287:	41 89 d3             	mov    %edx,%r11d
  40c28a:	49 03 f8             	add    %r8,%rdi
  40c28d:	41 89 ca             	mov    %ecx,%r10d
  40c290:	41 89 d8             	mov    %ebx,%r8d
  40c293:	e9 e6 00 00 00       	jmpq   40c37e <__intel_cpu_features_init_body+0x17e>
  40c298:	41 89 f2             	mov    %esi,%r10d
  40c29b:	48 8d 6f 10          	lea    0x10(%rdi),%rbp
  40c29f:	48 83 c7 30          	add    $0x30,%rdi
  40c2a3:	f7 c2 00 00 00 02    	test   $0x2000000,%edx
  40c2a9:	89 f0                	mov    %esi,%eax
  40c2ab:	48 0f 45 ef          	cmovne %rdi,%rbp
  40c2af:	81 e2 00 00 00 04    	and    $0x4000000,%edx
  40c2b5:	41 81 e2 00 02 00 00 	and    $0x200,%r10d
  40c2bc:	89 f7                	mov    %esi,%edi
  40c2be:	48 c1 ea 14          	shr    $0x14,%rdx
  40c2c2:	81 e7 00 00 08 00    	and    $0x80000,%edi
  40c2c8:	48 0b ea             	or     %rdx,%rbp
  40c2cb:	25 00 00 00 02       	and    $0x2000000,%eax
  40c2d0:	49 89 e8             	mov    %rbp,%r8
  40c2d3:	49 81 c8 80 00 00 00 	or     $0x80,%r8
  40c2da:	f7 c6 01 00 00 00    	test   $0x1,%esi
  40c2e0:	49 0f 45 e8          	cmovne %r8,%rbp
  40c2e4:	49 d1 ea             	shr    %r10
  40c2e7:	49 0b ea             	or     %r10,%rbp
  40c2ea:	41 89 f2             	mov    %esi,%r10d
  40c2ed:	49 89 eb             	mov    %rbp,%r11
  40c2f0:	41 81 e2 00 00 80 00 	and    $0x800000,%r10d
  40c2f7:	49 81 cb 00 08 00 00 	or     $0x800,%r11
  40c2fe:	f7 c6 00 00 40 00    	test   $0x400000,%esi
  40c304:	49 0f 45 eb          	cmovne %r11,%rbp
  40c308:	48 c1 ef 0a          	shr    $0xa,%rdi
  40c30c:	48 0b ef             	or     %rdi,%rbp
  40c30f:	89 f7                	mov    %esi,%edi
  40c311:	49 89 e8             	mov    %rbp,%r8
  40c314:	81 e7 00 00 00 40    	and    $0x40000000,%edi
  40c31a:	49 81 c8 00 04 00 00 	or     $0x400,%r8
  40c321:	f7 c6 00 00 10 00    	test   $0x100000,%esi
  40c327:	49 0f 45 e8          	cmovne %r8,%rbp
  40c32b:	49 c1 ea 0b          	shr    $0xb,%r10
  40c32f:	49 0b ea             	or     %r10,%rbp
  40c332:	49 89 eb             	mov    %rbp,%r11
  40c335:	49 81 cb 00 20 00 00 	or     $0x2000,%r11
  40c33c:	f7 c6 02 00 00 00    	test   $0x2,%esi
  40c342:	49 0f 45 eb          	cmovne %r11,%rbp
  40c346:	48 c1 e8 0b          	shr    $0xb,%rax
  40c34a:	48 0b e8             	or     %rax,%rbp
  40c34d:	b8 07 00 00 00       	mov    $0x7,%eax
  40c352:	33 c9                	xor    %ecx,%ecx
  40c354:	0f a2                	cpuid  
  40c356:	41 89 d3             	mov    %edx,%r11d
  40c359:	41 89 d8             	mov    %ebx,%r8d
  40c35c:	48 ba 00 00 00 00 08 	movabs $0x800000000,%rdx
  40c363:	00 00 00 
  40c366:	41 89 ca             	mov    %ecx,%r10d
  40c369:	48 0b d5             	or     %rbp,%rdx
  40c36c:	41 f7 c0 00 00 00 20 	test   $0x20000000,%r8d
  40c373:	48 0f 45 ea          	cmovne %rdx,%rbp
  40c377:	48 c1 ef 0d          	shr    $0xd,%rdi
  40c37b:	48 0b fd             	or     %rbp,%rdi
  40c37e:	44 89 c5             	mov    %r8d,%ebp
  40c381:	48 89 f8             	mov    %rdi,%rax
  40c384:	81 e5 08 01 00 00    	and    $0x108,%ebp
  40c38a:	48 0d 00 00 08 00    	or     $0x80000,%rax
  40c390:	81 fd 08 01 00 00    	cmp    $0x108,%ebp
  40c396:	44 89 c5             	mov    %r8d,%ebp
  40c399:	48 0f 44 f8          	cmove  %rax,%rdi
  40c39d:	81 e5 00 00 04 00    	and    $0x40000,%ebp
  40c3a3:	b8 01 00 00 80       	mov    $0x80000001,%eax
  40c3a8:	0f a2                	cpuid  
  40c3aa:	48 c1 e5 0b          	shl    $0xb,%rbp
  40c3ae:	83 e1 20             	and    $0x20,%ecx
  40c3b1:	44 89 c2             	mov    %r8d,%edx
  40c3b4:	81 e2 00 08 00 00    	and    $0x800,%edx
  40c3ba:	48 c1 e1 0f          	shl    $0xf,%rcx
  40c3be:	48 0b f9             	or     %rcx,%rdi
  40c3c1:	48 89 f8             	mov    %rdi,%rax
  40c3c4:	48 0d 00 00 20 00    	or     $0x200000,%rax
  40c3ca:	41 f7 c0 10 00 00 00 	test   $0x10,%r8d
  40c3d1:	48 0f 45 f8          	cmovne %rax,%rdi
  40c3d5:	48 c1 e2 0b          	shl    $0xb,%rdx
  40c3d9:	48 0b fa             	or     %rdx,%rdi
  40c3dc:	48 89 fb             	mov    %rdi,%rbx
  40c3df:	48 81 cb 00 00 00 10 	or     $0x10000000,%rbx
  40c3e6:	41 f7 c0 00 00 08 00 	test   $0x80000,%r8d
  40c3ed:	48 0f 45 fb          	cmovne %rbx,%rdi
  40c3f1:	48 0b fd             	or     %rbp,%rdi
  40c3f4:	f7 c6 00 00 00 08    	test   $0x8000000,%esi
  40c3fa:	0f 84 81 01 00 00    	je     40c581 <__intel_cpu_features_init_body+0x381>
  40c400:	33 c9                	xor    %ecx,%ecx
  40c402:	0f 01 d0             	xgetbv 
  40c405:	48 83 cf 01          	or     $0x1,%rdi
  40c409:	89 c2                	mov    %eax,%edx
  40c40b:	83 e2 06             	and    $0x6,%edx
  40c40e:	83 fa 06             	cmp    $0x6,%edx
  40c411:	0f 85 6a 01 00 00    	jne    40c581 <__intel_cpu_features_init_body+0x381>
  40c417:	48 89 fa             	mov    %rdi,%rdx
  40c41a:	89 f1                	mov    %esi,%ecx
  40c41c:	48 81 ca 00 00 01 00 	or     $0x10000,%rdx
  40c423:	f7 c6 00 00 00 10    	test   $0x10000000,%esi
  40c429:	89 c5                	mov    %eax,%ebp
  40c42b:	48 0f 45 fa          	cmovne %rdx,%rdi
  40c42f:	81 e1 00 00 00 20    	and    $0x20000000,%ecx
  40c435:	81 e6 00 10 00 00    	and    $0x1000,%esi
  40c43b:	83 e5 18             	and    $0x18,%ebp
  40c43e:	48 c1 e9 0e          	shr    $0xe,%rcx
  40c442:	48 0b f9             	or     %rcx,%rdi
  40c445:	48 89 fb             	mov    %rdi,%rbx
  40c448:	48 81 cb 00 00 80 00 	or     $0x800000,%rbx
  40c44f:	41 f7 c0 20 00 00 00 	test   $0x20,%r8d
  40c456:	48 0f 45 fb          	cmovne %rbx,%rdi
  40c45a:	48 c1 e6 06          	shl    $0x6,%rsi
  40c45e:	48 0b fe             	or     %rsi,%rdi
  40c461:	83 fd 18             	cmp    $0x18,%ebp
  40c464:	75 1c                	jne    40c482 <__intel_cpu_features_init_body+0x282>
  40c466:	48 83 cf 01          	or     $0x1,%rdi
  40c46a:	48 ba 00 00 00 00 10 	movabs $0x1000000000,%rdx
  40c471:	00 00 00 
  40c474:	48 0b d7             	or     %rdi,%rdx
  40c477:	41 f7 c0 00 40 00 00 	test   $0x4000,%r8d
  40c47e:	48 0f 45 fa          	cmovne %rdx,%rdi
  40c482:	25 e0 00 00 00       	and    $0xe0,%eax
  40c487:	3d e0 00 00 00       	cmp    $0xe0,%eax
  40c48c:	0f 85 ef 00 00 00    	jne    40c581 <__intel_cpu_features_init_body+0x381>
  40c492:	48 83 cf 01          	or     $0x1,%rdi
  40c496:	44 89 c2             	mov    %r8d,%edx
  40c499:	48 89 f8             	mov    %rdi,%rax
  40c49c:	81 e2 00 00 00 10    	and    $0x10000000,%edx
  40c4a2:	48 0d 00 00 00 08    	or     $0x8000000,%rax
  40c4a8:	41 f7 c0 00 00 01 00 	test   $0x10000,%r8d
  40c4af:	44 89 c1             	mov    %r8d,%ecx
  40c4b2:	44 89 c5             	mov    %r8d,%ebp
  40c4b5:	48 0f 45 f8          	cmovne %rax,%rdi
  40c4b9:	81 e1 00 00 00 04    	and    $0x4000000,%ecx
  40c4bf:	48 c1 e2 06          	shl    $0x6,%rdx
  40c4c3:	81 e5 00 00 00 40    	and    $0x40000000,%ebp
  40c4c9:	48 0b d7             	or     %rdi,%rdx
  40c4cc:	48 bf 00 00 00 00 01 	movabs $0x100000000,%rdi
  40c4d3:	00 00 00 
  40c4d6:	48 0b fa             	or     %rdx,%rdi
  40c4d9:	41 f7 c0 00 00 00 08 	test   $0x8000000,%r8d
  40c4e0:	44 89 c6             	mov    %r8d,%esi
  40c4e3:	48 0f 45 d7          	cmovne %rdi,%rdx
  40c4e7:	48 bf 00 00 00 00 40 	movabs $0x4000000000,%rdi
  40c4ee:	00 00 00 
  40c4f1:	48 c1 e1 07          	shl    $0x7,%rcx
  40c4f5:	81 e6 00 00 00 80    	and    $0x80000000,%esi
  40c4fb:	48 0b ca             	or     %rdx,%rcx
  40c4fe:	48 89 cb             	mov    %rcx,%rbx
  40c501:	48 81 cb 00 00 00 01 	or     $0x1000000,%rbx
  40c508:	41 f7 c0 00 00 02 00 	test   $0x20000,%r8d
  40c50f:	48 0f 45 cb          	cmovne %rbx,%rcx
  40c513:	41 81 e0 00 00 20 00 	and    $0x200000,%r8d
  40c51a:	48 c1 e5 07          	shl    $0x7,%rbp
  40c51e:	48 0b e9             	or     %rcx,%rbp
  40c521:	48 0b fd             	or     %rbp,%rdi
  40c524:	81 fe 00 00 00 80    	cmp    $0x80000000,%esi
  40c52a:	48 0f 44 ef          	cmove  %rdi,%rbp
  40c52e:	48 bf 00 00 00 00 80 	movabs $0x8000000000,%rdi
  40c535:	00 00 00 
  40c538:	49 c1 e0 09          	shl    $0x9,%r8
  40c53c:	49 0b e8             	or     %r8,%rbp
  40c53f:	48 0b fd             	or     %rbp,%rdi
  40c542:	41 f7 c2 02 00 00 00 	test   $0x2,%r10d
  40c549:	48 0f 45 ef          	cmovne %rdi,%rbp
  40c54d:	41 81 e2 00 40 00 00 	and    $0x4000,%r10d
  40c554:	49 c1 e2 1c          	shl    $0x1c,%r10
  40c558:	4c 0b d5             	or     %rbp,%r10
  40c55b:	48 bd 00 00 00 00 00 	movabs $0x20000000000,%rbp
  40c562:	02 00 00 
  40c565:	49 0b ea             	or     %r10,%rbp
  40c568:	41 f7 c3 04 00 00 00 	test   $0x4,%r11d
  40c56f:	4c 0f 45 d5          	cmovne %rbp,%r10
  40c573:	41 83 e3 08          	and    $0x8,%r11d
  40c577:	44 89 df             	mov    %r11d,%edi
  40c57a:	48 c1 e7 25          	shl    $0x25,%rdi
  40c57e:	49 0b fa             	or     %r10,%rdi
  40c581:	44 89 f0             	mov    %r14d,%eax
  40c584:	c1 e8 0c             	shr    $0xc,%eax
  40c587:	41 c1 ee 04          	shr    $0x4,%r14d
  40c58b:	25 f0 00 00 00       	and    $0xf0,%eax
  40c590:	41 83 e6 0f          	and    $0xf,%r14d
  40c594:	41 03 c6             	add    %r14d,%eax
  40c597:	83 f8 1c             	cmp    $0x1c,%eax
  40c59a:	74 0a                	je     40c5a6 <__intel_cpu_features_init_body+0x3a6>
  40c59c:	83 f8 26             	cmp    $0x26,%eax
  40c59f:	74 05                	je     40c5a6 <__intel_cpu_features_init_body+0x3a6>
  40c5a1:	83 f8 27             	cmp    $0x27,%eax
  40c5a4:	75 05                	jne    40c5ab <__intel_cpu_features_init_body+0x3ab>
  40c5a6:	48 0f ba ef 1f       	bts    $0x1f,%rdi
  40c5ab:	41 83 ff 01          	cmp    $0x1,%r15d
  40c5af:	74 14                	je     40c5c5 <__intel_cpu_features_init_body+0x3c5>
  40c5b1:	48 89 3d 90 47 20 00 	mov    %rdi,0x204790(%rip)        # 610d48 <__intel_cpu_feature_indicator_x>
  40c5b8:	5d                   	pop    %rbp
  40c5b9:	41 5f                	pop    %r15
  40c5bb:	41 5e                	pop    %r14
  40c5bd:	41 58                	pop    %r8
  40c5bf:	5f                   	pop    %rdi
  40c5c0:	5e                   	pop    %rsi
  40c5c1:	5b                   	pop    %rbx
  40c5c2:	59                   	pop    %rcx
  40c5c3:	5a                   	pop    %rdx
  40c5c4:	c3                   	retq   
  40c5c5:	48 89 3d 74 47 20 00 	mov    %rdi,0x204774(%rip)        # 610d40 <__intel_cpu_feature_indicator>
  40c5cc:	48 89 3d 75 47 20 00 	mov    %rdi,0x204775(%rip)        # 610d48 <__intel_cpu_feature_indicator_x>
  40c5d3:	5d                   	pop    %rbp
  40c5d4:	41 5f                	pop    %r15
  40c5d6:	41 5e                	pop    %r14
  40c5d8:	41 58                	pop    %r8
  40c5da:	5f                   	pop    %rdi
  40c5db:	5e                   	pop    %rsi
  40c5dc:	5b                   	pop    %rbx
  40c5dd:	59                   	pop    %rcx
  40c5de:	5a                   	pop    %rdx
  40c5df:	c3                   	retq   
  40c5e0:	48 c7 05 55 47 20 00 	movq   $0x1,0x204755(%rip)        # 610d40 <__intel_cpu_feature_indicator>
  40c5e7:	01 00 00 00 
  40c5eb:	5d                   	pop    %rbp
  40c5ec:	41 5f                	pop    %r15
  40c5ee:	41 5e                	pop    %r14
  40c5f0:	41 58                	pop    %r8
  40c5f2:	5f                   	pop    %rdi
  40c5f3:	5e                   	pop    %rsi
  40c5f4:	5b                   	pop    %rbx
  40c5f5:	59                   	pop    %rcx
  40c5f6:	5a                   	pop    %rdx
  40c5f7:	c3                   	retq   
  40c5f8:	81 7c 24 f4 47 65 6e 	cmpl   $0x756e6547,-0xc(%rsp)
  40c5ff:	75 
  40c600:	75 de                	jne    40c5e0 <__intel_cpu_features_init_body+0x3e0>
  40c602:	81 7c 24 fc 69 6e 65 	cmpl   $0x49656e69,-0x4(%rsp)
  40c609:	49 
  40c60a:	75 d4                	jne    40c5e0 <__intel_cpu_features_init_body+0x3e0>
  40c60c:	81 7c 24 f8 6e 74 65 	cmpl   $0x6c65746e,-0x8(%rsp)
  40c613:	6c 
  40c614:	75 ca                	jne    40c5e0 <__intel_cpu_features_init_body+0x3e0>
  40c616:	e9 1d fc ff ff       	jmpq   40c238 <__intel_cpu_features_init_body+0x38>
  40c61b:	0f 1f 44 00 00       	nopl   0x0(%rax,%rax,1)

000000000040c620 <__cacheSize>:
  40c620:	55                   	push   %rbp
  40c621:	48 89 e5             	mov    %rsp,%rbp
  40c624:	48 81 ec 50 01 00 00 	sub    $0x150,%rsp
  40c62b:	41 89 fa             	mov    %edi,%r10d
  40c62e:	64 48 8b 04 25 28 00 	mov    %fs:0x28,%rax
  40c635:	00 00 
  40c637:	48 33 c5             	xor    %rbp,%rax
  40c63a:	48 89 45 f0          	mov    %rax,-0x10(%rbp)
  40c63e:	41 8d 52 ff          	lea    -0x1(%r10),%edx
  40c642:	83 fa 02             	cmp    $0x2,%edx
  40c645:	77 2f                	ja     40c676 <__cacheSize+0x56>
  40c647:	83 3d 1e 47 20 00 00 	cmpl   $0x0,0x20471e(%rip)        # 610d6c <__libirc_cache_tbl+0xc>
  40c64e:	74 44                	je     40c694 <__cacheSize+0x74>
  40c650:	48 8d 35 09 47 20 00 	lea    0x204709(%rip),%rsi        # 610d60 <__libirc_cache_tbl>
  40c657:	48 8b 55 f0          	mov    -0x10(%rbp),%rdx
  40c65b:	41 c1 e2 02          	shl    $0x2,%r10d
  40c65f:	48 33 d5             	xor    %rbp,%rdx
  40c662:	42 8b 04 96          	mov    (%rsi,%r10,4),%eax
  40c666:	64 48 3b 14 25 28 00 	cmp    %fs:0x28,%rdx
  40c66d:	00 00 
  40c66f:	75 1e                	jne    40c68f <__cacheSize+0x6f>
  40c671:	48 89 ec             	mov    %rbp,%rsp
  40c674:	5d                   	pop    %rbp
  40c675:	c3                   	retq   
  40c676:	48 8b 45 f0          	mov    -0x10(%rbp),%rax
  40c67a:	48 33 c5             	xor    %rbp,%rax
  40c67d:	64 48 3b 04 25 28 00 	cmp    %fs:0x28,%rax
  40c684:	00 00 
  40c686:	75 07                	jne    40c68f <__cacheSize+0x6f>
  40c688:	33 c0                	xor    %eax,%eax
  40c68a:	48 89 ec             	mov    %rbp,%rsp
  40c68d:	5d                   	pop    %rbp
  40c68e:	c3                   	retq   
  40c68f:	e8 6c 42 ff ff       	callq  400900 <__stack_chk_fail@plt>
  40c694:	c7 45 98 00 00 00 00 	movl   $0x0,-0x68(%rbp)
  40c69b:	50                   	push   %rax
  40c69c:	51                   	push   %rcx
  40c69d:	9c                   	pushfq 
  40c69e:	58                   	pop    %rax
  40c69f:	89 c1                	mov    %eax,%ecx
  40c6a1:	35 00 00 20 00       	xor    $0x200000,%eax
  40c6a6:	50                   	push   %rax
  40c6a7:	9d                   	popfq  
  40c6a8:	9c                   	pushfq 
  40c6a9:	58                   	pop    %rax
  40c6aa:	3b c1                	cmp    %ecx,%eax
  40c6ac:	74 08                	je     40c6b6 <__cacheSize+0x96>
  40c6ae:	c7 45 98 01 00 00 00 	movl   $0x1,-0x68(%rbp)
  40c6b5:	51                   	push   %rcx
  40c6b6:	9d                   	popfq  
  40c6b7:	59                   	pop    %rcx
  40c6b8:	58                   	pop    %rax
  40c6b9:	83 7d 98 00          	cmpl   $0x0,-0x68(%rbp)
  40c6bd:	75 0c                	jne    40c6cb <__cacheSize+0xab>
  40c6bf:	48 8d 35 9a 46 20 00 	lea    0x20469a(%rip),%rsi        # 610d60 <__libirc_cache_tbl>
  40c6c6:	e9 40 03 00 00       	jmpq   40ca0b <__cacheSize+0x3eb>
  40c6cb:	48 b8 47 65 6e 75 69 	movabs $0x49656e69756e6547,%rax
  40c6d2:	6e 65 49 
  40c6d5:	48 8d 4d 90          	lea    -0x70(%rbp),%rcx
  40c6d9:	33 d2                	xor    %edx,%edx
  40c6db:	48 89 4d 80          	mov    %rcx,-0x80(%rbp)
  40c6df:	48 89 45 dc          	mov    %rax,-0x24(%rbp)
  40c6e3:	48 c7 45 e4 6e 74 65 	movq   $0x6c65746e,-0x1c(%rbp)
  40c6ea:	6c 
  40c6eb:	89 55 94             	mov    %edx,-0x6c(%rbp)
  40c6ee:	89 11                	mov    %edx,(%rcx)
  40c6f0:	48 89 5d 88          	mov    %rbx,-0x78(%rbp)
  40c6f4:	50                   	push   %rax
  40c6f5:	53                   	push   %rbx
  40c6f6:	51                   	push   %rcx
  40c6f7:	52                   	push   %rdx
  40c6f8:	b8 00 00 00 00       	mov    $0x0,%eax
  40c6fd:	0f a2                	cpuid  
  40c6ff:	39 5d dc             	cmp    %ebx,-0x24(%rbp)
  40c702:	75 17                	jne    40c71b <__cacheSize+0xfb>
  40c704:	39 55 e0             	cmp    %edx,-0x20(%rbp)
  40c707:	75 12                	jne    40c71b <__cacheSize+0xfb>
  40c709:	39 4d e4             	cmp    %ecx,-0x1c(%rbp)
  40c70c:	75 0d                	jne    40c71b <__cacheSize+0xfb>
  40c70e:	c7 45 94 01 00 00 00 	movl   $0x1,-0x6c(%rbp)
  40c715:	48 8b 55 80          	mov    -0x80(%rbp),%rdx
  40c719:	89 02                	mov    %eax,(%rdx)
  40c71b:	5a                   	pop    %rdx
  40c71c:	59                   	pop    %rcx
  40c71d:	5b                   	pop    %rbx
  40c71e:	58                   	pop    %rax
  40c71f:	8b 45 94             	mov    -0x6c(%rbp),%eax
  40c722:	8b 55 90             	mov    -0x70(%rbp),%edx
  40c725:	48 8b 5d 88          	mov    -0x78(%rbp),%rbx
  40c729:	89 05 31 46 20 00    	mov    %eax,0x204631(%rip)        # 610d60 <__libirc_cache_tbl>
  40c72f:	89 15 2f 46 20 00    	mov    %edx,0x20462f(%rip)        # 610d64 <__libirc_cache_tbl+0x4>
  40c735:	83 fa 04             	cmp    $0x4,%edx
  40c738:	7d 0c                	jge    40c746 <__cacheSize+0x126>
  40c73a:	48 8d 35 1f 46 20 00 	lea    0x20461f(%rip),%rsi        # 610d60 <__libirc_cache_tbl>
  40c741:	e9 18 01 00 00       	jmpq   40c85e <__cacheSize+0x23e>
  40c746:	c7 85 cc fe ff ff 00 	movl   $0x0,-0x134(%rbp)
  40c74d:	00 00 00 
  40c750:	48 8d 85 d8 fe ff ff 	lea    -0x128(%rbp),%rax
  40c757:	48 89 85 78 ff ff ff 	mov    %rax,-0x88(%rbp)
  40c75e:	48 89 5d 88          	mov    %rbx,-0x78(%rbp)
  40c762:	50                   	push   %rax
  40c763:	53                   	push   %rbx
  40c764:	51                   	push   %rcx
  40c765:	52                   	push   %rdx
  40c766:	57                   	push   %rdi
  40c767:	4c 8b 85 78 ff ff ff 	mov    -0x88(%rbp),%r8
  40c76e:	bf 00 00 00 00       	mov    $0x0,%edi
  40c773:	89 f9                	mov    %edi,%ecx
  40c775:	b8 04 00 00 00       	mov    $0x4,%eax
  40c77a:	0f a2                	cpuid  
  40c77c:	a9 1f 00 00 00       	test   $0x1f,%eax
  40c781:	74 1d                	je     40c7a0 <__cacheSize+0x180>
  40c783:	41 89 00             	mov    %eax,(%r8)
  40c786:	41 89 58 04          	mov    %ebx,0x4(%r8)
  40c78a:	41 89 48 08          	mov    %ecx,0x8(%r8)
  40c78e:	41 89 50 0c          	mov    %edx,0xc(%r8)
  40c792:	83 c7 01             	add    $0x1,%edi
  40c795:	83 ff 08             	cmp    $0x8,%edi
  40c798:	7d 06                	jge    40c7a0 <__cacheSize+0x180>
  40c79a:	49 83 c0 10          	add    $0x10,%r8
  40c79e:	eb d3                	jmp    40c773 <__cacheSize+0x153>
  40c7a0:	89 bd cc fe ff ff    	mov    %edi,-0x134(%rbp)
  40c7a6:	5f                   	pop    %rdi
  40c7a7:	5a                   	pop    %rdx
  40c7a8:	59                   	pop    %rcx
  40c7a9:	5b                   	pop    %rbx
  40c7aa:	58                   	pop    %rax
  40c7ab:	33 ff                	xor    %edi,%edi
  40c7ad:	4c 63 85 cc fe ff ff 	movslq -0x134(%rbp),%r8
  40c7b4:	45 33 c9             	xor    %r9d,%r9d
  40c7b7:	48 8b 5d 88          	mov    -0x78(%rbp),%rbx
  40c7bb:	4d 85 c0             	test   %r8,%r8
  40c7be:	0f 8e 76 ff ff ff    	jle    40c73a <__cacheSize+0x11a>
  40c7c4:	48 8d 35 95 45 20 00 	lea    0x204595(%rip),%rsi        # 610d60 <__libirc_cache_tbl>
  40c7cb:	42 8a 94 0d d8 fe ff 	mov    -0x128(%rbp,%r9,1),%dl
  40c7d2:	ff 
  40c7d3:	88 d0                	mov    %dl,%al
  40c7d5:	24 1d                	and    $0x1d,%al
  40c7d7:	3c 01                	cmp    $0x1,%al
  40c7d9:	75 73                	jne    40c84e <__cacheSize+0x22e>
  40c7db:	80 e2 e0             	and    $0xe0,%dl
  40c7de:	c0 ea 05             	shr    $0x5,%dl
  40c7e1:	0f b6 d2             	movzbl %dl,%edx
  40c7e4:	48 c1 e2 04          	shl    $0x4,%rdx
  40c7e8:	42 8b 84 0d dc fe ff 	mov    -0x124(%rbp,%r9,1),%eax
  40c7ef:	ff 
  40c7f0:	46 0f b7 9c 0d de fe 	movzwl -0x122(%rbp,%r9,1),%r11d
  40c7f7:	ff ff 
  40c7f9:	25 00 f0 3f 00       	and    $0x3ff000,%eax
  40c7fe:	41 81 e3 c0 ff 00 00 	and    $0xffc0,%r11d
  40c805:	c1 e8 0c             	shr    $0xc,%eax
  40c808:	41 c1 eb 06          	shr    $0x6,%r11d
  40c80c:	ff c0                	inc    %eax
  40c80e:	42 0f b7 8c 0d dc fe 	movzwl -0x124(%rbp,%r9,1),%ecx
  40c815:	ff ff 
  40c817:	41 ff c3             	inc    %r11d
  40c81a:	81 e1 ff 0f 00 00    	and    $0xfff,%ecx
  40c820:	44 89 5c 32 0c       	mov    %r11d,0xc(%rdx,%rsi,1)
  40c825:	ff c1                	inc    %ecx
  40c827:	89 44 32 08          	mov    %eax,0x8(%rdx,%rsi,1)
  40c82b:	41 0f af c3          	imul   %r11d,%eax
  40c82f:	46 8b 9c 0d e0 fe ff 	mov    -0x120(%rbp,%r9,1),%r11d
  40c836:	ff 
  40c837:	41 ff c3             	inc    %r11d
  40c83a:	44 0f af d9          	imul   %ecx,%r11d
  40c83e:	44 0f af d8          	imul   %eax,%r11d
  40c842:	41 c1 eb 0a          	shr    $0xa,%r11d
  40c846:	89 4c 32 04          	mov    %ecx,0x4(%rdx,%rsi,1)
  40c84a:	44 89 1c 32          	mov    %r11d,(%rdx,%rsi,1)
  40c84e:	48 ff c7             	inc    %rdi
  40c851:	49 83 c1 10          	add    $0x10,%r9
  40c855:	49 3b f8             	cmp    %r8,%rdi
  40c858:	0f 8c 6d ff ff ff    	jl     40c7cb <__cacheSize+0x1ab>
  40c85e:	83 3d 0b 45 20 00 00 	cmpl   $0x0,0x20450b(%rip)        # 610d70 <__libirc_cache_tbl+0x10>
  40c865:	0f 85 a0 01 00 00    	jne    40ca0b <__cacheSize+0x3eb>
  40c86b:	83 7d 90 02          	cmpl   $0x2,-0x70(%rbp)
  40c86f:	0f 8c 96 01 00 00    	jl     40ca0b <__cacheSize+0x3eb>
  40c875:	48 89 5d 88          	mov    %rbx,-0x78(%rbp)
  40c879:	48 8d 45 9c          	lea    -0x64(%rbp),%rax
  40c87d:	48 89 85 d0 fe ff ff 	mov    %rax,-0x130(%rbp)
  40c884:	50                   	push   %rax
  40c885:	53                   	push   %rbx
  40c886:	51                   	push   %rcx
  40c887:	52                   	push   %rdx
  40c888:	4c 8b 85 d0 fe ff ff 	mov    -0x130(%rbp),%r8
  40c88f:	b8 02 00 00 00       	mov    $0x2,%eax
  40c894:	0f a2                	cpuid  
  40c896:	41 89 00             	mov    %eax,(%r8)
  40c899:	41 89 58 04          	mov    %ebx,0x4(%r8)
  40c89d:	41 89 48 08          	mov    %ecx,0x8(%r8)
  40c8a1:	41 89 50 0c          	mov    %edx,0xc(%r8)
  40c8a5:	3c 01                	cmp    $0x1,%al
  40c8a7:	7e 4d                	jle    40c8f6 <__cacheSize+0x2d6>
  40c8a9:	3c 02                	cmp    $0x2,%al
  40c8ab:	7e 32                	jle    40c8df <__cacheSize+0x2bf>
  40c8ad:	3c 03                	cmp    $0x3,%al
  40c8af:	7e 17                	jle    40c8c8 <__cacheSize+0x2a8>
  40c8b1:	b8 02 00 00 00       	mov    $0x2,%eax
  40c8b6:	0f a2                	cpuid  
  40c8b8:	41 89 40 30          	mov    %eax,0x30(%r8)
  40c8bc:	41 89 58 34          	mov    %ebx,0x34(%r8)
  40c8c0:	41 89 48 38          	mov    %ecx,0x38(%r8)
  40c8c4:	41 89 50 3c          	mov    %edx,0x3c(%r8)
  40c8c8:	b8 02 00 00 00       	mov    $0x2,%eax
  40c8cd:	0f a2                	cpuid  
  40c8cf:	41 89 40 20          	mov    %eax,0x20(%r8)
  40c8d3:	41 89 58 24          	mov    %ebx,0x24(%r8)
  40c8d7:	41 89 48 28          	mov    %ecx,0x28(%r8)
  40c8db:	41 89 50 2c          	mov    %edx,0x2c(%r8)
  40c8df:	b8 02 00 00 00       	mov    $0x2,%eax
  40c8e4:	0f a2                	cpuid  
  40c8e6:	41 89 40 10          	mov    %eax,0x10(%r8)
  40c8ea:	41 89 58 14          	mov    %ebx,0x14(%r8)
  40c8ee:	41 89 48 18          	mov    %ecx,0x18(%r8)
  40c8f2:	41 89 50 1c          	mov    %edx,0x1c(%r8)
  40c8f6:	5a                   	pop    %rdx
  40c8f7:	59                   	pop    %rcx
  40c8f8:	5b                   	pop    %rbx
  40c8f9:	58                   	pop    %rax
  40c8fa:	0f b6 7d 9c          	movzbl -0x64(%rbp),%edi
  40c8fe:	48 8b 5d 88          	mov    -0x78(%rbp),%rbx
  40c902:	83 ff 04             	cmp    $0x4,%edi
  40c905:	7e 07                	jle    40c90e <__cacheSize+0x2ee>
  40c907:	bf 10 00 00 00       	mov    $0x10,%edi
  40c90c:	eb 0d                	jmp    40c91b <__cacheSize+0x2fb>
  40c90e:	48 c1 e7 02          	shl    $0x2,%rdi
  40c912:	48 85 ff             	test   %rdi,%rdi
  40c915:	0f 8e f0 00 00 00    	jle    40ca0b <__cacheSize+0x3eb>
  40c91b:	48 89 5d 88          	mov    %rbx,-0x78(%rbp)
  40c91f:	45 33 c9             	xor    %r9d,%r9d
  40c922:	4c 89 a5 58 ff ff ff 	mov    %r12,-0xa8(%rbp)
  40c929:	4c 89 ad 60 ff ff ff 	mov    %r13,-0xa0(%rbp)
  40c930:	4c 89 b5 68 ff ff ff 	mov    %r14,-0x98(%rbp)
  40c937:	4c 89 bd 70 ff ff ff 	mov    %r15,-0x90(%rbp)
  40c93e:	42 f6 44 8d 9f 80    	testb  $0x80,-0x61(%rbp,%r9,4)
  40c944:	0f 85 8d 00 00 00    	jne    40c9d7 <__cacheSize+0x3b7>
  40c94a:	45 33 ed             	xor    %r13d,%r13d
  40c94d:	4e 8d 64 8d 9c       	lea    -0x64(%rbp,%r9,4),%r12
  40c952:	47 0f b6 74 25 00    	movzbl 0x0(%r13,%r12,1),%r14d
  40c958:	49 81 fe ff 00 00 00 	cmp    $0xff,%r14
  40c95f:	0f 84 41 01 00 00    	je     40caa6 <__cacheSize+0x486>
  40c965:	4c 8d 3d 74 37 20 00 	lea    0x203774(%rip),%r15        # 6100e0 <cpuid2_cache_tbl>
  40c96c:	43 8a 04 f7          	mov    (%r15,%r14,8),%al
  40c970:	24 07                	and    $0x7,%al
  40c972:	44 0f b6 d8          	movzbl %al,%r11d
  40c976:	4d 85 db             	test   %r11,%r11
  40c979:	74 4f                	je     40c9ca <__cacheSize+0x3aa>
  40c97b:	49 83 fb 02          	cmp    $0x2,%r11
  40c97f:	0f 84 95 00 00 00    	je     40ca1a <__cacheSize+0x3fa>
  40c985:	49 c1 e3 04          	shl    $0x4,%r11
  40c989:	43 0f b7 04 f7       	movzwl (%r15,%r14,8),%eax
  40c98e:	43 8b 14 f7          	mov    (%r15,%r14,8),%edx
  40c992:	25 f8 7f 00 00       	and    $0x7ff8,%eax
  40c997:	43 0f b7 4c f7 02    	movzwl 0x2(%r15,%r14,8),%ecx
  40c99d:	81 e2 00 80 3f 00    	and    $0x3f8000,%edx
  40c9a3:	81 e1 c0 ff 00 00    	and    $0xffc0,%ecx
  40c9a9:	43 8b 5c f7 04       	mov    0x4(%r15,%r14,8),%ebx
  40c9ae:	c1 e8 03             	shr    $0x3,%eax
  40c9b1:	c1 ea 0f             	shr    $0xf,%edx
  40c9b4:	c1 e9 06             	shr    $0x6,%ecx
  40c9b7:	41 89 44 33 04       	mov    %eax,0x4(%r11,%rsi,1)
  40c9bc:	41 89 54 33 08       	mov    %edx,0x8(%r11,%rsi,1)
  40c9c1:	41 89 4c 33 0c       	mov    %ecx,0xc(%r11,%rsi,1)
  40c9c6:	41 89 1c 33          	mov    %ebx,(%r11,%rsi,1)
  40c9ca:	49 ff c5             	inc    %r13
  40c9cd:	49 83 fd 04          	cmp    $0x4,%r13
  40c9d1:	0f 8c 7b ff ff ff    	jl     40c952 <__cacheSize+0x332>
  40c9d7:	0f 1f 84 00 00 00 00 	nopl   0x0(%rax,%rax,1)
  40c9de:	00 
  40c9df:	49 ff c1             	inc    %r9
  40c9e2:	4c 3b cf             	cmp    %rdi,%r9
  40c9e5:	0f 8c 53 ff ff ff    	jl     40c93e <__cacheSize+0x31e>
  40c9eb:	48 8b 5d 88          	mov    -0x78(%rbp),%rbx
  40c9ef:	4c 8b a5 58 ff ff ff 	mov    -0xa8(%rbp),%r12
  40c9f6:	4c 8b ad 60 ff ff ff 	mov    -0xa0(%rbp),%r13
  40c9fd:	4c 8b b5 68 ff ff ff 	mov    -0x98(%rbp),%r14
  40ca04:	4c 8b bd 70 ff ff ff 	mov    -0x90(%rbp),%r15
  40ca0b:	c7 05 57 43 20 00 01 	movl   $0x1,0x204357(%rip)        # 610d6c <__libirc_cache_tbl+0xc>
  40ca12:	00 00 00 
  40ca15:	e9 3d fc ff ff       	jmpq   40c657 <__cacheSize+0x37>
  40ca1a:	49 83 fe 49          	cmp    $0x49,%r14
  40ca1e:	0f 85 61 ff ff ff    	jne    40c985 <__cacheSize+0x365>
  40ca24:	c7 85 c8 fe ff ff 01 	movl   $0x1,-0x138(%rbp)
  40ca2b:	00 00 00 
  40ca2e:	48 8d 85 b0 fe ff ff 	lea    -0x150(%rbp),%rax
  40ca35:	48 89 40 10          	mov    %rax,0x10(%rax)
  40ca39:	50                   	push   %rax
  40ca3a:	53                   	push   %rbx
  40ca3b:	51                   	push   %rcx
  40ca3c:	52                   	push   %rdx
  40ca3d:	4c 8b 85 c0 fe ff ff 	mov    -0x140(%rbp),%r8
  40ca44:	8b 85 c8 fe ff ff    	mov    -0x138(%rbp),%eax
  40ca4a:	0f a2                	cpuid  
  40ca4c:	41 89 00             	mov    %eax,(%r8)
  40ca4f:	41 89 58 04          	mov    %ebx,0x4(%r8)
  40ca53:	41 89 48 08          	mov    %ecx,0x8(%r8)
  40ca57:	41 89 50 0c          	mov    %edx,0xc(%r8)
  40ca5b:	5a                   	pop    %rdx
  40ca5c:	59                   	pop    %rcx
  40ca5d:	5b                   	pop    %rbx
  40ca5e:	58                   	pop    %rax
  40ca5f:	8b 95 b0 fe ff ff    	mov    -0x150(%rbp),%edx
  40ca65:	89 d0                	mov    %edx,%eax
  40ca67:	25 00 0f 00 00       	and    $0xf00,%eax
  40ca6c:	3d 00 0f 00 00       	cmp    $0xf00,%eax
  40ca71:	0f 85 0e ff ff ff    	jne    40c985 <__cacheSize+0x365>
  40ca77:	f7 c2 00 00 00 0f    	test   $0xf000000,%edx
  40ca7d:	0f 85 02 ff ff ff    	jne    40c985 <__cacheSize+0x365>
  40ca83:	89 d0                	mov    %edx,%eax
  40ca85:	b9 03 00 00 00       	mov    $0x3,%ecx
  40ca8a:	c1 e8 0c             	shr    $0xc,%eax
  40ca8d:	c1 ea 04             	shr    $0x4,%edx
  40ca90:	25 f0 00 00 00       	and    $0xf0,%eax
  40ca95:	83 e2 0f             	and    $0xf,%edx
  40ca98:	0b c2                	or     %edx,%eax
  40ca9a:	83 f8 06             	cmp    $0x6,%eax
  40ca9d:	4c 0f 44 d9          	cmove  %rcx,%r11
  40caa1:	e9 df fe ff ff       	jmpq   40c985 <__cacheSize+0x365>
  40caa6:	48 8b 5d 88          	mov    -0x78(%rbp),%rbx
  40caaa:	66 0f ef c0          	pxor   %xmm0,%xmm0
  40caae:	4c 8b a5 58 ff ff ff 	mov    -0xa8(%rbp),%r12
  40cab5:	4c 8b ad 60 ff ff ff 	mov    -0xa0(%rbp),%r13
  40cabc:	4c 8b b5 68 ff ff ff 	mov    -0x98(%rbp),%r14
  40cac3:	4c 8b bd 70 ff ff ff 	mov    -0x90(%rbp),%r15
  40caca:	f3 0f 7f 05 9e 42 20 	movdqu %xmm0,0x20429e(%rip)        # 610d70 <__libirc_cache_tbl+0x10>
  40cad1:	00 
  40cad2:	f3 0f 7f 05 a6 42 20 	movdqu %xmm0,0x2042a6(%rip)        # 610d80 <__libirc_cache_tbl+0x20>
  40cad9:	00 
  40cada:	f3 0f 7f 05 ae 42 20 	movdqu %xmm0,0x2042ae(%rip)        # 610d90 <__libirc_cache_tbl+0x30>
  40cae1:	00 
  40cae2:	e9 24 ff ff ff       	jmpq   40ca0b <__cacheSize+0x3eb>
  40cae7:	66 0f 1f 84 00 00 00 	nopw   0x0(%rax,%rax,1)
  40caee:	00 00 

000000000040caf0 <__sti__$E>:
  40caf0:	55                   	push   %rbp
  40caf1:	48 89 e5             	mov    %rsp,%rbp
  40caf4:	53                   	push   %rbx
  40caf5:	48 81 ec 88 01 00 00 	sub    $0x188,%rsp
  40cafc:	8b 35 e6 3d 20 00    	mov    0x203de6(%rip),%esi        # 6108e8 <__libirc_data_cache_size>
  40cb02:	64 48 8b 04 25 28 00 	mov    %fs:0x28,%rax
  40cb09:	00 00 
  40cb0b:	48 33 c5             	xor    %rbp,%rax
  40cb0e:	48 89 45 e8          	mov    %rax,-0x18(%rbp)
  40cb12:	8b 15 d4 3d 20 00    	mov    0x203dd4(%rip),%edx        # 6108ec <__libirc_data_cache_size_half>
  40cb18:	89 35 96 42 20 00    	mov    %esi,0x204296(%rip)        # 610db4 <__libirc_set_loop_threshold>
  40cb1e:	33 f6                	xor    %esi,%esi
  40cb20:	8b 0d be 3d 20 00    	mov    0x203dbe(%rip),%ecx        # 6108e4 <__libirc_largest_cache_size_half>
  40cb26:	45 33 d2             	xor    %r10d,%r10d
  40cb29:	89 15 7d 42 20 00    	mov    %edx,0x20427d(%rip)        # 610dac <__libirc_copy_loop_threshold>
  40cb2f:	45 33 c9             	xor    %r9d,%r9d
  40cb32:	89 0d 78 42 20 00    	mov    %ecx,0x204278(%rip)        # 610db0 <__libirc_rep_move_threshold>
  40cb38:	83 3d 2d 42 20 00 00 	cmpl   $0x0,0x20422d(%rip)        # 610d6c <__libirc_cache_tbl+0xc>
  40cb3f:	0f 84 a3 02 00 00    	je     40cde8 <__sti__$E+0x2f8>
  40cb45:	83 3d 14 42 20 00 00 	cmpl   $0x0,0x204214(%rip)        # 610d60 <__libirc_cache_tbl>
  40cb4c:	0f 84 03 01 00 00    	je     40cc55 <__sti__$E+0x165>
  40cb52:	83 3d 0b 42 20 00 00 	cmpl   $0x0,0x20420b(%rip)        # 610d64 <__libirc_cache_tbl+0x4>
  40cb59:	76 31                	jbe    40cb8c <__sti__$E+0x9c>
  40cb5b:	53                   	push   %rbx
  40cb5c:	b8 01 00 00 00       	mov    $0x1,%eax
  40cb61:	0f a2                	cpuid  
  40cb63:	89 9d 7c ff ff ff    	mov    %ebx,-0x84(%rbp)
  40cb69:	89 55 84             	mov    %edx,-0x7c(%rbp)
  40cb6c:	89 45 94             	mov    %eax,-0x6c(%rbp)
  40cb6f:	5b                   	pop    %rbx
  40cb70:	8b 45 84             	mov    -0x7c(%rbp),%eax
  40cb73:	a9 00 00 00 04       	test   $0x4000000,%eax
  40cb78:	74 07                	je     40cb81 <__sti__$E+0x91>
  40cb7a:	be 02 00 00 00       	mov    $0x2,%esi
  40cb7f:	eb 0b                	jmp    40cb8c <__sti__$E+0x9c>
  40cb81:	33 f6                	xor    %esi,%esi
  40cb83:	a9 00 00 80 00       	test   $0x800000,%eax
  40cb88:	40 0f 95 c6          	setne  %sil
  40cb8c:	8b 1d de 41 20 00    	mov    0x2041de(%rip),%ebx        # 610d70 <__libirc_cache_tbl+0x10>
  40cb92:	85 db                	test   %ebx,%ebx
  40cb94:	76 12                	jbe    40cba8 <__sti__$E+0xb8>
  40cb96:	44 8b 0d d7 41 20 00 	mov    0x2041d7(%rip),%r9d        # 610d74 <__libirc_cache_tbl+0x14>
  40cb9d:	41 89 da             	mov    %ebx,%r10d
  40cba0:	44 0f af 0d d0 41 20 	imul   0x2041d0(%rip),%r9d        # 610d78 <__libirc_cache_tbl+0x18>
  40cba7:	00 
  40cba8:	8b 05 d2 41 20 00    	mov    0x2041d2(%rip),%eax        # 610d80 <__libirc_cache_tbl+0x20>
  40cbae:	41 3b c2             	cmp    %r10d,%eax
  40cbb1:	76 12                	jbe    40cbc5 <__sti__$E+0xd5>
  40cbb3:	44 8b 0d ca 41 20 00 	mov    0x2041ca(%rip),%r9d        # 610d84 <__libirc_cache_tbl+0x24>
  40cbba:	41 89 c2             	mov    %eax,%r10d
  40cbbd:	44 0f af 0d c3 41 20 	imul   0x2041c3(%rip),%r9d        # 610d88 <__libirc_cache_tbl+0x28>
  40cbc4:	00 
  40cbc5:	8b 05 c5 41 20 00    	mov    0x2041c5(%rip),%eax        # 610d90 <__libirc_cache_tbl+0x30>
  40cbcb:	41 3b c2             	cmp    %r10d,%eax
  40cbce:	76 12                	jbe    40cbe2 <__sti__$E+0xf2>
  40cbd0:	44 8b 0d bd 41 20 00 	mov    0x2041bd(%rip),%r9d        # 610d94 <__libirc_cache_tbl+0x34>
  40cbd7:	41 89 c2             	mov    %eax,%r10d
  40cbda:	44 0f af 0d b6 41 20 	imul   0x2041b6(%rip),%r9d        # 610d98 <__libirc_cache_tbl+0x38>
  40cbe1:	00 
  40cbe2:	c1 e3 0a             	shl    $0xa,%ebx
  40cbe5:	41 c1 e2 0a          	shl    $0xa,%r10d
  40cbe9:	89 d9                	mov    %ebx,%ecx
  40cbeb:	d1 f9                	sar    %ecx
  40cbed:	44 89 d0             	mov    %r10d,%eax
  40cbf0:	89 da                	mov    %ebx,%edx
  40cbf2:	c1 e8 1f             	shr    $0x1f,%eax
  40cbf5:	c1 ea 1f             	shr    $0x1f,%edx
  40cbf8:	c1 e9 1e             	shr    $0x1e,%ecx
  40cbfb:	03 d3                	add    %ebx,%edx
  40cbfd:	44 89 15 dc 3c 20 00 	mov    %r10d,0x203cdc(%rip)        # 6108e0 <__libirc_largest_cache_size>
  40cc04:	44 03 d0             	add    %eax,%r10d
  40cc07:	89 1d db 3c 20 00    	mov    %ebx,0x203cdb(%rip)        # 6108e8 <__libirc_data_cache_size>
  40cc0d:	03 cb                	add    %ebx,%ecx
  40cc0f:	41 d1 fa             	sar    %r10d
  40cc12:	8d 1c 5b             	lea    (%rbx,%rbx,2),%ebx
  40cc15:	d1 fa                	sar    %edx
  40cc17:	03 db                	add    %ebx,%ebx
  40cc19:	c1 f9 02             	sar    $0x2,%ecx
  40cc1c:	44 89 15 c1 3c 20 00 	mov    %r10d,0x203cc1(%rip)        # 6108e4 <__libirc_largest_cache_size_half>
  40cc23:	89 15 c3 3c 20 00    	mov    %edx,0x203cc3(%rip)        # 6108ec <__libirc_data_cache_size_half>
  40cc29:	89 0d c1 3c 20 00    	mov    %ecx,0x203cc1(%rip)        # 6108f0 <__libirc_largest_cache_size_quoter>
  40cc2f:	44 89 0d 72 41 20 00 	mov    %r9d,0x204172(%rip)        # 610da8 <__libirc_largest_cachelinesize>
  40cc36:	c7 05 6c 41 20 00 00 	movl   $0x2000,0x20416c(%rip)        # 610dac <__libirc_copy_loop_threshold>
  40cc3d:	20 00 00 
  40cc40:	89 1d 6a 41 20 00    	mov    %ebx,0x20416a(%rip)        # 610db0 <__libirc_rep_move_threshold>
  40cc46:	c7 05 64 41 20 00 00 	movl   $0x800,0x204164(%rip)        # 610db4 <__libirc_set_loop_threshold>
  40cc4d:	08 00 00 
  40cc50:	e9 69 01 00 00       	jmpq   40cdbe <__sti__$E+0x2ce>
  40cc55:	33 d2                	xor    %edx,%edx
  40cc57:	48 b8 41 75 74 68 65 	movabs $0x69746e6568747541,%rax
  40cc5e:	6e 74 69 
  40cc61:	48 8d bd 18 ff ff ff 	lea    -0xe8(%rbp),%rdi
  40cc68:	48 89 47 20          	mov    %rax,0x20(%rdi)
  40cc6c:	c7 47 28 63 41 4d 44 	movl   $0x444d4163,0x28(%rdi)
  40cc73:	88 57 2c             	mov    %dl,0x2c(%rdi)
  40cc76:	89 55 90             	mov    %edx,-0x70(%rbp)
  40cc79:	48 89 7d 88          	mov    %rdi,-0x78(%rbp)
  40cc7d:	50                   	push   %rax
  40cc7e:	53                   	push   %rbx
  40cc7f:	51                   	push   %rcx
  40cc80:	52                   	push   %rdx
  40cc81:	4c 8b 45 88          	mov    -0x78(%rbp),%r8
  40cc85:	8b 45 90             	mov    -0x70(%rbp),%eax
  40cc88:	0f a2                	cpuid  
  40cc8a:	41 89 00             	mov    %eax,(%r8)
  40cc8d:	41 89 58 04          	mov    %ebx,0x4(%r8)
  40cc91:	41 89 48 08          	mov    %ecx,0x8(%r8)
  40cc95:	41 89 50 0c          	mov    %edx,0xc(%r8)
  40cc99:	5a                   	pop    %rdx
  40cc9a:	59                   	pop    %rcx
  40cc9b:	5b                   	pop    %rbx
  40cc9c:	58                   	pop    %rax
  40cc9d:	8b 85 38 ff ff ff    	mov    -0xc8(%rbp),%eax
  40cca3:	3b 85 1c ff ff ff    	cmp    -0xe4(%rbp),%eax
  40cca9:	0f 85 0f 01 00 00    	jne    40cdbe <__sti__$E+0x2ce>
  40ccaf:	8b 85 3c ff ff ff    	mov    -0xc4(%rbp),%eax
  40ccb5:	3b 85 24 ff ff ff    	cmp    -0xdc(%rbp),%eax
  40ccbb:	0f 85 fd 00 00 00    	jne    40cdbe <__sti__$E+0x2ce>
  40ccc1:	8b 85 40 ff ff ff    	mov    -0xc0(%rbp),%eax
  40ccc7:	3b 85 20 ff ff ff    	cmp    -0xe0(%rbp),%eax
  40cccd:	0f 85 eb 00 00 00    	jne    40cdbe <__sti__$E+0x2ce>
  40ccd3:	c7 85 78 ff ff ff 01 	movl   $0x1,-0x88(%rbp)
  40ccda:	00 00 00 
  40ccdd:	48 89 bd 60 ff ff ff 	mov    %rdi,-0xa0(%rbp)
  40cce4:	50                   	push   %rax
  40cce5:	53                   	push   %rbx
  40cce6:	51                   	push   %rcx
  40cce7:	52                   	push   %rdx
  40cce8:	4c 8b 85 60 ff ff ff 	mov    -0xa0(%rbp),%r8
  40ccef:	8b 85 78 ff ff ff    	mov    -0x88(%rbp),%eax
  40ccf5:	0f a2                	cpuid  
  40ccf7:	41 89 00             	mov    %eax,(%r8)
  40ccfa:	41 89 58 04          	mov    %ebx,0x4(%r8)
  40ccfe:	41 89 48 08          	mov    %ecx,0x8(%r8)
  40cd02:	41 89 50 0c          	mov    %edx,0xc(%r8)
  40cd06:	5a                   	pop    %rdx
  40cd07:	59                   	pop    %rcx
  40cd08:	5b                   	pop    %rbx
  40cd09:	58                   	pop    %rax
  40cd0a:	33 f6                	xor    %esi,%esi
  40cd0c:	f7 85 24 ff ff ff 00 	testl  $0x800000,-0xdc(%rbp)
  40cd13:	00 80 00 
  40cd16:	c7 45 80 00 00 00 80 	movl   $0x80000000,-0x80(%rbp)
  40cd1d:	48 89 bd 68 ff ff ff 	mov    %rdi,-0x98(%rbp)
  40cd24:	40 0f 95 c6          	setne  %sil
  40cd28:	50                   	push   %rax
  40cd29:	53                   	push   %rbx
  40cd2a:	51                   	push   %rcx
  40cd2b:	52                   	push   %rdx
  40cd2c:	4c 8b 85 68 ff ff ff 	mov    -0x98(%rbp),%r8
  40cd33:	8b 45 80             	mov    -0x80(%rbp),%eax
  40cd36:	0f a2                	cpuid  
  40cd38:	41 89 00             	mov    %eax,(%r8)
  40cd3b:	41 89 58 04          	mov    %ebx,0x4(%r8)
  40cd3f:	41 89 48 08          	mov    %ecx,0x8(%r8)
  40cd43:	41 89 50 0c          	mov    %edx,0xc(%r8)
  40cd47:	5a                   	pop    %rdx
  40cd48:	59                   	pop    %rcx
  40cd49:	5b                   	pop    %rbx
  40cd4a:	58                   	pop    %rax
  40cd4b:	81 bd 18 ff ff ff 06 	cmpl   $0x80000006,-0xe8(%rbp)
  40cd52:	00 00 80 
  40cd55:	72 67                	jb     40cdbe <__sti__$E+0x2ce>
  40cd57:	c7 85 50 ff ff ff 06 	movl   $0x80000006,-0xb0(%rbp)
  40cd5e:	00 00 80 
  40cd61:	48 89 bd 48 ff ff ff 	mov    %rdi,-0xb8(%rbp)
  40cd68:	50                   	push   %rax
  40cd69:	53                   	push   %rbx
  40cd6a:	51                   	push   %rcx
  40cd6b:	52                   	push   %rdx
  40cd6c:	4c 8b 85 48 ff ff ff 	mov    -0xb8(%rbp),%r8
  40cd73:	8b 85 50 ff ff ff    	mov    -0xb0(%rbp),%eax
  40cd79:	0f a2                	cpuid  
  40cd7b:	41 89 00             	mov    %eax,(%r8)
  40cd7e:	41 89 58 04          	mov    %ebx,0x4(%r8)
  40cd82:	41 89 48 08          	mov    %ecx,0x8(%r8)
  40cd86:	41 89 50 0c          	mov    %edx,0xc(%r8)
  40cd8a:	5a                   	pop    %rdx
  40cd8b:	59                   	pop    %rcx
  40cd8c:	5b                   	pop    %rbx
  40cd8d:	58                   	pop    %rax
  40cd8e:	8b 15 54 3b 20 00    	mov    0x203b54(%rip),%edx        # 6108e8 <__libirc_data_cache_size>
  40cd94:	89 d1                	mov    %edx,%ecx
  40cd96:	d1 f9                	sar    %ecx
  40cd98:	c1 e9 1e             	shr    $0x1e,%ecx
  40cd9b:	0f b7 85 22 ff ff ff 	movzwl -0xde(%rbp),%eax
  40cda2:	03 ca                	add    %edx,%ecx
  40cda4:	c1 e0 0a             	shl    $0xa,%eax
  40cda7:	89 05 33 3b 20 00    	mov    %eax,0x203b33(%rip)        # 6108e0 <__libirc_largest_cache_size>
  40cdad:	d1 e8                	shr    %eax
  40cdaf:	c1 f9 02             	sar    $0x2,%ecx
  40cdb2:	89 05 2c 3b 20 00    	mov    %eax,0x203b2c(%rip)        # 6108e4 <__libirc_largest_cache_size_half>
  40cdb8:	89 0d 32 3b 20 00    	mov    %ecx,0x203b32(%rip)        # 6108f0 <__libirc_largest_cache_size_quoter>
  40cdbe:	89 35 e0 3f 20 00    	mov    %esi,0x203fe0(%rip)        # 610da4 <__libirc_mem_ops_method>
  40cdc4:	89 35 d6 3f 20 00    	mov    %esi,0x203fd6(%rip)        # 610da0 <__libirc_tmp>
  40cdca:	48 8b 45 e8          	mov    -0x18(%rbp),%rax
  40cdce:	48 33 c5             	xor    %rbp,%rax
  40cdd1:	64 48 3b 04 25 28 00 	cmp    %fs:0x28,%rax
  40cdd8:	00 00 
  40cdda:	75 07                	jne    40cde3 <__sti__$E+0x2f3>
  40cddc:	48 8d 65 f8          	lea    -0x8(%rbp),%rsp
  40cde0:	5b                   	pop    %rbx
  40cde1:	5d                   	pop    %rbp
  40cde2:	c3                   	retq   
  40cde3:	e8 18 3b ff ff       	callq  400900 <__stack_chk_fail@plt>
  40cde8:	c7 85 74 ff ff ff 00 	movl   $0x0,-0x8c(%rbp)
  40cdef:	00 00 00 
  40cdf2:	50                   	push   %rax
  40cdf3:	51                   	push   %rcx
  40cdf4:	9c                   	pushfq 
  40cdf5:	58                   	pop    %rax
  40cdf6:	89 c1                	mov    %eax,%ecx
  40cdf8:	35 00 00 20 00       	xor    $0x200000,%eax
  40cdfd:	50                   	push   %rax
  40cdfe:	9d                   	popfq  
  40cdff:	9c                   	pushfq 
  40ce00:	58                   	pop    %rax
  40ce01:	3b c1                	cmp    %ecx,%eax
  40ce03:	74 0b                	je     40ce10 <__sti__$E+0x320>
  40ce05:	c7 85 74 ff ff ff 01 	movl   $0x1,-0x8c(%rbp)
  40ce0c:	00 00 00 
  40ce0f:	51                   	push   %rcx
  40ce10:	9d                   	popfq  
  40ce11:	59                   	pop    %rcx
  40ce12:	58                   	pop    %rax
  40ce13:	83 bd 74 ff ff ff 00 	cmpl   $0x0,-0x8c(%rbp)
  40ce1a:	0f 84 61 03 00 00    	je     40d181 <__sti__$E+0x691>
  40ce20:	33 d2                	xor    %edx,%edx
  40ce22:	48 8d 9d 54 ff ff ff 	lea    -0xac(%rbp),%rbx
  40ce29:	48 b8 47 65 6e 75 69 	movabs $0x49656e69756e6547,%rax
  40ce30:	6e 65 49 
  40ce33:	48 89 5b 04          	mov    %rbx,0x4(%rbx)
  40ce37:	48 89 45 d8          	mov    %rax,-0x28(%rbp)
  40ce3b:	48 c7 45 e0 6e 74 65 	movq   $0x6c65746e,-0x20(%rbp)
  40ce42:	6c 
  40ce43:	89 53 1c             	mov    %edx,0x1c(%rbx)
  40ce46:	89 13                	mov    %edx,(%rbx)
  40ce48:	50                   	push   %rax
  40ce49:	53                   	push   %rbx
  40ce4a:	51                   	push   %rcx
  40ce4b:	52                   	push   %rdx
  40ce4c:	b8 00 00 00 00       	mov    $0x0,%eax
  40ce51:	0f a2                	cpuid  
  40ce53:	39 5d d8             	cmp    %ebx,-0x28(%rbp)
  40ce56:	75 1d                	jne    40ce75 <__sti__$E+0x385>
  40ce58:	39 55 dc             	cmp    %edx,-0x24(%rbp)
  40ce5b:	75 18                	jne    40ce75 <__sti__$E+0x385>
  40ce5d:	39 4d e0             	cmp    %ecx,-0x20(%rbp)
  40ce60:	75 13                	jne    40ce75 <__sti__$E+0x385>
  40ce62:	c7 85 70 ff ff ff 01 	movl   $0x1,-0x90(%rbp)
  40ce69:	00 00 00 
  40ce6c:	48 8b 95 58 ff ff ff 	mov    -0xa8(%rbp),%rdx
  40ce73:	89 02                	mov    %eax,(%rdx)
  40ce75:	5a                   	pop    %rdx
  40ce76:	59                   	pop    %rcx
  40ce77:	5b                   	pop    %rbx
  40ce78:	58                   	pop    %rax
  40ce79:	8b 85 70 ff ff ff    	mov    -0x90(%rbp),%eax
  40ce7f:	8b 95 54 ff ff ff    	mov    -0xac(%rbp),%edx
  40ce85:	89 05 d5 3e 20 00    	mov    %eax,0x203ed5(%rip)        # 610d60 <__libirc_cache_tbl>
  40ce8b:	89 15 d3 3e 20 00    	mov    %edx,0x203ed3(%rip)        # 610d64 <__libirc_cache_tbl+0x4>
  40ce91:	83 fa 04             	cmp    $0x4,%edx
  40ce94:	0f 8c 32 01 00 00    	jl     40cfcc <__sti__$E+0x4dc>
  40ce9a:	c7 85 8c fe ff ff 00 	movl   $0x0,-0x174(%rbp)
  40cea1:	00 00 00 
  40cea4:	48 8d 85 98 fe ff ff 	lea    -0x168(%rbp),%rax
  40ceab:	48 89 85 30 ff ff ff 	mov    %rax,-0xd0(%rbp)
  40ceb2:	50                   	push   %rax
  40ceb3:	53                   	push   %rbx
  40ceb4:	51                   	push   %rcx
  40ceb5:	52                   	push   %rdx
  40ceb6:	57                   	push   %rdi
  40ceb7:	4c 8b 85 30 ff ff ff 	mov    -0xd0(%rbp),%r8
  40cebe:	bf 00 00 00 00       	mov    $0x0,%edi
  40cec3:	89 f9                	mov    %edi,%ecx
  40cec5:	b8 04 00 00 00       	mov    $0x4,%eax
  40ceca:	0f a2                	cpuid  
  40cecc:	a9 1f 00 00 00       	test   $0x1f,%eax
  40ced1:	74 1d                	je     40cef0 <__sti__$E+0x400>
  40ced3:	41 89 00             	mov    %eax,(%r8)
  40ced6:	41 89 58 04          	mov    %ebx,0x4(%r8)
  40ceda:	41 89 48 08          	mov    %ecx,0x8(%r8)
  40cede:	41 89 50 0c          	mov    %edx,0xc(%r8)
  40cee2:	83 c7 01             	add    $0x1,%edi
  40cee5:	83 ff 08             	cmp    $0x8,%edi
  40cee8:	7d 06                	jge    40cef0 <__sti__$E+0x400>
  40ceea:	49 83 c0 10          	add    $0x10,%r8
  40ceee:	eb d3                	jmp    40cec3 <__sti__$E+0x3d3>
  40cef0:	89 bd 8c fe ff ff    	mov    %edi,-0x174(%rbp)
  40cef6:	5f                   	pop    %rdi
  40cef7:	5a                   	pop    %rdx
  40cef8:	59                   	pop    %rcx
  40cef9:	5b                   	pop    %rbx
  40cefa:	58                   	pop    %rax
  40cefb:	33 c0                	xor    %eax,%eax
  40cefd:	48 63 95 8c fe ff ff 	movslq -0x174(%rbp),%rdx
  40cf04:	33 c9                	xor    %ecx,%ecx
  40cf06:	48 85 d2             	test   %rdx,%rdx
  40cf09:	0f 8e bd 00 00 00    	jle    40cfcc <__sti__$E+0x4dc>
  40cf0f:	4c 89 b5 38 ff ff ff 	mov    %r14,-0xc8(%rbp)
  40cf16:	4c 89 bd 40 ff ff ff 	mov    %r15,-0xc0(%rbp)
  40cf1d:	40 8a bc 0d 98 fe ff 	mov    -0x168(%rbp,%rcx,1),%dil
  40cf24:	ff 
  40cf25:	40 88 fb             	mov    %dil,%bl
  40cf28:	80 e3 1d             	and    $0x1d,%bl
  40cf2b:	80 fb 01             	cmp    $0x1,%bl
  40cf2e:	75 7e                	jne    40cfae <__sti__$E+0x4be>
  40cf30:	40 80 e7 e0          	and    $0xe0,%dil
  40cf34:	4c 8d 3d 25 3e 20 00 	lea    0x203e25(%rip),%r15        # 610d60 <__libirc_cache_tbl>
  40cf3b:	44 8b 84 0d 9c fe ff 	mov    -0x164(%rbp,%rcx,1),%r8d
  40cf42:	ff 
  40cf43:	0f b7 9c 0d 9e fe ff 	movzwl -0x162(%rbp,%rcx,1),%ebx
  40cf4a:	ff 
  40cf4b:	41 81 e0 00 f0 3f 00 	and    $0x3ff000,%r8d
  40cf52:	81 e3 c0 ff 00 00    	and    $0xffc0,%ebx
  40cf58:	40 c0 ef 05          	shr    $0x5,%dil
  40cf5c:	44 0f b6 f7          	movzbl %dil,%r14d
  40cf60:	49 c1 e6 04          	shl    $0x4,%r14
  40cf64:	0f b7 bc 0d 9c fe ff 	movzwl -0x164(%rbp,%rcx,1),%edi
  40cf6b:	ff 
  40cf6c:	41 c1 e8 0c          	shr    $0xc,%r8d
  40cf70:	81 e7 ff 0f 00 00    	and    $0xfff,%edi
  40cf76:	c1 eb 06             	shr    $0x6,%ebx
  40cf79:	ff c7                	inc    %edi
  40cf7b:	44 8b 9c 0d a0 fe ff 	mov    -0x160(%rbp,%rcx,1),%r11d
  40cf82:	ff 
  40cf83:	41 ff c0             	inc    %r8d
  40cf86:	ff c3                	inc    %ebx
  40cf88:	41 ff c3             	inc    %r11d
  40cf8b:	47 89 44 3e 08       	mov    %r8d,0x8(%r14,%r15,1)
  40cf90:	44 0f af c3          	imul   %ebx,%r8d
  40cf94:	44 0f af df          	imul   %edi,%r11d
  40cf98:	45 0f af d8          	imul   %r8d,%r11d
  40cf9c:	41 c1 eb 0a          	shr    $0xa,%r11d
  40cfa0:	43 89 7c 3e 04       	mov    %edi,0x4(%r14,%r15,1)
  40cfa5:	43 89 5c 3e 0c       	mov    %ebx,0xc(%r14,%r15,1)
  40cfaa:	47 89 1c 3e          	mov    %r11d,(%r14,%r15,1)
  40cfae:	48 ff c0             	inc    %rax
  40cfb1:	48 83 c1 10          	add    $0x10,%rcx
  40cfb5:	48 3b c2             	cmp    %rdx,%rax
  40cfb8:	0f 8c 5f ff ff ff    	jl     40cf1d <__sti__$E+0x42d>
  40cfbe:	4c 8b b5 38 ff ff ff 	mov    -0xc8(%rbp),%r14
  40cfc5:	4c 8b bd 40 ff ff ff 	mov    -0xc0(%rbp),%r15
  40cfcc:	83 3d 9d 3d 20 00 00 	cmpl   $0x0,0x203d9d(%rip)        # 610d70 <__libirc_cache_tbl+0x10>
  40cfd3:	0f 85 a8 01 00 00    	jne    40d181 <__sti__$E+0x691>
  40cfd9:	83 bd 54 ff ff ff 02 	cmpl   $0x2,-0xac(%rbp)
  40cfe0:	0f 8c 9b 01 00 00    	jl     40d181 <__sti__$E+0x691>
  40cfe6:	48 8d 45 98          	lea    -0x68(%rbp),%rax
  40cfea:	48 89 85 90 fe ff ff 	mov    %rax,-0x170(%rbp)
  40cff1:	50                   	push   %rax
  40cff2:	53                   	push   %rbx
  40cff3:	51                   	push   %rcx
  40cff4:	52                   	push   %rdx
  40cff5:	4c 8b 85 90 fe ff ff 	mov    -0x170(%rbp),%r8
  40cffc:	b8 02 00 00 00       	mov    $0x2,%eax
  40d001:	0f a2                	cpuid  
  40d003:	41 89 00             	mov    %eax,(%r8)
  40d006:	41 89 58 04          	mov    %ebx,0x4(%r8)
  40d00a:	41 89 48 08          	mov    %ecx,0x8(%r8)
  40d00e:	41 89 50 0c          	mov    %edx,0xc(%r8)
  40d012:	3c 01                	cmp    $0x1,%al
  40d014:	7e 4d                	jle    40d063 <__sti__$E+0x573>
  40d016:	3c 02                	cmp    $0x2,%al
  40d018:	7e 32                	jle    40d04c <__sti__$E+0x55c>
  40d01a:	3c 03                	cmp    $0x3,%al
  40d01c:	7e 17                	jle    40d035 <__sti__$E+0x545>
  40d01e:	b8 02 00 00 00       	mov    $0x2,%eax
  40d023:	0f a2                	cpuid  
  40d025:	41 89 40 30          	mov    %eax,0x30(%r8)
  40d029:	41 89 58 34          	mov    %ebx,0x34(%r8)
  40d02d:	41 89 48 38          	mov    %ecx,0x38(%r8)
  40d031:	41 89 50 3c          	mov    %edx,0x3c(%r8)
  40d035:	b8 02 00 00 00       	mov    $0x2,%eax
  40d03a:	0f a2                	cpuid  
  40d03c:	41 89 40 20          	mov    %eax,0x20(%r8)
  40d040:	41 89 58 24          	mov    %ebx,0x24(%r8)
  40d044:	41 89 48 28          	mov    %ecx,0x28(%r8)
  40d048:	41 89 50 2c          	mov    %edx,0x2c(%r8)
  40d04c:	b8 02 00 00 00       	mov    $0x2,%eax
  40d051:	0f a2                	cpuid  
  40d053:	41 89 40 10          	mov    %eax,0x10(%r8)
  40d057:	41 89 58 14          	mov    %ebx,0x14(%r8)
  40d05b:	41 89 48 18          	mov    %ecx,0x18(%r8)
  40d05f:	41 89 50 1c          	mov    %edx,0x1c(%r8)
  40d063:	5a                   	pop    %rdx
  40d064:	59                   	pop    %rcx
  40d065:	5b                   	pop    %rbx
  40d066:	58                   	pop    %rax
  40d067:	0f b6 7d 98          	movzbl -0x68(%rbp),%edi
  40d06b:	83 ff 04             	cmp    $0x4,%edi
  40d06e:	7e 07                	jle    40d077 <__sti__$E+0x587>
  40d070:	bf 10 00 00 00       	mov    $0x10,%edi
  40d075:	eb 0d                	jmp    40d084 <__sti__$E+0x594>
  40d077:	48 c1 e7 02          	shl    $0x2,%rdi
  40d07b:	48 85 ff             	test   %rdi,%rdi
  40d07e:	0f 8e fd 00 00 00    	jle    40d181 <__sti__$E+0x691>
  40d084:	44 89 95 18 ff ff ff 	mov    %r10d,-0xe8(%rbp)
  40d08b:	45 33 db             	xor    %r11d,%r11d
  40d08e:	4c 89 a5 20 ff ff ff 	mov    %r12,-0xe0(%rbp)
  40d095:	4c 89 ad 28 ff ff ff 	mov    %r13,-0xd8(%rbp)
  40d09c:	4c 89 b5 38 ff ff ff 	mov    %r14,-0xc8(%rbp)
  40d0a3:	4c 89 bd 40 ff ff ff 	mov    %r15,-0xc0(%rbp)
  40d0aa:	42 f6 44 9d 9b 80    	testb  $0x80,-0x65(%rbp,%r11,4)
  40d0b0:	0f 85 94 00 00 00    	jne    40d14a <__sti__$E+0x65a>
  40d0b6:	45 33 ed             	xor    %r13d,%r13d
  40d0b9:	4e 8d 64 9d 98       	lea    -0x68(%rbp,%r11,4),%r12
  40d0be:	47 0f b6 74 25 00    	movzbl 0x0(%r13,%r12,1),%r14d
  40d0c4:	49 81 fe ff 00 00 00 	cmp    $0xff,%r14
  40d0cb:	0f 84 4b 01 00 00    	je     40d21c <__sti__$E+0x72c>
  40d0d1:	4c 8d 3d 08 30 20 00 	lea    0x203008(%rip),%r15        # 6100e0 <cpuid2_cache_tbl>
  40d0d8:	43 8a 04 f7          	mov    (%r15,%r14,8),%al
  40d0dc:	24 07                	and    $0x7,%al
  40d0de:	44 0f b6 d0          	movzbl %al,%r10d
  40d0e2:	4d 85 d2             	test   %r10,%r10
  40d0e5:	74 56                	je     40d13d <__sti__$E+0x64d>
  40d0e7:	49 83 fa 02          	cmp    $0x2,%r10
  40d0eb:	0f 84 9f 00 00 00    	je     40d190 <__sti__$E+0x6a0>
  40d0f1:	49 c1 e2 04          	shl    $0x4,%r10
  40d0f5:	48 8d 1d 64 3c 20 00 	lea    0x203c64(%rip),%rbx        # 610d60 <__libirc_cache_tbl>
  40d0fc:	43 0f b7 04 f7       	movzwl (%r15,%r14,8),%eax
  40d101:	43 8b 14 f7          	mov    (%r15,%r14,8),%edx
  40d105:	25 f8 7f 00 00       	and    $0x7ff8,%eax
  40d10a:	43 0f b7 4c f7 02    	movzwl 0x2(%r15,%r14,8),%ecx
  40d110:	81 e2 00 80 3f 00    	and    $0x3f8000,%edx
  40d116:	81 e1 c0 ff 00 00    	and    $0xffc0,%ecx
  40d11c:	47 8b 74 f7 04       	mov    0x4(%r15,%r14,8),%r14d
  40d121:	c1 e8 03             	shr    $0x3,%eax
  40d124:	c1 ea 0f             	shr    $0xf,%edx
  40d127:	c1 e9 06             	shr    $0x6,%ecx
  40d12a:	41 89 44 1a 04       	mov    %eax,0x4(%r10,%rbx,1)
  40d12f:	41 89 54 1a 08       	mov    %edx,0x8(%r10,%rbx,1)
  40d134:	41 89 4c 1a 0c       	mov    %ecx,0xc(%r10,%rbx,1)
  40d139:	45 89 34 1a          	mov    %r14d,(%r10,%rbx,1)
  40d13d:	49 ff c5             	inc    %r13
  40d140:	49 83 fd 04          	cmp    $0x4,%r13
  40d144:	0f 8c 74 ff ff ff    	jl     40d0be <__sti__$E+0x5ce>
  40d14a:	0f 1f 84 00 00 00 00 	nopl   0x0(%rax,%rax,1)
  40d151:	00 
  40d152:	49 ff c3             	inc    %r11
  40d155:	4c 3b df             	cmp    %rdi,%r11
  40d158:	0f 8c 4c ff ff ff    	jl     40d0aa <__sti__$E+0x5ba>
  40d15e:	44 8b 95 18 ff ff ff 	mov    -0xe8(%rbp),%r10d
  40d165:	4c 8b a5 20 ff ff ff 	mov    -0xe0(%rbp),%r12
  40d16c:	4c 8b ad 28 ff ff ff 	mov    -0xd8(%rbp),%r13
  40d173:	4c 8b b5 38 ff ff ff 	mov    -0xc8(%rbp),%r14
  40d17a:	4c 8b bd 40 ff ff ff 	mov    -0xc0(%rbp),%r15
  40d181:	c7 05 e1 3b 20 00 01 	movl   $0x1,0x203be1(%rip)        # 610d6c <__libirc_cache_tbl+0xc>
  40d188:	00 00 00 
  40d18b:	e9 b5 f9 ff ff       	jmpq   40cb45 <__sti__$E+0x55>
  40d190:	49 83 fe 49          	cmp    $0x49,%r14
  40d194:	0f 85 57 ff ff ff    	jne    40d0f1 <__sti__$E+0x601>
  40d19a:	c7 85 88 fe ff ff 01 	movl   $0x1,-0x178(%rbp)
  40d1a1:	00 00 00 
  40d1a4:	48 8d 85 70 fe ff ff 	lea    -0x190(%rbp),%rax
  40d1ab:	48 89 40 10          	mov    %rax,0x10(%rax)
  40d1af:	50                   	push   %rax
  40d1b0:	53                   	push   %rbx
  40d1b1:	51                   	push   %rcx
  40d1b2:	52                   	push   %rdx
  40d1b3:	4c 8b 85 80 fe ff ff 	mov    -0x180(%rbp),%r8
  40d1ba:	8b 85 88 fe ff ff    	mov    -0x178(%rbp),%eax
  40d1c0:	0f a2                	cpuid  
  40d1c2:	41 89 00             	mov    %eax,(%r8)
  40d1c5:	41 89 58 04          	mov    %ebx,0x4(%r8)
  40d1c9:	41 89 48 08          	mov    %ecx,0x8(%r8)
  40d1cd:	41 89 50 0c          	mov    %edx,0xc(%r8)
  40d1d1:	5a                   	pop    %rdx
  40d1d2:	59                   	pop    %rcx
  40d1d3:	5b                   	pop    %rbx
  40d1d4:	58                   	pop    %rax
  40d1d5:	8b 95 70 fe ff ff    	mov    -0x190(%rbp),%edx
  40d1db:	89 d0                	mov    %edx,%eax
  40d1dd:	25 00 0f 00 00       	and    $0xf00,%eax
  40d1e2:	3d 00 0f 00 00       	cmp    $0xf00,%eax
  40d1e7:	0f 85 04 ff ff ff    	jne    40d0f1 <__sti__$E+0x601>
  40d1ed:	f7 c2 00 00 00 0f    	test   $0xf000000,%edx
  40d1f3:	0f 85 f8 fe ff ff    	jne    40d0f1 <__sti__$E+0x601>
  40d1f9:	89 d0                	mov    %edx,%eax
  40d1fb:	b9 03 00 00 00       	mov    $0x3,%ecx
  40d200:	c1 e8 0c             	shr    $0xc,%eax
  40d203:	c1 ea 04             	shr    $0x4,%edx
  40d206:	25 f0 00 00 00       	and    $0xf0,%eax
  40d20b:	83 e2 0f             	and    $0xf,%edx
  40d20e:	0b c2                	or     %edx,%eax
  40d210:	83 f8 06             	cmp    $0x6,%eax
  40d213:	4c 0f 44 d1          	cmove  %rcx,%r10
  40d217:	e9 d5 fe ff ff       	jmpq   40d0f1 <__sti__$E+0x601>
  40d21c:	44 8b 95 18 ff ff ff 	mov    -0xe8(%rbp),%r10d
  40d223:	66 0f ef c0          	pxor   %xmm0,%xmm0
  40d227:	4c 8b a5 20 ff ff ff 	mov    -0xe0(%rbp),%r12
  40d22e:	4c 8b ad 28 ff ff ff 	mov    -0xd8(%rbp),%r13
  40d235:	4c 8b b5 38 ff ff ff 	mov    -0xc8(%rbp),%r14
  40d23c:	4c 8b bd 40 ff ff ff 	mov    -0xc0(%rbp),%r15
  40d243:	f3 0f 7f 05 25 3b 20 	movdqu %xmm0,0x203b25(%rip)        # 610d70 <__libirc_cache_tbl+0x10>
  40d24a:	00 
  40d24b:	f3 0f 7f 05 2d 3b 20 	movdqu %xmm0,0x203b2d(%rip)        # 610d80 <__libirc_cache_tbl+0x20>
  40d252:	00 
  40d253:	f3 0f 7f 05 35 3b 20 	movdqu %xmm0,0x203b35(%rip)        # 610d90 <__libirc_cache_tbl+0x30>
  40d25a:	00 
  40d25b:	e9 21 ff ff ff       	jmpq   40d181 <__sti__$E+0x691>

000000000040d260 <__intel_proc_init_ftzdazule>:
  40d260:	48 81 ec 08 02 00 00 	sub    $0x208,%rsp
  40d267:	89 f2                	mov    %esi,%edx
  40d269:	89 f1                	mov    %esi,%ecx
  40d26b:	83 e2 04             	and    $0x4,%edx
  40d26e:	83 e1 02             	and    $0x2,%ecx
  40d271:	74 22                	je     40d295 <__intel_proc_init_ftzdazule+0x35>
  40d273:	f7 c7 02 00 00 00    	test   $0x2,%edi
  40d279:	74 38                	je     40d2b3 <__intel_proc_init_ftzdazule+0x53>
  40d27b:	85 d2                	test   %edx,%edx
  40d27d:	74 08                	je     40d287 <__intel_proc_init_ftzdazule+0x27>
  40d27f:	f7 c7 04 00 00 00    	test   $0x4,%edi
  40d285:	74 2c                	je     40d2b3 <__intel_proc_init_ftzdazule+0x53>
  40d287:	f7 c6 01 00 00 00    	test   $0x1,%esi
  40d28d:	0f 85 a6 00 00 00    	jne    40d339 <__intel_proc_init_ftzdazule+0xd9>
  40d293:	eb 64                	jmp    40d2f9 <__intel_proc_init_ftzdazule+0x99>
  40d295:	85 d2                	test   %edx,%edx
  40d297:	0f 84 8c 00 00 00    	je     40d329 <__intel_proc_init_ftzdazule+0xc9>
  40d29d:	f7 c7 04 00 00 00    	test   $0x4,%edi
  40d2a3:	74 0e                	je     40d2b3 <__intel_proc_init_ftzdazule+0x53>
  40d2a5:	f7 c6 01 00 00 00    	test   $0x1,%esi
  40d2ab:	0f 85 88 00 00 00    	jne    40d339 <__intel_proc_init_ftzdazule+0xd9>
  40d2b1:	eb 5b                	jmp    40d30e <__intel_proc_init_ftzdazule+0xae>
  40d2b3:	b8 00 02 00 00       	mov    $0x200,%eax
  40d2b8:	66 0f ef c0          	pxor   %xmm0,%xmm0
  40d2bc:	0f 11 44 04 f0       	movups %xmm0,-0x10(%rsp,%rax,1)
  40d2c1:	0f 11 44 04 e0       	movups %xmm0,-0x20(%rsp,%rax,1)
  40d2c6:	0f 11 44 04 d0       	movups %xmm0,-0x30(%rsp,%rax,1)
  40d2cb:	0f 11 44 04 c0       	movups %xmm0,-0x40(%rsp,%rax,1)
  40d2d0:	48 83 e8 40          	sub    $0x40,%rax
  40d2d4:	75 e6                	jne    40d2bc <__intel_proc_init_ftzdazule+0x5c>
  40d2d6:	0f ae 04 24          	fxsave (%rsp)
  40d2da:	33 ff                	xor    %edi,%edi
  40d2dc:	8b 44 24 1c          	mov    0x1c(%rsp),%eax
  40d2e0:	a8 40                	test   $0x40,%al
  40d2e2:	0f 44 cf             	cmove  %edi,%ecx
  40d2e5:	a9 00 00 02 00       	test   $0x20000,%eax
  40d2ea:	0f 44 d7             	cmove  %edi,%edx
  40d2ed:	f7 c6 01 00 00 00    	test   $0x1,%esi
  40d2f3:	75 44                	jne    40d339 <__intel_proc_init_ftzdazule+0xd9>
  40d2f5:	85 c9                	test   %ecx,%ecx
  40d2f7:	74 11                	je     40d30a <__intel_proc_init_ftzdazule+0xaa>
  40d2f9:	0f ae 1c 24          	stmxcsr (%rsp)
  40d2fd:	8b 04 24             	mov    (%rsp),%eax
  40d300:	83 c8 40             	or     $0x40,%eax
  40d303:	89 04 24             	mov    %eax,(%rsp)
  40d306:	0f ae 14 24          	ldmxcsr (%rsp)
  40d30a:	85 d2                	test   %edx,%edx
  40d30c:	74 23                	je     40d331 <__intel_proc_init_ftzdazule+0xd1>
  40d30e:	0f ae 1c 24          	stmxcsr (%rsp)
  40d312:	8b 04 24             	mov    (%rsp),%eax
  40d315:	0d 00 00 02 00       	or     $0x20000,%eax
  40d31a:	89 04 24             	mov    %eax,(%rsp)
  40d31d:	0f ae 14 24          	ldmxcsr (%rsp)
  40d321:	48 81 c4 08 02 00 00 	add    $0x208,%rsp
  40d328:	c3                   	retq   
  40d329:	f7 c6 01 00 00 00    	test   $0x1,%esi
  40d32f:	75 08                	jne    40d339 <__intel_proc_init_ftzdazule+0xd9>
  40d331:	48 81 c4 08 02 00 00 	add    $0x208,%rsp
  40d338:	c3                   	retq   
  40d339:	0f ae 1c 24          	stmxcsr (%rsp)
  40d33d:	8b 04 24             	mov    (%rsp),%eax
  40d340:	0d 00 80 00 00       	or     $0x8000,%eax
  40d345:	89 04 24             	mov    %eax,(%rsp)
  40d348:	0f ae 14 24          	ldmxcsr (%rsp)
  40d34c:	eb a7                	jmp    40d2f5 <__intel_proc_init_ftzdazule+0x95>
  40d34e:	66 90                	xchg   %ax,%ax

000000000040d350 <__libc_csu_init>:
  40d350:	41 57                	push   %r15
  40d352:	41 89 ff             	mov    %edi,%r15d
  40d355:	41 56                	push   %r14
  40d357:	49 89 f6             	mov    %rsi,%r14
  40d35a:	41 55                	push   %r13
  40d35c:	49 89 d5             	mov    %rdx,%r13
  40d35f:	41 54                	push   %r12
  40d361:	4c 8d 25 b8 24 20 00 	lea    0x2024b8(%rip),%r12        # 60f820 <__frame_dummy_init_array_entry>
  40d368:	55                   	push   %rbp
  40d369:	48 8d 2d c0 24 20 00 	lea    0x2024c0(%rip),%rbp        # 60f830 <__init_array_end>
  40d370:	53                   	push   %rbx
  40d371:	4c 29 e5             	sub    %r12,%rbp
  40d374:	31 db                	xor    %ebx,%ebx
  40d376:	48 c1 fd 03          	sar    $0x3,%rbp
  40d37a:	48 83 ec 08          	sub    $0x8,%rsp
  40d37e:	e8 0d 35 ff ff       	callq  400890 <_init>
  40d383:	48 85 ed             	test   %rbp,%rbp
  40d386:	74 1e                	je     40d3a6 <__libc_csu_init+0x56>
  40d388:	0f 1f 84 00 00 00 00 	nopl   0x0(%rax,%rax,1)
  40d38f:	00 
  40d390:	4c 89 ea             	mov    %r13,%rdx
  40d393:	4c 89 f6             	mov    %r14,%rsi
  40d396:	44 89 ff             	mov    %r15d,%edi
  40d399:	41 ff 14 dc          	callq  *(%r12,%rbx,8)
  40d39d:	48 83 c3 01          	add    $0x1,%rbx
  40d3a1:	48 39 eb             	cmp    %rbp,%rbx
  40d3a4:	75 ea                	jne    40d390 <__libc_csu_init+0x40>
  40d3a6:	48 83 c4 08          	add    $0x8,%rsp
  40d3aa:	5b                   	pop    %rbx
  40d3ab:	5d                   	pop    %rbp
  40d3ac:	41 5c                	pop    %r12
  40d3ae:	41 5d                	pop    %r13
  40d3b0:	41 5e                	pop    %r14
  40d3b2:	41 5f                	pop    %r15
  40d3b4:	c3                   	retq   
  40d3b5:	90                   	nop
  40d3b6:	66 2e 0f 1f 84 00 00 	nopw   %cs:0x0(%rax,%rax,1)
  40d3bd:	00 00 00 

000000000040d3c0 <__libc_csu_fini>:
  40d3c0:	f3 c3                	repz retq 

Disassembly of section .fini:

000000000040d3c4 <_fini>:
  40d3c4:	48 83 ec 08          	sub    $0x8,%rsp
  40d3c8:	48 83 c4 08          	add    $0x8,%rsp
  40d3cc:	c3                   	retq   
