
bin/bitslice-avx512:     file format elf64-x86-64


Disassembly of section .init:

00000000004008b8 <_init>:
  4008b8:	48 83 ec 08          	sub    $0x8,%rsp
  4008bc:	48 8b 05 1d 17 21 00 	mov    0x21171d(%rip),%rax        # 611fe0 <_DYNAMIC+0x200>
  4008c3:	48 85 c0             	test   %rax,%rax
  4008c6:	74 05                	je     4008cd <_init+0x15>
  4008c8:	e8 43 01 00 00       	callq  400a10 <__vsprintf_chk@plt+0x10>
  4008cd:	48 83 c4 08          	add    $0x8,%rsp
  4008d1:	c3                   	retq   

Disassembly of section .plt:

00000000004008e0 <getenv@plt-0x10>:
  4008e0:	ff 35 22 17 21 00    	pushq  0x211722(%rip)        # 612008 <_GLOBAL_OFFSET_TABLE_+0x8>
  4008e6:	ff 25 24 17 21 00    	jmpq   *0x211724(%rip)        # 612010 <_GLOBAL_OFFSET_TABLE_+0x10>
  4008ec:	0f 1f 40 00          	nopl   0x0(%rax)

00000000004008f0 <getenv@plt>:
  4008f0:	ff 25 22 17 21 00    	jmpq   *0x211722(%rip)        # 612018 <_GLOBAL_OFFSET_TABLE_+0x18>
  4008f6:	68 00 00 00 00       	pushq  $0x0
  4008fb:	e9 e0 ff ff ff       	jmpq   4008e0 <_init+0x28>

0000000000400900 <strncpy@plt>:
  400900:	ff 25 1a 17 21 00    	jmpq   *0x21171a(%rip)        # 612020 <_GLOBAL_OFFSET_TABLE_+0x20>
  400906:	68 01 00 00 00       	pushq  $0x1
  40090b:	e9 d0 ff ff ff       	jmpq   4008e0 <_init+0x28>

0000000000400910 <setenv@plt>:
  400910:	ff 25 12 17 21 00    	jmpq   *0x211712(%rip)        # 612028 <_GLOBAL_OFFSET_TABLE_+0x28>
  400916:	68 02 00 00 00       	pushq  $0x2
  40091b:	e9 c0 ff ff ff       	jmpq   4008e0 <_init+0x28>

0000000000400920 <strlen@plt>:
  400920:	ff 25 0a 17 21 00    	jmpq   *0x21170a(%rip)        # 612030 <_GLOBAL_OFFSET_TABLE_+0x30>
  400926:	68 03 00 00 00       	pushq  $0x3
  40092b:	e9 b0 ff ff ff       	jmpq   4008e0 <_init+0x28>

0000000000400930 <__stack_chk_fail@plt>:
  400930:	ff 25 02 17 21 00    	jmpq   *0x211702(%rip)        # 612038 <_GLOBAL_OFFSET_TABLE_+0x38>
  400936:	68 04 00 00 00       	pushq  $0x4
  40093b:	e9 a0 ff ff ff       	jmpq   4008e0 <_init+0x28>

0000000000400940 <strchr@plt>:
  400940:	ff 25 fa 16 21 00    	jmpq   *0x2116fa(%rip)        # 612040 <_GLOBAL_OFFSET_TABLE_+0x40>
  400946:	68 05 00 00 00       	pushq  $0x5
  40094b:	e9 90 ff ff ff       	jmpq   4008e0 <_init+0x28>

0000000000400950 <printf@plt>:
  400950:	ff 25 f2 16 21 00    	jmpq   *0x2116f2(%rip)        # 612048 <_GLOBAL_OFFSET_TABLE_+0x48>
  400956:	68 06 00 00 00       	pushq  $0x6
  40095b:	e9 80 ff ff ff       	jmpq   4008e0 <_init+0x28>

0000000000400960 <__libc_start_main@plt>:
  400960:	ff 25 ea 16 21 00    	jmpq   *0x2116ea(%rip)        # 612050 <_GLOBAL_OFFSET_TABLE_+0x50>
  400966:	68 07 00 00 00       	pushq  $0x7
  40096b:	e9 70 ff ff ff       	jmpq   4008e0 <_init+0x28>

0000000000400970 <catopen@plt>:
  400970:	ff 25 e2 16 21 00    	jmpq   *0x2116e2(%rip)        # 612058 <_GLOBAL_OFFSET_TABLE_+0x58>
  400976:	68 08 00 00 00       	pushq  $0x8
  40097b:	e9 60 ff ff ff       	jmpq   4008e0 <_init+0x28>

0000000000400980 <__printf_chk@plt>:
  400980:	ff 25 da 16 21 00    	jmpq   *0x2116da(%rip)        # 612060 <_GLOBAL_OFFSET_TABLE_+0x60>
  400986:	68 09 00 00 00       	pushq  $0x9
  40098b:	e9 50 ff ff ff       	jmpq   4008e0 <_init+0x28>

0000000000400990 <fopen@plt>:
  400990:	ff 25 d2 16 21 00    	jmpq   *0x2116d2(%rip)        # 612068 <_GLOBAL_OFFSET_TABLE_+0x68>
  400996:	68 0a 00 00 00       	pushq  $0xa
  40099b:	e9 40 ff ff ff       	jmpq   4008e0 <_init+0x28>

00000000004009a0 <catgets@plt>:
  4009a0:	ff 25 ca 16 21 00    	jmpq   *0x2116ca(%rip)        # 612070 <_GLOBAL_OFFSET_TABLE_+0x70>
  4009a6:	68 0b 00 00 00       	pushq  $0xb
  4009ab:	e9 30 ff ff ff       	jmpq   4008e0 <_init+0x28>

00000000004009b0 <exit@plt>:
  4009b0:	ff 25 c2 16 21 00    	jmpq   *0x2116c2(%rip)        # 612078 <_GLOBAL_OFFSET_TABLE_+0x78>
  4009b6:	68 0c 00 00 00       	pushq  $0xc
  4009bb:	e9 20 ff ff ff       	jmpq   4008e0 <_init+0x28>

00000000004009c0 <fwrite@plt>:
  4009c0:	ff 25 ba 16 21 00    	jmpq   *0x2116ba(%rip)        # 612080 <_GLOBAL_OFFSET_TABLE_+0x80>
  4009c6:	68 0d 00 00 00       	pushq  $0xd
  4009cb:	e9 10 ff ff ff       	jmpq   4008e0 <_init+0x28>

00000000004009d0 <__fprintf_chk@plt>:
  4009d0:	ff 25 b2 16 21 00    	jmpq   *0x2116b2(%rip)        # 612088 <_GLOBAL_OFFSET_TABLE_+0x88>
  4009d6:	68 0e 00 00 00       	pushq  $0xe
  4009db:	e9 00 ff ff ff       	jmpq   4008e0 <_init+0x28>

00000000004009e0 <__strncat_chk@plt>:
  4009e0:	ff 25 aa 16 21 00    	jmpq   *0x2116aa(%rip)        # 612090 <_GLOBAL_OFFSET_TABLE_+0x90>
  4009e6:	68 0f 00 00 00       	pushq  $0xf
  4009eb:	e9 f0 fe ff ff       	jmpq   4008e0 <_init+0x28>

00000000004009f0 <aligned_alloc@plt>:
  4009f0:	ff 25 a2 16 21 00    	jmpq   *0x2116a2(%rip)        # 612098 <_GLOBAL_OFFSET_TABLE_+0x98>
  4009f6:	68 10 00 00 00       	pushq  $0x10
  4009fb:	e9 e0 fe ff ff       	jmpq   4008e0 <_init+0x28>

0000000000400a00 <__vsprintf_chk@plt>:
  400a00:	ff 25 9a 16 21 00    	jmpq   *0x21169a(%rip)        # 6120a0 <_GLOBAL_OFFSET_TABLE_+0xa0>
  400a06:	68 11 00 00 00       	pushq  $0x11
  400a0b:	e9 d0 fe ff ff       	jmpq   4008e0 <_init+0x28>

Disassembly of section .plt.got:

0000000000400a10 <.plt.got>:
  400a10:	ff 25 ca 15 21 00    	jmpq   *0x2115ca(%rip)        # 611fe0 <_DYNAMIC+0x200>
  400a16:	66 90                	xchg   %ax,%ax

Disassembly of section .text:

0000000000400a20 <_start>:
  400a20:	31 ed                	xor    %ebp,%ebp
  400a22:	49 89 d1             	mov    %rdx,%r9
  400a25:	5e                   	pop    %rsi
  400a26:	48 89 e2             	mov    %rsp,%rdx
  400a29:	48 83 e4 f0          	and    $0xfffffffffffffff0,%rsp
  400a2d:	50                   	push   %rax
  400a2e:	54                   	push   %rsp
  400a2f:	49 c7 c0 a0 f9 40 00 	mov    $0x40f9a0,%r8
  400a36:	48 c7 c1 30 f9 40 00 	mov    $0x40f930,%rcx
  400a3d:	48 c7 c7 10 0b 40 00 	mov    $0x400b10,%rdi
  400a44:	e8 17 ff ff ff       	callq  400960 <__libc_start_main@plt>
  400a49:	f4                   	hlt    
  400a4a:	66 0f 1f 44 00 00    	nopw   0x0(%rax,%rax,1)

0000000000400a50 <deregister_tm_clones>:
  400a50:	b8 6f 21 61 00       	mov    $0x61216f,%eax
  400a55:	55                   	push   %rbp
  400a56:	48 2d 68 21 61 00    	sub    $0x612168,%rax
  400a5c:	48 83 f8 0e          	cmp    $0xe,%rax
  400a60:	48 89 e5             	mov    %rsp,%rbp
  400a63:	77 02                	ja     400a67 <deregister_tm_clones+0x17>
  400a65:	5d                   	pop    %rbp
  400a66:	c3                   	retq   
  400a67:	b8 00 00 00 00       	mov    $0x0,%eax
  400a6c:	48 85 c0             	test   %rax,%rax
  400a6f:	74 f4                	je     400a65 <deregister_tm_clones+0x15>
  400a71:	5d                   	pop    %rbp
  400a72:	bf 68 21 61 00       	mov    $0x612168,%edi
  400a77:	ff e0                	jmpq   *%rax
  400a79:	0f 1f 80 00 00 00 00 	nopl   0x0(%rax)

0000000000400a80 <register_tm_clones>:
  400a80:	b8 68 21 61 00       	mov    $0x612168,%eax
  400a85:	55                   	push   %rbp
  400a86:	48 2d 68 21 61 00    	sub    $0x612168,%rax
  400a8c:	48 c1 f8 03          	sar    $0x3,%rax
  400a90:	48 89 e5             	mov    %rsp,%rbp
  400a93:	48 89 c2             	mov    %rax,%rdx
  400a96:	48 c1 ea 3f          	shr    $0x3f,%rdx
  400a9a:	48 01 d0             	add    %rdx,%rax
  400a9d:	48 d1 f8             	sar    %rax
  400aa0:	75 02                	jne    400aa4 <register_tm_clones+0x24>
  400aa2:	5d                   	pop    %rbp
  400aa3:	c3                   	retq   
  400aa4:	ba 00 00 00 00       	mov    $0x0,%edx
  400aa9:	48 85 d2             	test   %rdx,%rdx
  400aac:	74 f4                	je     400aa2 <register_tm_clones+0x22>
  400aae:	5d                   	pop    %rbp
  400aaf:	48 89 c6             	mov    %rax,%rsi
  400ab2:	bf 68 21 61 00       	mov    $0x612168,%edi
  400ab7:	ff e2                	jmpq   *%rdx
  400ab9:	0f 1f 80 00 00 00 00 	nopl   0x0(%rax)

0000000000400ac0 <__do_global_dtors_aux>:
  400ac0:	80 3d b9 16 21 00 00 	cmpb   $0x0,0x2116b9(%rip)        # 612180 <completed.6355>
  400ac7:	75 11                	jne    400ada <__do_global_dtors_aux+0x1a>
  400ac9:	55                   	push   %rbp
  400aca:	48 89 e5             	mov    %rsp,%rbp
  400acd:	e8 7e ff ff ff       	callq  400a50 <deregister_tm_clones>
  400ad2:	5d                   	pop    %rbp
  400ad3:	c6 05 a6 16 21 00 01 	movb   $0x1,0x2116a6(%rip)        # 612180 <completed.6355>
  400ada:	f3 c3                	repz retq 
  400adc:	0f 1f 40 00          	nopl   0x0(%rax)

0000000000400ae0 <frame_dummy>:
  400ae0:	48 83 3d 50 0d 21 00 	cmpq   $0x0,0x210d50(%rip)        # 611838 <__JCR_END__>
  400ae7:	00 
  400ae8:	74 1e                	je     400b08 <frame_dummy+0x28>
  400aea:	b8 00 00 00 00       	mov    $0x0,%eax
  400aef:	48 85 c0             	test   %rax,%rax
  400af2:	74 14                	je     400b08 <frame_dummy+0x28>
  400af4:	55                   	push   %rbp
  400af5:	bf 38 18 61 00       	mov    $0x611838,%edi
  400afa:	48 89 e5             	mov    %rsp,%rbp
  400afd:	ff d0                	callq  *%rax
  400aff:	5d                   	pop    %rbp
  400b00:	e9 7b ff ff ff       	jmpq   400a80 <register_tm_clones>
  400b05:	0f 1f 00             	nopl   (%rax)
  400b08:	e9 73 ff ff ff       	jmpq   400a80 <register_tm_clones>
  400b0d:	0f 1f 00             	nopl   (%rax)

0000000000400b10 <main>:
  400b10:	55                   	push   %rbp
  400b11:	48 89 e5             	mov    %rsp,%rbp
  400b14:	48 83 e4 80          	and    $0xffffffffffffff80,%rsp
  400b18:	41 56                	push   %r14
  400b1a:	41 57                	push   %r15
  400b1c:	53                   	push   %rbx
  400b1d:	48 83 ec 68          	sub    $0x68,%rsp
  400b21:	33 f6                	xor    %esi,%esi
  400b23:	bf 03 00 00 00       	mov    $0x3,%edi
  400b28:	e8 e3 df 00 00       	callq  40eb10 <__intel_new_feature_proc_init>
  400b2d:	c5 f8 ae 1c 24       	vstmxcsr (%rsp)
  400b32:	81 0c 24 40 80 00 00 	orl    $0x8040,(%rsp)
  400b39:	c5 f8 ae 14 24       	vldmxcsr (%rsp)
  400b3e:	c5 f8 10 05 8a ee 00 	vmovups 0xee8a(%rip),%xmm0        # 40f9d0 <key.425.0.0.1>
  400b45:	00 
  400b46:	c5 f8 11 44 24 10    	vmovups %xmm0,0x10(%rsp)
  400b4c:	bf 40 00 00 00       	mov    $0x40,%edi
  400b51:	be 00 80 00 00       	mov    $0x8000,%esi
  400b56:	e8 95 fe ff ff       	callq  4009f0 <aligned_alloc@plt>
  400b5b:	48 89 c3             	mov    %rax,%rbx
  400b5e:	33 c0                	xor    %eax,%eax
  400b60:	41 89 c7             	mov    %eax,%r15d
  400b63:	48 89 df             	mov    %rbx,%rdi
  400b66:	48 89 de             	mov    %rbx,%rsi
  400b69:	ba 00 80 00 00       	mov    $0x8000,%edx
  400b6e:	48 8d 4c 24 10       	lea    0x10(%rsp),%rcx
  400b73:	e8 18 10 00 00       	callq  401b90 <crypto_stream_ecb>
  400b78:	41 ff c7             	inc    %r15d
  400b7b:	41 81 ff 88 13 00 00 	cmp    $0x1388,%r15d
  400b82:	7c df                	jl     400b63 <main+0x53>
  400b84:	0f 31                	rdtsc  
  400b86:	48 c1 e2 20          	shl    $0x20,%rdx
  400b8a:	48 0b c2             	or     %rdx,%rax
  400b8d:	48 89 c1             	mov    %rax,%rcx
  400b90:	33 c0                	xor    %eax,%eax
  400b92:	49 89 df             	mov    %rbx,%r15
  400b95:	89 c3                	mov    %eax,%ebx
  400b97:	49 89 ce             	mov    %rcx,%r14
  400b9a:	4c 89 ff             	mov    %r15,%rdi
  400b9d:	4c 89 fe             	mov    %r15,%rsi
  400ba0:	ba 00 80 00 00       	mov    $0x8000,%edx
  400ba5:	48 8d 4c 24 10       	lea    0x10(%rsp),%rcx
  400baa:	e8 e1 0f 00 00       	callq  401b90 <crypto_stream_ecb>
  400baf:	ff c3                	inc    %ebx
  400bb1:	81 fb a8 61 00 00    	cmp    $0x61a8,%ebx
  400bb7:	7c e1                	jl     400b9a <main+0x8a>
  400bb9:	4c 89 f1             	mov    %r14,%rcx
  400bbc:	4c 89 fb             	mov    %r15,%rbx
  400bbf:	0f 31                	rdtsc  
  400bc1:	48 c1 e2 20          	shl    $0x20,%rdx
  400bc5:	48 0b c2             	or     %rdx,%rax
  400bc8:	48 2b c1             	sub    %rcx,%rax
  400bcb:	c5 f9 57 c0          	vxorpd %xmm0,%xmm0,%xmm0
  400bcf:	bf f0 f9 40 00       	mov    $0x40f9f0,%edi
  400bd4:	62 f1 ff 08 7b c0    	vcvtusi2sd %rax,%xmm0,%xmm0
  400bda:	b8 01 00 00 00       	mov    $0x1,%eax
  400bdf:	c5 fb 5e 0d 01 ee 00 	vdivsd 0xee01(%rip),%xmm0,%xmm1        # 40f9e8 <key.425.0.0.1+0x18>
  400be6:	00 
  400be7:	c5 f3 59 05 f1 ed 00 	vmulsd 0xedf1(%rip),%xmm1,%xmm0        # 40f9e0 <key.425.0.0.1+0x10>
  400bee:	00 
  400bef:	e8 5c fd ff ff       	callq  400950 <printf@plt>
  400bf4:	bf 04 fa 40 00       	mov    $0x40fa04,%edi
  400bf9:	be 10 fa 40 00       	mov    $0x40fa10,%esi
  400bfe:	e8 8d fd ff ff       	callq  400990 <fopen@plt>
  400c03:	48 89 df             	mov    %rbx,%rdi
  400c06:	be 00 80 00 00       	mov    $0x8000,%esi
  400c0b:	ba 01 00 00 00       	mov    $0x1,%edx
  400c10:	48 89 c1             	mov    %rax,%rcx
  400c13:	e8 a8 fd ff ff       	callq  4009c0 <fwrite@plt>
  400c18:	33 c0                	xor    %eax,%eax
  400c1a:	48 83 c4 68          	add    $0x68,%rsp
  400c1e:	5b                   	pop    %rbx
  400c1f:	41 5f                	pop    %r15
  400c21:	41 5e                	pop    %r14
  400c23:	48 89 ec             	mov    %rbp,%rsp
  400c26:	5d                   	pop    %rbp
  400c27:	c3                   	retq   
  400c28:	0f 1f 84 00 00 00 00 	nopl   0x0(%rax,%rax,1)
  400c2f:	00 

0000000000400c30 <Key_Schedule>:
  400c30:	e9 0b 00 00 00       	jmpq   400c40 <key80>
  400c35:	0f 1f 40 00          	nopl   0x0(%rax)
  400c39:	0f 1f 80 00 00 00 00 	nopl   0x0(%rax)

0000000000400c40 <key80>:
  400c40:	41 55                	push   %r13
  400c42:	41 56                	push   %r14
  400c44:	48 89 f8             	mov    %rdi,%rax
  400c47:	49 89 f0             	mov    %rsi,%r8
  400c4a:	0f b7 50 02          	movzwl 0x2(%rax),%edx
  400c4e:	41 89 d5             	mov    %edx,%r13d
  400c51:	41 f7 d5             	not    %r13d
  400c54:	41 89 d2             	mov    %edx,%r10d
  400c57:	0f b7 48 04          	movzwl 0x4(%rax),%ecx
  400c5b:	41 89 ce             	mov    %ecx,%r14d
  400c5e:	0f b7 70 06          	movzwl 0x6(%rax),%esi
  400c62:	44 0b ee             	or     %esi,%r13d
  400c65:	0f b7 38             	movzwl (%rax),%edi
  400c68:	44 33 f6             	xor    %esi,%r14d
  400c6b:	c4 62 68 f2 df       	andn   %edi,%edx,%r11d
  400c70:	44 33 ef             	xor    %edi,%r13d
  400c73:	45 33 de             	xor    %r14d,%r11d
  400c76:	45 23 f5             	and    %r13d,%r14d
  400c79:	44 33 d1             	xor    %ecx,%r10d
  400c7c:	45 89 e9             	mov    %r13d,%r9d
  400c7f:	45 33 f2             	xor    %r10d,%r14d
  400c82:	44 33 c9             	xor    %ecx,%r9d
  400c85:	0f b7 40 08          	movzwl 0x8(%rax),%eax
  400c89:	45 0b d3             	or     %r11d,%r10d
  400c8c:	66 41 89 38          	mov    %di,(%r8)
  400c90:	81 e7 f0 ff 00 00    	and    $0xfff0,%edi
  400c96:	66 41 89 70 06       	mov    %si,0x6(%r8)
  400c9b:	81 e6 f0 ff 00 00    	and    $0xfff0,%esi
  400ca1:	41 83 e3 0f          	and    $0xf,%r11d
  400ca5:	41 83 e6 0f          	and    $0xf,%r14d
  400ca9:	66 41 89 50 02       	mov    %dx,0x2(%r8)
  400cae:	41 83 e1 0f          	and    $0xf,%r9d
  400cb2:	45 33 ea             	xor    %r10d,%r13d
  400cb5:	41 0b fb             	or     %r11d,%edi
  400cb8:	41 0b f6             	or     %r14d,%esi
  400cbb:	81 e2 f0 ff 00 00    	and    $0xfff0,%edx
  400cc1:	66 41 89 48 04       	mov    %cx,0x4(%r8)
  400cc6:	83 e1 f0             	and    $0xfffffff0,%ecx
  400cc9:	41 83 e5 0f          	and    $0xf,%r13d
  400ccd:	41 89 f2             	mov    %esi,%r10d
  400cd0:	41 0b d1             	or     %r9d,%edx
  400cd3:	41 89 f9             	mov    %edi,%r9d
  400cd6:	66 41 c1 c2 0c       	rol    $0xc,%r10w
  400cdb:	41 0b cd             	or     %r13d,%ecx
  400cde:	66 41 c1 c1 08       	rol    $0x8,%r9w
  400ce3:	41 89 ce             	mov    %ecx,%r14d
  400ce6:	45 0f b7 da          	movzwl %r10w,%r11d
  400cea:	41 f7 d6             	not    %r14d
  400ced:	45 0f b7 c9          	movzwl %r9w,%r9d
  400cf1:	41 33 c3             	xor    %r11d,%eax
  400cf4:	41 33 d1             	xor    %r9d,%edx
  400cf7:	41 89 f1             	mov    %esi,%r9d
  400cfa:	33 15 e0 13 21 00    	xor    0x2113e0(%rip),%edx        # 6120e0 <RC>
  400d00:	44 0b f0             	or     %eax,%r14d
  400d03:	c4 62 70 f2 da       	andn   %edx,%ecx,%r11d
  400d08:	44 33 c8             	xor    %eax,%r9d
  400d0b:	44 33 f2             	xor    %edx,%r14d
  400d0e:	41 89 ca             	mov    %ecx,%r10d
  400d11:	45 33 d9             	xor    %r9d,%r11d
  400d14:	45 23 ce             	and    %r14d,%r9d
  400d17:	41 89 f5             	mov    %esi,%r13d
  400d1a:	44 33 d6             	xor    %esi,%r10d
  400d1d:	66 41 89 50 08       	mov    %dx,0x8(%r8)
  400d22:	83 e2 f0             	and    $0xfffffff0,%edx
  400d25:	45 33 ee             	xor    %r14d,%r13d
  400d28:	45 33 ca             	xor    %r10d,%r9d
  400d2b:	45 0b d3             	or     %r11d,%r10d
  400d2e:	41 83 e3 0f          	and    $0xf,%r11d
  400d32:	66 41 89 48 0a       	mov    %cx,0xa(%r8)
  400d37:	41 83 e5 0f          	and    $0xf,%r13d
  400d3b:	66 41 89 40 0e       	mov    %ax,0xe(%r8)
  400d40:	25 f0 ff 00 00       	and    $0xfff0,%eax
  400d45:	41 0b d3             	or     %r11d,%edx
  400d48:	41 83 e1 0f          	and    $0xf,%r9d
  400d4c:	81 e1 f0 ff 00 00    	and    $0xfff0,%ecx
  400d52:	45 33 f2             	xor    %r10d,%r14d
  400d55:	41 0b c1             	or     %r9d,%eax
  400d58:	41 0b cd             	or     %r13d,%ecx
  400d5b:	41 89 d5             	mov    %edx,%r13d
  400d5e:	41 83 e6 0f          	and    $0xf,%r14d
  400d62:	66 41 89 70 0c       	mov    %si,0xc(%r8)
  400d67:	83 e6 f0             	and    $0xfffffff0,%esi
  400d6a:	66 41 c1 c5 08       	rol    $0x8,%r13w
  400d6f:	41 89 c2             	mov    %eax,%r10d
  400d72:	66 41 c1 c2 0c       	rol    $0xc,%r10w
  400d77:	41 0b f6             	or     %r14d,%esi
  400d7a:	45 0f b7 cd          	movzwl %r13w,%r9d
  400d7e:	45 0f b7 da          	movzwl %r10w,%r11d
  400d82:	41 33 c9             	xor    %r9d,%ecx
  400d85:	41 89 f1             	mov    %esi,%r9d
  400d88:	41 33 fb             	xor    %r11d,%edi
  400d8b:	41 f7 d1             	not    %r9d
  400d8e:	41 89 fd             	mov    %edi,%r13d
  400d91:	33 0d 4d 13 21 00    	xor    0x21134d(%rip),%ecx        # 6120e4 <RC+0x4>
  400d97:	44 0b cf             	or     %edi,%r9d
  400d9a:	c4 62 48 f2 f1       	andn   %ecx,%esi,%r14d
  400d9f:	44 33 e8             	xor    %eax,%r13d
  400da2:	44 33 c9             	xor    %ecx,%r9d
  400da5:	41 89 f2             	mov    %esi,%r10d
  400da8:	45 33 f5             	xor    %r13d,%r14d
  400dab:	45 23 e9             	and    %r9d,%r13d
  400dae:	44 33 d0             	xor    %eax,%r10d
  400db1:	41 89 c3             	mov    %eax,%r11d
  400db4:	45 33 ea             	xor    %r10d,%r13d
  400db7:	45 33 d9             	xor    %r9d,%r11d
  400dba:	66 41 89 78 16       	mov    %di,0x16(%r8)
  400dbf:	83 e7 f0             	and    $0xfffffff0,%edi
  400dc2:	41 83 e5 0f          	and    $0xf,%r13d
  400dc6:	45 0b d6             	or     %r14d,%r10d
  400dc9:	66 41 89 48 10       	mov    %cx,0x10(%r8)
  400dce:	83 e1 f0             	and    $0xfffffff0,%ecx
  400dd1:	41 83 e6 0f          	and    $0xf,%r14d
  400dd5:	41 0b fd             	or     %r13d,%edi
  400dd8:	66 41 89 70 12       	mov    %si,0x12(%r8)
  400ddd:	41 83 e3 0f          	and    $0xf,%r11d
  400de1:	45 33 ca             	xor    %r10d,%r9d
  400de4:	41 0b ce             	or     %r14d,%ecx
  400de7:	41 89 fa             	mov    %edi,%r10d
  400dea:	83 e6 f0             	and    $0xfffffff0,%esi
  400ded:	66 41 89 40 14       	mov    %ax,0x14(%r8)
  400df2:	83 e0 f0             	and    $0xfffffff0,%eax
  400df5:	66 41 c1 c2 0c       	rol    $0xc,%r10w
  400dfa:	41 83 e1 0f          	and    $0xf,%r9d
  400dfe:	41 0b f3             	or     %r11d,%esi
  400e01:	41 89 cb             	mov    %ecx,%r11d
  400e04:	66 41 c1 c3 08       	rol    $0x8,%r11w
  400e09:	41 0b c1             	or     %r9d,%eax
  400e0c:	45 0f b7 ca          	movzwl %r10w,%r9d
  400e10:	41 89 fd             	mov    %edi,%r13d
  400e13:	41 33 d1             	xor    %r9d,%edx
  400e16:	44 33 e8             	xor    %eax,%r13d
  400e19:	45 0f b7 cb          	movzwl %r11w,%r9d
  400e1d:	41 89 fb             	mov    %edi,%r11d
  400e20:	41 33 f1             	xor    %r9d,%esi
  400e23:	41 89 c1             	mov    %eax,%r9d
  400e26:	41 f7 d1             	not    %r9d
  400e29:	44 33 da             	xor    %edx,%r11d
  400e2c:	33 35 b6 12 21 00    	xor    0x2112b6(%rip),%esi        # 6120e8 <RC+0x8>
  400e32:	44 0b ca             	or     %edx,%r9d
  400e35:	c4 62 78 f2 f6       	andn   %esi,%eax,%r14d
  400e3a:	44 33 ce             	xor    %esi,%r9d
  400e3d:	45 33 f3             	xor    %r11d,%r14d
  400e40:	45 23 d9             	and    %r9d,%r11d
  400e43:	45 33 dd             	xor    %r13d,%r11d
  400e46:	41 89 fa             	mov    %edi,%r10d
  400e49:	66 41 89 50 1e       	mov    %dx,0x1e(%r8)
  400e4e:	81 e2 f0 ff 00 00    	and    $0xfff0,%edx
  400e54:	41 83 e3 0f          	and    $0xf,%r11d
  400e58:	45 33 d1             	xor    %r9d,%r10d
  400e5b:	66 41 89 70 18       	mov    %si,0x18(%r8)
  400e60:	81 e6 f0 ff 00 00    	and    $0xfff0,%esi
  400e66:	45 0b ee             	or     %r14d,%r13d
  400e69:	41 83 e6 0f          	and    $0xf,%r14d
  400e6d:	41 0b d3             	or     %r11d,%edx
  400e70:	41 83 e2 0f          	and    $0xf,%r10d
  400e74:	66 41 89 40 1a       	mov    %ax,0x1a(%r8)
  400e79:	45 33 cd             	xor    %r13d,%r9d
  400e7c:	41 0b f6             	or     %r14d,%esi
  400e7f:	41 89 d5             	mov    %edx,%r13d
  400e82:	83 e0 f0             	and    $0xfffffff0,%eax
  400e85:	41 83 e1 0f          	and    $0xf,%r9d
  400e89:	66 41 89 78 1c       	mov    %di,0x1c(%r8)
  400e8e:	83 e7 f0             	and    $0xfffffff0,%edi
  400e91:	66 41 c1 c5 0c       	rol    $0xc,%r13w
  400e96:	41 0b c2             	or     %r10d,%eax
  400e99:	41 89 f2             	mov    %esi,%r10d
  400e9c:	41 0b f9             	or     %r9d,%edi
  400e9f:	45 0f b7 cd          	movzwl %r13w,%r9d
  400ea3:	41 89 fe             	mov    %edi,%r14d
  400ea6:	66 41 c1 c2 08       	rol    $0x8,%r10w
  400eab:	41 33 c9             	xor    %r9d,%ecx
  400eae:	45 0f b7 ca          	movzwl %r10w,%r9d
  400eb2:	41 f7 d6             	not    %r14d
  400eb5:	41 33 c1             	xor    %r9d,%eax
  400eb8:	41 89 d2             	mov    %edx,%r10d
  400ebb:	33 05 2b 12 21 00    	xor    0x21122b(%rip),%eax        # 6120ec <RC+0xc>
  400ec1:	44 0b f1             	or     %ecx,%r14d
  400ec4:	c4 62 40 f2 e8       	andn   %eax,%edi,%r13d
  400ec9:	44 33 d1             	xor    %ecx,%r10d
  400ecc:	44 33 f0             	xor    %eax,%r14d
  400ecf:	41 89 fb             	mov    %edi,%r11d
  400ed2:	45 33 ea             	xor    %r10d,%r13d
  400ed5:	45 23 d6             	and    %r14d,%r10d
  400ed8:	44 33 da             	xor    %edx,%r11d
  400edb:	41 89 d1             	mov    %edx,%r9d
  400ede:	45 33 d3             	xor    %r11d,%r10d
  400ee1:	45 33 ce             	xor    %r14d,%r9d
  400ee4:	66 41 89 40 20       	mov    %ax,0x20(%r8)
  400ee9:	25 f0 ff 00 00       	and    $0xfff0,%eax
  400eee:	66 41 89 48 26       	mov    %cx,0x26(%r8)
  400ef3:	81 e1 f0 ff 00 00    	and    $0xfff0,%ecx
  400ef9:	45 0b dd             	or     %r13d,%r11d
  400efc:	41 83 e5 0f          	and    $0xf,%r13d
  400f00:	41 83 e2 0f          	and    $0xf,%r10d
  400f04:	41 83 e1 0f          	and    $0xf,%r9d
  400f08:	66 41 89 78 22       	mov    %di,0x22(%r8)
  400f0d:	45 33 f3             	xor    %r11d,%r14d
  400f10:	41 0b c5             	or     %r13d,%eax
  400f13:	41 0b ca             	or     %r10d,%ecx
  400f16:	81 e7 f0 ff 00 00    	and    $0xfff0,%edi
  400f1c:	41 83 e6 0f          	and    $0xf,%r14d
  400f20:	66 41 89 50 24       	mov    %dx,0x24(%r8)
  400f25:	83 e2 f0             	and    $0xfffffff0,%edx
  400f28:	41 89 cb             	mov    %ecx,%r11d
  400f2b:	41 0b f9             	or     %r9d,%edi
  400f2e:	41 89 c1             	mov    %eax,%r9d
  400f31:	41 0b d6             	or     %r14d,%edx
  400f34:	66 41 c1 c3 0c       	rol    $0xc,%r11w
  400f39:	41 89 ce             	mov    %ecx,%r14d
  400f3c:	66 41 c1 c1 08       	rol    $0x8,%r9w
  400f41:	45 0f b7 d3          	movzwl %r11w,%r10d
  400f45:	45 0f b7 e9          	movzwl %r9w,%r13d
  400f49:	41 89 d1             	mov    %edx,%r9d
  400f4c:	41 33 f2             	xor    %r10d,%esi
  400f4f:	41 33 fd             	xor    %r13d,%edi
  400f52:	41 f7 d1             	not    %r9d
  400f55:	41 89 cd             	mov    %ecx,%r13d
  400f58:	33 3d 92 11 21 00    	xor    0x211192(%rip),%edi        # 6120f0 <RC+0x10>
  400f5e:	44 0b ce             	or     %esi,%r9d
  400f61:	c4 62 68 f2 df       	andn   %edi,%edx,%r11d
  400f66:	44 33 ee             	xor    %esi,%r13d
  400f69:	44 33 cf             	xor    %edi,%r9d
  400f6c:	41 89 d2             	mov    %edx,%r10d
  400f6f:	45 33 dd             	xor    %r13d,%r11d
  400f72:	45 23 e9             	and    %r9d,%r13d
  400f75:	44 33 d1             	xor    %ecx,%r10d
  400f78:	45 33 f1             	xor    %r9d,%r14d
  400f7b:	45 33 ea             	xor    %r10d,%r13d
  400f7e:	45 0b d3             	or     %r11d,%r10d
  400f81:	66 41 89 70 2e       	mov    %si,0x2e(%r8)
  400f86:	83 e6 f0             	and    $0xfffffff0,%esi
  400f89:	41 83 e5 0f          	and    $0xf,%r13d
  400f8d:	41 83 e3 0f          	and    $0xf,%r11d
  400f91:	66 41 89 78 28       	mov    %di,0x28(%r8)
  400f96:	83 e7 f0             	and    $0xfffffff0,%edi
  400f99:	41 0b f5             	or     %r13d,%esi
  400f9c:	41 83 e6 0f          	and    $0xf,%r14d
  400fa0:	66 41 89 50 2a       	mov    %dx,0x2a(%r8)
  400fa5:	45 33 ca             	xor    %r10d,%r9d
  400fa8:	41 0b fb             	or     %r11d,%edi
  400fab:	41 89 f2             	mov    %esi,%r10d
  400fae:	83 e2 f0             	and    $0xfffffff0,%edx
  400fb1:	41 83 e1 0f          	and    $0xf,%r9d
  400fb5:	66 41 89 48 2c       	mov    %cx,0x2c(%r8)
  400fba:	83 e1 f0             	and    $0xfffffff0,%ecx
  400fbd:	66 41 c1 c2 0c       	rol    $0xc,%r10w
  400fc2:	41 0b d6             	or     %r14d,%edx
  400fc5:	41 89 fe             	mov    %edi,%r14d
  400fc8:	41 0b c9             	or     %r9d,%ecx
  400fcb:	45 0f b7 ca          	movzwl %r10w,%r9d
  400fcf:	41 89 ca             	mov    %ecx,%r10d
  400fd2:	66 41 c1 c6 08       	rol    $0x8,%r14w
  400fd7:	41 33 c1             	xor    %r9d,%eax
  400fda:	45 0f b7 ce          	movzwl %r14w,%r9d
  400fde:	41 89 f6             	mov    %esi,%r14d
  400fe1:	41 33 d1             	xor    %r9d,%edx
  400fe4:	41 89 c9             	mov    %ecx,%r9d
  400fe7:	41 f7 d1             	not    %r9d
  400fea:	44 33 f0             	xor    %eax,%r14d
  400fed:	33 15 01 11 21 00    	xor    0x211101(%rip),%edx        # 6120f4 <RC+0x14>
  400ff3:	44 0b c8             	or     %eax,%r9d
  400ff6:	c4 62 70 f2 da       	andn   %edx,%ecx,%r11d
  400ffb:	44 33 ca             	xor    %edx,%r9d
  400ffe:	45 33 de             	xor    %r14d,%r11d
  401001:	45 23 f1             	and    %r9d,%r14d
  401004:	44 33 d6             	xor    %esi,%r10d
  401007:	41 89 f5             	mov    %esi,%r13d
  40100a:	45 33 f2             	xor    %r10d,%r14d
  40100d:	45 33 e9             	xor    %r9d,%r13d
  401010:	66 41 89 40 36       	mov    %ax,0x36(%r8)
  401015:	83 e0 f0             	and    $0xfffffff0,%eax
  401018:	41 83 e6 0f          	and    $0xf,%r14d
  40101c:	45 0b d3             	or     %r11d,%r10d
  40101f:	66 41 89 50 30       	mov    %dx,0x30(%r8)
  401024:	81 e2 f0 ff 00 00    	and    $0xfff0,%edx
  40102a:	41 83 e3 0f          	and    $0xf,%r11d
  40102e:	41 0b c6             	or     %r14d,%eax
  401031:	66 41 89 48 32       	mov    %cx,0x32(%r8)
  401036:	41 83 e5 0f          	and    $0xf,%r13d
  40103a:	45 33 ca             	xor    %r10d,%r9d
  40103d:	41 0b d3             	or     %r11d,%edx
  401040:	41 89 c2             	mov    %eax,%r10d
  401043:	83 e1 f0             	and    $0xfffffff0,%ecx
  401046:	66 41 89 70 34       	mov    %si,0x34(%r8)
  40104b:	83 e6 f0             	and    $0xfffffff0,%esi
  40104e:	66 41 c1 c2 0c       	rol    $0xc,%r10w
  401053:	41 83 e1 0f          	and    $0xf,%r9d
  401057:	41 0b cd             	or     %r13d,%ecx
  40105a:	41 89 d5             	mov    %edx,%r13d
  40105d:	66 41 c1 c5 08       	rol    $0x8,%r13w
  401062:	41 0b f1             	or     %r9d,%esi
  401065:	45 0f b7 ca          	movzwl %r10w,%r9d
  401069:	41 89 f2             	mov    %esi,%r10d
  40106c:	41 33 f9             	xor    %r9d,%edi
  40106f:	44 33 d0             	xor    %eax,%r10d
  401072:	45 0f b7 cd          	movzwl %r13w,%r9d
  401076:	41 89 c5             	mov    %eax,%r13d
  401079:	41 33 c9             	xor    %r9d,%ecx
  40107c:	41 89 f1             	mov    %esi,%r9d
  40107f:	41 f7 d1             	not    %r9d
  401082:	44 33 ef             	xor    %edi,%r13d
  401085:	33 0d 6d 10 21 00    	xor    0x21106d(%rip),%ecx        # 6120f8 <RC+0x18>
  40108b:	44 0b cf             	or     %edi,%r9d
  40108e:	c4 62 48 f2 f1       	andn   %ecx,%esi,%r14d
  401093:	44 33 c9             	xor    %ecx,%r9d
  401096:	45 33 f5             	xor    %r13d,%r14d
  401099:	45 23 e9             	and    %r9d,%r13d
  40109c:	45 33 ea             	xor    %r10d,%r13d
  40109f:	41 89 c3             	mov    %eax,%r11d
  4010a2:	66 41 89 78 3e       	mov    %di,0x3e(%r8)
  4010a7:	81 e7 f0 ff 00 00    	and    $0xfff0,%edi
  4010ad:	41 83 e5 0f          	and    $0xf,%r13d
  4010b1:	45 33 d9             	xor    %r9d,%r11d
  4010b4:	66 41 89 48 38       	mov    %cx,0x38(%r8)
  4010b9:	81 e1 f0 ff 00 00    	and    $0xfff0,%ecx
  4010bf:	45 0b d6             	or     %r14d,%r10d
  4010c2:	41 83 e6 0f          	and    $0xf,%r14d
  4010c6:	41 0b fd             	or     %r13d,%edi
  4010c9:	41 83 e3 0f          	and    $0xf,%r11d
  4010cd:	66 41 89 70 3a       	mov    %si,0x3a(%r8)
  4010d2:	45 33 ca             	xor    %r10d,%r9d
  4010d5:	41 0b ce             	or     %r14d,%ecx
  4010d8:	41 89 fa             	mov    %edi,%r10d
  4010db:	81 e6 f0 ff 00 00    	and    $0xfff0,%esi
  4010e1:	41 83 e1 0f          	and    $0xf,%r9d
  4010e5:	66 41 89 40 3c       	mov    %ax,0x3c(%r8)
  4010ea:	83 e0 f0             	and    $0xfffffff0,%eax
  4010ed:	66 41 c1 c2 0c       	rol    $0xc,%r10w
  4010f2:	41 0b f3             	or     %r11d,%esi
  4010f5:	41 89 cb             	mov    %ecx,%r11d
  4010f8:	41 0b c1             	or     %r9d,%eax
  4010fb:	45 0f b7 ca          	movzwl %r10w,%r9d
  4010ff:	41 89 c5             	mov    %eax,%r13d
  401102:	66 41 c1 c3 08       	rol    $0x8,%r11w
  401107:	41 33 d1             	xor    %r9d,%edx
  40110a:	45 0f b7 cb          	movzwl %r11w,%r9d
  40110e:	41 89 fb             	mov    %edi,%r11d
  401111:	41 33 f1             	xor    %r9d,%esi
  401114:	41 89 c1             	mov    %eax,%r9d
  401117:	41 f7 d1             	not    %r9d
  40111a:	44 33 da             	xor    %edx,%r11d
  40111d:	33 35 d9 0f 21 00    	xor    0x210fd9(%rip),%esi        # 6120fc <RC+0x1c>
  401123:	44 0b ca             	or     %edx,%r9d
  401126:	c4 62 78 f2 f6       	andn   %esi,%eax,%r14d
  40112b:	44 33 ce             	xor    %esi,%r9d
  40112e:	45 33 f3             	xor    %r11d,%r14d
  401131:	45 23 d9             	and    %r9d,%r11d
  401134:	44 33 ef             	xor    %edi,%r13d
  401137:	41 89 fa             	mov    %edi,%r10d
  40113a:	45 33 dd             	xor    %r13d,%r11d
  40113d:	45 33 d1             	xor    %r9d,%r10d
  401140:	66 41 89 50 46       	mov    %dx,0x46(%r8)
  401145:	83 e2 f0             	and    $0xfffffff0,%edx
  401148:	41 83 e3 0f          	and    $0xf,%r11d
  40114c:	45 0b ee             	or     %r14d,%r13d
  40114f:	66 41 89 70 40       	mov    %si,0x40(%r8)
  401154:	83 e6 f0             	and    $0xfffffff0,%esi
  401157:	41 83 e6 0f          	and    $0xf,%r14d
  40115b:	41 0b d3             	or     %r11d,%edx
  40115e:	66 41 89 40 42       	mov    %ax,0x42(%r8)
  401163:	41 83 e2 0f          	and    $0xf,%r10d
  401167:	45 33 cd             	xor    %r13d,%r9d
  40116a:	41 0b f6             	or     %r14d,%esi
  40116d:	41 89 d5             	mov    %edx,%r13d
  401170:	25 f0 ff 00 00       	and    $0xfff0,%eax
  401175:	66 41 89 78 44       	mov    %di,0x44(%r8)
  40117a:	83 e7 f0             	and    $0xfffffff0,%edi
  40117d:	66 41 c1 c5 0c       	rol    $0xc,%r13w
  401182:	41 83 e1 0f          	and    $0xf,%r9d
  401186:	41 0b c2             	or     %r10d,%eax
  401189:	41 89 f2             	mov    %esi,%r10d
  40118c:	66 41 c1 c2 08       	rol    $0x8,%r10w
  401191:	41 0b f9             	or     %r9d,%edi
  401194:	45 0f b7 cd          	movzwl %r13w,%r9d
  401198:	41 89 fe             	mov    %edi,%r14d
  40119b:	41 33 c9             	xor    %r9d,%ecx
  40119e:	41 f7 d6             	not    %r14d
  4011a1:	45 0f b7 ca          	movzwl %r10w,%r9d
  4011a5:	41 89 d2             	mov    %edx,%r10d
  4011a8:	41 33 c1             	xor    %r9d,%eax
  4011ab:	44 0b f1             	or     %ecx,%r14d
  4011ae:	33 05 4c 0f 21 00    	xor    0x210f4c(%rip),%eax        # 612100 <RC+0x20>
  4011b4:	44 33 d1             	xor    %ecx,%r10d
  4011b7:	c4 62 40 f2 e8       	andn   %eax,%edi,%r13d
  4011bc:	44 33 f0             	xor    %eax,%r14d
  4011bf:	41 89 fb             	mov    %edi,%r11d
  4011c2:	45 33 ea             	xor    %r10d,%r13d
  4011c5:	45 23 d6             	and    %r14d,%r10d
  4011c8:	44 33 da             	xor    %edx,%r11d
  4011cb:	41 89 d1             	mov    %edx,%r9d
  4011ce:	45 33 d3             	xor    %r11d,%r10d
  4011d1:	66 41 89 40 48       	mov    %ax,0x48(%r8)
  4011d6:	83 e0 f0             	and    $0xfffffff0,%eax
  4011d9:	66 41 89 48 4e       	mov    %cx,0x4e(%r8)
  4011de:	83 e1 f0             	and    $0xfffffff0,%ecx
  4011e1:	45 33 ce             	xor    %r14d,%r9d
  4011e4:	45 0b dd             	or     %r13d,%r11d
  4011e7:	41 83 e5 0f          	and    $0xf,%r13d
  4011eb:	41 83 e2 0f          	and    $0xf,%r10d
  4011ef:	66 41 89 78 4a       	mov    %di,0x4a(%r8)
  4011f4:	41 83 e1 0f          	and    $0xf,%r9d
  4011f8:	45 33 f3             	xor    %r11d,%r14d
  4011fb:	41 0b c5             	or     %r13d,%eax
  4011fe:	41 0b ca             	or     %r10d,%ecx
  401201:	83 e7 f0             	and    $0xfffffff0,%edi
  401204:	66 41 89 50 4c       	mov    %dx,0x4c(%r8)
  401209:	83 e2 f0             	and    $0xfffffff0,%edx
  40120c:	41 83 e6 0f          	and    $0xf,%r14d
  401210:	41 89 cb             	mov    %ecx,%r11d
  401213:	41 0b f9             	or     %r9d,%edi
  401216:	41 89 c1             	mov    %eax,%r9d
  401219:	66 41 c1 c3 0c       	rol    $0xc,%r11w
  40121e:	41 0b d6             	or     %r14d,%edx
  401221:	66 41 c1 c1 08       	rol    $0x8,%r9w
  401226:	41 89 d6             	mov    %edx,%r14d
  401229:	45 0f b7 d3          	movzwl %r11w,%r10d
  40122d:	41 f7 d6             	not    %r14d
  401230:	45 0f b7 e9          	movzwl %r9w,%r13d
  401234:	41 33 f2             	xor    %r10d,%esi
  401237:	41 33 fd             	xor    %r13d,%edi
  40123a:	41 89 cd             	mov    %ecx,%r13d
  40123d:	33 3d c1 0e 21 00    	xor    0x210ec1(%rip),%edi        # 612104 <RC+0x24>
  401243:	44 0b f6             	or     %esi,%r14d
  401246:	c4 62 68 f2 df       	andn   %edi,%edx,%r11d
  40124b:	44 33 ee             	xor    %esi,%r13d
  40124e:	44 33 f7             	xor    %edi,%r14d
  401251:	41 89 d2             	mov    %edx,%r10d
  401254:	45 33 dd             	xor    %r13d,%r11d
  401257:	45 23 ee             	and    %r14d,%r13d
  40125a:	44 33 d1             	xor    %ecx,%r10d
  40125d:	41 89 c9             	mov    %ecx,%r9d
  401260:	45 33 ea             	xor    %r10d,%r13d
  401263:	45 0b d3             	or     %r11d,%r10d
  401266:	66 41 89 70 56       	mov    %si,0x56(%r8)
  40126b:	81 e6 f0 ff 00 00    	and    $0xfff0,%esi
  401271:	41 83 e5 0f          	and    $0xf,%r13d
  401275:	45 33 ce             	xor    %r14d,%r9d
  401278:	41 0b f5             	or     %r13d,%esi
  40127b:	45 33 f2             	xor    %r10d,%r14d
  40127e:	41 89 f2             	mov    %esi,%r10d
  401281:	41 83 e3 0f          	and    $0xf,%r11d
  401285:	66 41 89 78 50       	mov    %di,0x50(%r8)
  40128a:	81 e7 f0 ff 00 00    	and    $0xfff0,%edi
  401290:	66 41 c1 c2 0c       	rol    $0xc,%r10w
  401295:	41 0b fb             	or     %r11d,%edi
  401298:	66 41 89 48 54       	mov    %cx,0x54(%r8)
  40129d:	83 e1 f0             	and    $0xfffffff0,%ecx
  4012a0:	45 0f b7 da          	movzwl %r10w,%r11d
  4012a4:	41 83 e6 0f          	and    $0xf,%r14d
  4012a8:	66 41 89 50 52       	mov    %dx,0x52(%r8)
  4012ad:	41 0b ce             	or     %r14d,%ecx
  4012b0:	41 33 c3             	xor    %r11d,%eax
  4012b3:	41 89 fb             	mov    %edi,%r11d
  4012b6:	81 e2 f0 ff 00 00    	and    $0xfff0,%edx
  4012bc:	66 41 c1 c3 08       	rol    $0x8,%r11w
  4012c1:	41 83 e1 0f          	and    $0xf,%r9d
  4012c5:	45 0f b7 f3          	movzwl %r11w,%r14d
  4012c9:	41 0b d1             	or     %r9d,%edx
  4012cc:	41 89 cd             	mov    %ecx,%r13d
  4012cf:	41 33 d6             	xor    %r14d,%edx
  4012d2:	41 f7 d5             	not    %r13d
  4012d5:	41 89 f6             	mov    %esi,%r14d
  4012d8:	33 15 2a 0e 21 00    	xor    0x210e2a(%rip),%edx        # 612108 <RC+0x28>
  4012de:	44 0b e8             	or     %eax,%r13d
  4012e1:	c4 62 70 f2 da       	andn   %edx,%ecx,%r11d
  4012e6:	44 33 f0             	xor    %eax,%r14d
  4012e9:	44 33 ea             	xor    %edx,%r13d
  4012ec:	41 89 c9             	mov    %ecx,%r9d
  4012ef:	45 33 de             	xor    %r14d,%r11d
  4012f2:	45 23 f5             	and    %r13d,%r14d
  4012f5:	44 33 ce             	xor    %esi,%r9d
  4012f8:	41 89 f2             	mov    %esi,%r10d
  4012fb:	45 33 f1             	xor    %r9d,%r14d
  4012fe:	45 33 d5             	xor    %r13d,%r10d
  401301:	66 41 89 50 58       	mov    %dx,0x58(%r8)
  401306:	83 e2 f0             	and    $0xfffffff0,%edx
  401309:	66 41 89 40 5e       	mov    %ax,0x5e(%r8)
  40130e:	25 f0 ff 00 00       	and    $0xfff0,%eax
  401313:	45 0b cb             	or     %r11d,%r9d
  401316:	41 83 e3 0f          	and    $0xf,%r11d
  40131a:	41 83 e6 0f          	and    $0xf,%r14d
  40131e:	41 83 e2 0f          	and    $0xf,%r10d
  401322:	66 41 89 48 5a       	mov    %cx,0x5a(%r8)
  401327:	45 33 e9             	xor    %r9d,%r13d
  40132a:	41 0b d3             	or     %r11d,%edx
  40132d:	41 0b c6             	or     %r14d,%eax
  401330:	81 e1 f0 ff 00 00    	and    $0xfff0,%ecx
  401336:	41 83 e5 0f          	and    $0xf,%r13d
  40133a:	66 41 89 70 5c       	mov    %si,0x5c(%r8)
  40133f:	83 e6 f0             	and    $0xfffffff0,%esi
  401342:	41 89 c1             	mov    %eax,%r9d
  401345:	41 0b ca             	or     %r10d,%ecx
  401348:	41 89 d2             	mov    %edx,%r10d
  40134b:	41 0b f5             	or     %r13d,%esi
  40134e:	66 41 c1 c1 0c       	rol    $0xc,%r9w
  401353:	41 89 f6             	mov    %esi,%r14d
  401356:	66 41 c1 c2 08       	rol    $0x8,%r10w
  40135b:	41 f7 d6             	not    %r14d
  40135e:	45 0f b7 d9          	movzwl %r9w,%r11d
  401362:	45 0f b7 ca          	movzwl %r10w,%r9d
  401366:	41 33 fb             	xor    %r11d,%edi
  401369:	41 33 c9             	xor    %r9d,%ecx
  40136c:	41 89 c2             	mov    %eax,%r10d
  40136f:	33 0d 97 0d 21 00    	xor    0x210d97(%rip),%ecx        # 61210c <RC+0x2c>
  401375:	44 0b f7             	or     %edi,%r14d
  401378:	c4 62 48 f2 e9       	andn   %ecx,%esi,%r13d
  40137d:	44 33 d7             	xor    %edi,%r10d
  401380:	44 33 f1             	xor    %ecx,%r14d
  401383:	41 89 f3             	mov    %esi,%r11d
  401386:	45 33 ea             	xor    %r10d,%r13d
  401389:	45 23 d6             	and    %r14d,%r10d
  40138c:	44 33 d8             	xor    %eax,%r11d
  40138f:	41 89 c1             	mov    %eax,%r9d
  401392:	45 33 d3             	xor    %r11d,%r10d
  401395:	45 33 ce             	xor    %r14d,%r9d
  401398:	66 41 89 48 60       	mov    %cx,0x60(%r8)
  40139d:	83 e1 f0             	and    $0xfffffff0,%ecx
  4013a0:	66 41 89 78 66       	mov    %di,0x66(%r8)
  4013a5:	83 e7 f0             	and    $0xfffffff0,%edi
  4013a8:	45 0b dd             	or     %r13d,%r11d
  4013ab:	41 83 e5 0f          	and    $0xf,%r13d
  4013af:	41 83 e2 0f          	and    $0xf,%r10d
  4013b3:	41 83 e1 0f          	and    $0xf,%r9d
  4013b7:	66 41 89 70 62       	mov    %si,0x62(%r8)
  4013bc:	45 33 f3             	xor    %r11d,%r14d
  4013bf:	41 0b cd             	or     %r13d,%ecx
  4013c2:	41 0b fa             	or     %r10d,%edi
  4013c5:	83 e6 f0             	and    $0xfffffff0,%esi
  4013c8:	41 83 e6 0f          	and    $0xf,%r14d
  4013cc:	66 41 89 40 64       	mov    %ax,0x64(%r8)
  4013d1:	83 e0 f0             	and    $0xfffffff0,%eax
  4013d4:	41 89 fb             	mov    %edi,%r11d
  4013d7:	41 0b f1             	or     %r9d,%esi
  4013da:	41 89 c9             	mov    %ecx,%r9d
  4013dd:	41 0b c6             	or     %r14d,%eax
  4013e0:	66 41 c1 c3 0c       	rol    $0xc,%r11w
  4013e5:	41 89 c6             	mov    %eax,%r14d
  4013e8:	66 41 c1 c1 08       	rol    $0x8,%r9w
  4013ed:	41 f7 d6             	not    %r14d
  4013f0:	45 0f b7 d3          	movzwl %r11w,%r10d
  4013f4:	45 0f b7 e9          	movzwl %r9w,%r13d
  4013f8:	41 33 d2             	xor    %r10d,%edx
  4013fb:	41 33 f5             	xor    %r13d,%esi
  4013fe:	41 89 f9             	mov    %edi,%r9d
  401401:	33 35 09 0d 21 00    	xor    0x210d09(%rip),%esi        # 612110 <RC+0x30>
  401407:	44 0b f2             	or     %edx,%r14d
  40140a:	c4 62 78 f2 de       	andn   %esi,%eax,%r11d
  40140f:	44 33 ca             	xor    %edx,%r9d
  401412:	44 33 f6             	xor    %esi,%r14d
  401415:	41 89 c2             	mov    %eax,%r10d
  401418:	45 33 d9             	xor    %r9d,%r11d
  40141b:	45 23 ce             	and    %r14d,%r9d
  40141e:	44 33 d7             	xor    %edi,%r10d
  401421:	41 89 fd             	mov    %edi,%r13d
  401424:	45 33 ca             	xor    %r10d,%r9d
  401427:	45 33 ee             	xor    %r14d,%r13d
  40142a:	66 41 89 70 68       	mov    %si,0x68(%r8)
  40142f:	81 e6 f0 ff 00 00    	and    $0xfff0,%esi
  401435:	66 41 89 50 6e       	mov    %dx,0x6e(%r8)
  40143a:	81 e2 f0 ff 00 00    	and    $0xfff0,%edx
  401440:	45 0b d3             	or     %r11d,%r10d
  401443:	41 83 e3 0f          	and    $0xf,%r11d
  401447:	41 83 e1 0f          	and    $0xf,%r9d
  40144b:	41 83 e5 0f          	and    $0xf,%r13d
  40144f:	66 41 89 40 6a       	mov    %ax,0x6a(%r8)
  401454:	45 33 f2             	xor    %r10d,%r14d
  401457:	41 0b f3             	or     %r11d,%esi
  40145a:	41 0b d1             	or     %r9d,%edx
  40145d:	83 e0 f0             	and    $0xfffffff0,%eax
  401460:	41 83 e6 0f          	and    $0xf,%r14d
  401464:	66 41 89 78 6c       	mov    %di,0x6c(%r8)
  401469:	83 e7 f0             	and    $0xfffffff0,%edi
  40146c:	41 89 d2             	mov    %edx,%r10d
  40146f:	41 0b c5             	or     %r13d,%eax
  401472:	41 89 f5             	mov    %esi,%r13d
  401475:	41 0b fe             	or     %r14d,%edi
  401478:	66 41 c1 c2 0c       	rol    $0xc,%r10w
  40147d:	41 89 f9             	mov    %edi,%r9d
  401480:	66 41 c1 c5 08       	rol    $0x8,%r13w
  401485:	44 33 ca             	xor    %edx,%r9d
  401488:	45 0f b7 da          	movzwl %r10w,%r11d
  40148c:	45 0f b7 f5          	movzwl %r13w,%r14d
  401490:	41 89 fd             	mov    %edi,%r13d
  401493:	41 33 cb             	xor    %r11d,%ecx
  401496:	41 33 c6             	xor    %r14d,%eax
  401499:	41 f7 d5             	not    %r13d
  40149c:	41 89 d6             	mov    %edx,%r14d
  40149f:	33 05 6f 0c 21 00    	xor    0x210c6f(%rip),%eax        # 612114 <RC+0x34>
  4014a5:	44 0b e9             	or     %ecx,%r13d
  4014a8:	c4 62 40 f2 d0       	andn   %eax,%edi,%r10d
  4014ad:	44 33 f1             	xor    %ecx,%r14d
  4014b0:	44 33 e8             	xor    %eax,%r13d
  4014b3:	45 33 d6             	xor    %r14d,%r10d
  4014b6:	45 23 f5             	and    %r13d,%r14d
  4014b9:	41 89 d3             	mov    %edx,%r11d
  4014bc:	45 33 f1             	xor    %r9d,%r14d
  4014bf:	45 33 dd             	xor    %r13d,%r11d
  4014c2:	66 41 89 40 70       	mov    %ax,0x70(%r8)
  4014c7:	25 f0 ff 00 00       	and    $0xfff0,%eax
  4014cc:	66 41 89 48 76       	mov    %cx,0x76(%r8)
  4014d1:	81 e1 f0 ff 00 00    	and    $0xfff0,%ecx
  4014d7:	45 0b ca             	or     %r10d,%r9d
  4014da:	41 83 e2 0f          	and    $0xf,%r10d
  4014de:	41 83 e6 0f          	and    $0xf,%r14d
  4014e2:	41 83 e3 0f          	and    $0xf,%r11d
  4014e6:	66 41 89 78 72       	mov    %di,0x72(%r8)
  4014eb:	41 0b c2             	or     %r10d,%eax
  4014ee:	41 0b ce             	or     %r14d,%ecx
  4014f1:	81 e7 f0 ff 00 00    	and    $0xfff0,%edi
  4014f7:	45 33 e9             	xor    %r9d,%r13d
  4014fa:	41 89 c9             	mov    %ecx,%r9d
  4014fd:	41 0b fb             	or     %r11d,%edi
  401500:	41 89 c3             	mov    %eax,%r11d
  401503:	66 41 89 50 74       	mov    %dx,0x74(%r8)
  401508:	83 e2 f0             	and    $0xfffffff0,%edx
  40150b:	66 41 c1 c1 0c       	rol    $0xc,%r9w
  401510:	41 83 e5 0f          	and    $0xf,%r13d
  401514:	66 41 c1 c3 08       	rol    $0x8,%r11w
  401519:	41 0b d5             	or     %r13d,%edx
  40151c:	45 0f b7 d1          	movzwl %r9w,%r10d
  401520:	41 89 d5             	mov    %edx,%r13d
  401523:	45 0f b7 cb          	movzwl %r11w,%r9d
  401527:	41 33 f2             	xor    %r10d,%esi
  40152a:	41 33 f9             	xor    %r9d,%edi
  40152d:	41 89 d1             	mov    %edx,%r9d
  401530:	41 f7 d1             	not    %r9d
  401533:	41 89 cb             	mov    %ecx,%r11d
  401536:	33 3d dc 0b 21 00    	xor    0x210bdc(%rip),%edi        # 612118 <RC+0x38>
  40153c:	44 0b ce             	or     %esi,%r9d
  40153f:	c4 62 68 f2 f7       	andn   %edi,%edx,%r14d
  401544:	44 33 de             	xor    %esi,%r11d
  401547:	44 33 cf             	xor    %edi,%r9d
  40154a:	45 33 f3             	xor    %r11d,%r14d
  40154d:	45 23 d9             	and    %r9d,%r11d
  401550:	44 33 e9             	xor    %ecx,%r13d
  401553:	45 33 dd             	xor    %r13d,%r11d
  401556:	41 89 ca             	mov    %ecx,%r10d
  401559:	66 41 89 70 7e       	mov    %si,0x7e(%r8)
  40155e:	83 e6 f0             	and    $0xfffffff0,%esi
  401561:	41 83 e3 0f          	and    $0xf,%r11d
  401565:	45 33 d1             	xor    %r9d,%r10d
  401568:	66 41 89 78 78       	mov    %di,0x78(%r8)
  40156d:	83 e7 f0             	and    $0xfffffff0,%edi
  401570:	45 0b ee             	or     %r14d,%r13d
  401573:	41 83 e6 0f          	and    $0xf,%r14d
  401577:	41 0b f3             	or     %r11d,%esi
  40157a:	41 83 e2 0f          	and    $0xf,%r10d
  40157e:	66 41 89 50 7a       	mov    %dx,0x7a(%r8)
  401583:	45 33 cd             	xor    %r13d,%r9d
  401586:	41 0b fe             	or     %r14d,%edi
  401589:	41 89 f5             	mov    %esi,%r13d
  40158c:	83 e2 f0             	and    $0xfffffff0,%edx
  40158f:	41 83 e1 0f          	and    $0xf,%r9d
  401593:	66 41 89 48 7c       	mov    %cx,0x7c(%r8)
  401598:	83 e1 f0             	and    $0xfffffff0,%ecx
  40159b:	66 41 c1 c5 0c       	rol    $0xc,%r13w
  4015a0:	41 0b d2             	or     %r10d,%edx
  4015a3:	41 89 fa             	mov    %edi,%r10d
  4015a6:	41 0b c9             	or     %r9d,%ecx
  4015a9:	45 0f b7 cd          	movzwl %r13w,%r9d
  4015ad:	41 89 ce             	mov    %ecx,%r14d
  4015b0:	66 41 c1 c2 08       	rol    $0x8,%r10w
  4015b5:	41 33 c1             	xor    %r9d,%eax
  4015b8:	45 0f b7 ca          	movzwl %r10w,%r9d
  4015bc:	41 f7 d6             	not    %r14d
  4015bf:	41 33 d1             	xor    %r9d,%edx
  4015c2:	41 89 f2             	mov    %esi,%r10d
  4015c5:	33 15 51 0b 21 00    	xor    0x210b51(%rip),%edx        # 61211c <RC+0x3c>
  4015cb:	44 0b f0             	or     %eax,%r14d
  4015ce:	c4 62 70 f2 ea       	andn   %edx,%ecx,%r13d
  4015d3:	44 33 d0             	xor    %eax,%r10d
  4015d6:	44 33 f2             	xor    %edx,%r14d
  4015d9:	41 89 cb             	mov    %ecx,%r11d
  4015dc:	45 33 ea             	xor    %r10d,%r13d
  4015df:	45 23 d6             	and    %r14d,%r10d
  4015e2:	44 33 de             	xor    %esi,%r11d
  4015e5:	41 89 f1             	mov    %esi,%r9d
  4015e8:	45 33 d3             	xor    %r11d,%r10d
  4015eb:	45 33 ce             	xor    %r14d,%r9d
  4015ee:	66 41 89 90 80 00 00 	mov    %dx,0x80(%r8)
  4015f5:	00 
  4015f6:	81 e2 f0 ff 00 00    	and    $0xfff0,%edx
  4015fc:	66 41 89 80 86 00 00 	mov    %ax,0x86(%r8)
  401603:	00 
  401604:	83 e0 f0             	and    $0xfffffff0,%eax
  401607:	45 0b dd             	or     %r13d,%r11d
  40160a:	41 83 e5 0f          	and    $0xf,%r13d
  40160e:	41 83 e2 0f          	and    $0xf,%r10d
  401612:	41 83 e1 0f          	and    $0xf,%r9d
  401616:	66 41 89 88 82 00 00 	mov    %cx,0x82(%r8)
  40161d:	00 
  40161e:	45 33 f3             	xor    %r11d,%r14d
  401621:	41 0b d5             	or     %r13d,%edx
  401624:	41 0b c2             	or     %r10d,%eax
  401627:	83 e1 f0             	and    $0xfffffff0,%ecx
  40162a:	41 83 e6 0f          	and    $0xf,%r14d
  40162e:	66 41 89 b0 84 00 00 	mov    %si,0x84(%r8)
  401635:	00 
  401636:	83 e6 f0             	and    $0xfffffff0,%esi
  401639:	41 89 c3             	mov    %eax,%r11d
  40163c:	41 0b c9             	or     %r9d,%ecx
  40163f:	41 89 d1             	mov    %edx,%r9d
  401642:	41 0b f6             	or     %r14d,%esi
  401645:	66 41 c1 c3 0c       	rol    $0xc,%r11w
  40164a:	41 89 c6             	mov    %eax,%r14d
  40164d:	66 41 c1 c1 08       	rol    $0x8,%r9w
  401652:	45 0f b7 d3          	movzwl %r11w,%r10d
  401656:	45 0f b7 e9          	movzwl %r9w,%r13d
  40165a:	41 89 f1             	mov    %esi,%r9d
  40165d:	41 33 fa             	xor    %r10d,%edi
  401660:	41 33 cd             	xor    %r13d,%ecx
  401663:	41 f7 d1             	not    %r9d
  401666:	41 89 c5             	mov    %eax,%r13d
  401669:	33 0d b1 0a 21 00    	xor    0x210ab1(%rip),%ecx        # 612120 <RC+0x40>
  40166f:	44 0b cf             	or     %edi,%r9d
  401672:	c4 62 48 f2 d9       	andn   %ecx,%esi,%r11d
  401677:	44 33 ef             	xor    %edi,%r13d
  40167a:	44 33 c9             	xor    %ecx,%r9d
  40167d:	41 89 f2             	mov    %esi,%r10d
  401680:	45 33 dd             	xor    %r13d,%r11d
  401683:	45 23 e9             	and    %r9d,%r13d
  401686:	44 33 d0             	xor    %eax,%r10d
  401689:	45 33 f1             	xor    %r9d,%r14d
  40168c:	45 33 ea             	xor    %r10d,%r13d
  40168f:	45 0b d3             	or     %r11d,%r10d
  401692:	66 41 89 b8 8e 00 00 	mov    %di,0x8e(%r8)
  401699:	00 
  40169a:	81 e7 f0 ff 00 00    	and    $0xfff0,%edi
  4016a0:	41 83 e5 0f          	and    $0xf,%r13d
  4016a4:	41 83 e3 0f          	and    $0xf,%r11d
  4016a8:	66 41 89 88 88 00 00 	mov    %cx,0x88(%r8)
  4016af:	00 
  4016b0:	81 e1 f0 ff 00 00    	and    $0xfff0,%ecx
  4016b6:	41 0b fd             	or     %r13d,%edi
  4016b9:	41 83 e6 0f          	and    $0xf,%r14d
  4016bd:	66 41 89 b0 8a 00 00 	mov    %si,0x8a(%r8)
  4016c4:	00 
  4016c5:	45 33 ca             	xor    %r10d,%r9d
  4016c8:	41 0b cb             	or     %r11d,%ecx
  4016cb:	41 89 fa             	mov    %edi,%r10d
  4016ce:	81 e6 f0 ff 00 00    	and    $0xfff0,%esi
  4016d4:	41 83 e1 0f          	and    $0xf,%r9d
  4016d8:	66 41 89 80 8c 00 00 	mov    %ax,0x8c(%r8)
  4016df:	00 
  4016e0:	83 e0 f0             	and    $0xfffffff0,%eax
  4016e3:	66 41 c1 c2 0c       	rol    $0xc,%r10w
  4016e8:	41 0b f6             	or     %r14d,%esi
  4016eb:	41 89 ce             	mov    %ecx,%r14d
  4016ee:	41 0b c1             	or     %r9d,%eax
  4016f1:	45 0f b7 ca          	movzwl %r10w,%r9d
  4016f5:	41 89 c2             	mov    %eax,%r10d
  4016f8:	66 41 c1 c6 08       	rol    $0x8,%r14w
  4016fd:	41 33 d1             	xor    %r9d,%edx
  401700:	45 0f b7 ce          	movzwl %r14w,%r9d
  401704:	41 89 fe             	mov    %edi,%r14d
  401707:	41 33 f1             	xor    %r9d,%esi
  40170a:	41 89 c1             	mov    %eax,%r9d
  40170d:	41 f7 d1             	not    %r9d
  401710:	44 33 f2             	xor    %edx,%r14d
  401713:	33 35 0b 0a 21 00    	xor    0x210a0b(%rip),%esi        # 612124 <RC+0x44>
  401719:	44 0b ca             	or     %edx,%r9d
  40171c:	c4 62 78 f2 de       	andn   %esi,%eax,%r11d
  401721:	44 33 ce             	xor    %esi,%r9d
  401724:	45 33 de             	xor    %r14d,%r11d
  401727:	45 23 f1             	and    %r9d,%r14d
  40172a:	44 33 d7             	xor    %edi,%r10d
  40172d:	41 89 fd             	mov    %edi,%r13d
  401730:	45 33 f2             	xor    %r10d,%r14d
  401733:	45 33 e9             	xor    %r9d,%r13d
  401736:	66 41 89 90 96 00 00 	mov    %dx,0x96(%r8)
  40173d:	00 
  40173e:	83 e2 f0             	and    $0xfffffff0,%edx
  401741:	41 83 e6 0f          	and    $0xf,%r14d
  401745:	45 0b d3             	or     %r11d,%r10d
  401748:	66 41 89 b0 90 00 00 	mov    %si,0x90(%r8)
  40174f:	00 
  401750:	83 e6 f0             	and    $0xfffffff0,%esi
  401753:	41 83 e3 0f          	and    $0xf,%r11d
  401757:	41 0b d6             	or     %r14d,%edx
  40175a:	66 41 89 80 92 00 00 	mov    %ax,0x92(%r8)
  401761:	00 
  401762:	41 83 e5 0f          	and    $0xf,%r13d
  401766:	45 33 ca             	xor    %r10d,%r9d
  401769:	41 0b f3             	or     %r11d,%esi
  40176c:	41 89 d2             	mov    %edx,%r10d
  40176f:	25 f0 ff 00 00       	and    $0xfff0,%eax
  401774:	66 41 89 b8 94 00 00 	mov    %di,0x94(%r8)
  40177b:	00 
  40177c:	83 e7 f0             	and    $0xfffffff0,%edi
  40177f:	66 41 c1 c2 0c       	rol    $0xc,%r10w
  401784:	41 83 e1 0f          	and    $0xf,%r9d
  401788:	41 0b c5             	or     %r13d,%eax
  40178b:	41 89 f5             	mov    %esi,%r13d
  40178e:	66 41 c1 c5 08       	rol    $0x8,%r13w
  401793:	41 0b f9             	or     %r9d,%edi
  401796:	45 0f b7 ca          	movzwl %r10w,%r9d
  40179a:	41 89 fa             	mov    %edi,%r10d
  40179d:	41 33 c9             	xor    %r9d,%ecx
  4017a0:	44 33 d2             	xor    %edx,%r10d
  4017a3:	45 0f b7 cd          	movzwl %r13w,%r9d
  4017a7:	41 89 d5             	mov    %edx,%r13d
  4017aa:	41 33 c1             	xor    %r9d,%eax
  4017ad:	41 89 f9             	mov    %edi,%r9d
  4017b0:	41 f7 d1             	not    %r9d
  4017b3:	44 33 e9             	xor    %ecx,%r13d
  4017b6:	33 05 6c 09 21 00    	xor    0x21096c(%rip),%eax        # 612128 <RC+0x48>
  4017bc:	44 0b c9             	or     %ecx,%r9d
  4017bf:	c4 62 40 f2 f0       	andn   %eax,%edi,%r14d
  4017c4:	44 33 c8             	xor    %eax,%r9d
  4017c7:	45 33 f5             	xor    %r13d,%r14d
  4017ca:	45 23 e9             	and    %r9d,%r13d
  4017cd:	45 33 ea             	xor    %r10d,%r13d
  4017d0:	41 89 d3             	mov    %edx,%r11d
  4017d3:	66 41 89 88 9e 00 00 	mov    %cx,0x9e(%r8)
  4017da:	00 
  4017db:	83 e1 f0             	and    $0xfffffff0,%ecx
  4017de:	41 83 e5 0f          	and    $0xf,%r13d
  4017e2:	45 33 d9             	xor    %r9d,%r11d
  4017e5:	66 41 89 80 98 00 00 	mov    %ax,0x98(%r8)
  4017ec:	00 
  4017ed:	83 e0 f0             	and    $0xfffffff0,%eax
  4017f0:	45 0b d6             	or     %r14d,%r10d
  4017f3:	41 83 e6 0f          	and    $0xf,%r14d
  4017f7:	41 0b cd             	or     %r13d,%ecx
  4017fa:	41 83 e3 0f          	and    $0xf,%r11d
  4017fe:	66 41 89 b8 9a 00 00 	mov    %di,0x9a(%r8)
  401805:	00 
  401806:	45 33 ca             	xor    %r10d,%r9d
  401809:	41 0b c6             	or     %r14d,%eax
  40180c:	41 89 ca             	mov    %ecx,%r10d
  40180f:	83 e7 f0             	and    $0xfffffff0,%edi
  401812:	41 83 e1 0f          	and    $0xf,%r9d
  401816:	66 41 89 90 9c 00 00 	mov    %dx,0x9c(%r8)
  40181d:	00 
  40181e:	83 e2 f0             	and    $0xfffffff0,%edx
  401821:	66 41 c1 c2 0c       	rol    $0xc,%r10w
  401826:	41 0b fb             	or     %r11d,%edi
  401829:	41 89 c3             	mov    %eax,%r11d
  40182c:	41 0b d1             	or     %r9d,%edx
  40182f:	45 0f b7 ca          	movzwl %r10w,%r9d
  401833:	41 89 d5             	mov    %edx,%r13d
  401836:	66 41 c1 c3 08       	rol    $0x8,%r11w
  40183b:	41 33 f1             	xor    %r9d,%esi
  40183e:	45 0f b7 cb          	movzwl %r11w,%r9d
  401842:	41 89 cb             	mov    %ecx,%r11d
  401845:	41 33 f9             	xor    %r9d,%edi
  401848:	41 89 d1             	mov    %edx,%r9d
  40184b:	41 f7 d1             	not    %r9d
  40184e:	44 33 de             	xor    %esi,%r11d
  401851:	33 3d d5 08 21 00    	xor    0x2108d5(%rip),%edi        # 61212c <RC+0x4c>
  401857:	44 0b ce             	or     %esi,%r9d
  40185a:	c4 62 68 f2 f7       	andn   %edi,%edx,%r14d
  40185f:	44 33 cf             	xor    %edi,%r9d
  401862:	45 33 f3             	xor    %r11d,%r14d
  401865:	45 23 d9             	and    %r9d,%r11d
  401868:	44 33 e9             	xor    %ecx,%r13d
  40186b:	41 89 ca             	mov    %ecx,%r10d
  40186e:	45 33 dd             	xor    %r13d,%r11d
  401871:	45 33 d1             	xor    %r9d,%r10d
  401874:	66 41 89 b0 a6 00 00 	mov    %si,0xa6(%r8)
  40187b:	00 
  40187c:	81 e6 f0 ff 00 00    	and    $0xfff0,%esi
  401882:	41 83 e3 0f          	and    $0xf,%r11d
  401886:	45 0b ee             	or     %r14d,%r13d
  401889:	66 41 89 b8 a0 00 00 	mov    %di,0xa0(%r8)
  401890:	00 
  401891:	81 e7 f0 ff 00 00    	and    $0xfff0,%edi
  401897:	41 83 e6 0f          	and    $0xf,%r14d
  40189b:	41 0b f3             	or     %r11d,%esi
  40189e:	66 41 89 90 a2 00 00 	mov    %dx,0xa2(%r8)
  4018a5:	00 
  4018a6:	41 83 e2 0f          	and    $0xf,%r10d
  4018aa:	45 33 cd             	xor    %r13d,%r9d
  4018ad:	41 0b fe             	or     %r14d,%edi
  4018b0:	41 89 f5             	mov    %esi,%r13d
  4018b3:	81 e2 f0 ff 00 00    	and    $0xfff0,%edx
  4018b9:	66 41 89 88 a4 00 00 	mov    %cx,0xa4(%r8)
  4018c0:	00 
  4018c1:	83 e1 f0             	and    $0xfffffff0,%ecx
  4018c4:	66 41 c1 c5 0c       	rol    $0xc,%r13w
  4018c9:	41 83 e1 0f          	and    $0xf,%r9d
  4018cd:	41 0b d2             	or     %r10d,%edx
  4018d0:	41 89 fa             	mov    %edi,%r10d
  4018d3:	66 41 c1 c2 08       	rol    $0x8,%r10w
  4018d8:	41 0b c9             	or     %r9d,%ecx
  4018db:	45 0f b7 cd          	movzwl %r13w,%r9d
  4018df:	41 89 ce             	mov    %ecx,%r14d
  4018e2:	41 33 c1             	xor    %r9d,%eax
  4018e5:	41 f7 d6             	not    %r14d
  4018e8:	45 0f b7 ca          	movzwl %r10w,%r9d
  4018ec:	41 89 f2             	mov    %esi,%r10d
  4018ef:	41 33 d1             	xor    %r9d,%edx
  4018f2:	44 0b f0             	or     %eax,%r14d
  4018f5:	33 15 35 08 21 00    	xor    0x210835(%rip),%edx        # 612130 <RC+0x50>
  4018fb:	44 33 d0             	xor    %eax,%r10d
  4018fe:	c4 62 70 f2 ea       	andn   %edx,%ecx,%r13d
  401903:	44 33 f2             	xor    %edx,%r14d
  401906:	41 89 cb             	mov    %ecx,%r11d
  401909:	45 33 ea             	xor    %r10d,%r13d
  40190c:	45 23 d6             	and    %r14d,%r10d
  40190f:	44 33 de             	xor    %esi,%r11d
  401912:	45 33 d3             	xor    %r11d,%r10d
  401915:	41 89 f1             	mov    %esi,%r9d
  401918:	66 41 89 80 ae 00 00 	mov    %ax,0xae(%r8)
  40191f:	00 
  401920:	25 f0 ff 00 00       	and    $0xfff0,%eax
  401925:	41 83 e2 0f          	and    $0xf,%r10d
  401929:	45 0b dd             	or     %r13d,%r11d
  40192c:	41 0b c2             	or     %r10d,%eax
  40192f:	45 33 ce             	xor    %r14d,%r9d
  401932:	66 41 89 90 a8 00 00 	mov    %dx,0xa8(%r8)
  401939:	00 
  40193a:	83 e2 f0             	and    $0xfffffff0,%edx
  40193d:	45 33 f3             	xor    %r11d,%r14d
  401940:	41 83 e5 0f          	and    $0xf,%r13d
  401944:	41 89 c3             	mov    %eax,%r11d
  401947:	41 83 e1 0f          	and    $0xf,%r9d
  40194b:	66 41 89 88 aa 00 00 	mov    %cx,0xaa(%r8)
  401952:	00 
  401953:	41 0b d5             	or     %r13d,%edx
  401956:	66 41 c1 c3 0c       	rol    $0xc,%r11w
  40195b:	81 e1 f0 ff 00 00    	and    $0xfff0,%ecx
  401961:	66 41 89 b0 ac 00 00 	mov    %si,0xac(%r8)
  401968:	00 
  401969:	83 e6 f0             	and    $0xfffffff0,%esi
  40196c:	45 0f b7 d3          	movzwl %r11w,%r10d
  401970:	41 83 e6 0f          	and    $0xf,%r14d
  401974:	41 0b c9             	or     %r9d,%ecx
  401977:	41 89 d1             	mov    %edx,%r9d
  40197a:	66 41 c1 c1 08       	rol    $0x8,%r9w
  40197f:	41 0b f6             	or     %r14d,%esi
  401982:	41 33 fa             	xor    %r10d,%edi
  401985:	45 0f b7 e9          	movzwl %r9w,%r13d
  401989:	41 89 f2             	mov    %esi,%r10d
  40198c:	41 33 cd             	xor    %r13d,%ecx
  40198f:	41 f7 d2             	not    %r10d
  401992:	33 0d 9c 07 21 00    	xor    0x21079c(%rip),%ecx        # 612134 <RC+0x54>
  401998:	41 89 c5             	mov    %eax,%r13d
  40199b:	44 0b d7             	or     %edi,%r10d
  40199e:	44 33 ef             	xor    %edi,%r13d
  4019a1:	c4 62 48 f2 c9       	andn   %ecx,%esi,%r9d
  4019a6:	44 33 d1             	xor    %ecx,%r10d
  4019a9:	41 89 f6             	mov    %esi,%r14d
  4019ac:	45 33 cd             	xor    %r13d,%r9d
  4019af:	45 23 ea             	and    %r10d,%r13d
  4019b2:	44 33 f0             	xor    %eax,%r14d
  4019b5:	41 89 c3             	mov    %eax,%r11d
  4019b8:	45 33 ee             	xor    %r14d,%r13d
  4019bb:	66 41 89 88 b0 00 00 	mov    %cx,0xb0(%r8)
  4019c2:	00 
  4019c3:	83 e1 f0             	and    $0xfffffff0,%ecx
  4019c6:	66 41 89 b8 b6 00 00 	mov    %di,0xb6(%r8)
  4019cd:	00 
  4019ce:	83 e7 f0             	and    $0xfffffff0,%edi
  4019d1:	45 33 da             	xor    %r10d,%r11d
  4019d4:	45 0b f1             	or     %r9d,%r14d
  4019d7:	41 83 e1 0f          	and    $0xf,%r9d
  4019db:	41 83 e5 0f          	and    $0xf,%r13d
  4019df:	66 41 89 b0 b2 00 00 	mov    %si,0xb2(%r8)
  4019e6:	00 
  4019e7:	41 83 e3 0f          	and    $0xf,%r11d
  4019eb:	41 0b c9             	or     %r9d,%ecx
  4019ee:	41 0b fd             	or     %r13d,%edi
  4019f1:	83 e6 f0             	and    $0xfffffff0,%esi
  4019f4:	45 33 d6             	xor    %r14d,%r10d
  4019f7:	41 89 f9             	mov    %edi,%r9d
  4019fa:	41 0b f3             	or     %r11d,%esi
  4019fd:	41 89 cb             	mov    %ecx,%r11d
  401a00:	41 83 e2 0f          	and    $0xf,%r10d
  401a04:	66 41 89 80 b4 00 00 	mov    %ax,0xb4(%r8)
  401a0b:	00 
  401a0c:	83 e0 f0             	and    $0xfffffff0,%eax
  401a0f:	66 41 c1 c1 0c       	rol    $0xc,%r9w
  401a14:	41 0b c2             	or     %r10d,%eax
  401a17:	66 41 c1 c3 08       	rol    $0x8,%r11w
  401a1c:	41 89 c5             	mov    %eax,%r13d
  401a1f:	45 0f b7 f1          	movzwl %r9w,%r14d
  401a23:	44 33 ef             	xor    %edi,%r13d
  401a26:	45 0f b7 cb          	movzwl %r11w,%r9d
  401a2a:	41 33 d6             	xor    %r14d,%edx
  401a2d:	41 33 f1             	xor    %r9d,%esi
  401a30:	41 89 c1             	mov    %eax,%r9d
  401a33:	41 f7 d1             	not    %r9d
  401a36:	41 89 fb             	mov    %edi,%r11d
  401a39:	33 35 f9 06 21 00    	xor    0x2106f9(%rip),%esi        # 612138 <RC+0x58>
  401a3f:	44 0b ca             	or     %edx,%r9d
  401a42:	c4 62 78 f2 f6       	andn   %esi,%eax,%r14d
  401a47:	44 33 da             	xor    %edx,%r11d
  401a4a:	44 33 ce             	xor    %esi,%r9d
  401a4d:	45 33 f3             	xor    %r11d,%r14d
  401a50:	45 23 d9             	and    %r9d,%r11d
  401a53:	41 89 fa             	mov    %edi,%r10d
  401a56:	45 33 dd             	xor    %r13d,%r11d
  401a59:	45 33 d1             	xor    %r9d,%r10d
  401a5c:	66 41 89 90 be 00 00 	mov    %dx,0xbe(%r8)
  401a63:	00 
  401a64:	83 e2 f0             	and    $0xfffffff0,%edx
  401a67:	41 83 e3 0f          	and    $0xf,%r11d
  401a6b:	45 0b ee             	or     %r14d,%r13d
  401a6e:	66 41 89 b0 b8 00 00 	mov    %si,0xb8(%r8)
  401a75:	00 
  401a76:	83 e6 f0             	and    $0xfffffff0,%esi
  401a79:	41 83 e6 0f          	and    $0xf,%r14d
  401a7d:	41 0b d3             	or     %r11d,%edx
  401a80:	66 41 89 80 ba 00 00 	mov    %ax,0xba(%r8)
  401a87:	00 
  401a88:	41 83 e2 0f          	and    $0xf,%r10d
  401a8c:	45 33 cd             	xor    %r13d,%r9d
  401a8f:	41 0b f6             	or     %r14d,%esi
  401a92:	41 89 d5             	mov    %edx,%r13d
  401a95:	83 e0 f0             	and    $0xfffffff0,%eax
  401a98:	66 41 89 b8 bc 00 00 	mov    %di,0xbc(%r8)
  401a9f:	00 
  401aa0:	83 e7 f0             	and    $0xfffffff0,%edi
  401aa3:	66 41 c1 c5 0c       	rol    $0xc,%r13w
  401aa8:	41 83 e1 0f          	and    $0xf,%r9d
  401aac:	41 0b c2             	or     %r10d,%eax
  401aaf:	41 89 f2             	mov    %esi,%r10d
  401ab2:	66 41 c1 c2 08       	rol    $0x8,%r10w
  401ab7:	41 0b f9             	or     %r9d,%edi
  401aba:	45 0f b7 cd          	movzwl %r13w,%r9d
  401abe:	41 89 d3             	mov    %edx,%r11d
  401ac1:	41 33 c9             	xor    %r9d,%ecx
  401ac4:	41 89 fe             	mov    %edi,%r14d
  401ac7:	45 0f b7 ca          	movzwl %r10w,%r9d
  401acb:	44 33 d9             	xor    %ecx,%r11d
  401ace:	41 33 c1             	xor    %r9d,%eax
  401ad1:	41 89 f9             	mov    %edi,%r9d
  401ad4:	41 f7 d1             	not    %r9d
  401ad7:	44 33 f2             	xor    %edx,%r14d
  401ada:	33 05 5c 06 21 00    	xor    0x21065c(%rip),%eax        # 61213c <RC+0x5c>
  401ae0:	44 0b c9             	or     %ecx,%r9d
  401ae3:	c4 62 40 f2 e8       	andn   %eax,%edi,%r13d
  401ae8:	44 33 c8             	xor    %eax,%r9d
  401aeb:	45 33 eb             	xor    %r11d,%r13d
  401aee:	45 23 d9             	and    %r9d,%r11d
  401af1:	66 41 89 80 c0 00 00 	mov    %ax,0xc0(%r8)
  401af8:	00 
  401af9:	83 e0 f0             	and    $0xfffffff0,%eax
  401afc:	45 33 de             	xor    %r14d,%r11d
  401aff:	45 0b f5             	or     %r13d,%r14d
  401b02:	41 83 e5 0f          	and    $0xf,%r13d
  401b06:	41 89 d2             	mov    %edx,%r10d
  401b09:	41 0b c5             	or     %r13d,%eax
  401b0c:	45 33 d1             	xor    %r9d,%r10d
  401b0f:	66 41 89 b8 c2 00 00 	mov    %di,0xc2(%r8)
  401b16:	00 
  401b17:	83 e7 f0             	and    $0xfffffff0,%edi
  401b1a:	66 c1 c0 08          	rol    $0x8,%ax
  401b1e:	41 83 e2 0f          	and    $0xf,%r10d
  401b22:	0f b7 c0             	movzwl %ax,%eax
  401b25:	41 0b fa             	or     %r10d,%edi
  401b28:	66 41 89 88 c6 00 00 	mov    %cx,0xc6(%r8)
  401b2f:	00 
  401b30:	83 e1 f0             	and    $0xfffffff0,%ecx
  401b33:	41 83 e3 0f          	and    $0xf,%r11d
  401b37:	45 33 ce             	xor    %r14d,%r9d
  401b3a:	66 41 89 90 c4 00 00 	mov    %dx,0xc4(%r8)
  401b41:	00 
  401b42:	33 f8                	xor    %eax,%edi
  401b44:	41 0b cb             	or     %r11d,%ecx
  401b47:	83 e2 f0             	and    $0xfffffff0,%edx
  401b4a:	33 3d f0 05 21 00    	xor    0x2105f0(%rip),%edi        # 612140 <RC+0x60>
  401b50:	41 83 e1 0f          	and    $0xf,%r9d
  401b54:	66 41 89 88 cc 00 00 	mov    %cx,0xcc(%r8)
  401b5b:	00 
  401b5c:	41 0b d1             	or     %r9d,%edx
  401b5f:	66 c1 c1 0c          	rol    $0xc,%cx
  401b63:	66 41 89 90 ca 00 00 	mov    %dx,0xca(%r8)
  401b6a:	00 
  401b6b:	0f b7 d1             	movzwl %cx,%edx
  401b6e:	33 f2                	xor    %edx,%esi
  401b70:	66 41 89 b8 c8 00 00 	mov    %di,0xc8(%r8)
  401b77:	00 
  401b78:	66 41 89 b0 ce 00 00 	mov    %si,0xce(%r8)
  401b7f:	00 
  401b80:	41 5e                	pop    %r14
  401b82:	41 5d                	pop    %r13
  401b84:	c3                   	retq   
  401b85:	0f 1f 40 00          	nopl   0x0(%rax)
  401b89:	0f 1f 80 00 00 00 00 	nopl   0x0(%rax)

0000000000401b90 <crypto_stream_ecb>:
  401b90:	55                   	push   %rbp
  401b91:	48 89 e5             	mov    %rsp,%rbp
  401b94:	48 83 e4 c0          	and    $0xffffffffffffffc0,%rsp
  401b98:	48 81 ec 40 a0 01 00 	sub    $0x1a040,%rsp
  401b9f:	48 85 d2             	test   %rdx,%rdx
  401ba2:	76 5f                	jbe    401c03 <crypto_stream_ecb+0x73>
  401ba4:	4c 89 a4 24 10 a0 01 	mov    %r12,0x1a010(%rsp)
  401bab:	00 
  401bac:	49 89 fc             	mov    %rdi,%r12
  401baf:	4c 89 ac 24 08 a0 01 	mov    %r13,0x1a008(%rsp)
  401bb6:	00 
  401bb7:	49 89 f5             	mov    %rsi,%r13
  401bba:	4c 89 b4 24 00 a0 01 	mov    %r14,0x1a000(%rsp)
  401bc1:	00 
  401bc2:	49 89 d6             	mov    %rdx,%r14
  401bc5:	4c 89 ef             	mov    %r13,%rdi
  401bc8:	48 8d 34 24          	lea    (%rsp),%rsi
  401bcc:	4c 89 e2             	mov    %r12,%rdx
  401bcf:	e8 9c 00 00 00       	callq  401c70 <Rectangle__>
  401bd4:	49 81 c4 00 10 00 00 	add    $0x1000,%r12
  401bdb:	49 81 c5 00 10 00 00 	add    $0x1000,%r13
  401be2:	49 81 c6 00 f0 ff ff 	add    $0xfffffffffffff000,%r14
  401be9:	75 da                	jne    401bc5 <crypto_stream_ecb+0x35>
  401beb:	4c 8b a4 24 10 a0 01 	mov    0x1a010(%rsp),%r12
  401bf2:	00 
  401bf3:	4c 8b ac 24 08 a0 01 	mov    0x1a008(%rsp),%r13
  401bfa:	00 
  401bfb:	4c 8b b4 24 00 a0 01 	mov    0x1a000(%rsp),%r14
  401c02:	00 
  401c03:	33 c0                	xor    %eax,%eax
  401c05:	48 89 ec             	mov    %rbp,%rsp
  401c08:	5d                   	pop    %rbp
  401c09:	c3                   	retq   
  401c0a:	66 0f 1f 44 00 00    	nopw   0x0(%rax,%rax,1)

0000000000401c10 <SubColumn_single__>:
  401c10:	62 f3 5d 48 25 e4 ff 	vpternlogd $0xff,%zmm4,%zmm4,%zmm4
  401c17:	62 f1 7c 48 28 f8    	vmovaps %zmm0,%zmm7
  401c1d:	62 f1 5d 48 ef e9    	vpxord %zmm1,%zmm4,%zmm5
  401c23:	62 71 6d 48 ef c3    	vpxord %zmm3,%zmm2,%zmm8
  401c29:	62 f3 3d 48 25 fd 6c 	vpternlogd $0x6c,%zmm5,%zmm8,%zmm7
  401c30:	62 f3 65 48 25 c5 1e 	vpternlogd $0x1e,%zmm5,%zmm3,%zmm0
  401c37:	62 f1 7c 48 11 3f    	vmovups %zmm7,(%rdi)
  401c3d:	62 71 75 48 ef ca    	vpxord %zmm2,%zmm1,%zmm9
  401c43:	62 d3 7d 48 25 f9 36 	vpternlogd $0x36,%zmm9,%zmm0,%zmm7
  401c4a:	62 73 3d 48 25 c8 78 	vpternlogd $0x78,%zmm0,%zmm8,%zmm9
  401c51:	62 f1 6d 48 ef f0    	vpxord %zmm0,%zmm2,%zmm6
  401c57:	62 f1 7c 48 11 36    	vmovups %zmm6,(%rsi)
  401c5d:	62 f1 7c 48 11 3a    	vmovups %zmm7,(%rdx)
  401c63:	62 71 7c 48 11 09    	vmovups %zmm9,(%rcx)
  401c69:	c5 f8 77             	vzeroupper 
  401c6c:	c3                   	retq   
  401c6d:	0f 1f 00             	nopl   (%rax)

0000000000401c70 <Rectangle__>:
  401c70:	55                   	push   %rbp
  401c71:	48 89 e5             	mov    %rsp,%rbp
  401c74:	48 83 e4 c0          	and    $0xffffffffffffffc0,%rsp
  401c78:	48 81 ec 00 1a 00 00 	sub    $0x1a00,%rsp
  401c7f:	62 f1 7c 48 10 07    	vmovups (%rdi),%zmm0
  401c85:	62 71 7c 48 10 4f 20 	vmovups 0x800(%rdi),%zmm9
  401c8c:	62 f1 7c 48 10 4f 30 	vmovups 0xc00(%rdi),%zmm1
  401c93:	62 e1 7c 48 10 5f 31 	vmovups 0xc40(%rdi),%zmm19
  401c9a:	62 71 7c 48 10 5f 10 	vmovups 0x400(%rdi),%zmm11
  401ca1:	62 e1 7c 48 10 6f 21 	vmovups 0x840(%rdi),%zmm21
  401ca8:	62 71 7c 48 10 47 11 	vmovups 0x440(%rdi),%zmm8
  401caf:	62 f1 7c 48 10 77 01 	vmovups 0x40(%rdi),%zmm6
  401cb6:	62 71 7c 48 10 76 5f 	vmovups 0x17c0(%rsi),%zmm14
  401cbd:	62 61 7c 48 10 7f 22 	vmovups 0x880(%rdi),%zmm31
  401cc4:	62 61 7c 48 10 6f 02 	vmovups 0x80(%rdi),%zmm29
  401ccb:	62 61 7c 48 10 77 12 	vmovups 0x480(%rdi),%zmm30
  401cd2:	62 71 7d 48 ef 2e    	vpxord (%rsi),%zmm0,%zmm13
  401cd8:	62 f3 7d 48 25 c0 ff 	vpternlogd $0xff,%zmm0,%zmm0,%zmm0
  401cdf:	62 61 35 48 ef 56 20 	vpxord 0x800(%rsi),%zmm9,%zmm26
  401ce6:	62 71 75 48 ef 56 30 	vpxord 0xc00(%rsi),%zmm1,%zmm10
  401ced:	62 d1 2d 40 ef e2    	vpxord %zmm10,%zmm26,%zmm4
  401cf3:	62 e1 7c 48 28 c4    	vmovaps %zmm4,%zmm16
  401cf9:	62 e1 65 40 ef 4e 31 	vpxord 0xc40(%rsi),%zmm19,%zmm17
  401d00:	62 f1 25 48 ef 5e 10 	vpxord 0x400(%rsi),%zmm11,%zmm3
  401d07:	62 f1 55 40 ef 7e 21 	vpxord 0x840(%rsi),%zmm21,%zmm7
  401d0e:	62 71 7d 48 ef e3    	vpxord %zmm3,%zmm0,%zmm12
  401d14:	62 21 45 48 ef c1    	vpxord %zmm17,%zmm7,%zmm24
  401d1a:	62 c3 15 48 25 c4 78 	vpternlogd $0x78,%zmm12,%zmm13,%zmm16
  401d21:	62 53 2d 48 25 ec 1e 	vpternlogd $0x1e,%zmm12,%zmm10,%zmm13
  401d28:	62 91 7c 48 28 d0    	vmovaps %zmm24,%zmm2
  401d2e:	62 41 7c 48 28 dd    	vmovaps %zmm13,%zmm27
  401d34:	62 53 2d 40 25 f5 96 	vpternlogd $0x96,%zmm13,%zmm26,%zmm14
  401d3b:	62 71 7c 48 11 34 24 	vmovups %zmm14,(%rsp)
  401d42:	62 e1 3d 48 ef 66 11 	vpxord 0x440(%rsi),%zmm8,%zmm20
  401d49:	62 e1 4d 48 ef 56 01 	vpxord 0x40(%rsi),%zmm6,%zmm18
  401d50:	62 a1 7d 48 ef fc    	vpxord %zmm20,%zmm0,%zmm23
  401d56:	62 b3 6d 40 25 d7 78 	vpternlogd $0x78,%zmm23,%zmm18,%zmm2
  401d5d:	62 a3 75 40 25 d7 1e 	vpternlogd $0x1e,%zmm23,%zmm17,%zmm18
  401d64:	62 e1 7c 48 10 7f 13 	vmovups 0x4c0(%rdi),%zmm23
  401d6b:	62 e1 7c 48 10 4f 03 	vmovups 0xc0(%rdi),%zmm17
  401d72:	62 21 7c 48 28 ca    	vmovaps %zmm18,%zmm25
  401d78:	62 91 65 48 ef ea    	vpxord %zmm26,%zmm3,%zmm5
  401d7e:	62 71 7d 40 ef 5e 40 	vpxord 0x1000(%rsi),%zmm16,%zmm11
  401d85:	62 63 7d 40 25 dd 1e 	vpternlogd $0x1e,%zmm5,%zmm16,%zmm27
  401d8c:	62 d3 5d 48 25 ed 78 	vpternlogd $0x78,%zmm13,%zmm4,%zmm5
  401d93:	62 e1 7c 48 10 47 32 	vmovups 0xc80(%rdi),%zmm16
  401d9a:	62 f1 7c 48 10 5e 50 	vmovups 0x1400(%rsi),%zmm3
  401da1:	62 b3 45 48 25 da 96 	vpternlogd $0x96,%zmm18,%zmm7,%zmm3
  401da8:	62 61 5d 40 ef e7    	vpxord %zmm7,%zmm20,%zmm28
  401dae:	62 71 6d 48 ef 56 41 	vpxord 0x1040(%rsi),%zmm2,%zmm10
  401db5:	62 03 6d 48 25 cc 1e 	vpternlogd $0x1e,%zmm28,%zmm2,%zmm25
  401dbc:	62 23 3d 40 25 e2 78 	vpternlogd $0x78,%zmm18,%zmm24,%zmm28
  401dc3:	62 61 7c 48 10 47 23 	vmovups 0x8c0(%rdi),%zmm24
  401dca:	62 f1 7c 48 10 57 33 	vmovups 0xcc0(%rdi),%zmm2
  401dd1:	62 71 05 40 ef 46 22 	vpxord 0x880(%rsi),%zmm31,%zmm8
  401dd8:	62 71 7d 40 ef 6e 32 	vpxord 0xc80(%rsi),%zmm16,%zmm13
  401ddf:	62 71 25 40 ef 4e 64 	vpxord 0x1900(%rsi),%zmm27,%zmm9
  401de6:	62 41 3d 48 ef dd    	vpxord %zmm13,%zmm8,%zmm27
  401dec:	62 f1 55 48 ef 4e 73 	vpxord 0x1cc0(%rsi),%zmm5,%zmm1
  401df3:	62 91 7c 48 28 eb    	vmovaps %zmm27,%zmm5
  401df9:	62 e1 7c 48 10 46 51 	vmovups 0x1440(%rsi),%zmm16
  401e00:	62 e1 15 40 ef 6e 02 	vpxord 0x80(%rsi),%zmm29,%zmm21
  401e07:	62 61 0d 40 ef 56 12 	vpxord 0x480(%rsi),%zmm30,%zmm26
  401e0e:	62 61 3d 40 ef 6e 23 	vpxord 0x8c0(%rsi),%zmm24,%zmm29
  401e15:	62 71 6d 48 ef 7e 33 	vpxord 0xcc0(%rsi),%zmm2,%zmm15
  401e1c:	62 11 7d 48 ef f2    	vpxord %zmm26,%zmm0,%zmm14
  401e22:	62 c1 15 40 ef d7    	vpxord %zmm15,%zmm29,%zmm18
  401e28:	62 71 35 40 ef 66 65 	vpxord 0x1940(%rsi),%zmm25,%zmm12
  401e2f:	62 d3 55 40 25 ee 78 	vpternlogd $0x78,%zmm14,%zmm21,%zmm5
  401e36:	62 c3 15 48 25 ee 1e 	vpternlogd $0x1e,%zmm14,%zmm13,%zmm21
  401e3d:	62 71 7c 48 10 76 52 	vmovups 0x1480(%rsi),%zmm14
  401e44:	62 a3 3d 48 25 c5 96 	vpternlogd $0x96,%zmm21,%zmm8,%zmm16
  401e4b:	62 21 7c 48 28 ca    	vmovaps %zmm18,%zmm25
  401e51:	62 a1 7c 48 28 dd    	vmovaps %zmm21,%zmm19
  401e57:	62 f1 45 40 ef 7e 13 	vpxord 0x4c0(%rsi),%zmm23,%zmm7
  401e5e:	62 61 75 40 ef 76 03 	vpxord 0xc0(%rsi),%zmm17,%zmm30
  401e65:	62 e1 7d 48 ef f7    	vpxord %zmm7,%zmm0,%zmm22
  401e6b:	62 23 0d 40 25 ce 78 	vpternlogd $0x78,%zmm22,%zmm30,%zmm25
  401e72:	62 23 05 48 25 f6 1e 	vpternlogd $0x1e,%zmm22,%zmm15,%zmm30
  401e79:	62 e1 7c 48 10 76 53 	vmovups 0x14c0(%rsi),%zmm22
  401e80:	62 13 15 40 25 f6 96 	vpternlogd $0x96,%zmm30,%zmm29,%zmm14
  401e87:	62 71 7c 48 11 74 24 	vmovups %zmm14,0x1140(%rsp)
  401e8e:	45 
  401e8f:	62 c1 2d 40 ef e0    	vpxord %zmm8,%zmm26,%zmm20
  401e95:	62 a3 55 48 25 dc 1e 	vpternlogd $0x1e,%zmm20,%zmm5,%zmm19
  401e9c:	62 a3 25 40 25 e5 78 	vpternlogd $0x78,%zmm21,%zmm27,%zmm20
  401ea3:	62 71 7c 48 10 47 24 	vmovups 0x900(%rdi),%zmm8
  401eaa:	62 e1 7c 48 10 6f 34 	vmovups 0xd00(%rdi),%zmm21
  401eb1:	62 01 7c 48 28 de    	vmovaps %zmm30,%zmm27
  401eb7:	62 f1 55 48 ef 76 42 	vpxord 0x1080(%rsi),%zmm5,%zmm6
  401ebe:	62 91 45 48 ef ed    	vpxord %zmm29,%zmm7,%zmm5
  401ec4:	62 63 35 40 25 dd 1e 	vpternlogd $0x1e,%zmm5,%zmm25,%zmm27
  401ecb:	62 93 6d 40 25 ee 78 	vpternlogd $0x78,%zmm30,%zmm18,%zmm5
  401ed2:	62 f1 7c 48 11 74 24 	vmovups %zmm6,0x10c0(%rsp)
  401ed9:	43 
  401eda:	62 f1 7c 48 10 77 14 	vmovups 0x500(%rdi),%zmm6
  401ee1:	62 61 7c 48 10 77 15 	vmovups 0x540(%rdi),%zmm30
  401ee8:	62 61 7c 48 10 6f 05 	vmovups 0x140(%rdi),%zmm29
  401eef:	62 61 25 40 ef 7e 67 	vpxord 0x19c0(%rsi),%zmm27,%zmm31
  401ef6:	62 61 7c 48 10 5f 04 	vmovups 0x100(%rdi),%zmm27
  401efd:	62 61 7c 48 11 7c 24 	vmovups %zmm31,0x11c0(%rsp)
  401f04:	47 
  401f05:	62 61 7c 48 10 7f 25 	vmovups 0x940(%rdi),%zmm31
  401f0c:	62 71 5d 40 ef 6e 75 	vpxord 0x1d40(%rsi),%zmm20,%zmm13
  401f13:	62 f1 3d 48 ef 7e 24 	vpxord 0x900(%rsi),%zmm8,%zmm7
  401f1a:	62 e1 55 40 ef 66 34 	vpxord 0xd00(%rsi),%zmm21,%zmm20
  401f21:	62 a1 45 48 ef fc    	vpxord %zmm20,%zmm7,%zmm23
  401f27:	62 21 7c 48 28 c7    	vmovaps %zmm23,%zmm24
  401f2d:	62 71 55 48 ef 76 76 	vpxord 0x1d80(%rsi),%zmm5,%zmm14
  401f34:	62 61 65 40 ef 56 66 	vpxord 0x1980(%rsi),%zmm19,%zmm26
  401f3b:	62 f1 7c 48 10 6f 35 	vmovups 0xd40(%rdi),%zmm5
  401f42:	62 e1 4d 48 ef 5e 14 	vpxord 0x500(%rsi),%zmm6,%zmm19
  401f49:	62 71 25 40 ef 7e 04 	vpxord 0x100(%rsi),%zmm27,%zmm15
  401f50:	62 a1 7d 48 ef cb    	vpxord %zmm19,%zmm0,%zmm17
  401f56:	62 23 05 48 25 c1 78 	vpternlogd $0x78,%zmm17,%zmm15,%zmm24
  401f5d:	62 33 5d 40 25 f9 1e 	vpternlogd $0x1e,%zmm17,%zmm20,%zmm15
  401f64:	62 c1 7c 48 28 d7    	vmovaps %zmm15,%zmm18
  401f6a:	62 c3 45 48 25 f7 96 	vpternlogd $0x96,%zmm15,%zmm7,%zmm22
  401f71:	62 e1 7c 48 11 74 24 	vmovups %zmm22,0x1080(%rsp)
  401f78:	42 
  401f79:	62 f1 1d 40 ef 66 74 	vpxord 0x1d00(%rsi),%zmm28,%zmm4
  401f80:	62 61 35 40 ef 66 43 	vpxord 0x10c0(%rsi),%zmm25,%zmm28
  401f87:	62 61 7c 48 11 64 24 	vmovups %zmm28,0x1040(%rsp)
  401f8e:	41 
  401f8f:	62 61 65 40 ef e7    	vpxord %zmm7,%zmm19,%zmm28
  401f95:	62 83 3d 40 25 d4 1e 	vpternlogd $0x1e,%zmm28,%zmm24,%zmm18
  401f9c:	62 43 45 40 25 e7 78 	vpternlogd $0x78,%zmm15,%zmm23,%zmm28
  401fa3:	62 e1 05 40 ef 7e 25 	vpxord 0x940(%rsi),%zmm31,%zmm23
  401faa:	62 71 55 48 ef 46 35 	vpxord 0xd40(%rsi),%zmm5,%zmm8
  401fb1:	62 c1 45 40 ef d8    	vpxord %zmm8,%zmm23,%zmm19
  401fb7:	62 a1 7c 48 28 e3    	vmovaps %zmm19,%zmm20
  401fbd:	62 f1 3d 40 ef 56 44 	vpxord 0x1100(%rsi),%zmm24,%zmm2
  401fc4:	62 f1 0d 40 ef 76 15 	vpxord 0x540(%rsi),%zmm30,%zmm6
  401fcb:	62 61 15 40 ef 46 05 	vpxord 0x140(%rsi),%zmm29,%zmm24
  401fd2:	62 e1 7d 48 ef ee    	vpxord %zmm6,%zmm0,%zmm21
  401fd8:	62 a3 3d 40 25 e5 78 	vpternlogd $0x78,%zmm21,%zmm24,%zmm20
  401fdf:	62 23 3d 48 25 c5 1e 	vpternlogd $0x1e,%zmm21,%zmm8,%zmm24
  401fe6:	62 61 7c 48 10 6f 36 	vmovups 0xd80(%rdi),%zmm29
  401fed:	62 f1 7c 48 11 54 24 	vmovups %zmm2,0xfc0(%rsp)
  401ff4:	3f 
  401ff5:	62 f1 7c 48 10 56 54 	vmovups 0x1500(%rsi),%zmm2
  401ffc:	62 91 7c 48 28 f8    	vmovaps %zmm24,%zmm7
  402002:	62 93 45 40 25 d0 96 	vpternlogd $0x96,%zmm24,%zmm23,%zmm2
  402009:	62 f1 7c 48 11 54 24 	vmovups %zmm2,0x1000(%rsp)
  402010:	40 
  402011:	62 61 6d 40 ef 4e 68 	vpxord 0x1a00(%rsi),%zmm18,%zmm25
  402018:	62 61 1d 40 ef 5e 77 	vpxord 0x1dc0(%rsi),%zmm28,%zmm27
  40201f:	62 61 7c 48 10 67 26 	vmovups 0x980(%rdi),%zmm28
  402026:	62 61 7c 48 11 4c 24 	vmovups %zmm25,0x1180(%rsp)
  40202d:	46 
  40202e:	62 e1 7c 48 10 57 06 	vmovups 0x180(%rdi),%zmm18
  402035:	62 61 7c 48 10 4f 16 	vmovups 0x580(%rdi),%zmm25
  40203c:	62 a1 4d 48 ef f7    	vpxord %zmm23,%zmm6,%zmm22
  402042:	62 b3 5d 40 25 fe 1e 	vpternlogd $0x1e,%zmm22,%zmm20,%zmm7
  402049:	62 83 65 40 25 f0 78 	vpternlogd $0x78,%zmm24,%zmm19,%zmm22
  402050:	62 e1 7c 48 10 7e 55 	vmovups 0x1540(%rsi),%zmm23
  402057:	62 e1 5d 40 ef 4e 45 	vpxord 0x1140(%rsi),%zmm20,%zmm17
  40205e:	62 71 45 48 ef 7e 69 	vpxord 0x1a40(%rsi),%zmm7,%zmm15
  402065:	62 e1 1d 40 ef 66 26 	vpxord 0x980(%rsi),%zmm28,%zmm20
  40206c:	62 61 15 40 ef 7e 36 	vpxord 0xd80(%rsi),%zmm29,%zmm31
  402073:	62 11 5d 40 ef c7    	vpxord %zmm31,%zmm20,%zmm8
  402079:	62 e1 7c 48 11 4c 24 	vmovups %zmm17,0xbc0(%rsp)
  402080:	2f 
  402081:	62 71 7c 48 11 7c 24 	vmovups %zmm15,0x1100(%rsp)
  402088:	44 
  402089:	62 71 7c 48 10 7f 07 	vmovups 0x1c0(%rdi),%zmm15
  402090:	62 c1 7c 48 28 e8    	vmovaps %zmm8,%zmm21
  402096:	62 f1 4d 40 ef 6e 78 	vpxord 0x1e00(%rsi),%zmm22,%zmm5
  40209d:	62 e1 6d 40 ef 4e 06 	vpxord 0x180(%rsi),%zmm18,%zmm17
  4020a4:	62 61 35 40 ef 76 16 	vpxord 0x580(%rsi),%zmm25,%zmm30
  4020ab:	62 e1 7c 48 10 77 17 	vmovups 0x5c0(%rdi),%zmm22
  4020b2:	62 e1 7c 48 10 57 27 	vmovups 0x9c0(%rdi),%zmm18
  4020b9:	62 61 7c 48 10 4f 37 	vmovups 0xdc0(%rdi),%zmm25
  4020c0:	62 91 7d 48 ef f6    	vpxord %zmm30,%zmm0,%zmm6
  4020c6:	62 e3 75 40 25 ee 78 	vpternlogd $0x78,%zmm6,%zmm17,%zmm21
  4020cd:	62 e3 05 40 25 ce 1e 	vpternlogd $0x1e,%zmm6,%zmm31,%zmm17
  4020d4:	62 21 7c 48 28 c1    	vmovaps %zmm17,%zmm24
  4020da:	62 a3 5d 40 25 f9 96 	vpternlogd $0x96,%zmm17,%zmm20,%zmm23
  4020e1:	62 e1 7c 48 11 7c 24 	vmovups %zmm23,0xd80(%rsp)
  4020e8:	36 
  4020e9:	62 e1 7c 48 10 7e 56 	vmovups 0x1580(%rsi),%zmm23
  4020f0:	62 e1 55 40 ef 5e 46 	vpxord 0x1180(%rsi),%zmm21,%zmm19
  4020f7:	62 b1 0d 40 ef fc    	vpxord %zmm20,%zmm30,%zmm7
  4020fd:	62 63 55 40 25 c7 1e 	vpternlogd $0x1e,%zmm7,%zmm21,%zmm24
  402104:	62 b3 3d 48 25 f9 78 	vpternlogd $0x78,%zmm17,%zmm8,%zmm7
  40210b:	62 e1 7c 48 11 5c 24 	vmovups %zmm19,0xa80(%rsp)
  402112:	2a 
  402113:	62 61 4d 40 ef 66 17 	vpxord 0x5c0(%rsi),%zmm22,%zmm28
  40211a:	62 e1 6d 40 ef 66 27 	vpxord 0x9c0(%rsi),%zmm18,%zmm20
  402121:	62 e1 35 40 ef 4e 37 	vpxord 0xdc0(%rsi),%zmm25,%zmm17
  402128:	62 61 05 48 ef 6e 07 	vpxord 0x1c0(%rsi),%zmm15,%zmm29
  40212f:	62 11 7d 48 ef c4    	vpxord %zmm28,%zmm0,%zmm8
  402135:	62 a1 5d 40 ef d9    	vpxord %zmm17,%zmm20,%zmm19
  40213b:	62 c3 15 40 25 c8 36 	vpternlogd $0x36,%zmm8,%zmm29,%zmm17
  402142:	62 33 15 40 25 c3 6a 	vpternlogd $0x6a,%zmm19,%zmm29,%zmm8
  402149:	62 a3 5d 40 25 f9 96 	vpternlogd $0x96,%zmm17,%zmm20,%zmm23
  402150:	62 e1 7c 48 11 7c 24 	vmovups %zmm23,0xb80(%rsp)
  402157:	2e 
  402158:	62 a1 1d 40 ef ec    	vpxord %zmm20,%zmm28,%zmm21
  40215e:	62 a3 55 40 25 d9 6c 	vpternlogd $0x6c,%zmm17,%zmm21,%zmm19
  402165:	62 a3 3d 48 25 e9 56 	vpternlogd $0x56,%zmm17,%zmm8,%zmm21
  40216c:	62 e1 7c 48 10 4e 57 	vmovups 0x15c0(%rsi),%zmm17
  402173:	62 f1 3d 40 ef 56 6a 	vpxord 0x1a80(%rsi),%zmm24,%zmm2
  40217a:	62 f1 7c 48 11 54 24 	vmovups %zmm2,0xf80(%rsp)
  402181:	3e 
  402182:	62 61 7c 48 10 47 18 	vmovups 0x600(%rdi),%zmm24
  402189:	62 f1 7c 48 10 57 28 	vmovups 0xa00(%rdi),%zmm2
  402190:	62 f1 45 48 ef 76 79 	vpxord 0x1e40(%rsi),%zmm7,%zmm6
  402197:	62 61 55 40 ef 7e 6b 	vpxord 0x1ac0(%rsi),%zmm21,%zmm31
  40219e:	62 f1 7c 48 10 7f 38 	vmovups 0xe00(%rdi),%zmm7
  4021a5:	62 e1 7c 48 10 6f 08 	vmovups 0x200(%rdi),%zmm21
  4021ac:	62 61 7c 48 11 7c 24 	vmovups %zmm31,0xe40(%rsp)
  4021b3:	39 
  4021b4:	62 61 7c 48 10 7f 19 	vmovups 0x640(%rdi),%zmm31
  4021bb:	62 61 3d 48 ef 76 47 	vpxord 0x11c0(%rsi),%zmm8,%zmm30
  4021c2:	62 71 3d 40 ef 7e 18 	vpxord 0x600(%rsi),%zmm24,%zmm15
  4021c9:	62 61 6d 48 ef 6e 28 	vpxord 0xa00(%rsi),%zmm2,%zmm29
  4021d0:	62 e1 45 48 ef 66 38 	vpxord 0xe00(%rsi),%zmm7,%zmm20
  4021d7:	62 71 65 40 ef 46 7a 	vpxord 0x1e80(%rsi),%zmm19,%zmm8
  4021de:	62 e1 55 40 ef 76 08 	vpxord 0x200(%rsi),%zmm21,%zmm22
  4021e5:	62 c1 7d 48 ef d7    	vpxord %zmm15,%zmm0,%zmm18
  4021eb:	62 a1 15 40 ef dc    	vpxord %zmm20,%zmm29,%zmm19
  4021f1:	62 a3 4d 40 25 e2 36 	vpternlogd $0x36,%zmm18,%zmm22,%zmm20
  4021f8:	62 a3 4d 40 25 d3 6a 	vpternlogd $0x6a,%zmm19,%zmm22,%zmm18
  4021ff:	62 61 7c 48 11 74 24 	vmovups %zmm30,0xa00(%rsp)
  402206:	28 
  402207:	62 61 7c 48 10 77 09 	vmovups 0x240(%rdi),%zmm30
  40220e:	62 a3 15 40 25 cc 96 	vpternlogd $0x96,%zmm20,%zmm29,%zmm17
  402215:	62 e1 7c 48 11 4c 24 	vmovups %zmm17,0xc40(%rsp)
  40221c:	31 
  40221d:	62 81 05 48 ef ed    	vpxord %zmm29,%zmm15,%zmm21
  402223:	62 a3 55 40 25 dc 6c 	vpternlogd $0x6c,%zmm20,%zmm21,%zmm19
  40222a:	62 a3 6d 40 25 ec 56 	vpternlogd $0x56,%zmm20,%zmm18,%zmm21
  402231:	62 e1 7c 48 10 67 39 	vmovups 0xe40(%rdi),%zmm20
  402238:	62 61 7c 48 10 6f 2a 	vmovups 0xa80(%rdi),%zmm29
  40223f:	62 61 55 40 ef 66 6c 	vpxord 0x1b00(%rsi),%zmm21,%zmm28
  402246:	62 e1 65 40 ef 6e 7b 	vpxord 0x1ec0(%rsi),%zmm19,%zmm21
  40224d:	62 e1 7c 48 10 5f 29 	vmovups 0xa40(%rdi),%zmm19
  402254:	62 61 7c 48 11 64 24 	vmovups %zmm28,0xd40(%rsp)
  40225b:	35 
  40225c:	62 61 7c 48 10 67 1a 	vmovups 0x680(%rdi),%zmm28
  402263:	62 61 6d 40 ef 4e 48 	vpxord 0x1200(%rsi),%zmm18,%zmm25
  40226a:	62 e1 05 40 ef 4e 19 	vpxord 0x640(%rsi),%zmm31,%zmm17
  402271:	62 e1 65 40 ef 56 29 	vpxord 0xa40(%rsi),%zmm19,%zmm18
  402278:	62 e1 5d 40 ef 66 39 	vpxord 0xe40(%rsi),%zmm20,%zmm20
  40227f:	62 e1 0d 40 ef 7e 09 	vpxord 0x240(%rsi),%zmm30,%zmm23
  402286:	62 21 7d 48 ef c1    	vpxord %zmm17,%zmm0,%zmm24
  40228c:	62 a1 6d 40 ef f4    	vpxord %zmm20,%zmm18,%zmm22
  402292:	62 83 45 40 25 e0 36 	vpternlogd $0x36,%zmm24,%zmm23,%zmm20
  402299:	62 23 45 40 25 c6 6a 	vpternlogd $0x6a,%zmm22,%zmm23,%zmm24
  4022a0:	62 61 7c 48 11 4c 24 	vmovups %zmm25,0xa40(%rsp)
  4022a7:	29 
  4022a8:	62 61 7c 48 10 77 3a 	vmovups 0xe80(%rdi),%zmm30
  4022af:	62 61 7c 48 10 4f 0a 	vmovups 0x280(%rdi),%zmm25
  4022b6:	62 b1 75 40 ef fa    	vpxord %zmm18,%zmm17,%zmm7
  4022bc:	62 e1 7c 48 10 4e 58 	vmovups 0x1600(%rsi),%zmm17
  4022c3:	62 a3 45 48 25 f4 6c 	vpternlogd $0x6c,%zmm20,%zmm7,%zmm22
  4022ca:	62 b3 3d 40 25 fc 56 	vpternlogd $0x56,%zmm20,%zmm24,%zmm7
  4022d1:	62 a3 6d 40 25 cc 96 	vpternlogd $0x96,%zmm20,%zmm18,%zmm17
  4022d8:	62 e1 7c 48 10 57 0b 	vmovups 0x2c0(%rdi),%zmm18
  4022df:	62 e1 7c 48 11 4c 24 	vmovups %zmm17,0xc80(%rsp)
  4022e6:	32 
  4022e7:	62 71 45 48 ef 7e 6d 	vpxord 0x1b40(%rsi),%zmm7,%zmm15
  4022ee:	62 71 7c 48 11 7c 24 	vmovups %zmm15,0xe00(%rsp)
  4022f5:	38 
  4022f6:	62 e1 4d 40 ef 5e 7c 	vpxord 0x1f00(%rsi),%zmm22,%zmm19
  4022fd:	62 61 1d 40 ef 7e 1a 	vpxord 0x680(%rsi),%zmm28,%zmm31
  402304:	62 71 15 40 ef 7e 2a 	vpxord 0xa80(%rsi),%zmm29,%zmm15
  40230b:	62 e1 0d 40 ef 76 3a 	vpxord 0xe80(%rsi),%zmm30,%zmm22
  402312:	62 e1 35 40 ef 66 0a 	vpxord 0x280(%rsi),%zmm25,%zmm20
  402319:	62 81 7d 48 ef ff    	vpxord %zmm31,%zmm0,%zmm23
  40231f:	62 b1 05 48 ef fe    	vpxord %zmm22,%zmm15,%zmm7
  402325:	62 a3 5d 40 25 f7 36 	vpternlogd $0x36,%zmm23,%zmm20,%zmm22
  40232c:	62 e3 5d 40 25 ff 6a 	vpternlogd $0x6a,%zmm7,%zmm20,%zmm23
  402333:	62 61 7c 48 10 4f 1b 	vmovups 0x6c0(%rdi),%zmm25
  40233a:	62 61 7c 48 10 67 2b 	vmovups 0xac0(%rdi),%zmm28
  402341:	62 61 7c 48 10 6f 3b 	vmovups 0xec0(%rdi),%zmm29
  402348:	62 e1 45 40 ef 4e 4a 	vpxord 0x1280(%rsi),%zmm23,%zmm17
  40234f:	62 e1 7c 48 11 4c 24 	vmovups %zmm17,0xb00(%rsp)
  402356:	2c 
  402357:	62 e1 7c 48 10 4e 59 	vmovups 0x1640(%rsi),%zmm17
  40235e:	62 a3 05 48 25 ce 96 	vpternlogd $0x96,%zmm22,%zmm15,%zmm17
  402365:	62 e1 7c 48 11 4c 24 	vmovups %zmm17,0xd00(%rsp)
  40236c:	34 
  40236d:	62 f1 3d 40 ef 56 49 	vpxord 0x1240(%rsi),%zmm24,%zmm2
  402374:	62 41 05 40 ef c7    	vpxord %zmm15,%zmm31,%zmm24
  40237a:	62 b3 3d 40 25 fe 6c 	vpternlogd $0x6c,%zmm22,%zmm24,%zmm7
  402381:	62 23 45 40 25 c6 56 	vpternlogd $0x56,%zmm22,%zmm23,%zmm24
  402388:	62 f1 7c 48 11 54 24 	vmovups %zmm2,0xac0(%rsp)
  40238f:	2b 
  402390:	62 61 35 40 ef 76 1b 	vpxord 0x6c0(%rsi),%zmm25,%zmm30
  402397:	62 71 1d 40 ef 7e 2b 	vpxord 0xac0(%rsi),%zmm28,%zmm15
  40239e:	62 e1 15 40 ef 76 3b 	vpxord 0xec0(%rsi),%zmm29,%zmm22
  4023a5:	62 e1 45 48 ef 66 7d 	vpxord 0x1f40(%rsi),%zmm7,%zmm20
  4023ac:	62 61 6d 40 ef 7e 0b 	vpxord 0x2c0(%rsi),%zmm18,%zmm31
  4023b3:	62 81 7d 48 ef fe    	vpxord %zmm30,%zmm0,%zmm23
  4023b9:	62 b1 05 48 ef fe    	vpxord %zmm22,%zmm15,%zmm7
  4023bf:	62 a3 05 40 25 f7 36 	vpternlogd $0x36,%zmm23,%zmm31,%zmm22
  4023c6:	62 e3 05 40 25 ff 6a 	vpternlogd $0x6a,%zmm7,%zmm31,%zmm23
  4023cd:	62 e1 7c 48 10 57 0c 	vmovups 0x300(%rdi),%zmm18
  4023d4:	62 61 7c 48 10 6f 3c 	vmovups 0xf00(%rdi),%zmm29
  4023db:	62 61 7c 48 10 4f 1c 	vmovups 0x700(%rdi),%zmm25
  4023e2:	62 61 7c 48 10 67 2c 	vmovups 0xb00(%rdi),%zmm28
  4023e9:	62 f1 3d 40 ef 56 6e 	vpxord 0x1b80(%rsi),%zmm24,%zmm2
  4023f0:	62 41 0d 40 ef c7    	vpxord %zmm15,%zmm30,%zmm24
  4023f6:	62 e1 45 40 ef 4e 4b 	vpxord 0x12c0(%rsi),%zmm23,%zmm17
  4023fd:	62 b3 3d 40 25 fe 6c 	vpternlogd $0x6c,%zmm22,%zmm24,%zmm7
  402404:	62 23 45 40 25 c6 56 	vpternlogd $0x56,%zmm22,%zmm23,%zmm24
  40240b:	62 e1 7c 48 10 7e 5a 	vmovups 0x1680(%rsi),%zmm23
  402412:	62 f1 7c 48 11 54 24 	vmovups %zmm2,0xe80(%rsp)
  402419:	3a 
  40241a:	62 e1 7c 48 11 4c 24 	vmovups %zmm17,0xb40(%rsp)
  402421:	2d 
  402422:	62 a3 05 48 25 fe 96 	vpternlogd $0x96,%zmm22,%zmm15,%zmm23
  402429:	62 e1 7c 48 11 7c 24 	vmovups %zmm23,0xdc0(%rsp)
  402430:	37 
  402431:	62 61 6d 40 ef 7e 0c 	vpxord 0x300(%rsi),%zmm18,%zmm31
  402438:	62 e1 15 40 ef 76 3c 	vpxord 0xf00(%rsi),%zmm29,%zmm22
  40243f:	62 61 35 40 ef 76 1c 	vpxord 0x700(%rsi),%zmm25,%zmm30
  402446:	62 71 1d 40 ef 7e 2c 	vpxord 0xb00(%rsi),%zmm28,%zmm15
  40244d:	62 e1 7c 48 10 56 5b 	vmovups 0x16c0(%rsi),%zmm18
  402454:	62 61 7c 48 10 6f 2d 	vmovups 0xb40(%rdi),%zmm29
  40245b:	62 61 7c 48 10 67 1d 	vmovups 0x740(%rdi),%zmm28
  402462:	62 61 7c 48 10 4f 0d 	vmovups 0x340(%rdi),%zmm25
  402469:	62 f1 3d 40 ef 56 6f 	vpxord 0x1bc0(%rsi),%zmm24,%zmm2
  402470:	62 e1 45 48 ef 4e 7e 	vpxord 0x1f80(%rsi),%zmm7,%zmm17
  402477:	62 01 7d 48 ef c6    	vpxord %zmm30,%zmm0,%zmm24
  40247d:	62 b1 05 48 ef fe    	vpxord %zmm22,%zmm15,%zmm7
  402483:	62 83 05 40 25 f0 36 	vpternlogd $0x36,%zmm24,%zmm31,%zmm22
  40248a:	62 63 05 40 25 c7 6a 	vpternlogd $0x6a,%zmm7,%zmm31,%zmm24
  402491:	62 f1 7c 48 11 54 24 	vmovups %zmm2,0xf00(%rsp)
  402498:	3c 
  402499:	62 a3 05 48 25 d6 96 	vpternlogd $0x96,%zmm22,%zmm15,%zmm18
  4024a0:	62 e1 7c 48 11 54 24 	vmovups %zmm18,0xec0(%rsp)
  4024a7:	3b 
  4024a8:	62 d1 0d 40 ef d7    	vpxord %zmm15,%zmm30,%zmm2
  4024ae:	62 61 7c 48 10 77 3d 	vmovups 0xf40(%rdi),%zmm30
  4024b5:	62 b3 6d 48 25 fe 6c 	vpternlogd $0x6c,%zmm22,%zmm2,%zmm7
  4024bc:	62 b3 3d 40 25 d6 56 	vpternlogd $0x56,%zmm22,%zmm24,%zmm2
  4024c3:	62 e1 15 40 ef 76 2d 	vpxord 0xb40(%rsi),%zmm29,%zmm22
  4024ca:	62 e1 3d 40 ef 7e 4c 	vpxord 0x1300(%rsi),%zmm24,%zmm23
  4024d1:	62 61 7c 48 10 6e 5c 	vmovups 0x1700(%rsi),%zmm29
  4024d8:	62 e1 7c 48 11 7c 24 	vmovups %zmm23,0xc00(%rsp)
  4024df:	30 
  4024e0:	62 e1 6d 48 ef 7e 60 	vpxord 0x1800(%rsi),%zmm2,%zmm23
  4024e7:	62 61 1d 40 ef 7e 1d 	vpxord 0x740(%rsi),%zmm28,%zmm31
  4024ee:	62 61 45 48 ef 46 7f 	vpxord 0x1fc0(%rsi),%zmm7,%zmm24
  4024f5:	62 f1 35 40 ef 56 0d 	vpxord 0x340(%rsi),%zmm25,%zmm2
  4024fc:	62 71 0d 40 ef 7e 3d 	vpxord 0xf40(%rsi),%zmm30,%zmm15
  402503:	62 91 7d 48 ef ff    	vpxord %zmm31,%zmm0,%zmm7
  402509:	62 41 4d 40 ef e7    	vpxord %zmm15,%zmm22,%zmm28
  40250f:	62 73 6d 48 25 ff 36 	vpternlogd $0x36,%zmm7,%zmm2,%zmm15
  402516:	62 93 6d 48 25 fc 6a 	vpternlogd $0x6a,%zmm28,%zmm2,%zmm7
  40251d:	62 61 7c 48 10 77 2e 	vmovups 0xb80(%rdi),%zmm30
  402524:	62 43 4d 40 25 ef 96 	vpternlogd $0x96,%zmm15,%zmm22,%zmm29
  40252b:	62 61 7c 48 11 6c 24 	vmovups %zmm29,0xf40(%rsp)
  402532:	3d 
  402533:	62 21 05 40 ef ce    	vpxord %zmm22,%zmm31,%zmm25
  402539:	62 e1 7c 48 10 77 1e 	vmovups 0x780(%rdi),%zmm22
  402540:	62 61 7c 48 10 7f 3e 	vmovups 0xf80(%rdi),%zmm31
  402547:	62 43 35 40 25 e7 6c 	vpternlogd $0x6c,%zmm15,%zmm25,%zmm28
  40254e:	62 43 45 48 25 cf 56 	vpternlogd $0x56,%zmm15,%zmm7,%zmm25
  402555:	62 71 7c 48 10 7f 0e 	vmovups 0x380(%rdi),%zmm15
  40255c:	62 e1 45 48 ef 56 4d 	vpxord 0x1340(%rsi),%zmm7,%zmm18
  402563:	62 f1 35 40 ef 56 61 	vpxord 0x1840(%rsi),%zmm25,%zmm2
  40256a:	62 e1 7c 48 11 54 24 	vmovups %zmm18,0xcc0(%rsp)
  402571:	33 
  402572:	62 61 4d 40 ef 4e 1e 	vpxord 0x780(%rsi),%zmm22,%zmm25
  402579:	62 f1 1d 40 ef 7e 70 	vpxord 0x1c00(%rsi),%zmm28,%zmm7
  402580:	62 71 05 48 ef 7e 0e 	vpxord 0x380(%rsi),%zmm15,%zmm15
  402587:	62 e1 0d 40 ef 76 2e 	vpxord 0xb80(%rsi),%zmm30,%zmm22
  40258e:	62 e1 05 40 ef 56 3e 	vpxord 0xf80(%rsi),%zmm31,%zmm18
  402595:	62 01 7d 48 ef e1    	vpxord %zmm25,%zmm0,%zmm28
  40259b:	62 21 35 40 ef f6    	vpxord %zmm22,%zmm25,%zmm30
  4025a1:	62 21 4d 40 ef ca    	vpxord %zmm18,%zmm22,%zmm25
  4025a7:	62 83 05 48 25 d4 36 	vpternlogd $0x36,%zmm28,%zmm15,%zmm18
  4025ae:	62 03 05 48 25 e1 6a 	vpternlogd $0x6a,%zmm25,%zmm15,%zmm28
  4025b5:	62 61 7c 48 11 44 24 	vmovups %zmm24,0x1200(%rsp)
  4025bc:	48 
  4025bd:	62 23 0d 40 25 ca 6c 	vpternlogd $0x6c,%zmm18,%zmm30,%zmm25
  4025c4:	62 23 1d 40 25 f2 56 	vpternlogd $0x56,%zmm18,%zmm28,%zmm30
  4025cb:	62 71 1d 40 ef 7e 4e 	vpxord 0x1380(%rsi),%zmm28,%zmm15
  4025d2:	62 71 7c 48 11 7c 24 	vmovups %zmm15,0x1240(%rsp)
  4025d9:	49 
  4025da:	62 71 7c 48 10 7e 5d 	vmovups 0x1740(%rsi),%zmm15
  4025e1:	62 61 7c 48 10 67 2f 	vmovups 0xbc0(%rdi),%zmm28
  4025e8:	62 33 4d 40 25 fa 96 	vpternlogd $0x96,%zmm18,%zmm22,%zmm15
  4025ef:	62 e1 7c 48 10 77 0f 	vmovups 0x3c0(%rdi),%zmm22
  4025f6:	62 e1 7c 48 10 57 3f 	vmovups 0xfc0(%rdi),%zmm18
  4025fd:	62 61 0d 40 ef 46 62 	vpxord 0x1880(%rsi),%zmm30,%zmm24
  402604:	62 61 7c 48 10 77 1f 	vmovups 0x7c0(%rdi),%zmm30
  40260b:	62 61 35 40 ef 7e 71 	vpxord 0x1c40(%rsi),%zmm25,%zmm31
  402612:	62 61 4d 40 ef 6e 0f 	vpxord 0x3c0(%rsi),%zmm22,%zmm29
  402619:	62 61 0d 40 ef 76 1f 	vpxord 0x7c0(%rsi),%zmm30,%zmm30
  402620:	62 e1 1d 40 ef 76 2f 	vpxord 0xbc0(%rsi),%zmm28,%zmm22
  402627:	62 61 6d 40 ef 4e 3f 	vpxord 0xfc0(%rsi),%zmm18,%zmm25
  40262e:	62 81 7d 48 ef d6    	vpxord %zmm30,%zmm0,%zmm18
  402634:	62 01 4d 40 ef e1    	vpxord %zmm25,%zmm22,%zmm28
  40263a:	62 23 15 40 25 ca 36 	vpternlogd $0x36,%zmm18,%zmm29,%zmm25
  402641:	62 83 15 40 25 d4 6a 	vpternlogd $0x6a,%zmm28,%zmm29,%zmm18
  402648:	62 21 0d 40 ef f6    	vpxord %zmm22,%zmm30,%zmm30
  40264e:	62 03 0d 40 25 e1 6c 	vpternlogd $0x6c,%zmm25,%zmm30,%zmm28
  402655:	62 03 6d 40 25 f1 56 	vpternlogd $0x56,%zmm25,%zmm18,%zmm30
  40265c:	62 61 0d 40 ef 6e 63 	vpxord 0x18c0(%rsi),%zmm30,%zmm29
  402663:	62 61 7c 48 10 76 5e 	vmovups 0x1780(%rsi),%zmm30
  40266a:	62 03 4d 40 25 f1 96 	vpternlogd $0x96,%zmm25,%zmm22,%zmm30
  402671:	62 e1 7d 48 ef f3    	vpxord %zmm3,%zmm0,%zmm22
  402677:	62 61 45 40 ef cf    	vpxord %zmm7,%zmm23,%zmm25
  40267d:	62 b3 25 48 25 fe 36 	vpternlogd $0x36,%zmm22,%zmm11,%zmm7
  402684:	62 83 25 48 25 f1 6a 	vpternlogd $0x6a,%zmm25,%zmm11,%zmm22
  40268b:	62 b1 65 48 ef df    	vpxord %zmm23,%zmm3,%zmm3
  402691:	62 63 65 48 25 cf 6c 	vpternlogd $0x6c,%zmm7,%zmm3,%zmm25
  402698:	62 f3 4d 40 25 df 56 	vpternlogd $0x56,%zmm7,%zmm22,%zmm3
  40269f:	62 71 65 48 ef 9e 00 	vpxord 0x2900(%rsi),%zmm3,%zmm11
  4026a6:	29 00 00 
  4026a9:	62 f1 35 40 ef 9e c0 	vpxord 0x2cc0(%rsi),%zmm25,%zmm3
  4026b0:	2c 00 00 
  4026b3:	62 61 7c 48 10 8e c0 	vmovups 0x27c0(%rsi),%zmm25
  4026ba:	27 00 00 
  4026bd:	62 63 45 40 25 cf 96 	vpternlogd $0x96,%zmm7,%zmm23,%zmm25
  4026c4:	62 61 7c 48 11 4c 24 	vmovups %zmm25,0x40(%rsp)
  4026cb:	01 
  4026cc:	62 b1 7d 48 ef f8    	vpxord %zmm16,%zmm0,%zmm7
  4026d2:	62 61 7d 40 ef ca    	vpxord %zmm2,%zmm16,%zmm25
  4026d8:	62 81 6d 48 ef c7    	vpxord %zmm31,%zmm2,%zmm16
  4026de:	62 63 2d 48 25 ff 36 	vpternlogd $0x36,%zmm7,%zmm10,%zmm31
  4026e5:	62 b3 2d 48 25 f8 6a 	vpternlogd $0x6a,%zmm16,%zmm10,%zmm7
  4026ec:	62 83 35 40 25 c7 6c 	vpternlogd $0x6c,%zmm31,%zmm25,%zmm16
  4026f3:	62 03 45 48 25 cf 56 	vpternlogd $0x56,%zmm31,%zmm7,%zmm25
  4026fa:	62 e1 45 48 ef be 40 	vpxord 0x2040(%rsi),%zmm7,%zmm23
  402701:	20 00 00 
  402704:	62 f1 7d 40 ef be 00 	vpxord 0x2d00(%rsi),%zmm16,%zmm7
  40270b:	2d 00 00 
  40270e:	62 e1 7c 48 10 86 00 	vmovups 0x2400(%rsi),%zmm16
  402715:	24 00 00 
  402718:	62 83 6d 48 25 c7 96 	vpternlogd $0x96,%zmm31,%zmm2,%zmm16
  40271f:	62 61 7c 48 10 7c 24 	vmovups 0x1140(%rsp),%zmm31
  402726:	45 
  402727:	62 71 35 40 ef 96 40 	vpxord 0x2940(%rsi),%zmm25,%zmm10
  40272e:	29 00 00 
  402731:	62 71 7c 48 11 54 24 	vmovups %zmm10,0x1280(%rsp)
  402738:	4a 
  402739:	62 11 7d 48 ef d7    	vpxord %zmm31,%zmm0,%zmm10
  40273f:	62 01 05 40 ef c8    	vpxord %zmm24,%zmm31,%zmm25
  402745:	62 61 7c 48 10 7c 24 	vmovups 0x10c0(%rsp),%zmm31
  40274c:	43 
  40274d:	62 61 1d 40 ef 66 72 	vpxord 0x1c80(%rsi),%zmm28,%zmm28
  402754:	62 91 3d 40 ef d4    	vpxord %zmm28,%zmm24,%zmm2
  40275a:	62 43 05 40 25 e2 36 	vpternlogd $0x36,%zmm10,%zmm31,%zmm28
  402761:	62 73 05 40 25 d2 6a 	vpternlogd $0x6a,%zmm2,%zmm31,%zmm10
  402768:	62 61 7c 48 10 7c 24 	vmovups 0x1040(%rsp),%zmm31
  40276f:	41 
  402770:	62 93 35 40 25 d4 6c 	vpternlogd $0x6c,%zmm28,%zmm25,%zmm2
  402777:	62 03 2d 48 25 cc 56 	vpternlogd $0x56,%zmm28,%zmm10,%zmm25
  40277e:	62 61 35 40 ef 8e 80 	vpxord 0x2980(%rsi),%zmm25,%zmm25
  402785:	29 00 00 
  402788:	62 61 7c 48 11 4c 24 	vmovups %zmm25,0x12c0(%rsp)
  40278f:	4b 
  402790:	62 61 7c 48 10 8e 40 	vmovups 0x2440(%rsi),%zmm25
  402797:	24 00 00 
  40279a:	62 03 3d 40 25 cc 96 	vpternlogd $0x96,%zmm28,%zmm24,%zmm25
  4027a1:	62 61 7c 48 10 44 24 	vmovups 0x1080(%rsp),%zmm24
  4027a8:	42 
  4027a9:	62 f1 6d 48 ef 96 40 	vpxord 0x2d40(%rsi),%zmm2,%zmm2
  4027b0:	2d 00 00 
  4027b3:	62 f1 7c 48 11 54 24 	vmovups %zmm2,0x1300(%rsp)
  4027ba:	4c 
  4027bb:	62 01 7d 48 ef e0    	vpxord %zmm24,%zmm0,%zmm28
  4027c1:	62 f1 15 40 ef d1    	vpxord %zmm1,%zmm29,%zmm2
  4027c7:	62 93 05 40 25 cc 36 	vpternlogd $0x36,%zmm28,%zmm31,%zmm1
  4027ce:	62 63 05 40 25 e2 6a 	vpternlogd $0x6a,%zmm2,%zmm31,%zmm28
  4027d5:	62 01 3d 40 ef c5    	vpxord %zmm29,%zmm24,%zmm24
  4027db:	62 f3 3d 40 25 d1 6c 	vpternlogd $0x6c,%zmm1,%zmm24,%zmm2
  4027e2:	62 63 1d 40 25 c1 56 	vpternlogd $0x56,%zmm1,%zmm28,%zmm24
  4027e9:	62 61 3d 40 ef 86 c0 	vpxord 0x29c0(%rsi),%zmm24,%zmm24
  4027f0:	29 00 00 
  4027f3:	62 61 7c 48 11 44 24 	vmovups %zmm24,0x13c0(%rsp)
  4027fa:	4f 
  4027fb:	62 61 7c 48 10 86 80 	vmovups 0x2480(%rsi),%zmm24
  402802:	24 00 00 
  402805:	62 63 15 40 25 c1 96 	vpternlogd $0x96,%zmm1,%zmm29,%zmm24
  40280c:	62 f1 7c 48 10 4c 24 	vmovups 0x1000(%rsp),%zmm1
  402813:	40 
  402814:	62 61 7c 48 10 6c 24 	vmovups 0xfc0(%rsp),%zmm29
  40281b:	3f 
  40281c:	62 f1 6d 48 ef 96 80 	vpxord 0x2d80(%rsi),%zmm2,%zmm2
  402823:	2d 00 00 
  402826:	62 f1 7c 48 11 54 24 	vmovups %zmm2,0x1400(%rsp)
  40282d:	50 
  40282e:	62 f1 7d 48 ef d1    	vpxord %zmm1,%zmm0,%zmm2
  402834:	62 61 35 48 ef fc    	vpxord %zmm4,%zmm9,%zmm31
  40283a:	62 f3 15 40 25 e2 36 	vpternlogd $0x36,%zmm2,%zmm29,%zmm4
  402841:	62 93 15 40 25 d7 6a 	vpternlogd $0x6a,%zmm31,%zmm29,%zmm2
  402848:	62 61 7c 48 10 6c 24 	vmovups 0xbc0(%rsp),%zmm29
  40284f:	2f 
  402850:	62 d1 75 48 ef c9    	vpxord %zmm9,%zmm1,%zmm1
  402856:	62 63 75 48 25 fc 6c 	vpternlogd $0x6c,%zmm4,%zmm1,%zmm31
  40285d:	62 f3 6d 48 25 cc 56 	vpternlogd $0x56,%zmm4,%zmm2,%zmm1
  402864:	62 f1 75 48 ef 8e 00 	vpxord 0x2a00(%rsi),%zmm1,%zmm1
  40286b:	2a 00 00 
  40286e:	62 f1 7c 48 11 4c 24 	vmovups %zmm1,0x1440(%rsp)
  402875:	51 
  402876:	62 f1 7c 48 10 8e c0 	vmovups 0x24c0(%rsi),%zmm1
  40287d:	24 00 00 
  402880:	62 f3 35 48 25 cc 96 	vpternlogd $0x96,%zmm4,%zmm9,%zmm1
  402887:	62 f1 7c 48 10 64 24 	vmovups 0xd80(%rsp),%zmm4
  40288e:	36 
  40288f:	62 61 05 40 ef be c0 	vpxord 0x2dc0(%rsi),%zmm31,%zmm31
  402896:	2d 00 00 
  402899:	62 61 7c 48 11 7c 24 	vmovups %zmm31,0x1480(%rsp)
  4028a0:	52 
  4028a1:	62 71 7d 48 ef cc    	vpxord %zmm4,%zmm0,%zmm9
  4028a7:	62 41 1d 48 ef fd    	vpxord %zmm13,%zmm12,%zmm31
  4028ad:	62 53 15 40 25 e9 36 	vpternlogd $0x36,%zmm9,%zmm29,%zmm13
  4028b4:	62 13 15 40 25 cf 6a 	vpternlogd $0x6a,%zmm31,%zmm29,%zmm9
  4028bb:	62 61 7c 48 10 6c 24 	vmovups 0xa80(%rsp),%zmm29
  4028c2:	2a 
  4028c3:	62 d1 5d 48 ef e4    	vpxord %zmm12,%zmm4,%zmm4
  4028c9:	62 43 5d 48 25 fd 6c 	vpternlogd $0x6c,%zmm13,%zmm4,%zmm31
  4028d0:	62 d3 35 48 25 e5 56 	vpternlogd $0x56,%zmm13,%zmm9,%zmm4
  4028d7:	62 f1 5d 48 ef a6 40 	vpxord 0x2a40(%rsi),%zmm4,%zmm4
  4028de:	2a 00 00 
  4028e1:	62 f1 7c 48 11 64 24 	vmovups %zmm4,0x14c0(%rsp)
  4028e8:	53 
  4028e9:	62 f1 7c 48 10 a6 00 	vmovups 0x2500(%rsi),%zmm4
  4028f0:	25 00 00 
  4028f3:	62 d3 1d 48 25 e5 96 	vpternlogd $0x96,%zmm13,%zmm12,%zmm4
  4028fa:	62 71 7c 48 10 64 24 	vmovups 0xb80(%rsp),%zmm12
  402901:	2e 
  402902:	62 61 05 40 ef be 00 	vpxord 0x2e00(%rsi),%zmm31,%zmm31
  402909:	2e 00 00 
  40290c:	62 61 7c 48 11 7c 24 	vmovups %zmm31,0x1500(%rsp)
  402913:	54 
  402914:	62 41 7d 48 ef fc    	vpxord %zmm12,%zmm0,%zmm31
  40291a:	62 51 2d 40 ef ee    	vpxord %zmm14,%zmm26,%zmm13
  402920:	62 13 15 40 25 f7 36 	vpternlogd $0x36,%zmm31,%zmm29,%zmm14
  402927:	62 43 15 40 25 fd 6a 	vpternlogd $0x6a,%zmm13,%zmm29,%zmm31
  40292e:	62 61 7c 48 10 6c 24 	vmovups 0x11c0(%rsp),%zmm29
  402935:	47 
  402936:	62 11 1d 48 ef e2    	vpxord %zmm26,%zmm12,%zmm12
  40293c:	62 53 1d 48 25 ee 6c 	vpternlogd $0x6c,%zmm14,%zmm12,%zmm13
  402943:	62 53 05 40 25 e6 56 	vpternlogd $0x56,%zmm14,%zmm31,%zmm12
  40294a:	62 71 1d 48 ef a6 80 	vpxord 0x2a80(%rsi),%zmm12,%zmm12
  402951:	2a 00 00 
  402954:	62 71 7c 48 11 64 24 	vmovups %zmm12,0x1580(%rsp)
  40295b:	56 
  40295c:	62 71 7c 48 10 a6 40 	vmovups 0x2540(%rsi),%zmm12
  402963:	25 00 00 
  402966:	62 53 2d 40 25 e6 96 	vpternlogd $0x96,%zmm14,%zmm26,%zmm12
  40296d:	62 71 7c 48 10 74 24 	vmovups 0xc40(%rsp),%zmm14
  402974:	31 
  402975:	62 61 05 40 ef be 80 	vpxord 0x2180(%rsi),%zmm31,%zmm31
  40297c:	21 00 00 
  40297f:	62 61 7c 48 11 7c 24 	vmovups %zmm31,0x1540(%rsp)
  402986:	55 
  402987:	62 61 7c 48 10 7c 24 	vmovups 0xa00(%rsp),%zmm31
  40298e:	28 
  40298f:	62 71 15 48 ef ae 40 	vpxord 0x2e40(%rsi),%zmm13,%zmm13
  402996:	2e 00 00 
  402999:	62 71 7c 48 11 6c 24 	vmovups %zmm13,0x15c0(%rsp)
  4029a0:	57 
  4029a1:	62 41 7d 48 ef d6    	vpxord %zmm14,%zmm0,%zmm26
  4029a7:	62 11 0d 48 ef ed    	vpxord %zmm29,%zmm14,%zmm13
  4029ad:	62 11 15 40 ef f3    	vpxord %zmm27,%zmm29,%zmm14
  4029b3:	62 03 05 40 25 da 36 	vpternlogd $0x36,%zmm26,%zmm31,%zmm27
  4029ba:	62 43 05 40 25 d6 6a 	vpternlogd $0x6a,%zmm14,%zmm31,%zmm26
  4029c1:	62 61 7c 48 10 7c 24 	vmovups 0x1180(%rsp),%zmm31
  4029c8:	46 
  4029c9:	62 13 15 48 25 f3 6c 	vpternlogd $0x6c,%zmm27,%zmm13,%zmm14
  4029d0:	62 13 2d 40 25 eb 56 	vpternlogd $0x56,%zmm27,%zmm26,%zmm13
  4029d7:	62 71 15 48 ef ae c0 	vpxord 0x2ac0(%rsi),%zmm13,%zmm13
  4029de:	2a 00 00 
  4029e1:	62 71 7c 48 11 6c 24 	vmovups %zmm13,0x1640(%rsp)
  4029e8:	59 
  4029e9:	62 71 7c 48 10 ae 80 	vmovups 0x2580(%rsi),%zmm13
  4029f0:	25 00 00 
  4029f3:	62 13 15 40 25 eb 96 	vpternlogd $0x96,%zmm27,%zmm29,%zmm13
  4029fa:	62 61 7c 48 10 6c 24 	vmovups 0xa40(%rsp),%zmm29
  402a01:	29 
  402a02:	62 61 2d 40 ef 96 c0 	vpxord 0x21c0(%rsi),%zmm26,%zmm26
  402a09:	21 00 00 
  402a0c:	62 61 7c 48 11 54 24 	vmovups %zmm26,0x1600(%rsp)
  402a13:	58 
  402a14:	62 61 7c 48 10 54 24 	vmovups 0xc80(%rsp),%zmm26
  402a1b:	32 
  402a1c:	62 71 0d 48 ef b6 80 	vpxord 0x2e80(%rsi),%zmm14,%zmm14
  402a23:	2e 00 00 
  402a26:	62 71 7c 48 11 74 24 	vmovups %zmm14,0x1680(%rsp)
  402a2d:	5a 
  402a2e:	62 01 7d 48 ef da    	vpxord %zmm26,%zmm0,%zmm27
  402a34:	62 11 2d 40 ef f7    	vpxord %zmm31,%zmm26,%zmm14
  402a3a:	62 61 05 40 ef d5    	vpxord %zmm5,%zmm31,%zmm26
  402a40:	62 93 15 40 25 eb 36 	vpternlogd $0x36,%zmm27,%zmm29,%zmm5
  402a47:	62 03 15 40 25 da 6a 	vpternlogd $0x6a,%zmm26,%zmm29,%zmm27
  402a4e:	62 61 7c 48 10 6c 24 	vmovups 0x1100(%rsp),%zmm29
  402a55:	44 
  402a56:	62 63 0d 48 25 d5 6c 	vpternlogd $0x6c,%zmm5,%zmm14,%zmm26
  402a5d:	62 73 25 40 25 f5 56 	vpternlogd $0x56,%zmm5,%zmm27,%zmm14
  402a64:	62 71 0d 48 ef b6 00 	vpxord 0x2b00(%rsi),%zmm14,%zmm14
  402a6b:	2b 00 00 
  402a6e:	62 71 7c 48 11 74 24 	vmovups %zmm14,0x16c0(%rsp)
  402a75:	5b 
  402a76:	62 71 7c 48 10 b6 c0 	vmovups 0x25c0(%rsi),%zmm14
  402a7d:	25 00 00 
  402a80:	62 73 05 40 25 f5 96 	vpternlogd $0x96,%zmm5,%zmm31,%zmm14
  402a87:	62 f1 7c 48 10 6c 24 	vmovups 0xd00(%rsp),%zmm5
  402a8e:	34 
  402a8f:	62 61 7c 48 10 7c 24 	vmovups 0xac0(%rsp),%zmm31
  402a96:	2b 
  402a97:	62 61 25 40 ef 9e 00 	vpxord 0x2200(%rsi),%zmm27,%zmm27
  402a9e:	22 00 00 
  402aa1:	62 61 2d 40 ef 96 c0 	vpxord 0x2ec0(%rsi),%zmm26,%zmm26
  402aa8:	2e 00 00 
  402aab:	62 61 7c 48 11 5c 24 	vmovups %zmm27,0x480(%rsp)
  402ab2:	12 
  402ab3:	62 61 7c 48 11 54 24 	vmovups %zmm26,0x1700(%rsp)
  402aba:	5c 
  402abb:	62 61 7d 48 ef dd    	vpxord %zmm5,%zmm0,%zmm27
  402ac1:	62 61 15 40 ef d6    	vpxord %zmm6,%zmm29,%zmm26
  402ac7:	62 93 05 40 25 f3 36 	vpternlogd $0x36,%zmm27,%zmm31,%zmm6
  402ace:	62 03 05 40 25 da 6a 	vpternlogd $0x6a,%zmm26,%zmm31,%zmm27
  402ad5:	62 61 7c 48 10 7c 24 	vmovups 0xf80(%rsp),%zmm31
  402adc:	3e 
  402add:	62 91 55 48 ef ed    	vpxord %zmm29,%zmm5,%zmm5
  402ae3:	62 63 55 48 25 d6 6c 	vpternlogd $0x6c,%zmm6,%zmm5,%zmm26
  402aea:	62 f3 25 40 25 ee 56 	vpternlogd $0x56,%zmm6,%zmm27,%zmm5
  402af1:	62 61 25 40 ef 9e 40 	vpxord 0x2240(%rsi),%zmm27,%zmm27
  402af8:	22 00 00 
  402afb:	62 61 7c 48 11 5c 24 	vmovups %zmm27,0x280(%rsp)
  402b02:	0a 
  402b03:	62 61 7c 48 10 9e 00 	vmovups 0x2600(%rsi),%zmm27
  402b0a:	26 00 00 
  402b0d:	62 63 15 40 25 de 96 	vpternlogd $0x96,%zmm6,%zmm29,%zmm27
  402b14:	62 f1 7c 48 10 74 24 	vmovups 0xdc0(%rsp),%zmm6
  402b1b:	37 
  402b1c:	62 61 7c 48 10 6c 24 	vmovups 0xb00(%rsp),%zmm29
  402b23:	2c 
  402b24:	62 61 7c 48 11 5c 24 	vmovups %zmm27,0x880(%rsp)
  402b2b:	22 
  402b2c:	62 61 2d 40 ef 96 00 	vpxord 0x2f00(%rsi),%zmm26,%zmm26
  402b33:	2f 00 00 
  402b36:	62 61 7c 48 11 54 24 	vmovups %zmm26,0x1740(%rsp)
  402b3d:	5d 
  402b3e:	62 61 7d 48 ef de    	vpxord %zmm6,%zmm0,%zmm27
  402b44:	62 41 05 40 ef d0    	vpxord %zmm8,%zmm31,%zmm26
  402b4a:	62 13 15 40 25 c3 36 	vpternlogd $0x36,%zmm27,%zmm29,%zmm8
  402b51:	62 03 15 40 25 da 6a 	vpternlogd $0x6a,%zmm26,%zmm29,%zmm27
  402b58:	62 61 7c 48 10 6c 24 	vmovups 0xe40(%rsp),%zmm29
  402b5f:	39 
  402b60:	62 91 4d 48 ef f7    	vpxord %zmm31,%zmm6,%zmm6
  402b66:	62 43 4d 48 25 d0 6c 	vpternlogd $0x6c,%zmm8,%zmm6,%zmm26
  402b6d:	62 d3 25 40 25 f0 56 	vpternlogd $0x56,%zmm8,%zmm27,%zmm6
  402b74:	62 61 25 40 ef 9e 80 	vpxord 0x2280(%rsi),%zmm27,%zmm27
  402b7b:	22 00 00 
  402b7e:	62 61 7c 48 11 5c 24 	vmovups %zmm27,0x240(%rsp)
  402b85:	09 
  402b86:	62 61 7c 48 10 9e 40 	vmovups 0x2640(%rsi),%zmm27
  402b8d:	26 00 00 
  402b90:	62 43 05 40 25 d8 96 	vpternlogd $0x96,%zmm8,%zmm31,%zmm27
  402b97:	62 71 7c 48 10 44 24 	vmovups 0xec0(%rsp),%zmm8
  402b9e:	3b 
  402b9f:	62 61 7c 48 10 7c 24 	vmovups 0xb40(%rsp),%zmm31
  402ba6:	2d 
  402ba7:	62 61 7c 48 11 5c 24 	vmovups %zmm27,0x8c0(%rsp)
  402bae:	23 
  402baf:	62 61 2d 40 ef 96 40 	vpxord 0x2f40(%rsi),%zmm26,%zmm26
  402bb6:	2f 00 00 
  402bb9:	62 61 7c 48 11 54 24 	vmovups %zmm26,0x1780(%rsp)
  402bc0:	5e 
  402bc1:	62 41 7d 48 ef d8    	vpxord %zmm8,%zmm0,%zmm27
  402bc7:	62 21 15 40 ef d5    	vpxord %zmm21,%zmm29,%zmm26
  402bcd:	62 83 05 40 25 eb 36 	vpternlogd $0x36,%zmm27,%zmm31,%zmm21
  402bd4:	62 03 05 40 25 da 6a 	vpternlogd $0x6a,%zmm26,%zmm31,%zmm27
  402bdb:	62 61 7c 48 10 7c 24 	vmovups 0xd40(%rsp),%zmm31
  402be2:	35 
  402be3:	62 11 3d 48 ef c5    	vpxord %zmm29,%zmm8,%zmm8
  402be9:	62 23 3d 48 25 d5 6c 	vpternlogd $0x6c,%zmm21,%zmm8,%zmm26
  402bf0:	62 33 25 40 25 c5 56 	vpternlogd $0x56,%zmm21,%zmm27,%zmm8
  402bf7:	62 71 3d 48 ef 86 c0 	vpxord 0x2bc0(%rsi),%zmm8,%zmm8
  402bfe:	2b 00 00 
  402c01:	62 71 7c 48 11 44 24 	vmovups %zmm8,0x980(%rsp)
  402c08:	26 
  402c09:	62 71 2d 40 ef 86 80 	vpxord 0x2f80(%rsi),%zmm26,%zmm8
  402c10:	2f 00 00 
  402c13:	62 61 7c 48 10 96 80 	vmovups 0x2680(%rsi),%zmm26
  402c1a:	26 00 00 
  402c1d:	62 23 15 40 25 d5 96 	vpternlogd $0x96,%zmm21,%zmm29,%zmm26
  402c24:	62 e1 7c 48 10 6c 24 	vmovups 0xf40(%rsp),%zmm21
  402c2b:	3d 
  402c2c:	62 61 7c 48 10 6c 24 	vmovups 0xc00(%rsp),%zmm29
  402c33:	30 
  402c34:	62 61 7c 48 11 54 24 	vmovups %zmm26,0x900(%rsp)
  402c3b:	24 
  402c3c:	62 61 25 40 ef 9e c0 	vpxord 0x22c0(%rsi),%zmm27,%zmm27
  402c43:	22 00 00 
  402c46:	62 61 7c 48 11 5c 24 	vmovups %zmm27,0x200(%rsp)
  402c4d:	08 
  402c4e:	62 21 7d 48 ef dd    	vpxord %zmm21,%zmm0,%zmm27
  402c54:	62 21 05 40 ef d3    	vpxord %zmm19,%zmm31,%zmm26
  402c5a:	62 83 15 40 25 db 36 	vpternlogd $0x36,%zmm27,%zmm29,%zmm19
  402c61:	62 03 15 40 25 da 6a 	vpternlogd $0x6a,%zmm26,%zmm29,%zmm27
  402c68:	62 81 55 40 ef ef    	vpxord %zmm31,%zmm21,%zmm21
  402c6e:	62 23 55 40 25 d3 6c 	vpternlogd $0x6c,%zmm19,%zmm21,%zmm26
  402c75:	62 a3 25 40 25 eb 56 	vpternlogd $0x56,%zmm19,%zmm27,%zmm21
  402c7c:	62 61 25 40 ef 9e 00 	vpxord 0x2300(%rsi),%zmm27,%zmm27
  402c83:	23 00 00 
  402c86:	62 61 7c 48 11 5c 24 	vmovups %zmm27,0x140(%rsp)
  402c8d:	05 
  402c8e:	62 61 55 40 ef 9e 00 	vpxord 0x2800(%rsi),%zmm21,%zmm27
  402c95:	28 00 00 
  402c98:	62 e1 7c 48 10 ae c0 	vmovups 0x26c0(%rsi),%zmm21
  402c9f:	26 00 00 
  402ca2:	62 a3 05 40 25 eb 96 	vpternlogd $0x96,%zmm19,%zmm31,%zmm21
  402ca9:	62 61 7c 48 10 7c 24 	vmovups 0xcc0(%rsp),%zmm31
  402cb0:	33 
  402cb1:	62 e1 7c 48 11 6c 24 	vmovups %zmm21,0x640(%rsp)
  402cb8:	19 
  402cb9:	62 61 2d 40 ef 96 c0 	vpxord 0x2fc0(%rsi),%zmm26,%zmm26
  402cc0:	2f 00 00 
  402cc3:	62 61 7c 48 11 54 24 	vmovups %zmm26,0x17c0(%rsp)
  402cca:	5f 
  402ccb:	62 61 7c 48 10 54 24 	vmovups 0xe00(%rsp),%zmm26
  402cd2:	38 
  402cd3:	62 c1 7d 48 ef ef    	vpxord %zmm15,%zmm0,%zmm21
  402cd9:	62 a1 2d 40 ef dc    	vpxord %zmm20,%zmm26,%zmm19
  402cdf:	62 a3 05 40 25 e5 36 	vpternlogd $0x36,%zmm21,%zmm31,%zmm20
  402ce6:	62 a3 05 40 25 eb 6a 	vpternlogd $0x6a,%zmm19,%zmm31,%zmm21
  402ced:	62 61 7c 48 10 be 00 	vmovups 0x2700(%rsi),%zmm31
  402cf4:	27 00 00 
  402cf7:	62 23 2d 40 25 fc 96 	vpternlogd $0x96,%zmm20,%zmm26,%zmm31
  402cfe:	62 61 7c 48 11 7c 24 	vmovups %zmm31,0x600(%rsp)
  402d05:	18 
  402d06:	62 61 7c 48 10 7c 24 	vmovups 0xe80(%rsp),%zmm31
  402d0d:	3a 
  402d0e:	62 01 05 48 ef ea    	vpxord %zmm26,%zmm15,%zmm29
  402d14:	62 a3 15 40 25 dc 6c 	vpternlogd $0x6c,%zmm20,%zmm29,%zmm19
  402d1b:	62 23 55 40 25 ec 56 	vpternlogd $0x56,%zmm20,%zmm21,%zmm29
  402d22:	62 e1 7c 48 10 64 24 	vmovups 0x1240(%rsp),%zmm20
  402d29:	49 
  402d2a:	62 71 55 40 ef be 40 	vpxord 0x2340(%rsi),%zmm21,%zmm15
  402d31:	23 00 00 
  402d34:	62 71 7c 48 11 7c 24 	vmovups %zmm15,0x180(%rsp)
  402d3b:	06 
  402d3c:	62 11 7d 48 ef fe    	vpxord %zmm30,%zmm0,%zmm15
  402d42:	62 21 05 40 ef d1    	vpxord %zmm17,%zmm31,%zmm26
  402d48:	62 c3 5d 40 25 cf 36 	vpternlogd $0x36,%zmm15,%zmm20,%zmm17
  402d4f:	62 13 5d 40 25 fa 6a 	vpternlogd $0x6a,%zmm26,%zmm20,%zmm15
  402d56:	62 e1 15 40 ef ae 40 	vpxord 0x2840(%rsi),%zmm29,%zmm21
  402d5d:	28 00 00 
  402d60:	62 01 0d 40 ef ef    	vpxord %zmm31,%zmm30,%zmm29
  402d66:	62 61 05 48 ef b6 80 	vpxord 0x2380(%rsi),%zmm15,%zmm30
  402d6d:	23 00 00 
  402d70:	62 23 15 40 25 d1 6c 	vpternlogd $0x6c,%zmm17,%zmm29,%zmm26
  402d77:	62 23 05 48 25 e9 56 	vpternlogd $0x56,%zmm17,%zmm15,%zmm29
  402d7e:	62 71 7c 48 10 be 40 	vmovups 0x2740(%rsi),%zmm15
  402d85:	27 00 00 
  402d88:	62 61 7c 48 11 74 24 	vmovups %zmm30,0x1c0(%rsp)
  402d8f:	07 
  402d90:	62 33 05 40 25 f9 96 	vpternlogd $0x96,%zmm17,%zmm31,%zmm15
  402d97:	62 e1 7c 48 10 0c 24 	vmovups (%rsp),%zmm17
  402d9e:	62 61 7c 48 10 7c 24 	vmovups 0xf00(%rsp),%zmm31
  402da5:	3c 
  402da6:	62 71 7c 48 11 7c 24 	vmovups %zmm15,0x5c0(%rsp)
  402dad:	17 
  402dae:	62 71 7c 48 10 7c 24 	vmovups 0x1200(%rsp),%zmm15
  402db5:	48 
  402db6:	62 e1 6d 40 ef 56 4f 	vpxord 0x13c0(%rsi),%zmm18,%zmm18
  402dbd:	62 e1 15 40 ef a6 80 	vpxord 0x2880(%rsi),%zmm29,%zmm20
  402dc4:	28 00 00 
  402dc7:	62 21 7d 48 ef e9    	vpxord %zmm17,%zmm0,%zmm29
  402dcd:	62 01 75 40 ef f7    	vpxord %zmm31,%zmm17,%zmm30
  402dd3:	62 c1 05 40 ef cf    	vpxord %zmm15,%zmm31,%zmm17
  402dd9:	62 13 6d 40 25 fd 36 	vpternlogd $0x36,%zmm29,%zmm18,%zmm15
  402de0:	62 23 6d 40 25 e9 6a 	vpternlogd $0x6a,%zmm17,%zmm18,%zmm29
  402de7:	62 c3 0d 40 25 cf 6c 	vpternlogd $0x6c,%zmm15,%zmm30,%zmm17
  402dee:	62 43 15 40 25 f7 56 	vpternlogd $0x56,%zmm15,%zmm29,%zmm30
  402df5:	62 e1 15 40 ef 96 c0 	vpxord 0x23c0(%rsi),%zmm29,%zmm18
  402dfc:	23 00 00 
  402dff:	62 e1 7c 48 11 54 24 	vmovups %zmm18,0xc0(%rsp)
  402e06:	03 
  402e07:	62 61 7c 48 10 ae 80 	vmovups 0x3480(%rsi),%zmm29
  402e0e:	34 00 00 
  402e11:	62 e1 0d 40 ef 96 c0 	vpxord 0x28c0(%rsi),%zmm30,%zmm18
  402e18:	28 00 00 
  402e1b:	62 61 7c 48 10 b6 80 	vmovups 0x2780(%rsi),%zmm30
  402e22:	27 00 00 
  402e25:	62 43 05 40 25 f7 96 	vpternlogd $0x96,%zmm15,%zmm31,%zmm30
  402e2c:	62 61 7c 48 11 74 24 	vmovups %zmm30,0x500(%rsp)
  402e33:	14 
  402e34:	62 e1 65 40 ef 9e 00 	vpxord 0x2c00(%rsi),%zmm19,%zmm19
  402e3b:	2c 00 00 
  402e3e:	62 e1 4d 40 ef b6 00 	vpxord 0x2000(%rsi),%zmm22,%zmm22
  402e45:	20 00 00 
  402e48:	62 21 7d 48 ef f8    	vpxord %zmm16,%zmm0,%zmm31
  402e4e:	62 31 25 40 ef fb    	vpxord %zmm19,%zmm27,%zmm15
  402e54:	62 83 4d 40 25 df 36 	vpternlogd $0x36,%zmm31,%zmm22,%zmm19
  402e5b:	62 43 4d 40 25 ff 6a 	vpternlogd $0x6a,%zmm15,%zmm22,%zmm31
  402e62:	62 01 7d 40 ef f3    	vpxord %zmm27,%zmm16,%zmm30
  402e68:	62 33 0d 40 25 fb 6c 	vpternlogd $0x6c,%zmm19,%zmm30,%zmm15
  402e6f:	62 23 05 40 25 f3 56 	vpternlogd $0x56,%zmm19,%zmm31,%zmm30
  402e76:	62 e1 0d 40 ef b6 00 	vpxord 0x3900(%rsi),%zmm30,%zmm22
  402e7d:	39 00 00 
  402e80:	62 61 7c 48 10 b6 c0 	vmovups 0x37c0(%rsi),%zmm30
  402e87:	37 00 00 
  402e8a:	62 e1 7c 48 11 74 24 	vmovups %zmm22,0x700(%rsp)
  402e91:	1c 
  402e92:	62 e1 7c 48 10 b6 00 	vmovups 0x3400(%rsi),%zmm22
  402e99:	34 00 00 
  402e9c:	62 23 25 40 25 f3 96 	vpternlogd $0x96,%zmm19,%zmm27,%zmm30
  402ea3:	62 61 7c 48 11 74 24 	vmovups %zmm30,0x80(%rsp)
  402eaa:	02 
  402eab:	62 e1 05 40 ef 86 00 	vpxord 0x3000(%rsi),%zmm31,%zmm16
  402eb2:	30 00 00 
  402eb5:	62 61 2d 40 ef 96 40 	vpxord 0x2c40(%rsi),%zmm26,%zmm26
  402ebc:	2c 00 00 
  402ebf:	62 e1 7c 48 11 44 24 	vmovups %zmm16,0x100(%rsp)
  402ec6:	04 
  402ec7:	62 61 7c 48 10 7c 24 	vmovups 0x1480(%rsp),%zmm31
  402ece:	52 
  402ecf:	62 e1 05 48 ef 86 c0 	vpxord 0x3cc0(%rsi),%zmm15,%zmm16
  402ed6:	3c 00 00 
  402ed9:	62 81 7d 48 ef d9    	vpxord %zmm25,%zmm0,%zmm19
  402edf:	62 11 55 40 ef fa    	vpxord %zmm26,%zmm21,%zmm15
  402ee5:	62 23 45 40 25 d3 36 	vpternlogd $0x36,%zmm19,%zmm23,%zmm26
  402eec:	62 c3 45 40 25 df 6a 	vpternlogd $0x6a,%zmm15,%zmm23,%zmm19
  402ef3:	62 83 55 40 25 f2 96 	vpternlogd $0x96,%zmm26,%zmm21,%zmm22
  402efa:	62 e1 7c 48 11 74 24 	vmovups %zmm22,0x4c0(%rsp)
  402f01:	13 
  402f02:	62 e1 7c 48 10 b6 40 	vmovups 0x3540(%rsi),%zmm22
  402f09:	35 00 00 
  402f0c:	62 21 35 40 ef f5    	vpxord %zmm21,%zmm25,%zmm30
  402f12:	62 13 0d 40 25 fa 6c 	vpternlogd $0x6c,%zmm26,%zmm30,%zmm15
  402f19:	62 03 65 40 25 f2 56 	vpternlogd $0x56,%zmm26,%zmm19,%zmm30
  402f20:	62 61 7c 48 10 96 40 	vmovups 0x3440(%rsi),%zmm26
  402f27:	34 00 00 
  402f2a:	62 e1 75 40 ef 8e 80 	vpxord 0x2c80(%rsi),%zmm17,%zmm17
  402f31:	2c 00 00 
  402f34:	62 71 2d 48 ef 96 80 	vpxord 0x2080(%rsi),%zmm10,%zmm10
  402f3b:	20 00 00 
  402f3e:	62 81 7d 48 ef e8    	vpxord %zmm24,%zmm0,%zmm21
  402f44:	62 21 5d 40 ef c9    	vpxord %zmm17,%zmm20,%zmm25
  402f4a:	62 a3 2d 48 25 cd 36 	vpternlogd $0x36,%zmm21,%zmm10,%zmm17
  402f51:	62 83 2d 48 25 e9 6a 	vpternlogd $0x6a,%zmm25,%zmm10,%zmm21
  402f58:	62 23 5d 40 25 d1 96 	vpternlogd $0x96,%zmm17,%zmm20,%zmm26
  402f5f:	62 61 7c 48 11 54 24 	vmovups %zmm26,0x540(%rsp)
  402f66:	15 
  402f67:	62 21 3d 40 ef c4    	vpxord %zmm20,%zmm24,%zmm24
  402f6d:	62 61 1d 40 ef a6 c0 	vpxord 0x20c0(%rsi),%zmm28,%zmm28
  402f74:	20 00 00 
  402f77:	62 23 3d 40 25 c9 6c 	vpternlogd $0x6c,%zmm17,%zmm24,%zmm25
  402f7e:	62 23 55 40 25 c1 56 	vpternlogd $0x56,%zmm17,%zmm21,%zmm24
  402f85:	62 e1 7d 48 ef c9    	vpxord %zmm1,%zmm0,%zmm17
  402f8b:	62 61 6d 40 ef db    	vpxord %zmm3,%zmm18,%zmm27
  402f91:	62 b3 1d 40 25 d9 36 	vpternlogd $0x36,%zmm17,%zmm28,%zmm3
  402f98:	62 83 1d 40 25 cb 6a 	vpternlogd $0x6a,%zmm27,%zmm28,%zmm17
  402f9f:	62 63 6d 40 25 eb 96 	vpternlogd $0x96,%zmm3,%zmm18,%zmm29
  402fa6:	62 61 7c 48 11 6c 24 	vmovups %zmm29,0x580(%rsp)
  402fad:	16 
  402fae:	62 61 7c 48 10 6c 24 	vmovups 0x13c0(%rsp),%zmm29
  402fb5:	4f 
  402fb6:	62 b1 75 48 ef ca    	vpxord %zmm18,%zmm1,%zmm1
  402fbc:	62 63 75 48 25 db 6c 	vpternlogd $0x6c,%zmm3,%zmm1,%zmm27
  402fc3:	62 f3 75 40 25 cb 56 	vpternlogd $0x56,%zmm3,%zmm17,%zmm1
  402fca:	62 f1 6d 48 ef 96 00 	vpxord 0x2100(%rsi),%zmm2,%zmm2
  402fd1:	21 00 00 
  402fd4:	62 e1 75 48 ef a6 c0 	vpxord 0x39c0(%rsi),%zmm1,%zmm20
  402fdb:	39 00 00 
  402fde:	62 f1 7d 48 ef dc    	vpxord %zmm4,%zmm0,%zmm3
  402fe4:	62 d1 5d 48 ef cb    	vpxord %zmm11,%zmm4,%zmm1
  402fea:	62 f1 25 48 ef e7    	vpxord %zmm7,%zmm11,%zmm4
  402ff0:	62 f3 6d 48 25 fb 36 	vpternlogd $0x36,%zmm3,%zmm2,%zmm7
  402ff7:	62 f3 6d 48 25 dc 6a 	vpternlogd $0x6a,%zmm4,%zmm2,%zmm3
  402ffe:	62 f1 7c 48 10 96 c0 	vmovups 0x34c0(%rsi),%zmm2
  403005:	34 00 00 
  403008:	62 e1 7c 48 11 64 24 	vmovups %zmm20,0x7c0(%rsp)
  40300f:	1f 
  403010:	62 e1 7c 48 10 64 24 	vmovups 0x12c0(%rsp),%zmm20
  403017:	4b 
  403018:	62 f3 75 48 25 e7 6c 	vpternlogd $0x6c,%zmm7,%zmm1,%zmm4
  40301f:	62 f3 25 48 25 d7 96 	vpternlogd $0x96,%zmm7,%zmm11,%zmm2
  403026:	62 f3 65 48 25 cf 56 	vpternlogd $0x56,%zmm7,%zmm3,%zmm1
  40302d:	62 f1 7c 48 10 be 00 	vmovups 0x3500(%rsi),%zmm7
  403034:	35 00 00 
  403037:	62 f1 7c 48 11 54 24 	vmovups %zmm2,0x680(%rsp)
  40303e:	1a 
  40303f:	62 f1 7c 48 10 54 24 	vmovups 0x1280(%rsp),%zmm2
  403046:	4a 
  403047:	62 61 75 40 ef a6 c0 	vpxord 0x30c0(%rsi),%zmm17,%zmm28
  40304e:	30 00 00 
  403051:	62 61 7c 48 11 64 24 	vmovups %zmm28,0x340(%rsp)
  403058:	0d 
  403059:	62 61 65 48 ef a6 00 	vpxord 0x3100(%rsi),%zmm3,%zmm28
  403060:	31 00 00 
  403063:	62 61 7c 48 11 64 24 	vmovups %zmm28,0x380(%rsp)
  40306a:	0e 
  40306b:	62 61 5d 48 ef a6 c0 	vpxord 0x3dc0(%rsi),%zmm4,%zmm28
  403072:	3d 00 00 
  403075:	62 f1 7c 48 10 64 24 	vmovups 0x1300(%rsp),%zmm4
  40307c:	4c 
  40307d:	62 e1 65 40 ef be 40 	vpxord 0x3040(%rsi),%zmm19,%zmm23
  403084:	30 00 00 
  403087:	62 e1 7c 48 11 7c 24 	vmovups %zmm23,0x2c0(%rsp)
  40308e:	0b 
  40308f:	62 e1 3d 40 ef be 80 	vpxord 0x3980(%rsi),%zmm24,%zmm23
  403096:	39 00 00 
  403099:	62 71 55 40 ef 96 80 	vpxord 0x3080(%rsi),%zmm21,%zmm10
  4030a0:	30 00 00 
  4030a3:	62 e1 0d 40 ef 9e 40 	vpxord 0x3940(%rsi),%zmm30,%zmm19
  4030aa:	39 00 00 
  4030ad:	62 e1 7c 48 10 6c 24 	vmovups 0x1400(%rsp),%zmm21
  4030b4:	50 
  4030b5:	62 e1 7c 48 11 7c 24 	vmovups %zmm23,0x740(%rsp)
  4030bc:	1d 
  4030bd:	62 e1 7c 48 11 5c 24 	vmovups %zmm19,0x780(%rsp)
  4030c4:	1e 
  4030c5:	62 71 7c 48 11 54 24 	vmovups %zmm10,0x300(%rsp)
  4030cc:	0c 
  4030cd:	62 61 05 48 ef b6 00 	vpxord 0x3d00(%rsi),%zmm15,%zmm30
  4030d4:	3d 00 00 
  4030d7:	62 f1 75 48 ef 9e 00 	vpxord 0x3a00(%rsi),%zmm1,%zmm3
  4030de:	3a 00 00 
  4030e1:	62 51 7d 48 ef fd    	vpxord %zmm13,%zmm0,%zmm15
  4030e7:	62 a1 15 48 ef cc    	vpxord %zmm20,%zmm13,%zmm17
  4030ed:	62 71 7c 48 10 6c 24 	vmovups 0x1540(%rsp),%zmm13
  4030f4:	55 
  4030f5:	62 f1 7c 48 11 5c 24 	vmovups %zmm3,0x800(%rsp)
  4030fc:	20 
  4030fd:	62 c1 7d 48 ef fe    	vpxord %zmm14,%zmm0,%zmm23
  403103:	62 01 0d 48 ef d5    	vpxord %zmm29,%zmm14,%zmm26
  403109:	62 71 7c 48 10 74 24 	vmovups 0x1600(%rsp),%zmm14
  403110:	58 
  403111:	62 71 35 48 ef 8e 40 	vpxord 0x2140(%rsi),%zmm9,%zmm9
  403118:	21 00 00 
  40311b:	62 51 7d 48 ef dc    	vpxord %zmm12,%zmm0,%zmm11
  403121:	62 f1 1d 48 ef da    	vpxord %zmm2,%zmm12,%zmm3
  403127:	62 71 6d 48 ef e4    	vpxord %zmm4,%zmm2,%zmm12
  40312d:	62 d3 35 48 25 e3 36 	vpternlogd $0x36,%zmm11,%zmm9,%zmm4
  403134:	62 53 35 48 25 dc 6a 	vpternlogd $0x6a,%zmm12,%zmm9,%zmm11
  40313b:	62 f3 6d 48 25 fc 96 	vpternlogd $0x96,%zmm4,%zmm2,%zmm7
  403142:	62 73 65 48 25 e4 6c 	vpternlogd $0x6c,%zmm4,%zmm3,%zmm12
  403149:	62 f3 25 48 25 dc 56 	vpternlogd $0x56,%zmm4,%zmm11,%zmm3
  403150:	62 f1 7c 48 10 96 80 	vmovups 0x3580(%rsi),%zmm2
  403157:	35 00 00 
  40315a:	62 f1 7c 48 11 7c 24 	vmovups %zmm7,0x940(%rsp)
  403161:	25 
  403162:	62 f1 7c 48 10 64 24 	vmovups 0x1580(%rsp),%zmm4
  403169:	56 
  40316a:	62 f1 7c 48 10 7c 24 	vmovups 0x1680(%rsp),%zmm7
  403171:	5a 
  403172:	62 a1 5d 40 ef dd    	vpxord %zmm21,%zmm20,%zmm19
  403178:	62 c3 15 48 25 ef 36 	vpternlogd $0x36,%zmm15,%zmm13,%zmm21
  40317f:	62 33 15 48 25 fb 6a 	vpternlogd $0x6a,%zmm19,%zmm13,%zmm15
  403186:	62 a3 75 40 25 dd 6c 	vpternlogd $0x6c,%zmm21,%zmm17,%zmm19
  40318d:	62 a3 05 48 25 cd 56 	vpternlogd $0x56,%zmm21,%zmm15,%zmm17
  403194:	62 a3 5d 40 25 f5 96 	vpternlogd $0x96,%zmm21,%zmm20,%zmm22
  40319b:	62 e1 7c 48 10 64 24 	vmovups 0x14c0(%rsp),%zmm20
  4031a2:	53 
  4031a3:	62 e1 7c 48 11 74 24 	vmovups %zmm22,0x9c0(%rsp)
  4031aa:	27 
  4031ab:	62 e1 7c 48 10 74 24 	vmovups 0x17c0(%rsp),%zmm22
  4031b2:	5f 
  4031b3:	62 11 15 40 ef ef    	vpxord %zmm31,%zmm29,%zmm13
  4031b9:	62 23 0d 48 25 ff 36 	vpternlogd $0x36,%zmm23,%zmm14,%zmm31
  4031c0:	62 c3 0d 48 25 fd 6a 	vpternlogd $0x6a,%zmm13,%zmm14,%zmm23
  4031c7:	62 71 7c 48 10 b6 80 	vmovups 0x3e80(%rsi),%zmm14
  4031ce:	3e 00 00 
  4031d1:	62 13 2d 40 25 ef 6c 	vpternlogd $0x6c,%zmm31,%zmm26,%zmm13
  4031d8:	62 03 45 40 25 d7 56 	vpternlogd $0x56,%zmm31,%zmm23,%zmm26
  4031df:	62 93 15 40 25 d7 96 	vpternlogd $0x96,%zmm31,%zmm29,%zmm2
  4031e6:	62 f1 7c 48 11 54 24 	vmovups %zmm2,0x1340(%rsp)
  4031ed:	4d 
  4031ee:	62 f1 7c 48 10 54 24 	vmovups 0x1500(%rsp),%zmm2
  4031f5:	54 
  4031f6:	62 f1 25 48 ef 8e 40 	vpxord 0x3140(%rsi),%zmm11,%zmm1
  4031fd:	31 00 00 
  403200:	62 71 05 48 ef 9e 80 	vpxord 0x3180(%rsi),%zmm15,%zmm11
  403207:	31 00 00 
  40320a:	62 71 35 40 ef 96 40 	vpxord 0x3d40(%rsi),%zmm25,%zmm10
  403211:	3d 00 00 
  403214:	62 61 25 40 ef 86 80 	vpxord 0x3d80(%rsi),%zmm27,%zmm24
  40321b:	3d 00 00 
  40321e:	62 71 65 48 ef 8e 40 	vpxord 0x3a40(%rsi),%zmm3,%zmm9
  403225:	3a 00 00 
  403228:	62 e1 75 40 ef 96 80 	vpxord 0x3a80(%rsi),%zmm17,%zmm18
  40322f:	3a 00 00 
  403232:	62 61 2d 40 ef 9e c0 	vpxord 0x3ac0(%rsi),%zmm26,%zmm27
  403239:	3a 00 00 
  40323c:	62 61 45 40 ef 8e c0 	vpxord 0x31c0(%rsi),%zmm23,%zmm25
  403243:	31 00 00 
  403246:	62 f1 7c 48 11 4c 24 	vmovups %zmm1,0x3c0(%rsp)
  40324d:	0f 
  40324e:	62 71 7c 48 11 4c 24 	vmovups %zmm9,0x840(%rsp)
  403255:	21 
  403256:	62 71 7c 48 11 5c 24 	vmovups %zmm11,0x400(%rsp)
  40325d:	10 
  40325e:	62 e1 7c 48 11 54 24 	vmovups %zmm18,0x1380(%rsp)
  403265:	4e 
  403266:	62 61 7c 48 11 4c 24 	vmovups %zmm25,0x440(%rsp)
  40326d:	11 
  40326e:	62 61 7c 48 11 5c 24 	vmovups %zmm27,0x6c0(%rsp)
  403275:	1b 
  403276:	62 e1 7c 48 10 54 24 	vmovups 0x1440(%rsp),%zmm18
  40327d:	51 
  40327e:	62 71 7c 48 10 5c 24 	vmovups 0x1700(%rsp),%zmm11
  403285:	5c 
  403286:	62 71 7c 48 10 7c 24 	vmovups 0x16c0(%rsp),%zmm15
  40328d:	5b 
  40328e:	62 e1 7c 48 10 4c 24 	vmovups 0x1740(%rsp),%zmm17
  403295:	5d 
  403296:	62 71 7c 48 10 4c 24 	vmovups 0x1780(%rsp),%zmm9
  40329d:	5e 
  40329e:	62 f1 1d 48 ef 8e 00 	vpxord 0x3e00(%rsi),%zmm12,%zmm1
  4032a5:	3e 00 00 
  4032a8:	62 f1 65 40 ef 9e 40 	vpxord 0x3e40(%rsi),%zmm19,%zmm3
  4032af:	3e 00 00 
  4032b2:	62 f1 55 48 ef ae 40 	vpxord 0x2b40(%rsi),%zmm5,%zmm5
  4032b9:	2b 00 00 
  4032bc:	62 f1 4d 48 ef b6 80 	vpxord 0x2b80(%rsi),%zmm6,%zmm6
  4032c3:	2b 00 00 
  4032c6:	62 e1 7c 48 10 5c 24 	vmovups 0x15c0(%rsp),%zmm19
  4032cd:	57 
  4032ce:	62 71 7c 48 10 64 24 	vmovups 0x1640(%rsp),%zmm12
  4032d5:	59 
  4032d6:	62 61 7c 48 10 6c 24 	vmovups 0x880(%rsp),%zmm29
  4032dd:	22 
  4032de:	62 e1 7c 48 10 6c 24 	vmovups 0x480(%rsp),%zmm21
  4032e5:	12 
  4032e6:	62 01 7d 48 ef d5    	vpxord %zmm29,%zmm0,%zmm26
  4032ec:	62 21 15 40 ef ca    	vpxord %zmm18,%zmm29,%zmm25
  4032f2:	62 61 6d 40 ef ea    	vpxord %zmm2,%zmm18,%zmm29
  4032f8:	62 93 55 40 25 d2 36 	vpternlogd $0x36,%zmm26,%zmm21,%zmm2
  4032ff:	62 03 55 40 25 d5 6a 	vpternlogd $0x6a,%zmm29,%zmm21,%zmm26
  403306:	62 63 35 40 25 ea 6c 	vpternlogd $0x6c,%zmm2,%zmm25,%zmm29
  40330d:	62 63 2d 40 25 ca 56 	vpternlogd $0x56,%zmm2,%zmm26,%zmm25
  403314:	62 e1 35 40 ef be 00 	vpxord 0x3b00(%rsi),%zmm25,%zmm23
  40331b:	3b 00 00 
  40331e:	62 61 7c 48 10 8e c0 	vmovups 0x35c0(%rsi),%zmm25
  403325:	35 00 00 
  403328:	62 63 6d 40 25 ca 96 	vpternlogd $0x96,%zmm2,%zmm18,%zmm25
  40332f:	62 f1 7c 48 10 54 24 	vmovups 0x8c0(%rsp),%zmm2
  403336:	23 
  403337:	62 61 2d 40 ef 9e 00 	vpxord 0x3200(%rsi),%zmm26,%zmm27
  40333e:	32 00 00 
  403341:	62 61 7c 48 10 54 24 	vmovups 0x280(%rsp),%zmm26
  403348:	0a 
  403349:	62 51 15 48 ef f6    	vpxord %zmm14,%zmm13,%zmm14
  40334f:	62 71 15 40 ef ae c0 	vpxord 0x3ec0(%rsi),%zmm29,%zmm13
  403356:	3e 00 00 
  403359:	62 61 7d 48 ef ea    	vpxord %zmm2,%zmm0,%zmm29
  40335f:	62 21 5d 40 ef fb    	vpxord %zmm19,%zmm20,%zmm31
  403365:	62 83 2d 40 25 dd 36 	vpternlogd $0x36,%zmm29,%zmm26,%zmm19
  40336c:	62 03 2d 40 25 ef 6a 	vpternlogd $0x6a,%zmm31,%zmm26,%zmm29
  403373:	62 a1 6d 48 ef d4    	vpxord %zmm20,%zmm2,%zmm18
  403379:	62 f1 15 40 ef 96 40 	vpxord 0x3240(%rsi),%zmm29,%zmm2
  403380:	32 00 00 
  403383:	62 23 6d 40 25 fb 6c 	vpternlogd $0x6c,%zmm19,%zmm18,%zmm31
  40338a:	62 a3 15 40 25 d3 56 	vpternlogd $0x56,%zmm19,%zmm29,%zmm18
  403391:	62 61 7c 48 10 ae 00 	vmovups 0x3600(%rsi),%zmm29
  403398:	36 00 00 
  40339b:	62 23 5d 40 25 eb 96 	vpternlogd $0x96,%zmm19,%zmm20,%zmm29
  4033a2:	62 e1 7c 48 10 5c 24 	vmovups 0x900(%rsp),%zmm19
  4033a9:	24 
  4033aa:	62 e1 7c 48 10 64 24 	vmovups 0x240(%rsp),%zmm20
  4033b1:	09 
  4033b2:	62 61 05 40 ef 96 00 	vpxord 0x3f00(%rsi),%zmm31,%zmm26
  4033b9:	3f 00 00 
  4033bc:	62 e1 6d 40 ef ae 40 	vpxord 0x3b40(%rsi),%zmm18,%zmm21
  4033c3:	3b 00 00 
  4033c6:	62 61 7c 48 11 54 24 	vmovups %zmm26,0x1400(%rsp)
  4033cd:	50 
  4033ce:	62 e1 7c 48 11 6c 24 	vmovups %zmm21,0x13c0(%rsp)
  4033d5:	4f 
  4033d6:	62 21 7d 48 ef d3    	vpxord %zmm19,%zmm0,%zmm26
  4033dc:	62 e1 5d 48 ef d7    	vpxord %zmm7,%zmm4,%zmm18
  4033e2:	62 93 5d 40 25 fa 36 	vpternlogd $0x36,%zmm26,%zmm20,%zmm7
  4033e9:	62 23 5d 40 25 d2 6a 	vpternlogd $0x6a,%zmm18,%zmm20,%zmm26
  4033f0:	62 e1 65 40 ef ec    	vpxord %zmm4,%zmm19,%zmm21
  4033f6:	62 e3 55 40 25 d7 6c 	vpternlogd $0x6c,%zmm7,%zmm21,%zmm18
  4033fd:	62 e3 2d 40 25 ef 56 	vpternlogd $0x56,%zmm7,%zmm26,%zmm21
  403404:	62 e1 55 40 ef 9e 80 	vpxord 0x3b80(%rsi),%zmm21,%zmm19
  40340b:	3b 00 00 
  40340e:	62 e1 7c 48 11 5c 24 	vmovups %zmm19,0x1440(%rsp)
  403415:	51 
  403416:	62 e1 7c 48 10 9e 40 	vmovups 0x3640(%rsi),%zmm19
  40341d:	36 00 00 
  403420:	62 e3 5d 48 25 df 96 	vpternlogd $0x96,%zmm7,%zmm4,%zmm19
  403427:	62 f1 7c 48 10 7c 24 	vmovups 0x640(%rsp),%zmm7
  40342e:	19 
  40342f:	62 f1 7c 48 10 64 24 	vmovups 0x200(%rsp),%zmm4
  403436:	08 
  403437:	62 e1 2d 40 ef a6 80 	vpxord 0x3280(%rsi),%zmm26,%zmm20
  40343e:	32 00 00 
  403441:	62 61 6d 40 ef be 40 	vpxord 0x3f40(%rsi),%zmm18,%zmm31
  403448:	3f 00 00 
  40344b:	62 61 7d 48 ef d7    	vpxord %zmm7,%zmm0,%zmm26
  403451:	62 c1 1d 48 ef d3    	vpxord %zmm11,%zmm12,%zmm18
  403457:	62 13 5d 48 25 da 36 	vpternlogd $0x36,%zmm26,%zmm4,%zmm11
  40345e:	62 23 5d 48 25 d2 6a 	vpternlogd $0x6a,%zmm18,%zmm4,%zmm26
  403465:	62 61 7c 48 11 7c 24 	vmovups %zmm31,0x1480(%rsp)
  40346c:	52 
  40346d:	62 c1 45 48 ef ec    	vpxord %zmm12,%zmm7,%zmm21
  403473:	62 c3 55 40 25 d3 6c 	vpternlogd $0x6c,%zmm11,%zmm21,%zmm18
  40347a:	62 c3 2d 40 25 eb 56 	vpternlogd $0x56,%zmm11,%zmm26,%zmm21
  403481:	62 f1 55 40 ef a6 c0 	vpxord 0x3bc0(%rsi),%zmm21,%zmm4
  403488:	3b 00 00 
  40348b:	62 e1 7c 48 10 ae 80 	vmovups 0x3680(%rsi),%zmm21
  403492:	36 00 00 
  403495:	62 f1 7c 48 11 64 24 	vmovups %zmm4,0x14c0(%rsp)
  40349c:	53 
  40349d:	62 c3 1d 48 25 eb 96 	vpternlogd $0x96,%zmm11,%zmm12,%zmm21
  4034a4:	62 71 7c 48 10 5c 24 	vmovups 0x600(%rsp),%zmm11
  4034ab:	18 
  4034ac:	62 71 7c 48 10 64 24 	vmovups 0x140(%rsp),%zmm12
  4034b3:	05 
  4034b4:	62 f1 2d 40 ef be c0 	vpxord 0x32c0(%rsi),%zmm26,%zmm7
  4034bb:	32 00 00 
  4034be:	62 41 7d 48 ef d3    	vpxord %zmm11,%zmm0,%zmm26
  4034c4:	62 61 6d 40 ef be 80 	vpxord 0x3f80(%rsi),%zmm18,%zmm31
  4034cb:	3f 00 00 
  4034ce:	62 a1 05 48 ef d1    	vpxord %zmm17,%zmm15,%zmm18
  4034d4:	62 83 1d 48 25 ca 36 	vpternlogd $0x36,%zmm26,%zmm12,%zmm17
  4034db:	62 23 1d 48 25 d2 6a 	vpternlogd $0x6a,%zmm18,%zmm12,%zmm26
  4034e2:	62 61 7c 48 11 7c 24 	vmovups %zmm31,0x1500(%rsp)
  4034e9:	54 
  4034ea:	62 51 25 48 ef df    	vpxord %zmm15,%zmm11,%zmm11
  4034f0:	62 a3 25 48 25 d1 6c 	vpternlogd $0x6c,%zmm17,%zmm11,%zmm18
  4034f7:	62 33 2d 40 25 d9 56 	vpternlogd $0x56,%zmm17,%zmm26,%zmm11
  4034fe:	62 71 6d 40 ef a6 c0 	vpxord 0x3fc0(%rsi),%zmm18,%zmm12
  403505:	3f 00 00 
  403508:	62 71 7c 48 11 64 24 	vmovups %zmm12,0x1580(%rsp)
  40350f:	56 
  403510:	62 71 7c 48 10 a6 c0 	vmovups 0x36c0(%rsi),%zmm12
  403517:	36 00 00 
  40351a:	62 33 05 48 25 e1 96 	vpternlogd $0x96,%zmm17,%zmm15,%zmm12
  403521:	62 71 7c 48 10 7c 24 	vmovups 0x5c0(%rsp),%zmm15
  403528:	17 
  403529:	62 e1 7c 48 10 4c 24 	vmovups 0x180(%rsp),%zmm17
  403530:	06 
  403531:	62 f1 2d 40 ef a6 00 	vpxord 0x3300(%rsi),%zmm26,%zmm4
  403538:	33 00 00 
  40353b:	62 41 7d 48 ef d7    	vpxord %zmm15,%zmm0,%zmm26
  403541:	62 c1 55 48 ef d1    	vpxord %zmm9,%zmm5,%zmm18
  403547:	62 13 75 40 25 ca 36 	vpternlogd $0x36,%zmm26,%zmm17,%zmm9
  40354e:	62 23 75 40 25 d2 6a 	vpternlogd $0x6a,%zmm18,%zmm17,%zmm26
  403555:	62 f1 7c 48 11 64 24 	vmovups %zmm4,0x1540(%rsp)
  40355c:	55 
  40355d:	62 e1 7c 48 10 4c 24 	vmovups 0x500(%rsp),%zmm17
  403564:	14 
  403565:	62 f1 25 48 ef a6 00 	vpxord 0x3800(%rsi),%zmm11,%zmm4
  40356c:	38 00 00 
  40356f:	62 71 05 48 ef dd    	vpxord %zmm5,%zmm15,%zmm11
  403575:	62 c3 25 48 25 d1 6c 	vpternlogd $0x6c,%zmm9,%zmm11,%zmm18
  40357c:	62 53 2d 40 25 d9 56 	vpternlogd $0x56,%zmm9,%zmm26,%zmm11
  403583:	62 61 6d 40 ef be 00 	vpxord 0x3c00(%rsi),%zmm18,%zmm31
  40358a:	3c 00 00 
  40358d:	62 e1 7c 48 10 96 00 	vmovups 0x3700(%rsi),%zmm18
  403594:	37 00 00 
  403597:	62 c3 55 48 25 d1 96 	vpternlogd $0x96,%zmm9,%zmm5,%zmm18
  40359e:	62 f1 7c 48 10 6c 24 	vmovups 0x1c0(%rsp),%zmm5
  4035a5:	07 
  4035a6:	62 71 2d 40 ef be 40 	vpxord 0x3340(%rsi),%zmm26,%zmm15
  4035ad:	33 00 00 
  4035b0:	62 71 7c 48 11 7c 24 	vmovups %zmm15,0x15c0(%rsp)
  4035b7:	57 
  4035b8:	62 31 7d 48 ef f9    	vpxord %zmm17,%zmm0,%zmm15
  4035be:	62 51 4d 48 ef c8    	vpxord %zmm8,%zmm6,%zmm9
  4035c4:	62 53 55 48 25 c7 36 	vpternlogd $0x36,%zmm15,%zmm5,%zmm8
  4035cb:	62 53 55 48 25 f9 6a 	vpternlogd $0x6a,%zmm9,%zmm5,%zmm15
  4035d2:	62 61 75 40 ef d6    	vpxord %zmm6,%zmm17,%zmm26
  4035d8:	62 e1 05 48 ef 8e 80 	vpxord 0x3380(%rsi),%zmm15,%zmm17
  4035df:	33 00 00 
  4035e2:	62 53 2d 40 25 c8 6c 	vpternlogd $0x6c,%zmm8,%zmm26,%zmm9
  4035e9:	62 43 05 48 25 d0 56 	vpternlogd $0x56,%zmm8,%zmm15,%zmm26
  4035f0:	62 71 7c 48 10 be 40 	vmovups 0x3740(%rsi),%zmm15
  4035f7:	37 00 00 
  4035fa:	62 e1 7c 48 11 4c 24 	vmovups %zmm17,0x1600(%rsp)
  403601:	58 
  403602:	62 53 4d 48 25 f8 96 	vpternlogd $0x96,%zmm8,%zmm6,%zmm15
  403609:	62 f1 7c 48 10 74 24 	vmovups 0x40(%rsp),%zmm6
  403610:	01 
  403611:	62 71 7c 48 10 44 24 	vmovups 0x980(%rsp),%zmm8
  403618:	26 
  403619:	62 71 7c 48 11 7c 24 	vmovups %zmm15,0x1640(%rsp)
  403620:	59 
  403621:	62 e1 2d 40 ef 8e 80 	vpxord 0x3880(%rsi),%zmm26,%zmm17
  403628:	38 00 00 
  40362b:	62 61 7d 48 ef d6    	vpxord %zmm6,%zmm0,%zmm26
  403631:	62 51 4d 48 ef f8    	vpxord %zmm8,%zmm6,%zmm15
  403637:	62 f1 7c 48 10 74 24 	vmovups 0xc0(%rsp),%zmm6
  40363e:	03 
  40363f:	62 b1 3d 48 ef ee    	vpxord %zmm22,%zmm8,%zmm5
  403645:	62 83 4d 48 25 f2 36 	vpternlogd $0x36,%zmm26,%zmm6,%zmm22
  40364c:	62 63 4d 48 25 d5 6a 	vpternlogd $0x6a,%zmm5,%zmm6,%zmm26
  403653:	62 b3 05 48 25 ee 6c 	vpternlogd $0x6c,%zmm22,%zmm15,%zmm5
  40365a:	62 33 2d 40 25 fe 56 	vpternlogd $0x56,%zmm22,%zmm26,%zmm15
  403661:	62 61 2d 40 ef 96 c0 	vpxord 0x33c0(%rsi),%zmm26,%zmm26
  403668:	33 00 00 
  40366b:	62 61 7c 48 11 54 24 	vmovups %zmm26,0x1680(%rsp)
  403672:	5a 
  403673:	62 61 05 48 ef 96 c0 	vpxord 0x38c0(%rsi),%zmm15,%zmm26
  40367a:	38 00 00 
  40367d:	62 71 55 48 ef be 80 	vpxord 0x3c80(%rsi),%zmm5,%zmm15
  403684:	3c 00 00 
  403687:	62 f1 7c 48 10 ae 80 	vmovups 0x3780(%rsi),%zmm5
  40368e:	37 00 00 
  403691:	62 b3 3d 48 25 ee 96 	vpternlogd $0x96,%zmm22,%zmm8,%zmm5
  403698:	62 71 7c 48 10 44 24 	vmovups 0x4c0(%rsp),%zmm8
  40369f:	13 
  4036a0:	62 f1 7c 48 11 6c 24 	vmovups %zmm5,0x16c0(%rsp)
  4036a7:	5b 
  4036a8:	62 f1 7c 48 10 6c 24 	vmovups 0x100(%rsp),%zmm5
  4036af:	04 
  4036b0:	62 c1 7d 48 ef f0    	vpxord %zmm8,%zmm0,%zmm22
  4036b6:	62 91 5d 48 ef f7    	vpxord %zmm31,%zmm4,%zmm6
  4036bc:	62 23 55 48 25 fe 36 	vpternlogd $0x36,%zmm22,%zmm5,%zmm31
  4036c3:	62 e3 55 48 25 f6 6a 	vpternlogd $0x6a,%zmm6,%zmm5,%zmm22
  4036ca:	62 71 3d 48 ef c4    	vpxord %zmm4,%zmm8,%zmm8
  4036d0:	62 93 3d 48 25 f7 6c 	vpternlogd $0x6c,%zmm31,%zmm8,%zmm6
  4036d7:	62 13 4d 40 25 c7 56 	vpternlogd $0x56,%zmm31,%zmm22,%zmm8
  4036de:	62 71 3d 48 ef 86 00 	vpxord 0x4900(%rsi),%zmm8,%zmm8
  4036e5:	49 00 00 
  4036e8:	62 71 7c 48 11 44 24 	vmovups %zmm8,0x11c0(%rsp)
  4036ef:	47 
  4036f0:	62 71 4d 48 ef 86 c0 	vpxord 0x4cc0(%rsi),%zmm6,%zmm8
  4036f7:	4c 00 00 
  4036fa:	62 f1 7c 48 10 b6 c0 	vmovups 0x47c0(%rsi),%zmm6
  403701:	47 00 00 
  403704:	62 93 5d 48 25 f7 96 	vpternlogd $0x96,%zmm31,%zmm4,%zmm6
  40370b:	62 f1 7c 48 10 64 24 	vmovups 0x540(%rsp),%zmm4
  403712:	15 
  403713:	62 f1 7c 48 11 74 24 	vmovups %zmm6,0xa00(%rsp)
  40371a:	28 
  40371b:	62 f1 7c 48 10 74 24 	vmovups 0x2c0(%rsp),%zmm6
  403722:	0b 
  403723:	62 71 25 48 ef 9e 40 	vpxord 0x3840(%rsi),%zmm11,%zmm11
  40372a:	38 00 00 
  40372d:	62 71 35 48 ef 8e 40 	vpxord 0x3c40(%rsi),%zmm9,%zmm9
  403734:	3c 00 00 
  403737:	62 f1 7d 48 ef ec    	vpxord %zmm4,%zmm0,%zmm5
  40373d:	62 41 25 48 ef f9    	vpxord %zmm9,%zmm11,%zmm31
  403743:	62 73 4d 48 25 cd 36 	vpternlogd $0x36,%zmm5,%zmm6,%zmm9
  40374a:	62 93 4d 48 25 ef 6a 	vpternlogd $0x6a,%zmm31,%zmm6,%zmm5
  403751:	62 d1 5d 48 ef e3    	vpxord %zmm11,%zmm4,%zmm4
  403757:	62 43 5d 48 25 f9 6c 	vpternlogd $0x6c,%zmm9,%zmm4,%zmm31
  40375e:	62 d3 55 48 25 e1 56 	vpternlogd $0x56,%zmm9,%zmm5,%zmm4
  403765:	62 f1 5d 48 ef a6 40 	vpxord 0x4940(%rsi),%zmm4,%zmm4
  40376c:	49 00 00 
  40376f:	62 f1 7c 48 11 64 24 	vmovups %zmm4,0x1240(%rsp)
  403776:	49 
  403777:	62 f1 7c 48 10 a6 00 	vmovups 0x4400(%rsi),%zmm4
  40377e:	44 00 00 
  403781:	62 d3 25 48 25 e1 96 	vpternlogd $0x96,%zmm9,%zmm11,%zmm4
  403788:	62 71 7c 48 10 5c 24 	vmovups 0x580(%rsp),%zmm11
  40378f:	16 
  403790:	62 61 05 40 ef be 00 	vpxord 0x4d00(%rsi),%zmm31,%zmm31
  403797:	4d 00 00 
  40379a:	62 61 7c 48 11 7c 24 	vmovups %zmm31,0x1700(%rsp)
  4037a1:	5c 
  4037a2:	62 61 7c 48 10 7c 24 	vmovups 0x300(%rsp),%zmm31
  4037a9:	0c 
  4037aa:	62 51 7d 48 ef cb    	vpxord %zmm11,%zmm0,%zmm9
  4037b0:	62 b1 25 48 ef f1    	vpxord %zmm17,%zmm11,%zmm6
  4037b6:	62 51 75 40 ef df    	vpxord %zmm15,%zmm17,%zmm11
  4037bc:	62 53 05 40 25 f9 36 	vpternlogd $0x36,%zmm9,%zmm31,%zmm15
  4037c3:	62 53 05 40 25 cb 6a 	vpternlogd $0x6a,%zmm11,%zmm31,%zmm9
  4037ca:	62 61 7c 48 10 7c 24 	vmovups 0x340(%rsp),%zmm31
  4037d1:	0d 
  4037d2:	62 53 4d 48 25 df 6c 	vpternlogd $0x6c,%zmm15,%zmm6,%zmm11
  4037d9:	62 d3 35 48 25 f7 56 	vpternlogd $0x56,%zmm15,%zmm9,%zmm6
  4037e0:	62 f1 4d 48 ef b6 80 	vpxord 0x4980(%rsi),%zmm6,%zmm6
  4037e7:	49 00 00 
  4037ea:	62 f1 7c 48 11 74 24 	vmovups %zmm6,0x1740(%rsp)
  4037f1:	5d 
  4037f2:	62 f1 7c 48 10 b6 40 	vmovups 0x4440(%rsi),%zmm6
  4037f9:	44 00 00 
  4037fc:	62 d3 75 40 25 f7 96 	vpternlogd $0x96,%zmm15,%zmm17,%zmm6
  403803:	62 71 7c 48 10 7c 24 	vmovups 0x680(%rsp),%zmm15
  40380a:	1a 
  40380b:	62 71 25 48 ef 9e 40 	vpxord 0x4d40(%rsi),%zmm11,%zmm11
  403812:	4d 00 00 
  403815:	62 71 7c 48 11 5c 24 	vmovups %zmm11,0x1780(%rsp)
  40381c:	5e 
  40381d:	62 c1 7d 48 ef cf    	vpxord %zmm15,%zmm0,%zmm17
  403823:	62 11 05 48 ef da    	vpxord %zmm26,%zmm15,%zmm11
  403829:	62 31 2d 40 ef f8    	vpxord %zmm16,%zmm26,%zmm15
  40382f:	62 a3 05 40 25 c1 36 	vpternlogd $0x36,%zmm17,%zmm31,%zmm16
  403836:	62 c3 05 40 25 cf 6a 	vpternlogd $0x6a,%zmm15,%zmm31,%zmm17
  40383d:	62 61 7c 48 10 7c 24 	vmovups 0x700(%rsp),%zmm31
  403844:	1c 
  403845:	62 33 25 48 25 f8 6c 	vpternlogd $0x6c,%zmm16,%zmm11,%zmm15
  40384c:	62 33 75 40 25 d8 56 	vpternlogd $0x56,%zmm16,%zmm17,%zmm11
  403853:	62 e1 75 40 ef 8e c0 	vpxord 0x40c0(%rsi),%zmm17,%zmm17
  40385a:	40 00 00 
  40385d:	62 e1 7c 48 11 4c 24 	vmovups %zmm17,0xc00(%rsp)
  403864:	30 
  403865:	62 e1 25 48 ef 8e c0 	vpxord 0x49c0(%rsi),%zmm11,%zmm17
  40386c:	49 00 00 
  40386f:	62 71 7c 48 10 9e 80 	vmovups 0x4480(%rsi),%zmm11
  403876:	44 00 00 
  403879:	62 e1 7c 48 11 4c 24 	vmovups %zmm17,0x17c0(%rsp)
  403880:	5f 
  403881:	62 33 2d 40 25 d8 96 	vpternlogd $0x96,%zmm16,%zmm26,%zmm11
  403888:	62 61 7c 48 10 54 24 	vmovups 0x940(%rsp),%zmm26
  40388f:	25 
  403890:	62 71 05 48 ef be 80 	vpxord 0x4d80(%rsi),%zmm15,%zmm15
  403897:	4d 00 00 
  40389a:	62 71 7c 48 11 7c 24 	vmovups %zmm15,0x1800(%rsp)
  4038a1:	60 
  4038a2:	62 81 7d 48 ef c2    	vpxord %zmm26,%zmm0,%zmm16
  4038a8:	62 11 2d 40 ef ff    	vpxord %zmm31,%zmm26,%zmm15
  4038ae:	62 61 7c 48 10 54 24 	vmovups 0x380(%rsp),%zmm26
  4038b5:	0e 
  4038b6:	62 81 05 40 ef ce    	vpxord %zmm30,%zmm31,%zmm17
  4038bc:	62 23 2d 40 25 f0 36 	vpternlogd $0x36,%zmm16,%zmm26,%zmm30
  4038c3:	62 a3 2d 40 25 c1 6a 	vpternlogd $0x6a,%zmm17,%zmm26,%zmm16
  4038ca:	62 61 7c 48 10 96 c0 	vmovups 0x44c0(%rsi),%zmm26
  4038d1:	44 00 00 
  4038d4:	62 83 05 48 25 ce 6c 	vpternlogd $0x6c,%zmm30,%zmm15,%zmm17
  4038db:	62 13 7d 40 25 fe 56 	vpternlogd $0x56,%zmm30,%zmm16,%zmm15
  4038e2:	62 03 05 40 25 d6 96 	vpternlogd $0x96,%zmm30,%zmm31,%zmm26
  4038e9:	62 61 7c 48 10 74 24 	vmovups 0x9c0(%rsp),%zmm30
  4038f0:	27 
  4038f1:	62 61 7c 48 11 54 24 	vmovups %zmm26,0xec0(%rsp)
  4038f8:	3b 
  4038f9:	62 61 7c 48 10 54 24 	vmovups 0x780(%rsp),%zmm26
  403900:	1e 
  403901:	62 e1 7d 40 ef 86 00 	vpxord 0x4100(%rsi),%zmm16,%zmm16
  403908:	41 00 00 
  40390b:	62 e1 75 40 ef 8e c0 	vpxord 0x4dc0(%rsi),%zmm17,%zmm17
  403912:	4d 00 00 
  403915:	62 e1 7c 48 11 44 24 	vmovups %zmm16,0xc40(%rsp)
  40391c:	31 
  40391d:	62 e1 7c 48 11 4c 24 	vmovups %zmm17,0x1840(%rsp)
  403924:	61 
  403925:	62 81 7d 48 ef c6    	vpxord %zmm30,%zmm0,%zmm16
  40392b:	62 81 0d 40 ef ca    	vpxord %zmm26,%zmm30,%zmm17
  403931:	62 61 7c 48 10 74 24 	vmovups 0x3c0(%rsp),%zmm30
  403938:	0f 
  403939:	62 41 2d 40 ef fa    	vpxord %zmm10,%zmm26,%zmm31
  40393f:	62 33 0d 40 25 d0 36 	vpternlogd $0x36,%zmm16,%zmm30,%zmm10
  403946:	62 83 0d 40 25 c7 6a 	vpternlogd $0x6a,%zmm31,%zmm30,%zmm16
  40394d:	62 61 7c 48 10 74 24 	vmovups 0x1340(%rsp),%zmm30
  403954:	4d 
  403955:	62 43 75 40 25 fa 6c 	vpternlogd $0x6c,%zmm10,%zmm17,%zmm31
  40395c:	62 c3 7d 40 25 ca 56 	vpternlogd $0x56,%zmm10,%zmm16,%zmm17
  403963:	62 e1 7d 40 ef 86 40 	vpxord 0x4140(%rsi),%zmm16,%zmm16
  40396a:	41 00 00 
  40396d:	62 e1 7c 48 11 44 24 	vmovups %zmm16,0xc80(%rsp)
  403974:	32 
  403975:	62 e1 7c 48 10 86 00 	vmovups 0x4500(%rsi),%zmm16
  40397c:	45 00 00 
  40397f:	62 c3 2d 40 25 c2 96 	vpternlogd $0x96,%zmm10,%zmm26,%zmm16
  403986:	62 71 7c 48 10 54 24 	vmovups 0x740(%rsp),%zmm10
  40398d:	1d 
  40398e:	62 e1 7c 48 11 44 24 	vmovups %zmm16,0xf00(%rsp)
  403995:	3c 
  403996:	62 61 05 40 ef be 00 	vpxord 0x4e00(%rsi),%zmm31,%zmm31
  40399d:	4e 00 00 
  4039a0:	62 61 7c 48 11 7c 24 	vmovups %zmm31,0x1880(%rsp)
  4039a7:	62 
  4039a8:	62 61 7c 48 10 7c 24 	vmovups 0x400(%rsp),%zmm31
  4039af:	10 
  4039b0:	62 01 7d 48 ef d6    	vpxord %zmm30,%zmm0,%zmm26
  4039b6:	62 c1 0d 40 ef c2    	vpxord %zmm10,%zmm30,%zmm16
  4039bc:	62 01 2d 48 ef f0    	vpxord %zmm24,%zmm10,%zmm30
  4039c2:	62 03 05 40 25 c2 36 	vpternlogd $0x36,%zmm26,%zmm31,%zmm24
  4039c9:	62 03 05 40 25 d6 6a 	vpternlogd $0x6a,%zmm30,%zmm31,%zmm26
  4039d0:	62 03 7d 40 25 f0 6c 	vpternlogd $0x6c,%zmm24,%zmm16,%zmm30
  4039d7:	62 83 2d 40 25 c0 56 	vpternlogd $0x56,%zmm24,%zmm26,%zmm16
  4039de:	62 61 2d 40 ef 96 80 	vpxord 0x4180(%rsi),%zmm26,%zmm26
  4039e5:	41 00 00 
  4039e8:	62 61 7c 48 11 54 24 	vmovups %zmm26,0xcc0(%rsp)
  4039ef:	33 
  4039f0:	62 61 7d 40 ef 96 80 	vpxord 0x4a80(%rsi),%zmm16,%zmm26
  4039f7:	4a 00 00 
  4039fa:	62 e1 0d 40 ef 86 40 	vpxord 0x4e40(%rsi),%zmm30,%zmm16
  403a01:	4e 00 00 
  403a04:	62 61 7c 48 10 b6 40 	vmovups 0x4540(%rsi),%zmm30
  403a0b:	45 00 00 
  403a0e:	62 03 2d 48 25 f0 96 	vpternlogd $0x96,%zmm24,%zmm10,%zmm30
  403a15:	62 61 7c 48 10 44 24 	vmovups 0x7c0(%rsp),%zmm24
  403a1c:	1f 
  403a1d:	62 61 7c 48 11 74 24 	vmovups %zmm30,0xf40(%rsp)
  403a24:	3d 
  403a25:	62 61 7c 48 10 74 24 	vmovups 0x440(%rsp),%zmm30
  403a2c:	11 
  403a2d:	62 01 7d 48 ef f9    	vpxord %zmm25,%zmm0,%zmm31
  403a33:	62 11 3d 40 ef d4    	vpxord %zmm28,%zmm24,%zmm10
  403a39:	62 03 0d 40 25 e7 36 	vpternlogd $0x36,%zmm31,%zmm30,%zmm28
  403a40:	62 43 0d 40 25 fa 6a 	vpternlogd $0x6a,%zmm10,%zmm30,%zmm31
  403a47:	62 61 7c 48 10 74 24 	vmovups 0x800(%rsp),%zmm30
  403a4e:	20 
  403a4f:	62 01 35 40 ef c8    	vpxord %zmm24,%zmm25,%zmm25
  403a55:	62 13 35 40 25 d4 6c 	vpternlogd $0x6c,%zmm28,%zmm25,%zmm10
  403a5c:	62 03 05 40 25 cc 56 	vpternlogd $0x56,%zmm28,%zmm31,%zmm25
  403a63:	62 61 35 40 ef 8e c0 	vpxord 0x4ac0(%rsi),%zmm25,%zmm25
  403a6a:	4a 00 00 
  403a6d:	62 61 7c 48 11 4c 24 	vmovups %zmm25,0x1300(%rsp)
  403a74:	4c 
  403a75:	62 61 2d 48 ef 8e 80 	vpxord 0x4e80(%rsi),%zmm10,%zmm25
  403a7c:	4e 00 00 
  403a7f:	62 71 7c 48 10 96 80 	vmovups 0x4580(%rsi),%zmm10
  403a86:	45 00 00 
  403a89:	62 13 3d 40 25 d4 96 	vpternlogd $0x96,%zmm28,%zmm24,%zmm10
  403a90:	62 71 7c 48 11 54 24 	vmovups %zmm10,0xfc0(%rsp)
  403a97:	3f 
  403a98:	62 01 7d 48 ef e5    	vpxord %zmm29,%zmm0,%zmm28
  403a9e:	62 11 15 40 ef d6    	vpxord %zmm30,%zmm29,%zmm10
  403aa4:	62 61 0d 40 ef e9    	vpxord %zmm1,%zmm30,%zmm29
  403aaa:	62 93 25 40 25 cc 36 	vpternlogd $0x36,%zmm28,%zmm27,%zmm1
  403ab1:	62 03 25 40 25 e5 6a 	vpternlogd $0x6a,%zmm29,%zmm27,%zmm28
  403ab8:	62 63 2d 48 25 e9 6c 	vpternlogd $0x6c,%zmm1,%zmm10,%zmm29
  403abf:	62 73 1d 40 25 d1 56 	vpternlogd $0x56,%zmm1,%zmm28,%zmm10
  403ac6:	62 61 1d 40 ef 86 00 	vpxord 0x4200(%rsi),%zmm28,%zmm24
  403acd:	42 00 00 
  403ad0:	62 61 7c 48 10 a6 c0 	vmovups 0x45c0(%rsi),%zmm28
  403ad7:	45 00 00 
  403ada:	62 61 7c 48 11 44 24 	vmovups %zmm24,0xd40(%rsp)
  403ae1:	35 
  403ae2:	62 61 7c 48 10 86 00 	vmovups 0x4600(%rsi),%zmm24
  403ae9:	46 00 00 
  403aec:	62 63 0d 40 25 e1 96 	vpternlogd $0x96,%zmm1,%zmm30,%zmm28
  403af3:	62 f1 7c 48 10 4c 24 	vmovups 0x840(%rsp),%zmm1
  403afa:	21 
  403afb:	62 61 7c 48 11 64 24 	vmovups %zmm28,0x1000(%rsp)
  403b02:	40 
  403b03:	62 21 7d 48 ef db    	vpxord %zmm19,%zmm0,%zmm27
  403b09:	62 61 75 48 ef e3    	vpxord %zmm3,%zmm1,%zmm28
  403b0f:	62 93 6d 48 25 db 36 	vpternlogd $0x36,%zmm27,%zmm2,%zmm3
  403b16:	62 03 6d 48 25 dc 6a 	vpternlogd $0x6a,%zmm28,%zmm2,%zmm27
  403b1d:	62 63 75 48 25 c3 96 	vpternlogd $0x96,%zmm3,%zmm1,%zmm24
  403b24:	62 61 7c 48 11 44 24 	vmovups %zmm24,0x1040(%rsp)
  403b2b:	41 
  403b2c:	62 61 7c 48 10 44 24 	vmovups 0x6c0(%rsp),%zmm24
  403b33:	1b 
  403b34:	62 e1 65 40 ef d9    	vpxord %zmm1,%zmm19,%zmm19
  403b3a:	62 63 65 40 25 e3 6c 	vpternlogd $0x6c,%zmm3,%zmm19,%zmm28
  403b41:	62 e3 25 40 25 db 56 	vpternlogd $0x56,%zmm3,%zmm27,%zmm19
  403b48:	62 61 65 40 ef b6 40 	vpxord 0x4b40(%rsi),%zmm19,%zmm30
  403b4f:	4b 00 00 
  403b52:	62 61 7c 48 11 74 24 	vmovups %zmm30,0x1200(%rsp)
  403b59:	48 
  403b5a:	62 61 7c 48 10 74 24 	vmovups 0x1380(%rsp),%zmm30
  403b61:	4e 
  403b62:	62 f1 25 40 ef 96 40 	vpxord 0x4240(%rsi),%zmm27,%zmm2
  403b69:	42 00 00 
  403b6c:	62 f1 7c 48 11 54 24 	vmovups %zmm2,0xd80(%rsp)
  403b73:	36 
  403b74:	62 f1 1d 40 ef 96 00 	vpxord 0x4f00(%rsi),%zmm28,%zmm2
  403b7b:	4f 00 00 
  403b7e:	62 61 7c 48 10 a6 40 	vmovups 0x4640(%rsi),%zmm28
  403b85:	46 00 00 
  403b88:	62 b1 7d 48 ef dd    	vpxord %zmm21,%zmm0,%zmm3
  403b8e:	62 d1 0d 40 ef ce    	vpxord %zmm14,%zmm30,%zmm1
  403b94:	62 73 5d 40 25 f3 36 	vpternlogd $0x36,%zmm3,%zmm20,%zmm14
  403b9b:	62 f3 5d 40 25 d9 6a 	vpternlogd $0x6a,%zmm1,%zmm20,%zmm3
  403ba2:	62 43 0d 40 25 e6 96 	vpternlogd $0x96,%zmm14,%zmm30,%zmm28
  403ba9:	62 61 7c 48 11 64 24 	vmovups %zmm28,0x1100(%rsp)
  403bb0:	44 
  403bb1:	62 81 55 40 ef ee    	vpxord %zmm30,%zmm21,%zmm21
  403bb7:	62 d3 55 40 25 ce 6c 	vpternlogd $0x6c,%zmm14,%zmm21,%zmm1
  403bbe:	62 c3 65 48 25 ee 56 	vpternlogd $0x56,%zmm14,%zmm3,%zmm21
  403bc5:	62 51 7d 48 ef f4    	vpxord %zmm12,%zmm0,%zmm14
  403bcb:	62 41 3d 40 ef dd    	vpxord %zmm13,%zmm24,%zmm27
  403bd1:	62 53 45 48 25 ee 36 	vpternlogd $0x36,%zmm14,%zmm7,%zmm13
  403bd8:	62 13 45 48 25 f3 6a 	vpternlogd $0x6a,%zmm27,%zmm7,%zmm14
  403bdf:	62 f1 7c 48 10 be 80 	vmovups 0x4680(%rsi),%zmm7
  403be6:	46 00 00 
  403be9:	62 d3 3d 40 25 fd 96 	vpternlogd $0x96,%zmm13,%zmm24,%zmm7
  403bf0:	62 f1 7c 48 11 7c 24 	vmovups %zmm7,0x1080(%rsp)
  403bf7:	42 
  403bf8:	62 f1 7c 48 10 7c 24 	vmovups 0x1400(%rsp),%zmm7
  403bff:	50 
  403c00:	62 e1 65 48 ef 9e 80 	vpxord 0x4280(%rsi),%zmm3,%zmm19
  403c07:	42 00 00 
  403c0a:	62 e1 7c 48 11 5c 24 	vmovups %zmm19,0xdc0(%rsp)
  403c11:	37 
  403c12:	62 11 1d 48 ef e0    	vpxord %zmm24,%zmm12,%zmm12
  403c18:	62 e1 75 48 ef 9e 40 	vpxord 0x4f40(%rsi),%zmm1,%zmm19
  403c1f:	4f 00 00 
  403c22:	62 43 1d 48 25 dd 6c 	vpternlogd $0x6c,%zmm13,%zmm12,%zmm27
  403c29:	62 53 0d 48 25 e5 56 	vpternlogd $0x56,%zmm13,%zmm14,%zmm12
  403c30:	62 61 7c 48 10 44 24 	vmovups 0x1600(%rsp),%zmm24
  403c37:	58 
  403c38:	62 31 7d 48 ef ea    	vpxord %zmm18,%zmm0,%zmm13
  403c3e:	62 b1 6d 40 ef cf    	vpxord %zmm23,%zmm18,%zmm1
  403c44:	62 e1 7c 48 10 54 24 	vmovups 0x1540(%rsp),%zmm18
  403c4b:	55 
  403c4c:	62 f1 0d 48 ef 9e c0 	vpxord 0x42c0(%rsi),%zmm14,%zmm3
  403c53:	42 00 00 
  403c56:	62 f1 7c 48 11 5c 24 	vmovups %zmm3,0xe00(%rsp)
  403c5d:	38 
  403c5e:	62 71 7c 48 10 b6 c0 	vmovups 0x46c0(%rsi),%zmm14
  403c65:	46 00 00 
  403c68:	62 f1 45 40 ef df    	vpxord %zmm7,%zmm23,%zmm3
  403c6e:	62 d3 6d 40 25 fd 36 	vpternlogd $0x36,%zmm13,%zmm18,%zmm7
  403c75:	62 73 6d 40 25 eb 6a 	vpternlogd $0x6a,%zmm3,%zmm18,%zmm13
  403c7c:	62 f3 75 48 25 df 6c 	vpternlogd $0x6c,%zmm7,%zmm1,%zmm3
  403c83:	62 f3 15 48 25 cf 56 	vpternlogd $0x56,%zmm7,%zmm13,%zmm1
  403c8a:	62 73 45 40 25 f7 96 	vpternlogd $0x96,%zmm7,%zmm23,%zmm14
  403c91:	62 e1 7c 48 10 7c 24 	vmovups 0x1640(%rsp),%zmm23
  403c98:	59 
  403c99:	62 71 7c 48 11 74 24 	vmovups %zmm14,0x10c0(%rsp)
  403ca0:	43 
  403ca1:	62 61 05 40 ef be c0 	vpxord 0x41c0(%rsi),%zmm31,%zmm31
  403ca8:	41 00 00 
  403cab:	62 e1 55 40 ef a6 80 	vpxord 0x4b80(%rsi),%zmm21,%zmm20
  403cb2:	4b 00 00 
  403cb5:	62 61 7c 48 11 7c 24 	vmovups %zmm31,0xd00(%rsp)
  403cbc:	34 
  403cbd:	62 e1 7c 48 11 64 24 	vmovups %zmm20,0x1280(%rsp)
  403cc4:	4a 
  403cc5:	62 e1 75 48 ef 96 00 	vpxord 0x4800(%rsi),%zmm1,%zmm18
  403ccc:	48 00 00 
  403ccf:	62 e1 1d 48 ef a6 c0 	vpxord 0x4bc0(%rsi),%zmm12,%zmm20
  403cd6:	4b 00 00 
  403cd9:	62 61 15 48 ef be 00 	vpxord 0x4300(%rsi),%zmm13,%zmm31
  403ce0:	43 00 00 
  403ce3:	62 f1 65 48 ef 8e c0 	vpxord 0x4fc0(%rsi),%zmm3,%zmm1
  403cea:	4f 00 00 
  403ced:	62 71 7c 48 10 64 24 	vmovups 0x13c0(%rsp),%zmm12
  403cf4:	4f 
  403cf5:	62 71 7c 48 10 6c 24 	vmovups 0x1480(%rsp),%zmm13
  403cfc:	52 
  403cfd:	62 f1 7c 48 10 5c 24 	vmovups 0x15c0(%rsp),%zmm3
  403d04:	57 
  403d05:	62 61 7c 48 11 7c 24 	vmovups %zmm31,0xbc0(%rsp)
  403d0c:	2f 
  403d0d:	62 e1 25 40 ef ae 80 	vpxord 0x4f80(%rsi),%zmm27,%zmm21
  403d14:	4f 00 00 
  403d17:	62 61 7c 48 10 9e 00 	vmovups 0x4700(%rsi),%zmm27
  403d1e:	47 00 00 
  403d21:	62 b1 7d 48 ef ff    	vpxord %zmm23,%zmm0,%zmm7
  403d27:	62 41 1d 48 ef e5    	vpxord %zmm13,%zmm12,%zmm28
  403d2d:	62 73 65 48 25 ef 36 	vpternlogd $0x36,%zmm7,%zmm3,%zmm13
  403d34:	62 93 65 48 25 fc 6a 	vpternlogd $0x6a,%zmm28,%zmm3,%zmm7
  403d3b:	62 43 1d 48 25 dd 96 	vpternlogd $0x96,%zmm13,%zmm12,%zmm27
  403d42:	62 61 7c 48 11 5c 24 	vmovups %zmm27,0x1140(%rsp)
  403d49:	45 
  403d4a:	62 61 7c 48 10 5c 24 	vmovups 0x1440(%rsp),%zmm27
  403d51:	51 
  403d52:	62 71 45 48 ef b6 40 	vpxord 0x4340(%rsi),%zmm7,%zmm14
  403d59:	43 00 00 
  403d5c:	62 41 45 40 ef f4    	vpxord %zmm12,%zmm23,%zmm30
  403d62:	62 71 7c 48 11 74 24 	vmovups %zmm14,0xb00(%rsp)
  403d69:	2c 
  403d6a:	62 e1 7c 48 10 7c 24 	vmovups 0x16c0(%rsp),%zmm23
  403d71:	5b 
  403d72:	62 71 7c 48 10 74 24 	vmovups 0x1500(%rsp),%zmm14
  403d79:	54 
  403d7a:	62 71 7c 48 10 a6 40 	vmovups 0x4740(%rsi),%zmm12
  403d81:	47 00 00 
  403d84:	62 43 0d 40 25 e5 6c 	vpternlogd $0x6c,%zmm13,%zmm30,%zmm28
  403d8b:	62 43 45 48 25 f5 56 	vpternlogd $0x56,%zmm13,%zmm7,%zmm30
  403d92:	62 71 7c 48 10 6c 24 	vmovups 0x1580(%rsp),%zmm13
  403d99:	56 
  403d9a:	62 21 7d 48 ef ff    	vpxord %zmm23,%zmm0,%zmm31
  403da0:	62 91 45 40 ef fb    	vpxord %zmm27,%zmm23,%zmm7
  403da6:	62 c1 25 40 ef fe    	vpxord %zmm14,%zmm27,%zmm23
  403dac:	62 13 3d 40 25 f7 36 	vpternlogd $0x36,%zmm31,%zmm24,%zmm14
  403db3:	62 23 3d 40 25 ff 6a 	vpternlogd $0x6a,%zmm23,%zmm24,%zmm31
  403dba:	62 61 7c 48 10 44 24 	vmovups 0x1680(%rsp),%zmm24
  403dc1:	5a 
  403dc2:	62 53 25 40 25 e6 96 	vpternlogd $0x96,%zmm14,%zmm27,%zmm12
  403dc9:	62 c3 45 48 25 fe 6c 	vpternlogd $0x6c,%zmm14,%zmm7,%zmm23
  403dd0:	62 d3 05 40 25 fe 56 	vpternlogd $0x56,%zmm14,%zmm31,%zmm7
  403dd7:	62 71 7c 48 11 64 24 	vmovups %zmm12,0x1180(%rsp)
  403dde:	46 
  403ddf:	62 71 7c 48 10 74 24 	vmovups 0x80(%rsp),%zmm14
  403de6:	02 
  403de7:	62 71 7c 48 10 64 24 	vmovups 0x14c0(%rsp),%zmm12
  403dee:	53 
  403def:	62 f1 05 40 ef 9e 80 	vpxord 0x4380(%rsi),%zmm31,%zmm3
  403df6:	43 00 00 
  403df9:	62 f1 7c 48 11 5c 24 	vmovups %zmm3,0xac0(%rsp)
  403e00:	2b 
  403e01:	62 f1 45 48 ef 9e 80 	vpxord 0x4880(%rsi),%zmm7,%zmm3
  403e08:	48 00 00 
  403e0b:	62 41 7d 48 ef de    	vpxord %zmm14,%zmm0,%zmm27
  403e11:	62 d1 1d 48 ef fd    	vpxord %zmm13,%zmm12,%zmm7
  403e17:	62 13 3d 40 25 eb 36 	vpternlogd $0x36,%zmm27,%zmm24,%zmm13
  403e1e:	62 63 3d 40 25 df 6a 	vpternlogd $0x6a,%zmm7,%zmm24,%zmm27
  403e25:	62 61 7c 48 10 86 80 	vmovups 0x4780(%rsi),%zmm24
  403e2c:	47 00 00 
  403e2f:	62 43 1d 48 25 c5 96 	vpternlogd $0x96,%zmm13,%zmm12,%zmm24
  403e36:	62 61 7c 48 11 44 24 	vmovups %zmm24,0xe40(%rsp)
  403e3d:	39 
  403e3e:	62 61 7c 48 10 44 24 	vmovups 0x1700(%rsp),%zmm24
  403e45:	5c 
  403e46:	62 61 1d 40 ef a6 00 	vpxord 0x4c00(%rsi),%zmm28,%zmm28
  403e4d:	4c 00 00 
  403e50:	62 51 0d 48 ef f4    	vpxord %zmm12,%zmm14,%zmm14
  403e56:	62 e1 4d 40 ef b6 00 	vpxord 0x4000(%rsi),%zmm22,%zmm22
  403e5d:	40 00 00 
  403e60:	62 d3 0d 48 25 fd 6c 	vpternlogd $0x6c,%zmm13,%zmm14,%zmm7
  403e67:	62 53 25 40 25 f5 56 	vpternlogd $0x56,%zmm13,%zmm27,%zmm14
  403e6e:	62 71 7d 48 ef ec    	vpxord %zmm4,%zmm0,%zmm13
  403e74:	62 11 6d 40 ef e4    	vpxord %zmm28,%zmm18,%zmm12
  403e7a:	62 43 4d 40 25 e5 36 	vpternlogd $0x36,%zmm13,%zmm22,%zmm28
  403e81:	62 53 4d 40 25 ec 6a 	vpternlogd $0x6a,%zmm12,%zmm22,%zmm13
  403e88:	62 b1 5d 48 ef e2    	vpxord %zmm18,%zmm4,%zmm4
  403e8e:	62 e1 15 48 ef b6 00 	vpxord 0x5000(%rsi),%zmm13,%zmm22
  403e95:	50 00 00 
  403e98:	62 13 5d 48 25 e4 6c 	vpternlogd $0x6c,%zmm28,%zmm4,%zmm12
  403e9f:	62 93 15 48 25 e4 56 	vpternlogd $0x56,%zmm28,%zmm13,%zmm4
  403ea6:	62 71 7c 48 10 ae c0 	vmovups 0x57c0(%rsi),%zmm13
  403ead:	57 00 00 
  403eb0:	62 e1 7c 48 11 74 24 	vmovups %zmm22,0xa80(%rsp)
  403eb7:	2a 
  403eb8:	62 13 6d 40 25 ec 96 	vpternlogd $0x96,%zmm28,%zmm18,%zmm13
  403ebf:	62 71 7c 48 11 2c 24 	vmovups %zmm13,(%rsp)
  403ec6:	62 e1 5d 48 ef b6 00 	vpxord 0x5900(%rsi),%zmm4,%zmm22
  403ecd:	59 00 00 
  403ed0:	62 61 0d 40 ef b6 40 	vpxord 0x4840(%rsi),%zmm30,%zmm30
  403ed7:	48 00 00 
  403eda:	62 e1 45 40 ef be 40 	vpxord 0x4c40(%rsi),%zmm23,%zmm23
  403ee1:	4c 00 00 
  403ee4:	62 e1 7c 48 11 74 24 	vmovups %zmm22,0xf80(%rsp)
  403eeb:	3e 
  403eec:	62 f1 55 48 ef ae 40 	vpxord 0x4040(%rsi),%zmm5,%zmm5
  403ef3:	40 00 00 
  403ef6:	62 e1 1d 48 ef b6 c0 	vpxord 0x5cc0(%rsi),%zmm12,%zmm22
  403efd:	5c 00 00 
  403f00:	62 e1 7d 48 ef d6    	vpxord %zmm6,%zmm0,%zmm18
  403f06:	62 31 0d 40 ef e7    	vpxord %zmm23,%zmm30,%zmm12
  403f0c:	62 a3 55 48 25 fa 36 	vpternlogd $0x36,%zmm18,%zmm5,%zmm23
  403f13:	62 c3 55 48 25 d4 6a 	vpternlogd $0x6a,%zmm12,%zmm5,%zmm18
  403f1a:	62 f1 6d 40 ef ae 40 	vpxord 0x5040(%rsi),%zmm18,%zmm5
  403f21:	50 00 00 
  403f24:	62 f1 7c 48 11 6c 24 	vmovups %zmm5,0xb40(%rsp)
  403f2b:	2d 
  403f2c:	62 f1 7c 48 10 ae 00 	vmovups 0x5400(%rsi),%zmm5
  403f33:	54 00 00 
  403f36:	62 b3 0d 40 25 ef 96 	vpternlogd $0x96,%zmm23,%zmm30,%zmm5
  403f3d:	62 f1 7c 48 11 6c 24 	vmovups %zmm5,0xe80(%rsp)
  403f44:	3a 
  403f45:	62 f1 7c 48 10 6c 24 	vmovups 0x1780(%rsp),%zmm5
  403f4c:	5e 
  403f4d:	62 91 4d 48 ef f6    	vpxord %zmm30,%zmm6,%zmm6
  403f53:	62 f1 45 48 ef be 80 	vpxord 0x4c80(%rsi),%zmm7,%zmm7
  403f5a:	4c 00 00 
  403f5d:	62 33 4d 48 25 e7 6c 	vpternlogd $0x6c,%zmm23,%zmm6,%zmm12
  403f64:	62 b3 6d 40 25 f7 56 	vpternlogd $0x56,%zmm23,%zmm18,%zmm6
  403f6b:	62 61 7c 48 10 74 24 	vmovups 0x1800(%rsp),%zmm30
  403f72:	60 
  403f73:	62 71 35 48 ef 8e 80 	vpxord 0x4080(%rsi),%zmm9,%zmm9
  403f7a:	40 00 00 
  403f7d:	62 51 7d 48 ef eb    	vpxord %zmm11,%zmm0,%zmm13
  403f83:	62 e1 65 48 ef ff    	vpxord %zmm7,%zmm3,%zmm23
  403f89:	62 d3 35 48 25 fd 36 	vpternlogd $0x36,%zmm13,%zmm9,%zmm7
  403f90:	62 33 35 48 25 ef 6a 	vpternlogd $0x6a,%zmm23,%zmm9,%zmm13
  403f97:	62 f1 4d 48 ef a6 40 	vpxord 0x5940(%rsi),%zmm6,%zmm4
  403f9e:	59 00 00 
  403fa1:	62 61 25 40 ef be c0 	vpxord 0x43c0(%rsi),%zmm27,%zmm31
  403fa8:	43 00 00 
  403fab:	62 71 15 48 ef 8e 80 	vpxord 0x5080(%rsi),%zmm13,%zmm9
  403fb2:	50 00 00 
  403fb5:	62 f1 7c 48 11 64 24 	vmovups %zmm4,0x12c0(%rsp)
  403fbc:	4b 
  403fbd:	62 61 7c 48 11 7c 24 	vmovups %zmm31,0xa40(%rsp)
  403fc4:	29 
  403fc5:	62 71 7c 48 11 4c 24 	vmovups %zmm9,0xb80(%rsp)
  403fcc:	2e 
  403fcd:	62 f1 7c 48 10 74 24 	vmovups 0x1740(%rsp),%zmm6
  403fd4:	5d 
  403fd5:	62 f1 1d 48 ef a6 00 	vpxord 0x5d00(%rsi),%zmm12,%zmm4
  403fdc:	5d 00 00 
  403fdf:	62 e1 25 48 ef d3    	vpxord %zmm3,%zmm11,%zmm18
  403fe5:	62 71 05 48 ef be 00 	vpxord 0x4a00(%rsi),%zmm15,%zmm15
  403fec:	4a 00 00 
  403fef:	62 e1 75 40 ef 8e 40 	vpxord 0x4a40(%rsi),%zmm17,%zmm17
  403ff6:	4a 00 00 
  403ff9:	62 71 2d 48 ef 96 00 	vpxord 0x4b00(%rsi),%zmm10,%zmm10
  404000:	4b 00 00 
  404003:	62 61 15 40 ef ae c0 	vpxord 0x4ec0(%rsi),%zmm29,%zmm29
  40400a:	4e 00 00 
  40400d:	62 71 0d 48 ef b6 c0 	vpxord 0x48c0(%rsi),%zmm14,%zmm14
  404014:	48 00 00 
  404017:	62 e3 6d 40 25 ff 6c 	vpternlogd $0x6c,%zmm7,%zmm18,%zmm23
  40401e:	62 e3 15 48 25 d7 56 	vpternlogd $0x56,%zmm7,%zmm13,%zmm18
  404025:	62 71 7c 48 10 64 24 	vmovups 0x17c0(%rsp),%zmm12
  40402c:	5f 
  40402d:	62 71 7c 48 10 5c 24 	vmovups 0x1840(%rsp),%zmm11
  404034:	61 
  404035:	62 71 7c 48 10 6c 24 	vmovups 0x1880(%rsp),%zmm13
  40403c:	62 
  40403d:	62 61 7c 48 10 9e 40 	vmovups 0x5440(%rsi),%zmm27
  404044:	54 00 00 
  404047:	62 63 65 48 25 df 96 	vpternlogd $0x96,%zmm7,%zmm3,%zmm27
  40404e:	62 f1 7c 48 10 5c 24 	vmovups 0xec0(%rsp),%zmm3
  404055:	3b 
  404056:	62 71 45 40 ef 8e 40 	vpxord 0x5d40(%rsi),%zmm23,%zmm9
  40405d:	5d 00 00 
  404060:	62 e1 7c 48 10 7c 24 	vmovups 0xc00(%rsp),%zmm23
  404067:	30 
  404068:	62 61 6d 40 ef a6 80 	vpxord 0x5980(%rsi),%zmm18,%zmm28
  40406f:	59 00 00 
  404072:	62 61 7c 48 11 64 24 	vmovups %zmm28,0x1340(%rsp)
  404079:	4d 
  40407a:	62 61 7d 48 ef e3    	vpxord %zmm3,%zmm0,%zmm28
  404080:	62 c1 0d 48 ef d0    	vpxord %zmm8,%zmm14,%zmm18
  404086:	62 13 45 40 25 c4 36 	vpternlogd $0x36,%zmm28,%zmm23,%zmm8
  40408d:	62 23 45 40 25 e2 6a 	vpternlogd $0x6a,%zmm18,%zmm23,%zmm28
  404094:	62 d1 65 48 ef de    	vpxord %zmm14,%zmm3,%zmm3
  40409a:	62 c3 65 48 25 d0 6c 	vpternlogd $0x6c,%zmm8,%zmm3,%zmm18
  4040a1:	62 d3 1d 40 25 d8 56 	vpternlogd $0x56,%zmm8,%zmm28,%zmm3
  4040a8:	62 f1 65 48 ef be c0 	vpxord 0x59c0(%rsi),%zmm3,%zmm7
  4040af:	59 00 00 
  4040b2:	62 f1 7c 48 10 9e 80 	vmovups 0x5480(%rsi),%zmm3
  4040b9:	54 00 00 
  4040bc:	62 f1 7c 48 11 7c 24 	vmovups %zmm7,0x1380(%rsp)
  4040c3:	4e 
  4040c4:	62 f1 7c 48 10 7c 24 	vmovups 0x11c0(%rsp),%zmm7
  4040cb:	47 
  4040cc:	62 d3 0d 48 25 d8 96 	vpternlogd $0x96,%zmm8,%zmm14,%zmm3
  4040d3:	62 71 7c 48 10 44 24 	vmovups 0xf00(%rsp),%zmm8
  4040da:	3c 
  4040db:	62 71 7c 48 10 74 24 	vmovups 0xc40(%rsp),%zmm14
  4040e2:	31 
  4040e3:	62 41 7d 48 ef f8    	vpxord %zmm8,%zmm0,%zmm31
  4040e9:	62 e1 6d 40 ef be 80 	vpxord 0x5d80(%rsi),%zmm18,%zmm23
  4040f0:	5d 00 00 
  4040f3:	62 81 45 48 ef d0    	vpxord %zmm24,%zmm7,%zmm18
  4040f9:	62 03 0d 48 25 c7 36 	vpternlogd $0x36,%zmm31,%zmm14,%zmm24
  404100:	62 23 0d 48 25 fa 6a 	vpternlogd $0x6a,%zmm18,%zmm14,%zmm31
  404107:	62 e1 7c 48 11 7c 24 	vmovups %zmm23,0x13c0(%rsp)
  40410e:	4f 
  40410f:	62 71 3d 48 ef c7    	vpxord %zmm7,%zmm8,%zmm8
  404115:	62 83 3d 48 25 d0 6c 	vpternlogd $0x6c,%zmm24,%zmm8,%zmm18
  40411c:	62 13 05 40 25 c0 56 	vpternlogd $0x56,%zmm24,%zmm31,%zmm8
  404123:	62 e1 6d 40 ef 96 c0 	vpxord 0x5dc0(%rsi),%zmm18,%zmm18
  40412a:	5d 00 00 
  40412d:	62 e1 7c 48 11 54 24 	vmovups %zmm18,0x1440(%rsp)
  404134:	51 
  404135:	62 e1 7c 48 10 96 c0 	vmovups 0x54c0(%rsi),%zmm18
  40413c:	54 00 00 
  40413f:	62 83 45 48 25 d0 96 	vpternlogd $0x96,%zmm24,%zmm7,%zmm18
  404146:	62 61 7c 48 10 44 24 	vmovups 0xf40(%rsp),%zmm24
  40414d:	3d 
  40414e:	62 71 3d 48 ef b6 00 	vpxord 0x5a00(%rsi),%zmm8,%zmm14
  404155:	5a 00 00 
  404158:	62 e1 05 40 ef be 00 	vpxord 0x5100(%rsi),%zmm31,%zmm23
  40415f:	51 00 00 
  404162:	62 71 7c 48 11 74 24 	vmovups %zmm14,0x1400(%rsp)
  404169:	50 
  40416a:	62 61 7c 48 10 7c 24 	vmovups 0x1240(%rsp),%zmm31
  404171:	49 
  404172:	62 71 7c 48 10 74 24 	vmovups 0xc80(%rsp),%zmm14
  404179:	32 
  40417a:	62 91 7d 48 ef f8    	vpxord %zmm24,%zmm0,%zmm7
  404180:	62 71 05 40 ef c5    	vpxord %zmm5,%zmm31,%zmm8
  404186:	62 f3 0d 48 25 ef 36 	vpternlogd $0x36,%zmm7,%zmm14,%zmm5
  40418d:	62 d3 0d 48 25 f8 6a 	vpternlogd $0x6a,%zmm8,%zmm14,%zmm7
  404194:	62 01 3d 40 ef c7    	vpxord %zmm31,%zmm24,%zmm24
  40419a:	62 73 3d 40 25 c5 6c 	vpternlogd $0x6c,%zmm5,%zmm24,%zmm8
  4041a1:	62 63 45 48 25 c5 56 	vpternlogd $0x56,%zmm5,%zmm7,%zmm24
  4041a8:	62 61 3d 40 ef 86 40 	vpxord 0x5a40(%rsi),%zmm24,%zmm24
  4041af:	5a 00 00 
  4041b2:	62 61 7c 48 11 44 24 	vmovups %zmm24,0x1480(%rsp)
  4041b9:	52 
  4041ba:	62 61 7c 48 10 86 00 	vmovups 0x5500(%rsi),%zmm24
  4041c1:	55 00 00 
  4041c4:	62 63 05 40 25 c5 96 	vpternlogd $0x96,%zmm5,%zmm31,%zmm24
  4041cb:	62 f1 7c 48 10 6c 24 	vmovups 0xfc0(%rsp),%zmm5
  4041d2:	3f 
  4041d3:	62 61 7c 48 10 7c 24 	vmovups 0xcc0(%rsp),%zmm31
  4041da:	33 
  4041db:	62 71 3d 48 ef 86 00 	vpxord 0x5e00(%rsi),%zmm8,%zmm8
  4041e2:	5e 00 00 
  4041e5:	62 71 7c 48 11 44 24 	vmovups %zmm8,0x14c0(%rsp)
  4041ec:	53 
  4041ed:	62 71 7d 48 ef f5    	vpxord %zmm5,%zmm0,%zmm14
  4041f3:	62 71 55 48 ef c6    	vpxord %zmm6,%zmm5,%zmm8
  4041f9:	62 91 4d 48 ef ee    	vpxord %zmm30,%zmm6,%zmm5
  4041ff:	62 43 05 40 25 f6 36 	vpternlogd $0x36,%zmm14,%zmm31,%zmm30
  404206:	62 73 05 40 25 f5 6a 	vpternlogd $0x6a,%zmm5,%zmm31,%zmm14
  40420d:	62 61 7c 48 10 7c 24 	vmovups 0xd00(%rsp),%zmm31
  404214:	34 
  404215:	62 93 3d 48 25 ee 6c 	vpternlogd $0x6c,%zmm30,%zmm8,%zmm5
  40421c:	62 13 0d 48 25 c6 56 	vpternlogd $0x56,%zmm30,%zmm14,%zmm8
  404223:	62 71 3d 48 ef 86 80 	vpxord 0x5a80(%rsi),%zmm8,%zmm8
  40422a:	5a 00 00 
  40422d:	62 71 7c 48 11 44 24 	vmovups %zmm8,0x1500(%rsp)
  404234:	54 
  404235:	62 71 7c 48 10 86 40 	vmovups 0x5540(%rsi),%zmm8
  40423c:	55 00 00 
  40423f:	62 13 4d 48 25 c6 96 	vpternlogd $0x96,%zmm30,%zmm6,%zmm8
  404246:	62 f1 7c 48 10 74 24 	vmovups 0x1000(%rsp),%zmm6
  40424d:	40 
  40424e:	62 f1 55 48 ef ae 40 	vpxord 0x5e40(%rsi),%zmm5,%zmm5
  404255:	5e 00 00 
  404258:	62 f1 7c 48 11 6c 24 	vmovups %zmm5,0x1540(%rsp)
  40425f:	55 
  404260:	62 f1 7d 48 ef ee    	vpxord %zmm6,%zmm0,%zmm5
  404266:	62 41 1d 48 ef f3    	vpxord %zmm11,%zmm12,%zmm30
  40426c:	62 73 05 40 25 dd 36 	vpternlogd $0x36,%zmm5,%zmm31,%zmm11
  404273:	62 93 05 40 25 ee 6a 	vpternlogd $0x6a,%zmm30,%zmm31,%zmm5
  40427a:	62 61 7c 48 10 7c 24 	vmovups 0xd40(%rsp),%zmm31
  404281:	35 
  404282:	62 d1 4d 48 ef f4    	vpxord %zmm12,%zmm6,%zmm6
  404288:	62 43 4d 48 25 f3 6c 	vpternlogd $0x6c,%zmm11,%zmm6,%zmm30
  40428f:	62 d3 55 48 25 f3 56 	vpternlogd $0x56,%zmm11,%zmm5,%zmm6
  404296:	62 f1 4d 48 ef b6 c0 	vpxord 0x5ac0(%rsi),%zmm6,%zmm6
  40429d:	5a 00 00 
  4042a0:	62 f1 7c 48 11 74 24 	vmovups %zmm6,0x1580(%rsp)
  4042a7:	56 
  4042a8:	62 f1 7c 48 10 b6 80 	vmovups 0x5580(%rsi),%zmm6
  4042af:	55 00 00 
  4042b2:	62 d3 1d 48 25 f3 96 	vpternlogd $0x96,%zmm11,%zmm12,%zmm6
  4042b9:	62 71 7c 48 10 5c 24 	vmovups 0x1040(%rsp),%zmm11
  4042c0:	41 
  4042c1:	62 61 0d 40 ef b6 80 	vpxord 0x5e80(%rsi),%zmm30,%zmm30
  4042c8:	5e 00 00 
  4042cb:	62 61 7c 48 11 74 24 	vmovups %zmm30,0x15c0(%rsp)
  4042d2:	57 
  4042d3:	62 51 7d 48 ef e3    	vpxord %zmm11,%zmm0,%zmm12
  4042d9:	62 41 05 48 ef f5    	vpxord %zmm13,%zmm15,%zmm30
  4042df:	62 53 05 40 25 ec 36 	vpternlogd $0x36,%zmm12,%zmm31,%zmm13
  4042e6:	62 13 05 40 25 e6 6a 	vpternlogd $0x6a,%zmm30,%zmm31,%zmm12
  4042ed:	62 61 7c 48 10 7c 24 	vmovups 0xd80(%rsp),%zmm31
  4042f4:	36 
  4042f5:	62 51 25 48 ef df    	vpxord %zmm15,%zmm11,%zmm11
  4042fb:	62 43 25 48 25 f5 6c 	vpternlogd $0x6c,%zmm13,%zmm11,%zmm30
  404302:	62 53 1d 48 25 dd 56 	vpternlogd $0x56,%zmm13,%zmm12,%zmm11
  404309:	62 71 25 48 ef 9e 00 	vpxord 0x5b00(%rsi),%zmm11,%zmm11
  404310:	5b 00 00 
  404313:	62 71 7c 48 11 5c 24 	vmovups %zmm11,0x1600(%rsp)
  40431a:	58 
  40431b:	62 71 7c 48 10 9e c0 	vmovups 0x55c0(%rsi),%zmm11
  404322:	55 00 00 
  404325:	62 53 05 48 25 dd 96 	vpternlogd $0x96,%zmm13,%zmm15,%zmm11
  40432c:	62 71 7c 48 10 6c 24 	vmovups 0x1100(%rsp),%zmm13
  404333:	44 
  404334:	62 61 0d 40 ef b6 c0 	vpxord 0x5ec0(%rsi),%zmm30,%zmm30
  40433b:	5e 00 00 
  40433e:	62 61 7c 48 11 74 24 	vmovups %zmm30,0x1640(%rsp)
  404345:	59 
  404346:	62 51 7d 48 ef fd    	vpxord %zmm13,%zmm0,%zmm15
  40434c:	62 21 75 40 ef f0    	vpxord %zmm16,%zmm17,%zmm30
  404352:	62 c3 05 40 25 c7 36 	vpternlogd $0x36,%zmm15,%zmm31,%zmm16
  404359:	62 13 05 40 25 fe 6a 	vpternlogd $0x6a,%zmm30,%zmm31,%zmm15
  404360:	62 61 7c 48 10 7c 24 	vmovups 0xdc0(%rsp),%zmm31
  404367:	37 
  404368:	62 31 15 48 ef e9    	vpxord %zmm17,%zmm13,%zmm13
  40436e:	62 23 15 48 25 f0 6c 	vpternlogd $0x6c,%zmm16,%zmm13,%zmm30
  404375:	62 33 05 48 25 e8 56 	vpternlogd $0x56,%zmm16,%zmm15,%zmm13
  40437c:	62 71 15 48 ef ae 40 	vpxord 0x5b40(%rsi),%zmm13,%zmm13
  404383:	5b 00 00 
  404386:	62 71 7c 48 11 6c 24 	vmovups %zmm13,0x1680(%rsp)
  40438d:	5a 
  40438e:	62 71 7c 48 10 ae 00 	vmovups 0x5600(%rsi),%zmm13
  404395:	56 00 00 
  404398:	62 33 75 40 25 e8 96 	vpternlogd $0x96,%zmm16,%zmm17,%zmm13
  40439f:	62 e1 7c 48 10 44 24 	vmovups 0x1080(%rsp),%zmm16
  4043a6:	42 
  4043a7:	62 61 0d 40 ef b6 00 	vpxord 0x5f00(%rsi),%zmm30,%zmm30
  4043ae:	5f 00 00 
  4043b1:	62 61 7c 48 11 74 24 	vmovups %zmm30,0x16c0(%rsp)
  4043b8:	5b 
  4043b9:	62 21 7d 48 ef f0    	vpxord %zmm16,%zmm0,%zmm30
  4043bf:	62 81 2d 40 ef c9    	vpxord %zmm25,%zmm26,%zmm17
  4043c5:	62 03 05 40 25 ce 36 	vpternlogd $0x36,%zmm30,%zmm31,%zmm25
  4043cc:	62 23 05 40 25 f1 6a 	vpternlogd $0x6a,%zmm17,%zmm31,%zmm30
  4043d3:	62 61 7c 48 10 7c 24 	vmovups 0xe00(%rsp),%zmm31
  4043da:	38 
  4043db:	62 81 7d 40 ef c2    	vpxord %zmm26,%zmm16,%zmm16
  4043e1:	62 83 7d 40 25 c9 6c 	vpternlogd $0x6c,%zmm25,%zmm16,%zmm17
  4043e8:	62 83 0d 40 25 c1 56 	vpternlogd $0x56,%zmm25,%zmm30,%zmm16
  4043ef:	62 e1 7d 40 ef 86 80 	vpxord 0x5b80(%rsi),%zmm16,%zmm16
  4043f6:	5b 00 00 
  4043f9:	62 e1 7c 48 11 44 24 	vmovups %zmm16,0x1740(%rsp)
  404400:	5d 
  404401:	62 e1 7c 48 10 86 40 	vmovups 0x5640(%rsi),%zmm16
  404408:	56 00 00 
  40440b:	62 83 2d 40 25 c1 96 	vpternlogd $0x96,%zmm25,%zmm26,%zmm16
  404412:	62 61 7c 48 10 4c 24 	vmovups 0x1300(%rsp),%zmm25
  404419:	4c 
  40441a:	62 e1 75 40 ef 8e 40 	vpxord 0x5f40(%rsi),%zmm17,%zmm17
  404421:	5f 00 00 
  404424:	62 e1 7c 48 11 4c 24 	vmovups %zmm17,0x440(%rsp)
  40442b:	11 
  40442c:	62 e1 7c 48 10 4c 24 	vmovups 0x10c0(%rsp),%zmm17
  404433:	43 
  404434:	62 61 0d 40 ef b6 80 	vpxord 0x5280(%rsi),%zmm30,%zmm30
  40443b:	52 00 00 
  40443e:	62 61 7c 48 11 74 24 	vmovups %zmm30,0x1700(%rsp)
  404445:	5c 
  404446:	62 21 7d 48 ef d1    	vpxord %zmm17,%zmm0,%zmm26
  40444c:	62 01 35 40 ef f5    	vpxord %zmm29,%zmm25,%zmm30
  404452:	62 03 05 40 25 ea 36 	vpternlogd $0x36,%zmm26,%zmm31,%zmm29
  404459:	62 03 05 40 25 d6 6a 	vpternlogd $0x6a,%zmm30,%zmm31,%zmm26
  404460:	62 61 7c 48 10 be c0 	vmovups 0x56c0(%rsi),%zmm31
  404467:	56 00 00 
  40446a:	62 81 75 40 ef c9    	vpxord %zmm25,%zmm17,%zmm17
  404470:	62 03 75 40 25 f5 6c 	vpternlogd $0x6c,%zmm29,%zmm17,%zmm30
  404477:	62 83 2d 40 25 cd 56 	vpternlogd $0x56,%zmm29,%zmm26,%zmm17
  40447e:	62 61 2d 40 ef 96 c0 	vpxord 0x52c0(%rsi),%zmm26,%zmm26
  404485:	52 00 00 
  404488:	62 61 7c 48 11 54 24 	vmovups %zmm26,0x1780(%rsp)
  40448f:	5e 
  404490:	62 61 75 40 ef 96 c0 	vpxord 0x5bc0(%rsi),%zmm17,%zmm26
  404497:	5b 00 00 
  40449a:	62 e1 0d 40 ef 8e 80 	vpxord 0x5f80(%rsi),%zmm30,%zmm17
  4044a1:	5f 00 00 
  4044a4:	62 e1 7c 48 11 4c 24 	vmovups %zmm17,0x1800(%rsp)
  4044ab:	60 
  4044ac:	62 e1 7c 48 10 8e 80 	vmovups 0x5680(%rsi),%zmm17
  4044b3:	56 00 00 
  4044b6:	62 61 7c 48 11 54 24 	vmovups %zmm26,0x17c0(%rsp)
  4044bd:	5f 
  4044be:	62 83 35 40 25 cd 96 	vpternlogd $0x96,%zmm29,%zmm25,%zmm17
  4044c5:	62 61 7c 48 10 6c 24 	vmovups 0x1140(%rsp),%zmm29
  4044cc:	45 
  4044cd:	62 61 7c 48 10 4c 24 	vmovups 0xbc0(%rsp),%zmm25
  4044d4:	2f 
  4044d5:	62 01 7d 48 ef d5    	vpxord %zmm29,%zmm0,%zmm26
  4044db:	62 41 15 40 ef f2    	vpxord %zmm10,%zmm29,%zmm30
  4044e1:	62 61 2d 48 ef ea    	vpxord %zmm2,%zmm10,%zmm29
  4044e7:	62 93 35 40 25 d2 36 	vpternlogd $0x36,%zmm26,%zmm25,%zmm2
  4044ee:	62 03 35 40 25 d5 6a 	vpternlogd $0x6a,%zmm29,%zmm25,%zmm26
  4044f5:	62 63 0d 40 25 ea 6c 	vpternlogd $0x6c,%zmm2,%zmm30,%zmm29
  4044fc:	62 63 2d 40 25 f2 56 	vpternlogd $0x56,%zmm2,%zmm26,%zmm30
  404503:	62 63 2d 48 25 fa 96 	vpternlogd $0x96,%zmm2,%zmm10,%zmm31
  40450a:	62 f1 7c 48 10 54 24 	vmovups 0x1180(%rsp),%zmm2
  404511:	46 
  404512:	62 61 7c 48 11 7c 24 	vmovups %zmm31,0x18c0(%rsp)
  404519:	63 
  40451a:	62 61 2d 40 ef 8e 00 	vpxord 0x5300(%rsi),%zmm26,%zmm25
  404521:	53 00 00 
  404524:	62 61 7c 48 10 54 24 	vmovups 0x1200(%rsp),%zmm26
  40452b:	48 
  40452c:	62 61 7c 48 11 4c 24 	vmovups %zmm25,0x1840(%rsp)
  404533:	61 
  404534:	62 71 7d 48 ef d2    	vpxord %zmm2,%zmm0,%zmm10
  40453a:	62 01 6d 48 ef fa    	vpxord %zmm26,%zmm2,%zmm31
  404540:	62 f1 7c 48 10 54 24 	vmovups 0xb00(%rsp),%zmm2
  404547:	2c 
  404548:	62 61 15 40 ef ae c0 	vpxord 0x5fc0(%rsi),%zmm29,%zmm29
  40454f:	5f 00 00 
  404552:	62 61 7c 48 11 6c 24 	vmovups %zmm29,0x1880(%rsp)
  404559:	62 
  40455a:	62 21 2d 40 ef eb    	vpxord %zmm19,%zmm26,%zmm29
  404560:	62 c3 6d 48 25 da 36 	vpternlogd $0x36,%zmm10,%zmm2,%zmm19
  404567:	62 13 6d 48 25 d5 6a 	vpternlogd $0x6a,%zmm29,%zmm2,%zmm10
  40456e:	62 23 05 40 25 eb 6c 	vpternlogd $0x6c,%zmm19,%zmm31,%zmm29
  404575:	62 23 2d 48 25 fb 56 	vpternlogd $0x56,%zmm19,%zmm10,%zmm31
  40457c:	62 61 2d 48 ef 8e 40 	vpxord 0x5340(%rsi),%zmm10,%zmm25
  404583:	53 00 00 
  404586:	62 71 7c 48 10 96 00 	vmovups 0x5700(%rsi),%zmm10
  40458d:	57 00 00 
  404590:	62 61 7c 48 11 4c 24 	vmovups %zmm25,0x1900(%rsp)
  404597:	64 
  404598:	62 33 2d 40 25 d3 96 	vpternlogd $0x96,%zmm19,%zmm26,%zmm10
  40459f:	62 61 7c 48 10 54 24 	vmovups 0x1280(%rsp),%zmm26
  4045a6:	4a 
  4045a7:	62 71 7c 48 11 54 24 	vmovups %zmm10,0x1940(%rsp)
  4045ae:	65 
  4045af:	62 71 7c 48 10 54 24 	vmovups 0xe40(%rsp),%zmm10
  4045b6:	39 
  4045b7:	62 f1 05 40 ef 96 40 	vpxord 0x5840(%rsi),%zmm31,%zmm2
  4045be:	58 00 00 
  4045c1:	62 61 7c 48 10 7c 24 	vmovups 0xac0(%rsp),%zmm31
  4045c8:	2b 
  4045c9:	62 c1 7d 48 ef da    	vpxord %zmm10,%zmm0,%zmm19
  4045cf:	62 21 2d 40 ef cd    	vpxord %zmm21,%zmm26,%zmm25
  4045d5:	62 a3 05 40 25 eb 36 	vpternlogd $0x36,%zmm19,%zmm31,%zmm21
  4045dc:	62 83 05 40 25 d9 6a 	vpternlogd $0x6a,%zmm25,%zmm31,%zmm19
  4045e3:	62 11 2d 48 ef d2    	vpxord %zmm26,%zmm10,%zmm10
  4045e9:	62 23 2d 48 25 cd 6c 	vpternlogd $0x6c,%zmm21,%zmm10,%zmm25
  4045f0:	62 33 65 40 25 d5 56 	vpternlogd $0x56,%zmm21,%zmm19,%zmm10
  4045f7:	62 e1 65 40 ef 9e 80 	vpxord 0x5380(%rsi),%zmm19,%zmm19
  4045fe:	53 00 00 
  404601:	62 e1 7c 48 11 5c 24 	vmovups %zmm19,0x100(%rsp)
  404608:	04 
  404609:	62 e1 2d 48 ef 9e 80 	vpxord 0x5880(%rsi),%zmm10,%zmm19
  404610:	58 00 00 
  404613:	62 71 35 40 ef 96 40 	vpxord 0x5c40(%rsi),%zmm25,%zmm10
  40461a:	5c 00 00 
  40461d:	62 61 7c 48 10 8e 40 	vmovups 0x5740(%rsi),%zmm25
  404624:	57 00 00 
  404627:	62 23 2d 40 25 cd 96 	vpternlogd $0x96,%zmm21,%zmm26,%zmm25
  40462e:	62 e1 7c 48 10 6c 24 	vmovups 0xa00(%rsp),%zmm21
  404635:	28 
  404636:	62 61 7c 48 10 54 24 	vmovups 0xa40(%rsp),%zmm26
  40463d:	29 
  40463e:	62 61 7c 48 11 4c 24 	vmovups %zmm25,0x1980(%rsp)
  404645:	66 
  404646:	62 21 7d 48 ef fd    	vpxord %zmm21,%zmm0,%zmm31
  40464c:	62 21 55 40 ef cc    	vpxord %zmm20,%zmm21,%zmm25
  404652:	62 e1 5d 40 ef e9    	vpxord %zmm1,%zmm20,%zmm21
  404658:	62 93 2d 40 25 cf 36 	vpternlogd $0x36,%zmm31,%zmm26,%zmm1
  40465f:	62 23 2d 40 25 fd 6a 	vpternlogd $0x6a,%zmm21,%zmm26,%zmm31
  404666:	62 e3 35 40 25 e9 6c 	vpternlogd $0x6c,%zmm1,%zmm25,%zmm21
  40466d:	62 63 05 40 25 c9 56 	vpternlogd $0x56,%zmm1,%zmm31,%zmm25
  404674:	62 61 05 40 ef 96 c0 	vpxord 0x53c0(%rsi),%zmm31,%zmm26
  40467b:	53 00 00 
  40467e:	62 61 7c 48 10 be 80 	vmovups 0x5780(%rsi),%zmm31
  404685:	57 00 00 
  404688:	62 61 7c 48 11 54 24 	vmovups %zmm26,0x80(%rsp)
  40468f:	02 
  404690:	62 63 5d 40 25 f9 96 	vpternlogd $0x96,%zmm1,%zmm20,%zmm31
  404697:	62 e1 7c 48 10 64 24 	vmovups 0xe80(%rsp),%zmm20
  40469e:	3a 
  40469f:	62 61 7c 48 11 7c 24 	vmovups %zmm31,0x480(%rsp)
  4046a6:	12 
  4046a7:	62 61 7c 48 10 7c 24 	vmovups 0xa80(%rsp),%zmm31
  4046ae:	2a 
  4046af:	62 61 0d 40 ef b6 00 	vpxord 0x5800(%rsi),%zmm30,%zmm30
  4046b6:	58 00 00 
  4046b9:	62 61 15 40 ef ae 00 	vpxord 0x5c00(%rsi),%zmm29,%zmm29
  4046c0:	5c 00 00 
  4046c3:	62 21 7d 48 ef d4    	vpxord %zmm20,%zmm0,%zmm26
  4046c9:	62 91 0d 40 ef cd    	vpxord %zmm29,%zmm30,%zmm1
  4046cf:	62 03 05 40 25 ea 36 	vpternlogd $0x36,%zmm26,%zmm31,%zmm29
  4046d6:	62 63 05 40 25 d1 6a 	vpternlogd $0x6a,%zmm1,%zmm31,%zmm26
  4046dd:	62 81 5d 40 ef e6    	vpxord %zmm30,%zmm20,%zmm20
  4046e3:	62 93 5d 40 25 cd 6c 	vpternlogd $0x6c,%zmm29,%zmm20,%zmm1
  4046ea:	62 83 2d 40 25 e5 56 	vpternlogd $0x56,%zmm29,%zmm26,%zmm20
  4046f1:	62 61 2d 40 ef 96 00 	vpxord 0x6000(%rsi),%zmm26,%zmm26
  4046f8:	60 00 00 
  4046fb:	62 61 7c 48 11 54 24 	vmovups %zmm26,0xc0(%rsp)
  404702:	03 
  404703:	62 61 5d 40 ef 96 00 	vpxord 0x6900(%rsi),%zmm20,%zmm26
  40470a:	69 00 00 
  40470d:	62 e1 75 48 ef a6 c0 	vpxord 0x6cc0(%rsi),%zmm1,%zmm20
  404714:	6c 00 00 
  404717:	62 f1 7c 48 10 8e c0 	vmovups 0x67c0(%rsi),%zmm1
  40471e:	67 00 00 
  404721:	62 93 0d 40 25 cd 96 	vpternlogd $0x96,%zmm29,%zmm30,%zmm1
  404728:	62 f1 7c 48 11 4c 24 	vmovups %zmm1,0x40(%rsp)
  40472f:	01 
  404730:	62 01 7d 48 ef f3    	vpxord %zmm27,%zmm0,%zmm30
  404736:	62 61 25 40 ef fa    	vpxord %zmm2,%zmm27,%zmm31
  40473c:	62 61 7c 48 10 5c 24 	vmovups 0xb40(%rsp),%zmm27
  404743:	2d 
  404744:	62 41 6d 48 ef ea    	vpxord %zmm10,%zmm2,%zmm29
  40474a:	62 13 25 40 25 d6 36 	vpternlogd $0x36,%zmm30,%zmm27,%zmm10
  404751:	62 03 25 40 25 f5 6a 	vpternlogd $0x6a,%zmm29,%zmm27,%zmm30
  404758:	62 61 7c 48 10 9e 00 	vmovups 0x6400(%rsi),%zmm27
  40475f:	64 00 00 
  404762:	62 43 05 40 25 ea 6c 	vpternlogd $0x6c,%zmm10,%zmm31,%zmm29
  404769:	62 43 0d 40 25 fa 56 	vpternlogd $0x56,%zmm10,%zmm30,%zmm31
  404770:	62 43 6d 48 25 da 96 	vpternlogd $0x96,%zmm10,%zmm2,%zmm27
  404777:	62 61 7c 48 11 5c 24 	vmovups %zmm27,0x4c0(%rsp)
  40477e:	13 
  40477f:	62 f1 7d 48 ef d3    	vpxord %zmm3,%zmm0,%zmm2
  404785:	62 21 65 48 ef db    	vpxord %zmm19,%zmm3,%zmm27
  40478b:	62 f1 7c 48 10 5c 24 	vmovups 0xb80(%rsp),%zmm3
  404792:	2e 
  404793:	62 f1 0d 40 ef 8e 40 	vpxord 0x6040(%rsi),%zmm30,%zmm1
  40479a:	60 00 00 
  40479d:	62 f1 7c 48 11 4c 24 	vmovups %zmm1,0x140(%rsp)
  4047a4:	05 
  4047a5:	62 f1 05 40 ef 8e 40 	vpxord 0x6940(%rsi),%zmm31,%zmm1
  4047ac:	69 00 00 
  4047af:	62 61 7c 48 10 be 40 	vmovups 0x6440(%rsi),%zmm31
  4047b6:	64 00 00 
  4047b9:	62 e1 55 40 ef ae 80 	vpxord 0x5c80(%rsi),%zmm21,%zmm21
  4047c0:	5c 00 00 
  4047c3:	62 21 65 40 ef f5    	vpxord %zmm21,%zmm19,%zmm30
  4047c9:	62 e3 65 48 25 ea 36 	vpternlogd $0x36,%zmm2,%zmm3,%zmm21
  4047d0:	62 93 65 48 25 d6 6a 	vpternlogd $0x6a,%zmm30,%zmm3,%zmm2
  4047d7:	62 23 65 40 25 fd 96 	vpternlogd $0x96,%zmm21,%zmm19,%zmm31
  4047de:	62 23 25 40 25 f5 6c 	vpternlogd $0x6c,%zmm21,%zmm27,%zmm30
  4047e5:	62 23 6d 48 25 dd 56 	vpternlogd $0x56,%zmm21,%zmm2,%zmm27
  4047ec:	62 61 7c 48 11 7c 24 	vmovups %zmm31,0x500(%rsp)
  4047f3:	14 
  4047f4:	62 71 6d 48 ef 96 80 	vpxord 0x6080(%rsi),%zmm2,%zmm10
  4047fb:	60 00 00 
  4047fe:	62 61 35 40 ef 8e c0 	vpxord 0x58c0(%rsi),%zmm25,%zmm25
  404805:	58 00 00 
  404808:	62 61 1d 40 ef a6 c0 	vpxord 0x50c0(%rsi),%zmm28,%zmm28
  40480f:	50 00 00 
  404812:	62 71 7c 48 11 54 24 	vmovups %zmm10,0x180(%rsp)
  404819:	06 
  40481a:	62 a1 7d 48 ef da    	vpxord %zmm18,%zmm0,%zmm19
  404820:	62 31 35 40 ef d6    	vpxord %zmm22,%zmm25,%zmm10
  404826:	62 a3 1d 40 25 f3 36 	vpternlogd $0x36,%zmm19,%zmm28,%zmm22
  40482d:	62 c3 1d 40 25 da 6a 	vpternlogd $0x6a,%zmm10,%zmm28,%zmm19
  404834:	62 81 6d 40 ef d1    	vpxord %zmm25,%zmm18,%zmm18
  40483a:	62 61 65 40 ef a6 c0 	vpxord 0x60c0(%rsi),%zmm19,%zmm28
  404841:	60 00 00 
  404844:	62 33 6d 40 25 d6 6c 	vpternlogd $0x6c,%zmm22,%zmm18,%zmm10
  40484b:	62 a3 65 40 25 d6 56 	vpternlogd $0x56,%zmm22,%zmm19,%zmm18
  404852:	62 61 7c 48 11 64 24 	vmovups %zmm28,0x1c0(%rsp)
  404859:	07 
  40485a:	62 61 7c 48 10 a6 80 	vmovups 0x6480(%rsi),%zmm28
  404861:	64 00 00 
  404864:	62 e1 7c 48 10 5c 24 	vmovups 0xf80(%rsp),%zmm19
  40486b:	3e 
  40486c:	62 23 35 40 25 e6 96 	vpternlogd $0x96,%zmm22,%zmm25,%zmm28
  404873:	62 61 7c 48 10 4c 24 	vmovups 0x13c0(%rsp),%zmm25
  40487a:	4f 
  40487b:	62 61 7c 48 11 64 24 	vmovups %zmm28,0x540(%rsp)
  404882:	15 
  404883:	62 e1 6d 40 ef ae c0 	vpxord 0x69c0(%rsi),%zmm18,%zmm21
  40488a:	69 00 00 
  40488d:	62 e1 7c 48 11 6c 24 	vmovups %zmm21,0x9c0(%rsp)
  404894:	27 
  404895:	62 e1 7c 48 10 ae c0 	vmovups 0x64c0(%rsi),%zmm21
  40489c:	64 00 00 
  40489f:	62 81 7d 48 ef f0    	vpxord %zmm24,%zmm0,%zmm22
  4048a5:	62 e1 65 40 ef d4    	vpxord %zmm4,%zmm19,%zmm18
  4048ab:	62 b3 45 40 25 e6 36 	vpternlogd $0x36,%zmm22,%zmm23,%zmm4
  4048b2:	62 a3 45 40 25 f2 6a 	vpternlogd $0x6a,%zmm18,%zmm23,%zmm22
  4048b9:	62 e3 65 40 25 ec 96 	vpternlogd $0x96,%zmm4,%zmm19,%zmm21
  4048c0:	62 e1 7c 48 11 6c 24 	vmovups %zmm21,0x580(%rsp)
  4048c7:	16 
  4048c8:	62 e1 7c 48 10 ae 00 	vmovups 0x6500(%rsi),%zmm21
  4048cf:	65 00 00 
  4048d2:	62 21 3d 40 ef c3    	vpxord %zmm19,%zmm24,%zmm24
  4048d8:	62 e3 3d 40 25 d4 6c 	vpternlogd $0x6c,%zmm4,%zmm24,%zmm18
  4048df:	62 63 4d 40 25 c4 56 	vpternlogd $0x56,%zmm4,%zmm22,%zmm24
  4048e6:	62 e1 7c 48 10 5c 24 	vmovups 0x12c0(%rsp),%zmm19
  4048ed:	4b 
  4048ee:	62 61 4d 40 ef a6 00 	vpxord 0x6100(%rsi),%zmm22,%zmm28
  4048f5:	61 00 00 
  4048f8:	62 e1 3d 40 ef b6 00 	vpxord 0x6a00(%rsi),%zmm24,%zmm22
  4048ff:	6a 00 00 
  404902:	62 61 7c 48 10 44 24 	vmovups 0x1340(%rsp),%zmm24
  404909:	4d 
  40490a:	62 61 7c 48 11 64 24 	vmovups %zmm28,0x200(%rsp)
  404911:	08 
  404912:	62 e1 7c 48 11 74 24 	vmovups %zmm22,0x6c0(%rsp)
  404919:	1b 
  40491a:	62 f1 45 48 ef be 40 	vpxord 0x5140(%rsi),%zmm7,%zmm7
  404921:	51 00 00 
  404924:	62 61 6d 40 ef a6 c0 	vpxord 0x6dc0(%rsi),%zmm18,%zmm28
  40492b:	6d 00 00 
  40492e:	62 d1 7d 48 ef e0    	vpxord %zmm8,%zmm0,%zmm4
  404934:	62 c1 65 40 ef d1    	vpxord %zmm9,%zmm19,%zmm18
  40493a:	62 73 45 48 25 cc 36 	vpternlogd $0x36,%zmm4,%zmm7,%zmm9
  404941:	62 b3 45 48 25 e2 6a 	vpternlogd $0x6a,%zmm18,%zmm7,%zmm4
  404948:	62 c3 65 40 25 e9 96 	vpternlogd $0x96,%zmm9,%zmm19,%zmm21
  40494f:	62 e1 7c 48 11 6c 24 	vmovups %zmm21,0x5c0(%rsp)
  404956:	17 
  404957:	62 31 3d 48 ef c3    	vpxord %zmm19,%zmm8,%zmm8
  40495d:	62 71 0d 48 ef b6 80 	vpxord 0x5180(%rsi),%zmm14,%zmm14
  404964:	51 00 00 
  404967:	62 c3 3d 48 25 d1 6c 	vpternlogd $0x6c,%zmm9,%zmm8,%zmm18
  40496e:	62 53 5d 48 25 c1 56 	vpternlogd $0x56,%zmm9,%zmm4,%zmm8
  404975:	62 e1 7c 48 10 5c 24 	vmovups 0x1780(%rsp),%zmm19
  40497c:	5e 
  40497d:	62 71 7d 48 ef ce    	vpxord %zmm6,%zmm0,%zmm9
  404983:	62 81 3d 40 ef f9    	vpxord %zmm25,%zmm24,%zmm23
  404989:	62 43 0d 48 25 c9 36 	vpternlogd $0x36,%zmm9,%zmm14,%zmm25
  404990:	62 33 0d 48 25 cf 6a 	vpternlogd $0x6a,%zmm23,%zmm14,%zmm9
  404997:	62 91 4d 48 ef f0    	vpxord %zmm24,%zmm6,%zmm6
  40499d:	62 83 4d 48 25 f9 6c 	vpternlogd $0x6c,%zmm25,%zmm6,%zmm23
  4049a4:	62 93 35 48 25 f1 56 	vpternlogd $0x56,%zmm25,%zmm9,%zmm6
  4049ab:	62 71 35 48 ef b6 80 	vpxord 0x6180(%rsi),%zmm9,%zmm14
  4049b2:	61 00 00 
  4049b5:	62 71 7c 48 11 74 24 	vmovups %zmm14,0x280(%rsp)
  4049bc:	0a 
  4049bd:	62 71 7c 48 10 74 24 	vmovups 0x1380(%rsp),%zmm14
  4049c4:	4e 
  4049c5:	62 e1 4d 48 ef b6 80 	vpxord 0x6a80(%rsi),%zmm6,%zmm22
  4049cc:	6a 00 00 
  4049cf:	62 f1 7c 48 10 74 24 	vmovups 0x1440(%rsp),%zmm6
  4049d6:	51 
  4049d7:	62 e1 7c 48 11 74 24 	vmovups %zmm22,0x980(%rsp)
  4049de:	26 
  4049df:	62 f1 5d 48 ef be 40 	vpxord 0x6140(%rsi),%zmm4,%zmm7
  4049e6:	61 00 00 
  4049e9:	62 f1 3d 48 ef a6 40 	vpxord 0x6a40(%rsi),%zmm8,%zmm4
  4049f0:	6a 00 00 
  4049f3:	62 f1 7c 48 11 64 24 	vmovups %zmm4,0x940(%rsp)
  4049fa:	25 
  4049fb:	62 f1 7c 48 10 a6 80 	vmovups 0x6580(%rsi),%zmm4
  404a02:	65 00 00 
  404a05:	62 f1 7c 48 11 7c 24 	vmovups %zmm7,0x240(%rsp)
  404a0c:	09 
  404a0d:	62 f1 55 48 ef ae c0 	vpxord 0x51c0(%rsi),%zmm5,%zmm5
  404a14:	51 00 00 
  404a17:	62 f1 0d 40 ef 96 40 	vpxord 0x6d40(%rsi),%zmm30,%zmm2
  404a1e:	6d 00 00 
  404a21:	62 41 7d 48 ef f3    	vpxord %zmm11,%zmm0,%zmm30
  404a27:	62 71 0d 48 ef ce    	vpxord %zmm6,%zmm14,%zmm9
  404a2d:	62 93 55 48 25 f6 36 	vpternlogd $0x36,%zmm30,%zmm5,%zmm6
  404a34:	62 43 55 48 25 f1 6a 	vpternlogd $0x6a,%zmm9,%zmm5,%zmm30
  404a3b:	62 f3 0d 48 25 e6 96 	vpternlogd $0x96,%zmm6,%zmm14,%zmm4
  404a42:	62 f1 7c 48 11 64 24 	vmovups %zmm4,0x880(%rsp)
  404a49:	22 
  404a4a:	62 f1 7c 48 10 64 24 	vmovups 0x14c0(%rsp),%zmm4
  404a51:	53 
  404a52:	62 51 25 48 ef de    	vpxord %zmm14,%zmm11,%zmm11
  404a58:	62 73 25 48 25 ce 6c 	vpternlogd $0x6c,%zmm6,%zmm11,%zmm9
  404a5f:	62 73 0d 40 25 de 56 	vpternlogd $0x56,%zmm6,%zmm30,%zmm11
  404a66:	62 61 25 48 ef be c0 	vpxord 0x6ac0(%rsi),%zmm11,%zmm31
  404a6d:	6a 00 00 
  404a70:	62 71 7c 48 10 5c 24 	vmovups 0x1400(%rsp),%zmm11
  404a77:	50 
  404a78:	62 61 7c 48 11 7c 24 	vmovups %zmm31,0x7c0(%rsp)
  404a7f:	1f 
  404a80:	62 61 7c 48 10 be 80 	vmovups 0x6680(%rsi),%zmm31
  404a87:	66 00 00 
  404a8a:	62 f1 0d 40 ef ae c0 	vpxord 0x61c0(%rsi),%zmm30,%zmm5
  404a91:	61 00 00 
  404a94:	62 71 1d 48 ef a6 00 	vpxord 0x5200(%rsi),%zmm12,%zmm12
  404a9b:	52 00 00 
  404a9e:	62 f1 7c 48 11 6c 24 	vmovups %zmm5,0x2c0(%rsp)
  404aa5:	0b 
  404aa6:	62 61 7c 48 10 74 24 	vmovups 0x1640(%rsp),%zmm30
  404aad:	59 
  404aae:	62 d1 7d 48 ef ed    	vpxord %zmm13,%zmm0,%zmm5
  404ab4:	62 f1 25 48 ef f4    	vpxord %zmm4,%zmm11,%zmm6
  404aba:	62 f3 1d 48 25 e5 36 	vpternlogd $0x36,%zmm5,%zmm12,%zmm4
  404ac1:	62 f3 1d 48 25 ee 6a 	vpternlogd $0x6a,%zmm6,%zmm12,%zmm5
  404ac8:	62 51 15 48 ef eb    	vpxord %zmm11,%zmm13,%zmm13
  404ace:	62 71 55 48 ef a6 00 	vpxord 0x6200(%rsi),%zmm5,%zmm12
  404ad5:	62 00 00 
  404ad8:	62 f3 15 48 25 f4 6c 	vpternlogd $0x6c,%zmm4,%zmm13,%zmm6
  404adf:	62 73 55 48 25 ec 56 	vpternlogd $0x56,%zmm4,%zmm5,%zmm13
  404ae6:	62 f1 7c 48 10 ae c0 	vmovups 0x65c0(%rsi),%zmm5
  404aed:	65 00 00 
  404af0:	62 71 7c 48 11 64 24 	vmovups %zmm12,0x300(%rsp)
  404af7:	0c 
  404af8:	62 f3 25 48 25 ec 96 	vpternlogd $0x96,%zmm4,%zmm11,%zmm5
  404aff:	62 f1 7c 48 11 6c 24 	vmovups %zmm5,0x8c0(%rsp)
  404b06:	23 
  404b07:	62 f1 7c 48 10 6c 24 	vmovups 0x1540(%rsp),%zmm5
  404b0e:	55 
  404b0f:	62 71 15 48 ef b6 00 	vpxord 0x6b00(%rsi),%zmm13,%zmm14
  404b16:	6b 00 00 
  404b19:	62 71 7c 48 10 6c 24 	vmovups 0x1480(%rsp),%zmm13
  404b20:	52 
  404b21:	62 71 7c 48 11 74 24 	vmovups %zmm14,0x740(%rsp)
  404b28:	1d 
  404b29:	62 71 05 48 ef be 40 	vpxord 0x5240(%rsi),%zmm15,%zmm15
  404b30:	52 00 00 
  404b33:	62 31 7d 48 ef e0    	vpxord %zmm16,%zmm0,%zmm12
  404b39:	62 f1 15 48 ef e5    	vpxord %zmm5,%zmm13,%zmm4
  404b3f:	62 d3 05 48 25 ec 36 	vpternlogd $0x36,%zmm12,%zmm15,%zmm5
  404b46:	62 73 05 48 25 e4 6a 	vpternlogd $0x6a,%zmm4,%zmm15,%zmm12
  404b4d:	62 c1 7d 40 ef c5    	vpxord %zmm13,%zmm16,%zmm16
  404b53:	62 f3 7d 40 25 e5 6c 	vpternlogd $0x6c,%zmm5,%zmm16,%zmm4
  404b5a:	62 e3 1d 48 25 c5 56 	vpternlogd $0x56,%zmm5,%zmm12,%zmm16
  404b61:	62 71 1d 48 ef be 40 	vpxord 0x6240(%rsi),%zmm12,%zmm15
  404b68:	62 00 00 
  404b6b:	62 71 4d 48 ef b6 c0 	vpxord 0x6ec0(%rsi),%zmm6,%zmm14
  404b72:	6e 00 00 
  404b75:	62 71 7c 48 11 7c 24 	vmovups %zmm15,0x340(%rsp)
  404b7c:	0d 
  404b7d:	62 71 7c 48 10 be 00 	vmovups 0x6600(%rsi),%zmm15
  404b84:	66 00 00 
  404b87:	62 73 15 48 25 fd 96 	vpternlogd $0x96,%zmm5,%zmm13,%zmm15
  404b8e:	62 71 7c 48 10 6c 24 	vmovups 0x15c0(%rsp),%zmm13
  404b95:	57 
  404b96:	62 71 7c 48 11 7c 24 	vmovups %zmm15,0x900(%rsp)
  404b9d:	24 
  404b9e:	62 f1 7d 40 ef b6 40 	vpxord 0x6b40(%rsi),%zmm16,%zmm6
  404ba5:	6b 00 00 
  404ba8:	62 e1 7c 48 10 44 24 	vmovups 0x1500(%rsp),%zmm16
  404baf:	54 
  404bb0:	62 f1 7c 48 11 74 24 	vmovups %zmm6,0x600(%rsp)
  404bb7:	18 
  404bb8:	62 f1 25 40 ef 9e 80 	vpxord 0x6980(%rsi),%zmm27,%zmm3
  404bbf:	69 00 00 
  404bc2:	62 61 7c 48 10 9e 40 	vmovups 0x6540(%rsi),%zmm27
  404bc9:	65 00 00 
  404bcc:	62 03 3d 40 25 d9 96 	vpternlogd $0x96,%zmm25,%zmm24,%zmm27
  404bd3:	62 61 7c 48 11 5c 24 	vmovups %zmm27,0x840(%rsp)
  404bda:	21 
  404bdb:	62 61 7c 48 10 5c 24 	vmovups 0x1580(%rsp),%zmm27
  404be2:	56 
  404be3:	62 31 7d 48 ef d9    	vpxord %zmm17,%zmm0,%zmm11
  404be9:	62 b1 75 40 ef e8    	vpxord %zmm16,%zmm17,%zmm5
  404bef:	62 e1 7c 48 10 4c 24 	vmovups 0x1700(%rsp),%zmm17
  404bf6:	5c 
  404bf7:	62 f1 6d 40 ef be 00 	vpxord 0x6e00(%rsi),%zmm18,%zmm7
  404bfe:	6e 00 00 
  404c01:	62 e1 7c 48 10 96 40 	vmovups 0x6640(%rsi),%zmm18
  404c08:	66 00 00 
  404c0b:	62 51 7d 40 ef e5    	vpxord %zmm13,%zmm16,%zmm12
  404c11:	62 53 75 40 25 eb 36 	vpternlogd $0x36,%zmm11,%zmm17,%zmm13
  404c18:	62 53 75 40 25 dc 6a 	vpternlogd $0x6a,%zmm12,%zmm17,%zmm11
  404c1f:	62 e1 7c 48 10 4c 24 	vmovups 0x18c0(%rsp),%zmm17
  404c26:	63 
  404c27:	62 53 55 48 25 e5 6c 	vpternlogd $0x6c,%zmm13,%zmm5,%zmm12
  404c2e:	62 d3 25 48 25 ed 56 	vpternlogd $0x56,%zmm13,%zmm11,%zmm5
  404c35:	62 c3 7d 40 25 d5 96 	vpternlogd $0x96,%zmm13,%zmm16,%zmm18
  404c3c:	62 e1 7c 48 11 54 24 	vmovups %zmm18,0x800(%rsp)
  404c43:	20 
  404c44:	62 e1 7c 48 10 54 24 	vmovups 0x1600(%rsp),%zmm18
  404c4b:	58 
  404c4c:	62 71 55 48 ef be 80 	vpxord 0x6b80(%rsi),%zmm5,%zmm15
  404c53:	6b 00 00 
  404c56:	62 f1 5d 48 ef b6 00 	vpxord 0x6f00(%rsi),%zmm4,%zmm6
  404c5d:	6f 00 00 
  404c60:	62 71 7c 48 11 7c 24 	vmovups %zmm15,0x640(%rsp)
  404c67:	19 
  404c68:	62 71 7c 48 10 7c 24 	vmovups 0x1940(%rsp),%zmm15
  404c6f:	65 
  404c70:	62 a1 7d 48 ef e9    	vpxord %zmm17,%zmm0,%zmm21
  404c76:	62 01 25 40 ef ce    	vpxord %zmm30,%zmm27,%zmm25
  404c7c:	62 f1 25 48 ef a6 80 	vpxord 0x6280(%rsi),%zmm11,%zmm4
  404c83:	62 00 00 
  404c86:	62 23 65 40 25 f5 36 	vpternlogd $0x36,%zmm21,%zmm19,%zmm30
  404c8d:	62 83 65 40 25 e9 6a 	vpternlogd $0x6a,%zmm25,%zmm19,%zmm21
  404c94:	62 e1 7c 48 10 5c 24 	vmovups 0x16c0(%rsp),%zmm19
  404c9b:	5b 
  404c9c:	62 71 7c 48 10 5c 24 	vmovups 0x1840(%rsp),%zmm11
  404ca3:	61 
  404ca4:	62 f1 7c 48 11 64 24 	vmovups %zmm4,0x380(%rsp)
  404cab:	0e 
  404cac:	62 03 25 40 25 fe 96 	vpternlogd $0x96,%zmm30,%zmm27,%zmm31
  404cb3:	62 61 7c 48 11 7c 24 	vmovups %zmm31,0x700(%rsp)
  404cba:	1c 
  404cbb:	62 71 45 40 ef 86 40 	vpxord 0x6e40(%rsi),%zmm23,%zmm8
  404cc2:	6e 00 00 
  404cc5:	62 81 75 40 ef fb    	vpxord %zmm27,%zmm17,%zmm23
  404ccb:	62 e1 55 40 ef b6 c0 	vpxord 0x62c0(%rsi),%zmm21,%zmm22
  404cd2:	62 00 00 
  404cd5:	62 03 45 40 25 ce 6c 	vpternlogd $0x6c,%zmm30,%zmm23,%zmm25
  404cdc:	62 83 55 40 25 fe 56 	vpternlogd $0x56,%zmm30,%zmm21,%zmm23
  404ce3:	62 e1 7c 48 10 ae c0 	vmovups 0x66c0(%rsi),%zmm21
  404cea:	66 00 00 
  404ced:	62 e1 7c 48 11 74 24 	vmovups %zmm22,0x3c0(%rsp)
  404cf4:	0f 
  404cf5:	62 e1 7c 48 10 74 24 	vmovups 0x1980(%rsp),%zmm22
  404cfc:	66 
  404cfd:	62 61 7c 48 10 74 24 	vmovups 0x1900(%rsp),%zmm30
  404d04:	64 
  404d05:	62 f1 1d 48 ef a6 40 	vpxord 0x6f40(%rsi),%zmm12,%zmm4
  404d0c:	6f 00 00 
  404d0f:	62 51 7d 48 ef e7    	vpxord %zmm15,%zmm0,%zmm12
  404d15:	62 a1 6d 40 ef cb    	vpxord %zmm19,%zmm18,%zmm17
  404d1b:	62 c3 25 48 25 dc 36 	vpternlogd $0x36,%zmm12,%zmm11,%zmm19
  404d22:	62 33 25 48 25 e1 6a 	vpternlogd $0x6a,%zmm17,%zmm11,%zmm12
  404d29:	62 71 7c 48 10 5c 24 	vmovups 0x1680(%rsp),%zmm11
  404d30:	5a 
  404d31:	62 a3 6d 40 25 eb 96 	vpternlogd $0x96,%zmm19,%zmm18,%zmm21
  404d38:	62 e1 7c 48 11 6c 24 	vmovups %zmm21,0x780(%rsp)
  404d3f:	1e 
  404d40:	62 a1 05 48 ef c2    	vpxord %zmm18,%zmm15,%zmm16
  404d46:	62 a3 7d 40 25 cb 6c 	vpternlogd $0x6c,%zmm19,%zmm16,%zmm17
  404d4d:	62 a3 1d 48 25 c3 56 	vpternlogd $0x56,%zmm19,%zmm12,%zmm16
  404d54:	62 e1 7c 48 10 54 24 	vmovups 0x1800(%rsp),%zmm18
  404d5b:	60 
  404d5c:	62 61 45 40 ef 86 c0 	vpxord 0x6bc0(%rsi),%zmm23,%zmm24
  404d63:	6b 00 00 
  404d66:	62 71 1d 48 ef ae 00 	vpxord 0x6300(%rsi),%zmm12,%zmm13
  404d6d:	63 00 00 
  404d70:	62 e1 25 48 ef 7c 24 	vpxord 0x440(%rsp),%zmm11,%zmm23
  404d77:	11 
  404d78:	62 a1 7c 48 28 ef    	vmovaps %zmm23,%zmm21
  404d7e:	62 71 7c 48 11 6c 24 	vmovups %zmm13,0x400(%rsp)
  404d85:	10 
  404d86:	62 61 7c 48 11 44 24 	vmovups %zmm24,0x680(%rsp)
  404d8d:	1a 
  404d8e:	62 71 7c 48 10 64 24 	vmovups 0x17c0(%rsp),%zmm12
  404d95:	5f 
  404d96:	62 71 7c 48 10 6c 24 	vmovups 0x1880(%rsp),%zmm13
  404d9d:	62 
  404d9e:	62 71 7d 40 ef be 00 	vpxord 0x6800(%rsi),%zmm16,%zmm15
  404da5:	68 00 00 
  404da8:	62 e1 75 40 ef 86 c0 	vpxord 0x6fc0(%rsi),%zmm17,%zmm16
  404daf:	6f 00 00 
  404db2:	62 a1 7d 48 ef de    	vpxord %zmm22,%zmm0,%zmm19
  404db8:	62 f1 35 40 ef ae 80 	vpxord 0x6f80(%rsi),%zmm25,%zmm5
  404dbf:	6f 00 00 
  404dc2:	62 61 15 40 ef ae 00 	vpxord 0x6d00(%rsi),%zmm29,%zmm29
  404dc9:	6d 00 00 
  404dcc:	62 71 2d 48 ef 96 80 	vpxord 0x6d80(%rsi),%zmm10,%zmm10
  404dd3:	6d 00 00 
  404dd6:	62 71 35 48 ef 8e 80 	vpxord 0x6e80(%rsi),%zmm9,%zmm9
  404ddd:	6e 00 00 
  404de0:	62 c1 4d 40 ef f3    	vpxord %zmm11,%zmm22,%zmm22
  404de6:	62 a3 0d 40 25 eb 78 	vpternlogd $0x78,%zmm19,%zmm30,%zmm21
  404ded:	62 e1 7c 48 10 4c 24 	vmovups 0x1740(%rsp),%zmm17
  404df4:	5d 
  404df5:	62 61 7c 48 10 9e 00 	vmovups 0x6700(%rsi),%zmm27
  404dfc:	67 00 00 
  404dff:	62 e1 7c 48 11 44 24 	vmovups %zmm16,0x14c0(%rsp)
  404e06:	53 
  404e07:	62 63 65 40 25 74 24 	vpternlogd $0x1e,0x440(%rsp),%zmm19,%zmm30
  404e0e:	11 1e 
  404e10:	62 e1 7c 48 10 1c 24 	vmovups (%rsp),%zmm19
  404e17:	62 83 4d 40 25 fe 6c 	vpternlogd $0x6c,%zmm30,%zmm22,%zmm23
  404e1e:	62 83 55 40 25 f6 56 	vpternlogd $0x56,%zmm30,%zmm21,%zmm22
  404e25:	62 03 25 48 25 de 96 	vpternlogd $0x96,%zmm30,%zmm11,%zmm27
  404e2c:	62 61 7c 48 10 74 24 	vmovups 0x480(%rsp),%zmm30
  404e33:	12 
  404e34:	62 71 7c 48 10 5c 24 	vmovups 0x100(%rsp),%zmm11
  404e3b:	04 
  404e3c:	62 e1 45 40 ef 86 00 	vpxord 0x6c00(%rsi),%zmm23,%zmm16
  404e43:	6c 00 00 
  404e46:	62 81 7d 48 ef fe    	vpxord %zmm30,%zmm0,%zmm23
  404e4c:	62 21 75 40 ef fa    	vpxord %zmm18,%zmm17,%zmm31
  404e52:	62 a3 25 48 25 d7 36 	vpternlogd $0x36,%zmm23,%zmm11,%zmm18
  404e59:	62 83 25 48 25 ff 6a 	vpternlogd $0x6a,%zmm31,%zmm11,%zmm23
  404e60:	62 71 7c 48 10 9e 40 	vmovups 0x6740(%rsi),%zmm11
  404e67:	67 00 00 
  404e6a:	62 33 75 40 25 da 96 	vpternlogd $0x96,%zmm18,%zmm17,%zmm11
  404e71:	62 61 55 40 ef 8e 40 	vpxord 0x6340(%rsi),%zmm21,%zmm25
  404e78:	63 00 00 
  404e7b:	62 a1 0d 40 ef e9    	vpxord %zmm17,%zmm30,%zmm21
  404e81:	62 e1 7c 48 10 4c 24 	vmovups 0x80(%rsp),%zmm17
  404e88:	02 
  404e89:	62 23 55 40 25 fa 6c 	vpternlogd $0x6c,%zmm18,%zmm21,%zmm31
  404e90:	62 a3 45 40 25 ea 56 	vpternlogd $0x56,%zmm18,%zmm23,%zmm21
  404e97:	62 61 45 40 ef b6 80 	vpxord 0x6380(%rsi),%zmm23,%zmm30
  404e9e:	63 00 00 
  404ea1:	62 a1 7d 48 ef fb    	vpxord %zmm19,%zmm0,%zmm23
  404ea7:	62 c1 1d 48 ef d5    	vpxord %zmm13,%zmm12,%zmm18
  404ead:	62 33 75 40 25 ef 36 	vpternlogd $0x36,%zmm23,%zmm17,%zmm13
  404eb4:	62 a3 75 40 25 fa 6a 	vpternlogd $0x6a,%zmm18,%zmm17,%zmm23
  404ebb:	62 61 4d 40 ef 86 40 	vpxord 0x6840(%rsi),%zmm22,%zmm24
  404ec2:	68 00 00 
  404ec5:	62 e1 55 40 ef b6 80 	vpxord 0x6880(%rsi),%zmm21,%zmm22
  404ecc:	68 00 00 
  404ecf:	62 e1 05 40 ef ae 40 	vpxord 0x6c40(%rsi),%zmm31,%zmm21
  404ed6:	6c 00 00 
  404ed9:	62 41 65 40 ef fc    	vpxord %zmm12,%zmm19,%zmm31
  404edf:	62 c3 05 40 25 d5 6c 	vpternlogd $0x6c,%zmm13,%zmm31,%zmm18
  404ee6:	62 43 45 40 25 fd 56 	vpternlogd $0x56,%zmm13,%zmm23,%zmm31
  404eed:	62 e1 6d 40 ef 8e 80 	vpxord 0x6c80(%rsi),%zmm18,%zmm17
  404ef4:	6c 00 00 
  404ef7:	62 e1 7c 48 10 96 80 	vmovups 0x6780(%rsi),%zmm18
  404efe:	67 00 00 
  404f01:	62 c3 1d 48 25 d5 96 	vpternlogd $0x96,%zmm13,%zmm12,%zmm18
  404f08:	62 71 7c 48 10 64 24 	vmovups 0x4c0(%rsp),%zmm12
  404f0f:	13 
  404f10:	62 e1 45 40 ef 9e c0 	vpxord 0x63c0(%rsi),%zmm23,%zmm19
  404f17:	63 00 00 
  404f1a:	62 e1 7c 48 11 5c 24 	vmovups %zmm19,0x1500(%rsp)
  404f21:	54 
  404f22:	62 c1 7d 48 ef dc    	vpxord %zmm12,%zmm0,%zmm19
  404f28:	62 c1 1d 48 ef ff    	vpxord %zmm15,%zmm12,%zmm23
  404f2e:	62 71 7c 48 10 64 24 	vmovups 0xc0(%rsp),%zmm12
  404f35:	03 
  404f36:	62 31 05 48 ef e8    	vpxord %zmm16,%zmm15,%zmm13
  404f3c:	62 a3 1d 48 25 c3 36 	vpternlogd $0x36,%zmm19,%zmm12,%zmm16
  404f43:	62 c3 1d 48 25 dd 6a 	vpternlogd $0x6a,%zmm13,%zmm12,%zmm19
  404f4a:	62 33 45 40 25 e8 6c 	vpternlogd $0x6c,%zmm16,%zmm23,%zmm13
  404f51:	62 a3 65 40 25 f8 56 	vpternlogd $0x56,%zmm16,%zmm19,%zmm23
  404f58:	62 e1 45 40 ef be 00 	vpxord 0x7900(%rsi),%zmm23,%zmm23
  404f5f:	79 00 00 
  404f62:	62 e1 7c 48 11 7c 24 	vmovups %zmm23,0x1540(%rsp)
  404f69:	55 
  404f6a:	62 e1 15 48 ef be c0 	vpxord 0x7cc0(%rsi),%zmm13,%zmm23
  404f71:	7c 00 00 
  404f74:	62 71 7c 48 10 ae c0 	vmovups 0x77c0(%rsi),%zmm13
  404f7b:	77 00 00 
  404f7e:	62 33 05 48 25 e8 96 	vpternlogd $0x96,%zmm16,%zmm15,%zmm13
  404f85:	62 71 7c 48 10 7c 24 	vmovups 0x500(%rsp),%zmm15
  404f8c:	14 
  404f8d:	62 71 7c 48 11 6c 24 	vmovups %zmm13,0xa00(%rsp)
  404f94:	28 
  404f95:	62 51 7d 48 ef ef    	vpxord %zmm15,%zmm0,%zmm13
  404f9b:	62 11 05 48 ef e0    	vpxord %zmm24,%zmm15,%zmm12
  404fa1:	62 71 7c 48 10 7c 24 	vmovups 0x140(%rsp),%zmm15
  404fa8:	05 
  404fa9:	62 a1 3d 40 ef c5    	vpxord %zmm21,%zmm24,%zmm16
  404faf:	62 c3 05 48 25 ed 36 	vpternlogd $0x36,%zmm13,%zmm15,%zmm21
  404fb6:	62 33 05 48 25 e8 6a 	vpternlogd $0x6a,%zmm16,%zmm15,%zmm13
  404fbd:	62 a3 1d 48 25 c5 6c 	vpternlogd $0x6c,%zmm21,%zmm12,%zmm16
  404fc4:	62 33 15 48 25 e5 56 	vpternlogd $0x56,%zmm21,%zmm13,%zmm12
  404fcb:	62 71 1d 48 ef a6 40 	vpxord 0x7940(%rsi),%zmm12,%zmm12
  404fd2:	79 00 00 
  404fd5:	62 71 7c 48 11 64 24 	vmovups %zmm12,0x1580(%rsp)
  404fdc:	56 
  404fdd:	62 71 7c 48 10 a6 00 	vmovups 0x7400(%rsi),%zmm12
  404fe4:	74 00 00 
  404fe7:	62 33 3d 40 25 e5 96 	vpternlogd $0x96,%zmm21,%zmm24,%zmm12
  404fee:	62 e1 7c 48 10 6c 24 	vmovups 0x540(%rsp),%zmm21
  404ff5:	15 
  404ff6:	62 e1 7d 40 ef 86 00 	vpxord 0x7d00(%rsi),%zmm16,%zmm16
  404ffd:	7d 00 00 
  405000:	62 e1 7c 48 11 44 24 	vmovups %zmm16,0x15c0(%rsp)
  405007:	57 
  405008:	62 e1 7c 48 10 44 24 	vmovups 0x180(%rsp),%zmm16
  40500f:	06 
  405010:	62 21 7d 48 ef c5    	vpxord %zmm21,%zmm0,%zmm24
  405016:	62 31 55 40 ef fe    	vpxord %zmm22,%zmm21,%zmm15
  40501c:	62 a1 4d 40 ef e9    	vpxord %zmm17,%zmm22,%zmm21
  405022:	62 83 7d 40 25 c8 36 	vpternlogd $0x36,%zmm24,%zmm16,%zmm17
  405029:	62 23 7d 40 25 c5 6a 	vpternlogd $0x6a,%zmm21,%zmm16,%zmm24
  405030:	62 a3 05 48 25 e9 6c 	vpternlogd $0x6c,%zmm17,%zmm15,%zmm21
  405037:	62 33 3d 40 25 f9 56 	vpternlogd $0x56,%zmm17,%zmm24,%zmm15
  40503e:	62 e1 3d 40 ef 86 80 	vpxord 0x7080(%rsi),%zmm24,%zmm16
  405045:	70 00 00 
  405048:	62 61 05 48 ef 86 80 	vpxord 0x7980(%rsi),%zmm15,%zmm24
  40504f:	79 00 00 
  405052:	62 71 7c 48 10 be 40 	vmovups 0x7440(%rsi),%zmm15
  405059:	74 00 00 
  40505c:	62 61 7c 48 11 44 24 	vmovups %zmm24,0x1600(%rsp)
  405063:	58 
  405064:	62 33 4d 40 25 f9 96 	vpternlogd $0x96,%zmm17,%zmm22,%zmm15
  40506b:	62 e1 7c 48 10 74 24 	vmovups 0x580(%rsp),%zmm22
  405072:	16 
  405073:	62 61 55 40 ef 86 40 	vpxord 0x7d40(%rsi),%zmm21,%zmm24
  40507a:	7d 00 00 
  40507d:	62 61 7c 48 11 44 24 	vmovups %zmm24,0x1640(%rsp)
  405084:	59 
  405085:	62 61 7c 48 10 44 24 	vmovups 0x1c0(%rsp),%zmm24
  40508c:	07 
  40508d:	62 61 05 40 ef be c0 	vpxord 0x68c0(%rsi),%zmm31,%zmm31
  405094:	68 00 00 
  405097:	62 a1 7d 48 ef ee    	vpxord %zmm22,%zmm0,%zmm21
  40509d:	62 a1 05 40 ef cc    	vpxord %zmm20,%zmm31,%zmm17
  4050a3:	62 a3 3d 40 25 e5 36 	vpternlogd $0x36,%zmm21,%zmm24,%zmm20
  4050aa:	62 a3 3d 40 25 e9 6a 	vpternlogd $0x6a,%zmm17,%zmm24,%zmm21
  4050b1:	62 81 4d 40 ef f7    	vpxord %zmm31,%zmm22,%zmm22
  4050b7:	62 a3 4d 40 25 cc 6c 	vpternlogd $0x6c,%zmm20,%zmm22,%zmm17
  4050be:	62 a3 55 40 25 f4 56 	vpternlogd $0x56,%zmm20,%zmm21,%zmm22
  4050c5:	62 e1 75 40 ef 8e 80 	vpxord 0x7d80(%rsi),%zmm17,%zmm17
  4050cc:	7d 00 00 
  4050cf:	62 e1 7c 48 11 4c 24 	vmovups %zmm17,0x16c0(%rsp)
  4050d6:	5b 
  4050d7:	62 e1 7c 48 10 8e 80 	vmovups 0x7480(%rsi),%zmm17
  4050de:	74 00 00 
  4050e1:	62 a3 05 40 25 cc 96 	vpternlogd $0x96,%zmm20,%zmm31,%zmm17
  4050e8:	62 e1 7c 48 10 64 24 	vmovups 0x5c0(%rsp),%zmm20
  4050ef:	17 
  4050f0:	62 e1 4d 40 ef b6 c0 	vpxord 0x79c0(%rsi),%zmm22,%zmm22
  4050f7:	79 00 00 
  4050fa:	62 e1 7c 48 11 74 24 	vmovups %zmm22,0x1680(%rsp)
  405101:	5a 
  405102:	62 21 7d 48 ef c4    	vpxord %zmm20,%zmm0,%zmm24
  405108:	62 81 5d 40 ef f2    	vpxord %zmm26,%zmm20,%zmm22
  40510e:	62 e1 7c 48 10 64 24 	vmovups 0x200(%rsp),%zmm20
  405115:	08 
  405116:	62 01 2d 40 ef fd    	vpxord %zmm29,%zmm26,%zmm31
  40511c:	62 03 5d 40 25 e8 36 	vpternlogd $0x36,%zmm24,%zmm20,%zmm29
  405123:	62 03 5d 40 25 c7 6a 	vpternlogd $0x6a,%zmm31,%zmm20,%zmm24
  40512a:	62 03 4d 40 25 fd 6c 	vpternlogd $0x6c,%zmm29,%zmm22,%zmm31
  405131:	62 83 3d 40 25 f5 56 	vpternlogd $0x56,%zmm29,%zmm24,%zmm22
  405138:	62 e1 4d 40 ef b6 00 	vpxord 0x7a00(%rsi),%zmm22,%zmm22
  40513f:	7a 00 00 
  405142:	62 e1 7c 48 11 74 24 	vmovups %zmm22,0x1700(%rsp)
  405149:	5c 
  40514a:	62 e1 7c 48 10 b6 c0 	vmovups 0x74c0(%rsi),%zmm22
  405151:	74 00 00 
  405154:	62 83 2d 40 25 f5 96 	vpternlogd $0x96,%zmm29,%zmm26,%zmm22
  40515b:	62 61 7c 48 10 54 24 	vmovups 0x840(%rsp),%zmm26
  405162:	21 
  405163:	62 61 05 40 ef be c0 	vpxord 0x7dc0(%rsi),%zmm31,%zmm31
  40516a:	7d 00 00 
  40516d:	62 61 7c 48 11 7c 24 	vmovups %zmm31,0x1740(%rsp)
  405174:	5d 
  405175:	62 61 7c 48 10 7c 24 	vmovups 0x240(%rsp),%zmm31
  40517c:	09 
  40517d:	62 81 7d 48 ef e2    	vpxord %zmm26,%zmm0,%zmm20
  405183:	62 61 75 48 ef ea    	vpxord %zmm2,%zmm1,%zmm29
  405189:	62 b3 05 40 25 d4 36 	vpternlogd $0x36,%zmm20,%zmm31,%zmm2
  405190:	62 83 05 40 25 e5 6a 	vpternlogd $0x6a,%zmm29,%zmm31,%zmm20
  405197:	62 61 7c 48 10 7c 24 	vmovups 0x280(%rsp),%zmm31
  40519e:	0a 
  40519f:	62 61 2d 40 ef d1    	vpxord %zmm1,%zmm26,%zmm26
  4051a5:	62 63 2d 40 25 ea 6c 	vpternlogd $0x6c,%zmm2,%zmm26,%zmm29
  4051ac:	62 63 5d 40 25 d2 56 	vpternlogd $0x56,%zmm2,%zmm20,%zmm26
  4051b3:	62 61 2d 40 ef 96 40 	vpxord 0x7a40(%rsi),%zmm26,%zmm26
  4051ba:	7a 00 00 
  4051bd:	62 61 7c 48 11 54 24 	vmovups %zmm26,0x1780(%rsp)
  4051c4:	5e 
  4051c5:	62 61 7c 48 10 96 00 	vmovups 0x7500(%rsi),%zmm26
  4051cc:	75 00 00 
  4051cf:	62 63 75 48 25 d2 96 	vpternlogd $0x96,%zmm2,%zmm1,%zmm26
  4051d6:	62 f1 7c 48 10 4c 24 	vmovups 0x880(%rsp),%zmm1
  4051dd:	22 
  4051de:	62 61 15 40 ef ae 00 	vpxord 0x7e00(%rsi),%zmm29,%zmm29
  4051e5:	7e 00 00 
  4051e8:	62 61 7c 48 11 6c 24 	vmovups %zmm29,0x17c0(%rsp)
  4051ef:	5f 
  4051f0:	62 61 7d 48 ef e9    	vpxord %zmm1,%zmm0,%zmm29
  4051f6:	62 d1 65 48 ef d2    	vpxord %zmm10,%zmm3,%zmm2
  4051fc:	62 13 05 40 25 d5 36 	vpternlogd $0x36,%zmm29,%zmm31,%zmm10
  405203:	62 63 05 40 25 ea 6a 	vpternlogd $0x6a,%zmm2,%zmm31,%zmm29
  40520a:	62 61 7c 48 10 7c 24 	vmovups 0x2c0(%rsp),%zmm31
  405211:	0b 
  405212:	62 f1 75 48 ef cb    	vpxord %zmm3,%zmm1,%zmm1
  405218:	62 d3 75 48 25 d2 6c 	vpternlogd $0x6c,%zmm10,%zmm1,%zmm2
  40521f:	62 d3 15 40 25 ca 56 	vpternlogd $0x56,%zmm10,%zmm29,%zmm1
  405226:	62 f1 75 48 ef 8e 80 	vpxord 0x7a80(%rsi),%zmm1,%zmm1
  40522d:	7a 00 00 
  405230:	62 f1 7c 48 11 4c 24 	vmovups %zmm1,0x1480(%rsp)
  405237:	52 
  405238:	62 f1 7c 48 10 8e 40 	vmovups 0x7540(%rsi),%zmm1
  40523f:	75 00 00 
  405242:	62 d3 65 48 25 ca 96 	vpternlogd $0x96,%zmm10,%zmm3,%zmm1
  405249:	62 71 7c 48 10 54 24 	vmovups 0x8c0(%rsp),%zmm10
  405250:	23 
  405251:	62 61 15 40 ef ae 80 	vpxord 0x7180(%rsi),%zmm29,%zmm29
  405258:	71 00 00 
  40525b:	62 61 7c 48 11 6c 24 	vmovups %zmm29,0x1800(%rsp)
  405262:	60 
  405263:	62 61 7c 48 10 6c 24 	vmovups 0x9c0(%rsp),%zmm29
  40526a:	27 
  40526b:	62 f1 6d 48 ef 96 40 	vpxord 0x7e40(%rsi),%zmm2,%zmm2
  405272:	7e 00 00 
  405275:	62 f1 7c 48 11 54 24 	vmovups %zmm2,0x1840(%rsp)
  40527c:	61 
  40527d:	62 d1 7d 48 ef da    	vpxord %zmm10,%zmm0,%zmm3
  405283:	62 91 2d 48 ef d5    	vpxord %zmm29,%zmm10,%zmm2
  405289:	62 11 15 40 ef d4    	vpxord %zmm28,%zmm29,%zmm10
  40528f:	62 63 05 40 25 e3 36 	vpternlogd $0x36,%zmm3,%zmm31,%zmm28
  405296:	62 d3 05 40 25 da 6a 	vpternlogd $0x6a,%zmm10,%zmm31,%zmm3
  40529d:	62 13 6d 48 25 d4 6c 	vpternlogd $0x6c,%zmm28,%zmm2,%zmm10
  4052a4:	62 93 65 48 25 d4 56 	vpternlogd $0x56,%zmm28,%zmm3,%zmm2
  4052ab:	62 f1 65 48 ef 9e c0 	vpxord 0x71c0(%rsi),%zmm3,%zmm3
  4052b2:	71 00 00 
  4052b5:	62 f1 7c 48 11 5c 24 	vmovups %zmm3,0x1880(%rsp)
  4052bc:	62 
  4052bd:	62 f1 6d 48 ef 9e c0 	vpxord 0x7ac0(%rsi),%zmm2,%zmm3
  4052c4:	7a 00 00 
  4052c7:	62 f1 7c 48 10 96 80 	vmovups 0x7580(%rsi),%zmm2
  4052ce:	75 00 00 
  4052d1:	62 f1 7c 48 11 5c 24 	vmovups %zmm3,0x18c0(%rsp)
  4052d8:	63 
  4052d9:	62 93 15 40 25 d4 96 	vpternlogd $0x96,%zmm28,%zmm29,%zmm2
  4052e0:	62 61 7c 48 10 6c 24 	vmovups 0x900(%rsp),%zmm29
  4052e7:	24 
  4052e8:	62 61 7c 48 10 64 24 	vmovups 0x6c0(%rsp),%zmm28
  4052ef:	1b 
  4052f0:	62 71 2d 48 ef 96 80 	vpxord 0x7e80(%rsi),%zmm10,%zmm10
  4052f7:	7e 00 00 
  4052fa:	62 71 7c 48 11 54 24 	vmovups %zmm10,0x1900(%rsp)
  405301:	64 
  405302:	62 11 7d 48 ef d5    	vpxord %zmm29,%zmm0,%zmm10
  405308:	62 91 15 40 ef dc    	vpxord %zmm28,%zmm29,%zmm3
  40530e:	62 61 7c 48 10 6c 24 	vmovups 0x300(%rsp),%zmm29
  405315:	0c 
  405316:	62 61 1d 40 ef ff    	vpxord %zmm7,%zmm28,%zmm31
  40531c:	62 d3 15 40 25 fa 36 	vpternlogd $0x36,%zmm10,%zmm29,%zmm7
  405323:	62 13 15 40 25 d7 6a 	vpternlogd $0x6a,%zmm31,%zmm29,%zmm10
  40532a:	62 61 7c 48 10 6c 24 	vmovups 0x940(%rsp),%zmm29
  405331:	25 
  405332:	62 63 65 48 25 ff 6c 	vpternlogd $0x6c,%zmm7,%zmm3,%zmm31
  405339:	62 f3 2d 48 25 df 56 	vpternlogd $0x56,%zmm7,%zmm10,%zmm3
  405340:	62 f1 65 48 ef 9e 00 	vpxord 0x7b00(%rsi),%zmm3,%zmm3
  405347:	7b 00 00 
  40534a:	62 f1 7c 48 11 5c 24 	vmovups %zmm3,0x1940(%rsp)
  405351:	65 
  405352:	62 f1 7c 48 10 9e c0 	vmovups 0x75c0(%rsi),%zmm3
  405359:	75 00 00 
  40535c:	62 f3 1d 40 25 df 96 	vpternlogd $0x96,%zmm7,%zmm28,%zmm3
  405363:	62 f1 7c 48 10 7c 24 	vmovups 0x800(%rsp),%zmm7
  40536a:	20 
  40536b:	62 61 05 40 ef be c0 	vpxord 0x7ec0(%rsi),%zmm31,%zmm31
  405372:	7e 00 00 
  405375:	62 61 7c 48 11 7c 24 	vmovups %zmm31,0x1980(%rsp)
  40537c:	66 
  40537d:	62 61 7c 48 10 7c 24 	vmovups 0x340(%rsp),%zmm31
  405384:	0d 
  405385:	62 71 2d 48 ef 96 00 	vpxord 0x7200(%rsi),%zmm10,%zmm10
  40538c:	72 00 00 
  40538f:	62 71 7c 48 11 54 24 	vmovups %zmm10,0xb00(%rsp)
  405396:	2c 
  405397:	62 61 7d 48 ef e7    	vpxord %zmm7,%zmm0,%zmm28
  40539d:	62 11 45 48 ef d5    	vpxord %zmm29,%zmm7,%zmm10
  4053a3:	62 d1 15 40 ef f8    	vpxord %zmm8,%zmm29,%zmm7
  4053a9:	62 13 05 40 25 c4 36 	vpternlogd $0x36,%zmm28,%zmm31,%zmm8
  4053b0:	62 63 05 40 25 e7 6a 	vpternlogd $0x6a,%zmm7,%zmm31,%zmm28
  4053b7:	62 61 7c 48 10 7c 24 	vmovups 0x980(%rsp),%zmm31
  4053be:	26 
  4053bf:	62 d3 2d 48 25 f8 6c 	vpternlogd $0x6c,%zmm8,%zmm10,%zmm7
  4053c6:	62 53 1d 40 25 d0 56 	vpternlogd $0x56,%zmm8,%zmm28,%zmm10
  4053cd:	62 71 2d 48 ef 96 40 	vpxord 0x7b40(%rsi),%zmm10,%zmm10
  4053d4:	7b 00 00 
  4053d7:	62 71 7c 48 11 54 24 	vmovups %zmm10,0x13c0(%rsp)
  4053de:	4f 
  4053df:	62 71 45 48 ef 96 00 	vpxord 0x7f00(%rsi),%zmm7,%zmm10
  4053e6:	7f 00 00 
  4053e9:	62 f1 7c 48 10 be 00 	vmovups 0x7600(%rsi),%zmm7
  4053f0:	76 00 00 
  4053f3:	62 d3 15 40 25 f8 96 	vpternlogd $0x96,%zmm8,%zmm29,%zmm7
  4053fa:	62 71 7c 48 10 44 24 	vmovups 0x700(%rsp),%zmm8
  405401:	1c 
  405402:	62 61 7c 48 10 6c 24 	vmovups 0x380(%rsp),%zmm29
  405409:	0e 
  40540a:	62 f1 7c 48 11 7c 24 	vmovups %zmm7,0x1240(%rsp)
  405411:	49 
  405412:	62 61 1d 40 ef a6 40 	vpxord 0x7240(%rsi),%zmm28,%zmm28
  405419:	72 00 00 
  40541c:	62 61 7c 48 11 64 24 	vmovups %zmm28,0xb40(%rsp)
  405423:	2d 
  405424:	62 41 7d 48 ef e0    	vpxord %zmm8,%zmm0,%zmm28
  40542a:	62 91 3d 48 ef ff    	vpxord %zmm31,%zmm8,%zmm7
  405430:	62 51 05 40 ef c1    	vpxord %zmm9,%zmm31,%zmm8
  405436:	62 13 15 40 25 cc 36 	vpternlogd $0x36,%zmm28,%zmm29,%zmm9
  40543d:	62 43 15 40 25 e0 6a 	vpternlogd $0x6a,%zmm8,%zmm29,%zmm28
  405444:	62 53 45 48 25 c1 6c 	vpternlogd $0x6c,%zmm9,%zmm7,%zmm8
  40544b:	62 d3 1d 40 25 f9 56 	vpternlogd $0x56,%zmm9,%zmm28,%zmm7
  405452:	62 f1 45 48 ef be 80 	vpxord 0x7b80(%rsi),%zmm7,%zmm7
  405459:	7b 00 00 
  40545c:	62 f1 7c 48 11 7c 24 	vmovups %zmm7,0x1400(%rsp)
  405463:	50 
  405464:	62 f1 3d 48 ef be 40 	vpxord 0x7f40(%rsi),%zmm8,%zmm7
  40546b:	7f 00 00 
  40546e:	62 71 7c 48 10 86 40 	vmovups 0x7640(%rsi),%zmm8
  405475:	76 00 00 
  405478:	62 53 05 40 25 c1 96 	vpternlogd $0x96,%zmm9,%zmm31,%zmm8
  40547f:	62 71 7c 48 10 4c 24 	vmovups 0x780(%rsp),%zmm9
  405486:	1e 
  405487:	62 61 7c 48 10 7c 24 	vmovups 0x3c0(%rsp),%zmm31
  40548e:	0f 
  40548f:	62 71 7c 48 11 44 24 	vmovups %zmm8,0x1280(%rsp)
  405496:	4a 
  405497:	62 61 1d 40 ef a6 80 	vpxord 0x7280(%rsi),%zmm28,%zmm28
  40549e:	72 00 00 
  4054a1:	62 61 7c 48 11 64 24 	vmovups %zmm28,0xcc0(%rsp)
  4054a8:	33 
  4054a9:	62 61 7c 48 10 64 24 	vmovups 0x7c0(%rsp),%zmm28
  4054b0:	1f 
  4054b1:	62 41 7d 48 ef e9    	vpxord %zmm9,%zmm0,%zmm29
  4054b7:	62 51 1d 40 ef c6    	vpxord %zmm14,%zmm28,%zmm8
  4054bd:	62 13 05 40 25 f5 36 	vpternlogd $0x36,%zmm29,%zmm31,%zmm14
  4054c4:	62 43 05 40 25 e8 6a 	vpternlogd $0x6a,%zmm8,%zmm31,%zmm29
  4054cb:	62 61 7c 48 10 be 80 	vmovups 0x7680(%rsi),%zmm31
  4054d2:	76 00 00 
  4054d5:	62 43 1d 40 25 fe 96 	vpternlogd $0x96,%zmm14,%zmm28,%zmm31
  4054dc:	62 61 7c 48 11 7c 24 	vmovups %zmm31,0x12c0(%rsp)
  4054e3:	4b 
  4054e4:	62 61 7c 48 10 7c 24 	vmovups 0x740(%rsp),%zmm31
  4054eb:	1d 
  4054ec:	62 11 35 48 ef cc    	vpxord %zmm28,%zmm9,%zmm9
  4054f2:	62 53 35 48 25 c6 6c 	vpternlogd $0x6c,%zmm14,%zmm9,%zmm8
  4054f9:	62 53 15 40 25 ce 56 	vpternlogd $0x56,%zmm14,%zmm29,%zmm9
  405500:	62 61 15 40 ef ae c0 	vpxord 0x72c0(%rsi),%zmm29,%zmm29
  405507:	72 00 00 
  40550a:	62 61 7c 48 11 6c 24 	vmovups %zmm29,0xd00(%rsp)
  405511:	34 
  405512:	62 61 7c 48 10 6c 24 	vmovups 0x400(%rsp),%zmm29
  405519:	10 
  40551a:	62 01 7d 48 ef e3    	vpxord %zmm27,%zmm0,%zmm28
  405520:	62 11 25 40 ef f7    	vpxord %zmm31,%zmm27,%zmm14
  405526:	62 61 05 40 ef de    	vpxord %zmm6,%zmm31,%zmm27
  40552c:	62 93 15 40 25 f4 36 	vpternlogd $0x36,%zmm28,%zmm29,%zmm6
  405533:	62 03 15 40 25 e3 6a 	vpternlogd $0x6a,%zmm27,%zmm29,%zmm28
  40553a:	62 63 0d 48 25 de 6c 	vpternlogd $0x6c,%zmm6,%zmm14,%zmm27
  405541:	62 73 1d 40 25 f6 56 	vpternlogd $0x56,%zmm6,%zmm28,%zmm14
  405548:	62 61 0d 48 ef ae 00 	vpxord 0x7800(%rsi),%zmm14,%zmm29
  40554f:	78 00 00 
  405552:	62 71 25 40 ef b6 c0 	vpxord 0x7fc0(%rsi),%zmm27,%zmm14
  405559:	7f 00 00 
  40555c:	62 61 7c 48 10 9e c0 	vmovups 0x76c0(%rsi),%zmm27
  405563:	76 00 00 
  405566:	62 63 05 40 25 de 96 	vpternlogd $0x96,%zmm6,%zmm31,%zmm27
  40556d:	62 61 7c 48 10 7c 24 	vmovups 0x600(%rsp),%zmm31
  405574:	18 
  405575:	62 61 7c 48 11 5c 24 	vmovups %zmm27,0x1300(%rsp)
  40557c:	4c 
  40557d:	62 61 7c 48 10 9e 00 	vmovups 0x7700(%rsi),%zmm27
  405584:	77 00 00 
  405587:	62 61 1d 40 ef a6 00 	vpxord 0x7300(%rsi),%zmm28,%zmm28
  40558e:	73 00 00 
  405591:	62 61 7c 48 11 64 24 	vmovups %zmm28,0xd40(%rsp)
  405598:	35 
  405599:	62 41 7d 48 ef e3    	vpxord %zmm11,%zmm0,%zmm28
  40559f:	62 f1 05 40 ef f4    	vpxord %zmm4,%zmm31,%zmm6
  4055a5:	62 93 35 40 25 e4 36 	vpternlogd $0x36,%zmm28,%zmm25,%zmm4
  4055ac:	62 63 35 40 25 e6 6a 	vpternlogd $0x6a,%zmm6,%zmm25,%zmm28
  4055b3:	62 63 05 40 25 dc 96 	vpternlogd $0x96,%zmm4,%zmm31,%zmm27
  4055ba:	62 61 7c 48 11 5c 24 	vmovups %zmm27,0x1340(%rsp)
  4055c1:	4d 
  4055c2:	62 61 1d 40 ef 8e 40 	vpxord 0x7340(%rsi),%zmm28,%zmm25
  4055c9:	73 00 00 
  4055cc:	62 61 7c 48 11 4c 24 	vmovups %zmm25,0xd80(%rsp)
  4055d3:	36 
  4055d4:	62 61 7c 48 10 4c 24 	vmovups 0x640(%rsp),%zmm25
  4055db:	19 
  4055dc:	62 11 25 48 ef df    	vpxord %zmm31,%zmm11,%zmm11
  4055e2:	62 61 7c 48 10 be 40 	vmovups 0x7740(%rsi),%zmm31
  4055e9:	77 00 00 
  4055ec:	62 f3 25 48 25 f4 6c 	vpternlogd $0x6c,%zmm4,%zmm11,%zmm6
  4055f3:	62 73 1d 40 25 dc 56 	vpternlogd $0x56,%zmm4,%zmm28,%zmm11
  4055fa:	62 b1 7d 48 ef e2    	vpxord %zmm18,%zmm0,%zmm4
  405600:	62 61 35 40 ef dd    	vpxord %zmm5,%zmm25,%zmm27
  405606:	62 f3 0d 40 25 ec 36 	vpternlogd $0x36,%zmm4,%zmm30,%zmm5
  40560d:	62 93 0d 40 25 e3 6a 	vpternlogd $0x6a,%zmm27,%zmm30,%zmm4
  405614:	62 63 35 40 25 fd 96 	vpternlogd $0x96,%zmm5,%zmm25,%zmm31
  40561b:	62 61 7c 48 11 7c 24 	vmovups %zmm31,0x1380(%rsp)
  405622:	4e 
  405623:	62 61 7c 48 10 7c 24 	vmovups 0x1500(%rsp),%zmm31
  40562a:	54 
  40562b:	62 61 5d 48 ef b6 80 	vpxord 0x7380(%rsi),%zmm4,%zmm30
  405632:	73 00 00 
  405635:	62 61 25 48 ef a6 40 	vpxord 0x7840(%rsi),%zmm11,%zmm28
  40563c:	78 00 00 
  40563f:	62 11 6d 40 ef d9    	vpxord %zmm25,%zmm18,%zmm11
  405645:	62 61 7c 48 11 74 24 	vmovups %zmm30,0xdc0(%rsp)
  40564c:	37 
  40564d:	62 61 7c 48 10 74 24 	vmovups 0x680(%rsp),%zmm30
  405654:	1a 
  405655:	62 61 7c 48 10 4c 24 	vmovups 0x14c0(%rsp),%zmm25
  40565c:	53 
  40565d:	62 63 25 48 25 dd 6c 	vpternlogd $0x6c,%zmm5,%zmm11,%zmm27
  405664:	62 73 5d 48 25 dd 56 	vpternlogd $0x56,%zmm5,%zmm4,%zmm11
  40566b:	62 f1 7c 48 10 6c 24 	vmovups 0x40(%rsp),%zmm5
  405672:	01 
  405673:	62 e1 25 48 ef 96 80 	vpxord 0x7880(%rsi),%zmm11,%zmm18
  40567a:	78 00 00 
  40567d:	62 f1 25 40 ef a6 40 	vpxord 0x7c40(%rsi),%zmm27,%zmm4
  405684:	7c 00 00 
  405687:	62 61 7d 48 ef dd    	vpxord %zmm5,%zmm0,%zmm27
  40568d:	62 11 55 48 ef de    	vpxord %zmm30,%zmm5,%zmm11
  405693:	62 91 0d 40 ef e9    	vpxord %zmm25,%zmm30,%zmm5
  405699:	62 03 05 40 25 cb 36 	vpternlogd $0x36,%zmm27,%zmm31,%zmm25
  4056a0:	62 63 05 40 25 dd 6a 	vpternlogd $0x6a,%zmm5,%zmm31,%zmm27
  4056a7:	62 93 25 48 25 e9 6c 	vpternlogd $0x6c,%zmm25,%zmm11,%zmm5
  4056ae:	62 13 25 40 25 d9 56 	vpternlogd $0x56,%zmm25,%zmm27,%zmm11
  4056b5:	62 61 25 40 ef 9e c0 	vpxord 0x73c0(%rsi),%zmm27,%zmm27
  4056bc:	73 00 00 
  4056bf:	62 61 7c 48 11 5c 24 	vmovups %zmm27,0xa80(%rsp)
  4056c6:	2a 
  4056c7:	62 61 25 48 ef 9e c0 	vpxord 0x78c0(%rsi),%zmm11,%zmm27
  4056ce:	78 00 00 
  4056d1:	62 71 7c 48 10 9e 80 	vmovups 0x7780(%rsi),%zmm11
  4056d8:	77 00 00 
  4056db:	62 13 0d 40 25 d9 96 	vpternlogd $0x96,%zmm25,%zmm30,%zmm11
  4056e2:	62 71 7c 48 11 5c 24 	vmovups %zmm11,0xe80(%rsp)
  4056e9:	3a 
  4056ea:	62 71 7c 48 10 9e c0 	vmovups 0x87c0(%rsi),%zmm11
  4056f1:	87 00 00 
  4056f4:	62 f1 4d 48 ef b6 00 	vpxord 0x7c00(%rsi),%zmm6,%zmm6
  4056fb:	7c 00 00 
  4056fe:	62 e1 65 40 ef 9e 00 	vpxord 0x7000(%rsi),%zmm19,%zmm19
  405705:	70 00 00 
  405708:	62 41 7d 48 ef cc    	vpxord %zmm12,%zmm0,%zmm25
  40570e:	62 61 15 40 ef f6    	vpxord %zmm6,%zmm29,%zmm30
  405714:	62 93 65 40 25 f1 36 	vpternlogd $0x36,%zmm25,%zmm19,%zmm6
  40571b:	62 03 65 40 25 ce 6a 	vpternlogd $0x6a,%zmm30,%zmm19,%zmm25
  405722:	62 73 15 40 25 de 96 	vpternlogd $0x96,%zmm6,%zmm29,%zmm11
  405729:	62 71 7c 48 11 5c 24 	vmovups %zmm11,0xa40(%rsp)
  405730:	29 
  405731:	62 11 1d 48 ef e5    	vpxord %zmm29,%zmm12,%zmm12
  405737:	62 63 1d 48 25 f6 6c 	vpternlogd $0x6c,%zmm6,%zmm12,%zmm30
  40573e:	62 73 35 40 25 e6 56 	vpternlogd $0x56,%zmm6,%zmm25,%zmm12
  405745:	62 61 7c 48 10 ae 40 	vmovups 0x8440(%rsi),%zmm29
  40574c:	84 00 00 
  40574f:	62 e1 35 40 ef 9e 00 	vpxord 0x8000(%rsi),%zmm25,%zmm19
  405756:	80 00 00 
  405759:	62 71 15 48 ef ae 40 	vpxord 0x7040(%rsi),%zmm13,%zmm13
  405760:	70 00 00 
  405763:	62 61 1d 48 ef 8e 00 	vpxord 0x8900(%rsi),%zmm12,%zmm25
  40576a:	89 00 00 
  40576d:	62 d1 7d 48 ef f7    	vpxord %zmm15,%zmm0,%zmm6
  405773:	62 71 1d 40 ef e4    	vpxord %zmm4,%zmm28,%zmm12
  405779:	62 f3 15 48 25 e6 36 	vpternlogd $0x36,%zmm6,%zmm13,%zmm4
  405780:	62 d3 15 48 25 f4 6a 	vpternlogd $0x6a,%zmm12,%zmm13,%zmm6
  405787:	62 71 7c 48 10 ae 00 	vmovups 0x8400(%rsi),%zmm13
  40578e:	84 00 00 
  405791:	62 e1 7c 48 11 5c 24 	vmovups %zmm19,0xac0(%rsp)
  405798:	2b 
  405799:	62 61 7c 48 11 4c 24 	vmovups %zmm25,0x1440(%rsp)
  4057a0:	51 
  4057a1:	62 73 1d 40 25 ec 96 	vpternlogd $0x96,%zmm4,%zmm28,%zmm13
  4057a8:	62 71 7c 48 11 6c 24 	vmovups %zmm13,0xec0(%rsp)
  4057af:	3b 
  4057b0:	62 f1 55 48 ef ae 80 	vpxord 0x7c80(%rsi),%zmm5,%zmm5
  4057b7:	7c 00 00 
  4057ba:	62 11 05 48 ef dc    	vpxord %zmm28,%zmm15,%zmm11
  4057c0:	62 31 7d 48 ef f9    	vpxord %zmm17,%zmm0,%zmm15
  4057c6:	62 61 6d 40 ef e5    	vpxord %zmm5,%zmm18,%zmm28
  4057cc:	62 d3 7d 40 25 ef 36 	vpternlogd $0x36,%zmm15,%zmm16,%zmm5
  4057d3:	62 13 7d 40 25 fc 6a 	vpternlogd $0x6a,%zmm28,%zmm16,%zmm15
  4057da:	62 73 25 48 25 e4 6c 	vpternlogd $0x6c,%zmm4,%zmm11,%zmm12
  4057e1:	62 73 4d 48 25 dc 56 	vpternlogd $0x56,%zmm4,%zmm6,%zmm11
  4057e8:	62 63 6d 40 25 ed 96 	vpternlogd $0x96,%zmm5,%zmm18,%zmm29
  4057ef:	62 61 7c 48 11 6c 24 	vmovups %zmm29,0xf00(%rsp)
  4057f6:	3c 
  4057f7:	62 a1 75 40 ef ca    	vpxord %zmm18,%zmm17,%zmm17
  4057fd:	62 63 75 40 25 e5 6c 	vpternlogd $0x6c,%zmm5,%zmm17,%zmm28
  405804:	62 e3 05 48 25 cd 56 	vpternlogd $0x56,%zmm5,%zmm15,%zmm17
  40580b:	62 f1 7c 48 10 6c 24 	vmovups 0x1540(%rsp),%zmm5
  405812:	55 
  405813:	62 f1 75 40 ef a6 80 	vpxord 0x8980(%rsi),%zmm17,%zmm4
  40581a:	89 00 00 
  40581d:	62 f1 7c 48 11 64 24 	vmovups %zmm4,0x1180(%rsp)
  405824:	46 
  405825:	62 f1 7c 48 10 a6 80 	vmovups 0x8480(%rsi),%zmm4
  40582c:	84 00 00 
  40582f:	62 e1 7c 48 10 4c 24 	vmovups 0x1680(%rsp),%zmm17
  405836:	5a 
  405837:	62 e1 25 48 ef 9e 40 	vpxord 0x8940(%rsi),%zmm11,%zmm19
  40583e:	89 00 00 
  405841:	62 e1 55 40 ef ae c0 	vpxord 0x70c0(%rsi),%zmm21,%zmm21
  405848:	70 00 00 
  40584b:	62 a1 7d 48 ef d6    	vpxord %zmm22,%zmm0,%zmm18
  405851:	62 e1 7c 48 11 5c 24 	vmovups %zmm19,0x11c0(%rsp)
  405858:	47 
  405859:	62 a1 25 40 ef df    	vpxord %zmm23,%zmm27,%zmm19
  40585f:	62 a3 55 40 25 fa 36 	vpternlogd $0x36,%zmm18,%zmm21,%zmm23
  405866:	62 a3 55 40 25 d3 6a 	vpternlogd $0x6a,%zmm19,%zmm21,%zmm18
  40586d:	62 b3 25 40 25 e7 96 	vpternlogd $0x96,%zmm23,%zmm27,%zmm4
  405874:	62 f1 7c 48 11 64 24 	vmovups %zmm4,0xf80(%rsp)
  40587b:	3e 
  40587c:	62 61 0d 40 ef 8e c0 	vpxord 0x8cc0(%rsi),%zmm30,%zmm25
  405883:	8c 00 00 
  405886:	62 61 4d 48 ef b6 40 	vpxord 0x8040(%rsi),%zmm6,%zmm30
  40588d:	80 00 00 
  405890:	62 f1 7c 48 10 74 24 	vmovups 0x15c0(%rsp),%zmm6
  405897:	57 
  405898:	62 61 7c 48 11 74 24 	vmovups %zmm30,0xe00(%rsp)
  40589f:	38 
  4058a0:	62 61 1d 48 ef b6 00 	vpxord 0x8d00(%rsi),%zmm12,%zmm30
  4058a7:	8d 00 00 
  4058aa:	62 71 7c 48 10 a6 c0 	vmovups 0x84c0(%rsi),%zmm12
  4058b1:	84 00 00 
  4058b4:	62 81 4d 40 ef f3    	vpxord %zmm27,%zmm22,%zmm22
  4058ba:	62 61 3d 40 ef 86 00 	vpxord 0x7100(%rsi),%zmm24,%zmm24
  4058c1:	71 00 00 
  4058c4:	62 a3 4d 40 25 df 6c 	vpternlogd $0x6c,%zmm23,%zmm22,%zmm19
  4058cb:	62 a3 6d 40 25 f7 56 	vpternlogd $0x56,%zmm23,%zmm18,%zmm22
  4058d2:	62 81 7d 48 ef fa    	vpxord %zmm26,%zmm0,%zmm23
  4058d8:	62 f1 55 48 ef e6    	vpxord %zmm6,%zmm5,%zmm4
  4058de:	62 b3 3d 40 25 f7 36 	vpternlogd $0x36,%zmm23,%zmm24,%zmm6
  4058e5:	62 e3 3d 40 25 fc 6a 	vpternlogd $0x6a,%zmm4,%zmm24,%zmm23
  4058ec:	62 73 55 48 25 e6 96 	vpternlogd $0x96,%zmm6,%zmm5,%zmm12
  4058f3:	62 71 7c 48 11 64 24 	vmovups %zmm12,0xfc0(%rsp)
  4058fa:	3f 
  4058fb:	62 e1 05 48 ef 86 80 	vpxord 0x8080(%rsi),%zmm15,%zmm16
  405902:	80 00 00 
  405905:	62 61 2d 40 ef d5    	vpxord %zmm5,%zmm26,%zmm26
  40590b:	62 71 7c 48 10 7c 24 	vmovups 0x1580(%rsp),%zmm15
  405912:	56 
  405913:	62 f1 7c 48 10 6c 24 	vmovups 0x1640(%rsp),%zmm5
  40591a:	59 
  40591b:	62 e1 7c 48 11 44 24 	vmovups %zmm16,0xe40(%rsp)
  405922:	39 
  405923:	62 e1 7c 48 10 44 24 	vmovups 0x1600(%rsp),%zmm16
  40592a:	58 
  40592b:	62 f3 2d 40 25 e6 6c 	vpternlogd $0x6c,%zmm6,%zmm26,%zmm4
  405932:	62 63 45 40 25 d6 56 	vpternlogd $0x56,%zmm6,%zmm23,%zmm26
  405939:	62 f1 7c 48 10 b6 00 	vmovups 0x8500(%rsi),%zmm6
  405940:	85 00 00 
  405943:	62 e1 6d 40 ef ae c0 	vpxord 0x80c0(%rsi),%zmm18,%zmm21
  40594a:	80 00 00 
  40594d:	62 e1 4d 40 ef 96 c0 	vpxord 0x89c0(%rsi),%zmm22,%zmm18
  405954:	89 00 00 
  405957:	62 e1 7c 48 11 54 24 	vmovups %zmm18,0x1100(%rsp)
  40595e:	44 
  40595f:	62 e1 7c 48 11 6c 24 	vmovups %zmm21,0xb80(%rsp)
  405966:	2e 
  405967:	62 e1 65 40 ef 96 80 	vpxord 0x8d80(%rsi),%zmm19,%zmm18
  40596e:	8d 00 00 
  405971:	62 e1 2d 40 ef 9e 00 	vpxord 0x8a00(%rsi),%zmm26,%zmm19
  405978:	8a 00 00 
  40597b:	62 e1 7c 48 11 5c 24 	vmovups %zmm19,0x1040(%rsp)
  405982:	41 
  405983:	62 e1 5d 40 ef a6 40 	vpxord 0x7140(%rsi),%zmm20,%zmm20
  40598a:	71 00 00 
  40598d:	62 e1 5d 48 ef 9e c0 	vpxord 0x8dc0(%rsi),%zmm4,%zmm19
  405994:	8d 00 00 
  405997:	62 71 7d 48 ef e9    	vpxord %zmm1,%zmm0,%zmm13
  40599d:	62 f1 05 48 ef e5    	vpxord %zmm5,%zmm15,%zmm4
  4059a3:	62 d3 5d 40 25 ed 36 	vpternlogd $0x36,%zmm13,%zmm20,%zmm5
  4059aa:	62 73 5d 40 25 ec 6a 	vpternlogd $0x6a,%zmm4,%zmm20,%zmm13
  4059b1:	62 f3 05 48 25 f5 96 	vpternlogd $0x96,%zmm5,%zmm15,%zmm6
  4059b8:	62 f1 7c 48 11 74 24 	vmovups %zmm6,0x1080(%rsp)
  4059bf:	42 
  4059c0:	62 f1 7c 48 10 74 24 	vmovups 0x16c0(%rsp),%zmm6
  4059c7:	5b 
  4059c8:	62 d1 75 48 ef cf    	vpxord %zmm15,%zmm1,%zmm1
  4059ce:	62 f3 75 48 25 e5 6c 	vpternlogd $0x6c,%zmm5,%zmm1,%zmm4
  4059d5:	62 f3 15 48 25 cd 56 	vpternlogd $0x56,%zmm5,%zmm13,%zmm1
  4059dc:	62 e1 15 48 ef a6 40 	vpxord 0x8140(%rsi),%zmm13,%zmm20
  4059e3:	81 00 00 
  4059e6:	62 e1 7c 48 11 64 24 	vmovups %zmm20,0xc00(%rsp)
  4059ed:	30 
  4059ee:	62 71 7c 48 10 ae 40 	vmovups 0x8540(%rsi),%zmm13
  4059f5:	85 00 00 
  4059f8:	62 e1 75 48 ef a6 40 	vpxord 0x8a40(%rsi),%zmm1,%zmm20
  4059ff:	8a 00 00 
  405a02:	62 e1 7c 48 11 64 24 	vmovups %zmm20,0x1000(%rsp)
  405a09:	40 
  405a0a:	62 e1 5d 48 ef a6 00 	vpxord 0x8e00(%rsi),%zmm4,%zmm20
  405a11:	8e 00 00 
  405a14:	62 71 7d 48 ef e2    	vpxord %zmm2,%zmm0,%zmm12
  405a1a:	62 b1 6d 48 ef e0    	vpxord %zmm16,%zmm2,%zmm4
  405a20:	62 f1 7c 48 10 54 24 	vmovups 0x1800(%rsp),%zmm2
  405a27:	60 
  405a28:	62 f1 7d 40 ef ee    	vpxord %zmm6,%zmm16,%zmm5
  405a2e:	62 d3 6d 48 25 f4 36 	vpternlogd $0x36,%zmm12,%zmm2,%zmm6
  405a35:	62 73 6d 48 25 e5 6a 	vpternlogd $0x6a,%zmm5,%zmm2,%zmm12
  405a3c:	62 f3 5d 48 25 ee 6c 	vpternlogd $0x6c,%zmm6,%zmm4,%zmm5
  405a43:	62 f3 1d 48 25 e6 56 	vpternlogd $0x56,%zmm6,%zmm12,%zmm4
  405a4a:	62 73 7d 40 25 ee 96 	vpternlogd $0x96,%zmm6,%zmm16,%zmm13
  405a51:	62 f1 7c 48 10 b6 80 	vmovups 0x8580(%rsi),%zmm6
  405a58:	85 00 00 
  405a5b:	62 e1 7c 48 10 44 24 	vmovups 0x1780(%rsp),%zmm16
  405a62:	5e 
  405a63:	62 71 7c 48 11 6c 24 	vmovups %zmm13,0x1200(%rsp)
  405a6a:	48 
  405a6b:	62 71 7c 48 10 6c 24 	vmovups 0x18c0(%rsp),%zmm13
  405a72:	63 
  405a73:	62 f1 1d 48 ef 8e 80 	vpxord 0x8180(%rsi),%zmm12,%zmm1
  405a7a:	81 00 00 
  405a7d:	62 f1 5d 48 ef 96 80 	vpxord 0x8a80(%rsi),%zmm4,%zmm2
  405a84:	8a 00 00 
  405a87:	62 f1 7c 48 11 4c 24 	vmovups %zmm1,0xc40(%rsp)
  405a8e:	31 
  405a8f:	62 f1 7c 48 11 54 24 	vmovups %zmm2,0x10c0(%rsp)
  405a96:	43 
  405a97:	62 71 7c 48 10 64 24 	vmovups 0x1840(%rsp),%zmm12
  405a9e:	61 
  405a9f:	62 f1 55 48 ef 8e 40 	vpxord 0x8e40(%rsi),%zmm5,%zmm1
  405aa6:	8e 00 00 
  405aa9:	62 f1 7c 48 10 6c 24 	vmovups 0x1740(%rsp),%zmm5
  405ab0:	5d 
  405ab1:	62 71 7d 48 ef fb    	vpxord %zmm3,%zmm0,%zmm15
  405ab7:	62 b1 65 48 ef d1    	vpxord %zmm17,%zmm3,%zmm2
  405abd:	62 f1 7c 48 10 5c 24 	vmovups 0x1880(%rsp),%zmm3
  405ac4:	62 
  405ac5:	62 e1 75 40 ef ed    	vpxord %zmm5,%zmm17,%zmm21
  405acb:	62 d3 65 48 25 ef 36 	vpternlogd $0x36,%zmm15,%zmm3,%zmm5
  405ad2:	62 33 65 48 25 fd 6a 	vpternlogd $0x6a,%zmm21,%zmm3,%zmm15
  405ad9:	62 e3 6d 48 25 ed 6c 	vpternlogd $0x6c,%zmm5,%zmm2,%zmm21
  405ae0:	62 f3 05 48 25 d5 56 	vpternlogd $0x56,%zmm5,%zmm15,%zmm2
  405ae7:	62 f3 75 40 25 f5 96 	vpternlogd $0x96,%zmm5,%zmm17,%zmm6
  405aee:	62 e1 7c 48 10 4c 24 	vmovups 0x1900(%rsp),%zmm17
  405af5:	64 
  405af6:	62 f1 7c 48 10 6c 24 	vmovups 0x1980(%rsp),%zmm5
  405afd:	66 
  405afe:	62 f1 7c 48 11 74 24 	vmovups %zmm6,0xf40(%rsp)
  405b05:	3d 
  405b06:	62 f1 05 48 ef 9e c0 	vpxord 0x81c0(%rsi),%zmm15,%zmm3
  405b0d:	81 00 00 
  405b10:	62 f1 6d 48 ef a6 c0 	vpxord 0x8ac0(%rsi),%zmm2,%zmm4
  405b17:	8a 00 00 
  405b1a:	62 61 45 40 ef 86 00 	vpxord 0x8100(%rsi),%zmm23,%zmm24
  405b21:	81 00 00 
  405b24:	62 f1 7c 48 11 5c 24 	vmovups %zmm3,0xc80(%rsp)
  405b2b:	32 
  405b2c:	62 f1 7c 48 11 64 24 	vmovups %zmm4,0x1140(%rsp)
  405b33:	45 
  405b34:	62 61 7c 48 11 44 24 	vmovups %zmm24,0xbc0(%rsp)
  405b3b:	2f 
  405b3c:	62 f1 7c 48 10 a6 80 	vmovups 0x8e80(%rsi),%zmm4
  405b43:	8e 00 00 
  405b46:	62 f1 7c 48 10 5c 24 	vmovups 0x1700(%rsp),%zmm3
  405b4d:	5c 
  405b4e:	62 f1 7c 48 10 54 24 	vmovups 0x17c0(%rsp),%zmm2
  405b55:	5f 
  405b56:	62 71 7c 48 10 7c 24 	vmovups 0x1940(%rsp),%zmm15
  405b5d:	65 
  405b5e:	62 71 35 48 ef 8e c0 	vpxord 0x7bc0(%rsi),%zmm9,%zmm9
  405b65:	7b 00 00 
  405b68:	62 71 3d 48 ef 86 80 	vpxord 0x7f80(%rsi),%zmm8,%zmm8
  405b6f:	7f 00 00 
  405b72:	62 71 1d 40 ef 9e 40 	vpxord 0x8d40(%rsi),%zmm28,%zmm11
  405b79:	8d 00 00 
  405b7c:	62 61 7c 48 10 44 24 	vmovups 0x1240(%rsp),%zmm24
  405b83:	49 
  405b84:	62 61 7c 48 10 5c 24 	vmovups 0xb00(%rsp),%zmm27
  405b8b:	2c 
  405b8c:	62 e1 55 40 ef f4    	vpxord %zmm4,%zmm21,%zmm22
  405b92:	62 91 7d 48 ef e0    	vpxord %zmm24,%zmm0,%zmm4
  405b98:	62 e1 65 48 ef fa    	vpxord %zmm2,%zmm3,%zmm23
  405b9e:	62 f3 25 40 25 d4 36 	vpternlogd $0x36,%zmm4,%zmm27,%zmm2
  405ba5:	62 b3 25 40 25 e7 6a 	vpternlogd $0x6a,%zmm23,%zmm27,%zmm4
  405bac:	62 61 3d 40 ef e3    	vpxord %zmm3,%zmm24,%zmm28
  405bb2:	62 e3 1d 40 25 fa 6c 	vpternlogd $0x6c,%zmm2,%zmm28,%zmm23
  405bb9:	62 63 5d 48 25 e2 56 	vpternlogd $0x56,%zmm2,%zmm4,%zmm28
  405bc0:	62 61 5d 48 ef 9e 00 	vpxord 0x8200(%rsi),%zmm4,%zmm27
  405bc7:	82 00 00 
  405bca:	62 f1 45 40 ef a6 c0 	vpxord 0x8ec0(%rsi),%zmm23,%zmm4
  405bd1:	8e 00 00 
  405bd4:	62 e1 7c 48 10 be c0 	vmovups 0x85c0(%rsi),%zmm23
  405bdb:	85 00 00 
  405bde:	62 e3 65 48 25 fa 96 	vpternlogd $0x96,%zmm2,%zmm3,%zmm23
  405be5:	62 f1 7c 48 10 54 24 	vmovups 0x1280(%rsp),%zmm2
  405bec:	4a 
  405bed:	62 f1 1d 40 ef b6 00 	vpxord 0x8b00(%rsi),%zmm28,%zmm6
  405bf4:	8b 00 00 
  405bf7:	62 61 7c 48 10 64 24 	vmovups 0xb40(%rsp),%zmm28
  405bfe:	2d 
  405bff:	62 61 7d 48 ef c2    	vpxord %zmm2,%zmm0,%zmm24
  405c05:	62 41 7d 40 ef d4    	vpxord %zmm12,%zmm16,%zmm26
  405c0b:	62 13 1d 40 25 e0 36 	vpternlogd $0x36,%zmm24,%zmm28,%zmm12
  405c12:	62 03 1d 40 25 c2 6a 	vpternlogd $0x6a,%zmm26,%zmm28,%zmm24
  405c19:	62 61 7c 48 10 64 24 	vmovups 0xcc0(%rsp),%zmm28
  405c20:	33 
  405c21:	62 b1 6d 48 ef d8    	vpxord %zmm16,%zmm2,%zmm3
  405c27:	62 e1 3d 40 ef ae 40 	vpxord 0x8240(%rsi),%zmm24,%zmm21
  405c2e:	82 00 00 
  405c31:	62 43 65 48 25 d4 6c 	vpternlogd $0x6c,%zmm12,%zmm3,%zmm26
  405c38:	62 d3 3d 40 25 dc 56 	vpternlogd $0x56,%zmm12,%zmm24,%zmm3
  405c3f:	62 61 7c 48 10 86 00 	vmovups 0x8600(%rsi),%zmm24
  405c46:	86 00 00 
  405c49:	62 43 7d 40 25 c4 96 	vpternlogd $0x96,%zmm12,%zmm16,%zmm24
  405c50:	62 71 7c 48 10 64 24 	vmovups 0x12c0(%rsp),%zmm12
  405c57:	4b 
  405c58:	62 f1 65 48 ef 96 40 	vpxord 0x8b40(%rsi),%zmm3,%zmm2
  405c5f:	8b 00 00 
  405c62:	62 f1 7c 48 10 5c 24 	vmovups 0x1480(%rsp),%zmm3
  405c69:	52 
  405c6a:	62 f1 7c 48 11 54 24 	vmovups %zmm2,0x9c0(%rsp)
  405c71:	27 
  405c72:	62 d1 7d 48 ef d4    	vpxord %zmm12,%zmm0,%zmm2
  405c78:	62 61 2d 40 ef ae 00 	vpxord 0x8f00(%rsi),%zmm26,%zmm29
  405c7f:	8f 00 00 
  405c82:	62 21 65 48 ef d1    	vpxord %zmm17,%zmm3,%zmm26
  405c88:	62 e3 1d 40 25 ca 36 	vpternlogd $0x36,%zmm2,%zmm28,%zmm17
  405c8f:	62 93 1d 40 25 d2 6a 	vpternlogd $0x6a,%zmm26,%zmm28,%zmm2
  405c96:	62 61 7c 48 11 6c 24 	vmovups %zmm29,0x14c0(%rsp)
  405c9d:	53 
  405c9e:	62 e1 1d 48 ef c3    	vpxord %zmm3,%zmm12,%zmm16
  405ca4:	62 23 7d 40 25 d1 6c 	vpternlogd $0x6c,%zmm17,%zmm16,%zmm26
  405cab:	62 a3 6d 48 25 c1 56 	vpternlogd $0x56,%zmm17,%zmm2,%zmm16
  405cb2:	62 61 2d 40 ef ae 40 	vpxord 0x8f40(%rsi),%zmm26,%zmm29
  405cb9:	8f 00 00 
  405cbc:	62 61 7c 48 10 96 40 	vmovups 0x8640(%rsi),%zmm26
  405cc3:	86 00 00 
  405cc6:	62 61 7c 48 11 6c 24 	vmovups %zmm29,0x1540(%rsp)
  405ccd:	55 
  405cce:	62 23 65 48 25 d1 96 	vpternlogd $0x96,%zmm17,%zmm3,%zmm26
  405cd5:	62 f1 7c 48 10 5c 24 	vmovups 0x1300(%rsp),%zmm3
  405cdc:	4c 
  405cdd:	62 e1 7c 48 10 4c 24 	vmovups 0xd00(%rsp),%zmm17
  405ce4:	34 
  405ce5:	62 71 7d 40 ef a6 80 	vpxord 0x8b80(%rsi),%zmm16,%zmm12
  405cec:	8b 00 00 
  405cef:	62 61 7d 48 ef fb    	vpxord %zmm3,%zmm0,%zmm31
  405cf5:	62 e1 15 48 ef c5    	vpxord %zmm5,%zmm13,%zmm16
  405cfb:	62 93 75 40 25 ef 36 	vpternlogd $0x36,%zmm31,%zmm17,%zmm5
  405d02:	62 23 75 40 25 f8 6a 	vpternlogd $0x6a,%zmm16,%zmm17,%zmm31
  405d09:	62 71 7c 48 11 64 24 	vmovups %zmm12,0x1500(%rsp)
  405d10:	54 
  405d11:	62 41 65 48 ef e5    	vpxord %zmm13,%zmm3,%zmm28
  405d17:	62 e3 1d 40 25 c5 6c 	vpternlogd $0x6c,%zmm5,%zmm28,%zmm16
  405d1e:	62 63 05 40 25 e5 56 	vpternlogd $0x56,%zmm5,%zmm31,%zmm28
  405d25:	62 f1 1d 40 ef 9e c0 	vpxord 0x8bc0(%rsi),%zmm28,%zmm3
  405d2c:	8b 00 00 
  405d2f:	62 f1 7c 48 11 5c 24 	vmovups %zmm3,0x1580(%rsp)
  405d36:	56 
  405d37:	62 f1 7c 48 10 9e 80 	vmovups 0x8680(%rsi),%zmm3
  405d3e:	86 00 00 
  405d41:	62 61 7c 48 10 64 24 	vmovups 0xd40(%rsp),%zmm28
  405d48:	35 
  405d49:	62 f3 15 48 25 dd 96 	vpternlogd $0x96,%zmm5,%zmm13,%zmm3
  405d50:	62 f1 7c 48 10 6c 24 	vmovups 0x1340(%rsp),%zmm5
  405d57:	4d 
  405d58:	62 e1 7d 40 ef 8e 80 	vpxord 0x8f80(%rsi),%zmm16,%zmm17
  405d5f:	8f 00 00 
  405d62:	62 e1 7c 48 11 4c 24 	vmovups %zmm17,0x15c0(%rsp)
  405d69:	57 
  405d6a:	62 71 7d 48 ef ed    	vpxord %zmm5,%zmm0,%zmm13
  405d70:	62 c1 05 48 ef ca    	vpxord %zmm10,%zmm15,%zmm17
  405d76:	62 53 1d 40 25 d5 36 	vpternlogd $0x36,%zmm13,%zmm28,%zmm10
  405d7d:	62 33 1d 40 25 e9 6a 	vpternlogd $0x6a,%zmm17,%zmm28,%zmm13
  405d84:	62 61 7c 48 10 64 24 	vmovups 0x13c0(%rsp),%zmm28
  405d8b:	4f 
  405d8c:	62 c1 55 48 ef c7    	vpxord %zmm15,%zmm5,%zmm16
  405d92:	62 f1 15 48 ef ae 00 	vpxord 0x8300(%rsi),%zmm13,%zmm5
  405d99:	83 00 00 
  405d9c:	62 f1 7c 48 11 6c 24 	vmovups %zmm5,0x1600(%rsp)
  405da3:	58 
  405da4:	62 f1 7c 48 10 ae c0 	vmovups 0x86c0(%rsi),%zmm5
  405dab:	86 00 00 
  405dae:	62 c3 7d 40 25 ca 6c 	vpternlogd $0x6c,%zmm10,%zmm16,%zmm17
  405db5:	62 c3 15 48 25 c2 56 	vpternlogd $0x56,%zmm10,%zmm13,%zmm16
  405dbc:	62 d3 05 48 25 ea 96 	vpternlogd $0x96,%zmm10,%zmm15,%zmm5
  405dc3:	62 71 7c 48 10 7c 24 	vmovups 0x1380(%rsp),%zmm15
  405dca:	4e 
  405dcb:	62 71 7c 48 10 54 24 	vmovups 0xd80(%rsp),%zmm10
  405dd2:	36 
  405dd3:	62 61 75 40 ef ae c0 	vpxord 0x8fc0(%rsi),%zmm17,%zmm29
  405dda:	8f 00 00 
  405ddd:	62 51 7d 48 ef ef    	vpxord %zmm15,%zmm0,%zmm13
  405de3:	62 e1 1d 40 ef cf    	vpxord %zmm7,%zmm28,%zmm17
  405de9:	62 d3 2d 48 25 fd 36 	vpternlogd $0x36,%zmm13,%zmm10,%zmm7
  405df0:	62 33 2d 48 25 e9 6a 	vpternlogd $0x6a,%zmm17,%zmm10,%zmm13
  405df7:	62 61 7c 48 11 6c 24 	vmovups %zmm29,0x1640(%rsp)
  405dfe:	59 
  405dff:	62 71 05 40 ef a6 c0 	vpxord 0x82c0(%rsi),%zmm31,%zmm12
  405e06:	82 00 00 
  405e09:	62 61 7d 40 ef be 00 	vpxord 0x8800(%rsi),%zmm16,%zmm31
  405e10:	88 00 00 
  405e13:	62 81 05 48 ef c4    	vpxord %zmm28,%zmm15,%zmm16
  405e19:	62 71 15 48 ef be 40 	vpxord 0x8340(%rsi),%zmm13,%zmm15
  405e20:	83 00 00 
  405e23:	62 71 7c 48 11 7c 24 	vmovups %zmm15,0x1680(%rsp)
  405e2a:	5a 
  405e2b:	62 71 7c 48 10 be 00 	vmovups 0x8700(%rsi),%zmm15
  405e32:	87 00 00 
  405e35:	62 e3 7d 40 25 cf 6c 	vpternlogd $0x6c,%zmm7,%zmm16,%zmm17
  405e3c:	62 e3 15 48 25 c7 56 	vpternlogd $0x56,%zmm7,%zmm13,%zmm16
  405e43:	62 73 1d 40 25 ff 96 	vpternlogd $0x96,%zmm7,%zmm28,%zmm15
  405e4a:	62 f1 7c 48 10 7c 24 	vmovups 0xe80(%rsp),%zmm7
  405e51:	3a 
  405e52:	62 61 7c 48 10 64 24 	vmovups 0x1400(%rsp),%zmm28
  405e59:	50 
  405e5a:	62 61 7d 48 ef ef    	vpxord %zmm7,%zmm0,%zmm29
  405e60:	62 11 45 48 ef ec    	vpxord %zmm28,%zmm7,%zmm13
  405e66:	62 f1 7c 48 10 7c 24 	vmovups 0xdc0(%rsp),%zmm7
  405e6d:	37 
  405e6e:	62 71 7d 40 ef 96 40 	vpxord 0x8840(%rsi),%zmm16,%zmm10
  405e75:	88 00 00 
  405e78:	62 e1 75 40 ef 86 00 	vpxord 0x8c00(%rsi),%zmm17,%zmm16
  405e7f:	8c 00 00 
  405e82:	62 c1 1d 40 ef c8    	vpxord %zmm8,%zmm28,%zmm17
  405e88:	62 13 45 48 25 c5 36 	vpternlogd $0x36,%zmm29,%zmm7,%zmm8
  405e8f:	62 23 45 48 25 e9 6a 	vpternlogd $0x6a,%zmm17,%zmm7,%zmm29
  405e96:	62 f1 7c 48 10 be 40 	vmovups 0x8740(%rsi),%zmm7
  405e9d:	87 00 00 
  405ea0:	62 c3 15 48 25 c8 6c 	vpternlogd $0x6c,%zmm8,%zmm13,%zmm17
  405ea7:	62 53 15 40 25 e8 56 	vpternlogd $0x56,%zmm8,%zmm29,%zmm13
  405eae:	62 d3 1d 40 25 f8 96 	vpternlogd $0x96,%zmm8,%zmm28,%zmm7
  405eb5:	62 61 7c 48 10 64 24 	vmovups 0xa00(%rsp),%zmm28
  405ebc:	28 
  405ebd:	62 f1 7c 48 11 7c 24 	vmovups %zmm7,0x1700(%rsp)
  405ec4:	5c 
  405ec5:	62 61 15 40 ef ae 80 	vpxord 0x8380(%rsi),%zmm29,%zmm29
  405ecc:	83 00 00 
  405ecf:	62 61 7c 48 11 6c 24 	vmovups %zmm29,0x16c0(%rsp)
  405ed6:	5b 
  405ed7:	62 61 7c 48 10 6c 24 	vmovups 0xa80(%rsp),%zmm29
  405ede:	2a 
  405edf:	62 11 7d 48 ef c4    	vpxord %zmm28,%zmm0,%zmm8
  405ee5:	62 d1 1d 40 ef f9    	vpxord %zmm9,%zmm28,%zmm7
  405eeb:	62 41 35 48 ef e6    	vpxord %zmm14,%zmm9,%zmm28
  405ef1:	62 53 15 40 25 f0 36 	vpternlogd $0x36,%zmm8,%zmm29,%zmm14
  405ef8:	62 13 15 40 25 c4 6a 	vpternlogd $0x6a,%zmm28,%zmm29,%zmm8
  405eff:	62 43 45 48 25 e6 6c 	vpternlogd $0x6c,%zmm14,%zmm7,%zmm28
  405f06:	62 d3 3d 48 25 fe 56 	vpternlogd $0x56,%zmm14,%zmm8,%zmm7
  405f0d:	62 61 45 48 ef ae c0 	vpxord 0x88c0(%rsi),%zmm7,%zmm29
  405f14:	88 00 00 
  405f17:	62 f1 7c 48 10 be 80 	vmovups 0x8780(%rsi),%zmm7
  405f1e:	87 00 00 
  405f21:	62 d3 35 48 25 fe 96 	vpternlogd $0x96,%zmm14,%zmm9,%zmm7
  405f28:	62 71 7c 48 10 4c 24 	vmovups 0xec0(%rsp),%zmm9
  405f2f:	3b 
  405f30:	62 f1 7c 48 11 7c 24 	vmovups %zmm7,0x1780(%rsp)
  405f37:	5e 
  405f38:	62 f1 7c 48 10 7c 24 	vmovups 0xac0(%rsp),%zmm7
  405f3f:	2b 
  405f40:	62 71 3d 48 ef 86 c0 	vpxord 0x83c0(%rsi),%zmm8,%zmm8
  405f47:	83 00 00 
  405f4a:	62 71 7c 48 11 44 24 	vmovups %zmm8,0x1740(%rsp)
  405f51:	5d 
  405f52:	62 51 7d 48 ef f1    	vpxord %zmm9,%zmm0,%zmm14
  405f58:	62 11 35 48 ef c7    	vpxord %zmm31,%zmm9,%zmm8
  405f5e:	62 31 05 40 ef c8    	vpxord %zmm16,%zmm31,%zmm9
  405f64:	62 c3 45 48 25 c6 36 	vpternlogd $0x36,%zmm14,%zmm7,%zmm16
  405f6b:	62 53 45 48 25 f1 6a 	vpternlogd $0x6a,%zmm9,%zmm7,%zmm14
  405f72:	62 33 3d 48 25 c8 6c 	vpternlogd $0x6c,%zmm16,%zmm8,%zmm9
  405f79:	62 33 0d 48 25 c0 56 	vpternlogd $0x56,%zmm16,%zmm14,%zmm8
  405f80:	62 f1 0d 48 ef be 00 	vpxord 0x9000(%rsi),%zmm14,%zmm7
  405f87:	90 00 00 
  405f8a:	62 71 3d 48 ef b6 00 	vpxord 0x9900(%rsi),%zmm8,%zmm14
  405f91:	99 00 00 
  405f94:	62 71 7c 48 10 86 c0 	vmovups 0x97c0(%rsi),%zmm8
  405f9b:	97 00 00 
  405f9e:	62 33 05 40 25 c0 96 	vpternlogd $0x96,%zmm16,%zmm31,%zmm8
  405fa5:	62 61 7c 48 10 7c 24 	vmovups 0xf00(%rsp),%zmm31
  405fac:	3c 
  405fad:	62 71 7c 48 11 44 24 	vmovups %zmm8,0x40(%rsp)
  405fb4:	01 
  405fb5:	62 71 35 48 ef 8e c0 	vpxord 0x9cc0(%rsi),%zmm9,%zmm9
  405fbc:	9c 00 00 
  405fbf:	62 71 7c 48 11 4c 24 	vmovups %zmm9,0x17c0(%rsp)
  405fc6:	5f 
  405fc7:	62 71 7c 48 10 4c 24 	vmovups 0xe00(%rsp),%zmm9
  405fce:	38 
  405fcf:	62 e1 75 40 ef 8e 40 	vpxord 0x8c40(%rsi),%zmm17,%zmm17
  405fd6:	8c 00 00 
  405fd9:	62 81 7d 48 ef c7    	vpxord %zmm31,%zmm0,%zmm16
  405fdf:	62 51 05 40 ef c2    	vpxord %zmm10,%zmm31,%zmm8
  405fe5:	62 21 2d 48 ef f9    	vpxord %zmm17,%zmm10,%zmm31
  405feb:	62 a3 35 48 25 c8 36 	vpternlogd $0x36,%zmm16,%zmm9,%zmm17
  405ff2:	62 83 35 48 25 c7 6a 	vpternlogd $0x6a,%zmm31,%zmm9,%zmm16
  405ff9:	62 23 3d 48 25 f9 6c 	vpternlogd $0x6c,%zmm17,%zmm8,%zmm31
  406000:	62 33 7d 40 25 c1 56 	vpternlogd $0x56,%zmm17,%zmm16,%zmm8
  406007:	62 71 7d 40 ef 8e 40 	vpxord 0x9040(%rsi),%zmm16,%zmm9
  40600e:	90 00 00 
  406011:	62 e1 3d 48 ef 86 40 	vpxord 0x9940(%rsi),%zmm8,%zmm16
  406018:	99 00 00 
  40601b:	62 71 05 40 ef 86 00 	vpxord 0x9d00(%rsi),%zmm31,%zmm8
  406022:	9d 00 00 
  406025:	62 71 7c 48 11 44 24 	vmovups %zmm8,0x1840(%rsp)
  40602c:	61 
  40602d:	62 71 7c 48 10 86 00 	vmovups 0x9400(%rsi),%zmm8
  406034:	94 00 00 
  406037:	62 e1 7c 48 11 44 24 	vmovups %zmm16,0x1800(%rsp)
  40603e:	60 
  40603f:	62 33 2d 48 25 c1 96 	vpternlogd $0x96,%zmm17,%zmm10,%zmm8
  406046:	62 71 7c 48 10 54 24 	vmovups 0xf80(%rsp),%zmm10
  40604d:	3e 
  40604e:	62 e1 7c 48 10 4c 24 	vmovups 0xe40(%rsp),%zmm17
  406055:	39 
  406056:	62 71 15 48 ef ae 80 	vpxord 0x8880(%rsi),%zmm13,%zmm13
  40605d:	88 00 00 
  406060:	62 61 1d 40 ef a6 80 	vpxord 0x8c80(%rsi),%zmm28,%zmm28
  406067:	8c 00 00 
  40606a:	62 c1 7d 48 ef c2    	vpxord %zmm10,%zmm0,%zmm16
  406070:	62 01 15 48 ef fc    	vpxord %zmm28,%zmm13,%zmm31
  406076:	62 23 75 40 25 e0 36 	vpternlogd $0x36,%zmm16,%zmm17,%zmm28
  40607d:	62 83 75 40 25 c7 6a 	vpternlogd $0x6a,%zmm31,%zmm17,%zmm16
  406084:	62 51 2d 48 ef d5    	vpxord %zmm13,%zmm10,%zmm10
  40608a:	62 03 2d 48 25 fc 6c 	vpternlogd $0x6c,%zmm28,%zmm10,%zmm31
  406091:	62 13 7d 40 25 d4 56 	vpternlogd $0x56,%zmm28,%zmm16,%zmm10
  406098:	62 71 2d 48 ef 96 80 	vpxord 0x9980(%rsi),%zmm10,%zmm10
  40609f:	99 00 00 
  4060a2:	62 71 7c 48 11 54 24 	vmovups %zmm10,0x1880(%rsp)
  4060a9:	62 
  4060aa:	62 71 7c 48 10 96 40 	vmovups 0x9440(%rsi),%zmm10
  4060b1:	94 00 00 
  4060b4:	62 13 15 48 25 d4 96 	vpternlogd $0x96,%zmm28,%zmm13,%zmm10
  4060bb:	62 61 7c 48 10 64 24 	vmovups 0xfc0(%rsp),%zmm28
  4060c2:	3f 
  4060c3:	62 61 05 40 ef be 40 	vpxord 0x9d40(%rsi),%zmm31,%zmm31
  4060ca:	9d 00 00 
  4060cd:	62 61 7c 48 11 7c 24 	vmovups %zmm31,0x18c0(%rsp)
  4060d4:	63 
  4060d5:	62 61 7c 48 10 7c 24 	vmovups 0xb80(%rsp),%zmm31
  4060dc:	2e 
  4060dd:	62 11 7d 48 ef ec    	vpxord %zmm28,%zmm0,%zmm13
  4060e3:	62 81 1d 40 ef cd    	vpxord %zmm29,%zmm28,%zmm17
  4060e9:	62 01 15 40 ef e1    	vpxord %zmm25,%zmm29,%zmm28
  4060ef:	62 43 05 40 25 cd 36 	vpternlogd $0x36,%zmm13,%zmm31,%zmm25
  4060f6:	62 13 05 40 25 ec 6a 	vpternlogd $0x6a,%zmm28,%zmm31,%zmm13
  4060fd:	62 61 7c 48 10 7c 24 	vmovups 0x1080(%rsp),%zmm31
  406104:	42 
  406105:	62 03 75 40 25 e1 6c 	vpternlogd $0x6c,%zmm25,%zmm17,%zmm28
  40610c:	62 83 15 48 25 c9 56 	vpternlogd $0x56,%zmm25,%zmm13,%zmm17
  406113:	62 71 15 48 ef ae c0 	vpxord 0x90c0(%rsi),%zmm13,%zmm13
  40611a:	90 00 00 
  40611d:	62 71 7c 48 11 6c 24 	vmovups %zmm13,0x340(%rsp)
  406124:	0d 
  406125:	62 71 75 40 ef ae c0 	vpxord 0x99c0(%rsi),%zmm17,%zmm13
  40612c:	99 00 00 
  40612f:	62 e1 7c 48 10 8e 80 	vmovups 0x9480(%rsi),%zmm17
  406136:	94 00 00 
  406139:	62 71 7c 48 11 6c 24 	vmovups %zmm13,0x1900(%rsp)
  406140:	64 
  406141:	62 83 15 40 25 c9 96 	vpternlogd $0x96,%zmm25,%zmm29,%zmm17
  406148:	62 61 7c 48 10 6c 24 	vmovups 0x1440(%rsp),%zmm29
  40614f:	51 
  406150:	62 61 1d 40 ef a6 80 	vpxord 0x9d80(%rsi),%zmm28,%zmm28
  406157:	9d 00 00 
  40615a:	62 61 7c 48 11 64 24 	vmovups %zmm28,0x1940(%rsp)
  406161:	65 
  406162:	62 01 7d 48 ef cf    	vpxord %zmm31,%zmm0,%zmm25
  406168:	62 01 05 40 ef e5    	vpxord %zmm29,%zmm31,%zmm28
  40616e:	62 61 7c 48 10 7c 24 	vmovups 0xbc0(%rsp),%zmm31
  406175:	2f 
  406176:	62 11 15 40 ef ee    	vpxord %zmm30,%zmm29,%zmm13
  40617c:	62 03 05 40 25 f1 36 	vpternlogd $0x36,%zmm25,%zmm31,%zmm30
  406183:	62 43 05 40 25 cd 6a 	vpternlogd $0x6a,%zmm13,%zmm31,%zmm25
  40618a:	62 13 1d 40 25 ee 6c 	vpternlogd $0x6c,%zmm30,%zmm28,%zmm13
  406191:	62 03 35 40 25 e6 56 	vpternlogd $0x56,%zmm30,%zmm25,%zmm28
  406198:	62 61 1d 40 ef a6 00 	vpxord 0x9a00(%rsi),%zmm28,%zmm28
  40619f:	9a 00 00 
  4061a2:	62 61 7c 48 11 64 24 	vmovups %zmm28,0x8c0(%rsp)
  4061a9:	23 
  4061aa:	62 61 15 48 ef a6 c0 	vpxord 0x9dc0(%rsi),%zmm13,%zmm28
  4061b1:	9d 00 00 
  4061b4:	62 71 7c 48 10 ae c0 	vmovups 0x94c0(%rsi),%zmm13
  4061bb:	94 00 00 
  4061be:	62 13 15 40 25 ee 96 	vpternlogd $0x96,%zmm30,%zmm29,%zmm13
  4061c5:	62 61 7c 48 10 74 24 	vmovups 0x1200(%rsp),%zmm30
  4061cc:	48 
  4061cd:	62 61 7c 48 10 6c 24 	vmovups 0xc00(%rsp),%zmm29
  4061d4:	30 
  4061d5:	62 71 7c 48 11 6c 24 	vmovups %zmm13,0x500(%rsp)
  4061dc:	14 
  4061dd:	62 61 35 40 ef 8e 00 	vpxord 0x9100(%rsi),%zmm25,%zmm25
  4061e4:	91 00 00 
  4061e7:	62 61 7c 48 11 4c 24 	vmovups %zmm25,0x380(%rsp)
  4061ee:	0e 
  4061ef:	62 61 7c 48 10 4c 24 	vmovups 0x11c0(%rsp),%zmm25
  4061f6:	47 
  4061f7:	62 01 7d 48 ef fe    	vpxord %zmm30,%zmm0,%zmm31
  4061fd:	62 11 0d 40 ef e9    	vpxord %zmm25,%zmm30,%zmm13
  406203:	62 41 35 40 ef f3    	vpxord %zmm11,%zmm25,%zmm30
  406209:	62 13 15 40 25 df 36 	vpternlogd $0x36,%zmm31,%zmm29,%zmm11
  406210:	62 03 15 40 25 fe 6a 	vpternlogd $0x6a,%zmm30,%zmm29,%zmm31
  406217:	62 43 15 48 25 f3 6c 	vpternlogd $0x6c,%zmm11,%zmm13,%zmm30
  40621e:	62 53 05 40 25 eb 56 	vpternlogd $0x56,%zmm11,%zmm31,%zmm13
  406225:	62 61 05 40 ef ae 40 	vpxord 0x9140(%rsi),%zmm31,%zmm29
  40622c:	91 00 00 
  40622f:	62 61 7c 48 10 be 00 	vmovups 0x9500(%rsi),%zmm31
  406236:	95 00 00 
  406239:	62 61 7c 48 11 6c 24 	vmovups %zmm29,0x3c0(%rsp)
  406240:	0f 
  406241:	62 43 35 40 25 fb 96 	vpternlogd $0x96,%zmm11,%zmm25,%zmm31
  406248:	62 71 7c 48 10 5c 24 	vmovups 0xf40(%rsp),%zmm11
  40624f:	3d 
  406250:	62 61 7c 48 11 7c 24 	vmovups %zmm31,0x800(%rsp)
  406257:	20 
  406258:	62 61 7c 48 10 7c 24 	vmovups 0xc40(%rsp),%zmm31
  40625f:	31 
  406260:	62 61 0d 40 ef b6 00 	vpxord 0x9e00(%rsi),%zmm30,%zmm30
  406267:	9e 00 00 
  40626a:	62 61 7c 48 11 74 24 	vmovups %zmm30,0x1980(%rsp)
  406271:	66 
  406272:	62 61 7c 48 10 74 24 	vmovups 0x1180(%rsp),%zmm30
  406279:	46 
  40627a:	62 41 7d 48 ef eb    	vpxord %zmm11,%zmm0,%zmm29
  406280:	62 01 25 48 ef ce    	vpxord %zmm30,%zmm11,%zmm25
  406286:	62 31 0d 40 ef da    	vpxord %zmm18,%zmm30,%zmm11
  40628c:	62 83 05 40 25 d5 36 	vpternlogd $0x36,%zmm29,%zmm31,%zmm18
  406293:	62 43 05 40 25 eb 6a 	vpternlogd $0x6a,%zmm11,%zmm31,%zmm29
  40629a:	62 61 7c 48 10 be 40 	vmovups 0x9540(%rsi),%zmm31
  4062a1:	95 00 00 
  4062a4:	62 33 35 40 25 da 6c 	vpternlogd $0x6c,%zmm18,%zmm25,%zmm11
  4062ab:	62 23 15 40 25 ca 56 	vpternlogd $0x56,%zmm18,%zmm29,%zmm25
  4062b2:	62 23 0d 40 25 fa 96 	vpternlogd $0x96,%zmm18,%zmm30,%zmm31
  4062b9:	62 e1 7c 48 10 54 24 	vmovups 0x1100(%rsp),%zmm18
  4062c0:	44 
  4062c1:	62 61 7c 48 11 7c 24 	vmovups %zmm31,0x840(%rsp)
  4062c8:	21 
  4062c9:	62 61 7c 48 10 7c 24 	vmovups 0xc80(%rsp),%zmm31
  4062d0:	32 
  4062d1:	62 61 15 40 ef ae 80 	vpxord 0x9180(%rsi),%zmm29,%zmm29
  4062d8:	91 00 00 
  4062db:	62 61 7c 48 11 6c 24 	vmovups %zmm29,0x400(%rsp)
  4062e2:	10 
  4062e3:	62 21 7d 48 ef ef    	vpxord %zmm23,%zmm0,%zmm29
  4062e9:	62 21 6d 40 ef f3    	vpxord %zmm19,%zmm18,%zmm30
  4062ef:	62 83 05 40 25 dd 36 	vpternlogd $0x36,%zmm29,%zmm31,%zmm19
  4062f6:	62 03 05 40 25 ee 6a 	vpternlogd $0x6a,%zmm30,%zmm31,%zmm29
  4062fd:	62 a1 45 40 ef fa    	vpxord %zmm18,%zmm23,%zmm23
  406303:	62 23 45 40 25 f3 6c 	vpternlogd $0x6c,%zmm19,%zmm23,%zmm30
  40630a:	62 a3 15 40 25 fb 56 	vpternlogd $0x56,%zmm19,%zmm29,%zmm23
  406311:	62 e1 45 40 ef be c0 	vpxord 0x9ac0(%rsi),%zmm23,%zmm23
  406318:	9a 00 00 
  40631b:	62 e1 7c 48 11 7c 24 	vmovups %zmm23,0x980(%rsp)
  406322:	26 
  406323:	62 e1 0d 40 ef be 80 	vpxord 0x9e80(%rsi),%zmm30,%zmm23
  40632a:	9e 00 00 
  40632d:	62 61 7c 48 10 b6 80 	vmovups 0x9580(%rsi),%zmm30
  406334:	95 00 00 
  406337:	62 23 6d 40 25 f3 96 	vpternlogd $0x96,%zmm19,%zmm18,%zmm30
  40633e:	62 e1 7c 48 10 54 24 	vmovups 0x1040(%rsp),%zmm18
  406345:	41 
  406346:	62 61 7c 48 11 74 24 	vmovups %zmm30,0x780(%rsp)
  40634d:	1e 
  40634e:	62 61 7c 48 10 b6 c0 	vmovups 0x95c0(%rsi),%zmm30
  406355:	95 00 00 
  406358:	62 61 15 40 ef ae c0 	vpxord 0x91c0(%rsi),%zmm29,%zmm29
  40635f:	91 00 00 
  406362:	62 61 7c 48 11 6c 24 	vmovups %zmm29,0x440(%rsp)
  406369:	11 
  40636a:	62 81 7d 48 ef d8    	vpxord %zmm24,%zmm0,%zmm19
  406370:	62 21 6d 40 ef ec    	vpxord %zmm20,%zmm18,%zmm29
  406376:	62 a3 25 40 25 e3 36 	vpternlogd $0x36,%zmm19,%zmm27,%zmm20
  40637d:	62 83 25 40 25 dd 6a 	vpternlogd $0x6a,%zmm29,%zmm27,%zmm19
  406384:	62 23 6d 40 25 f4 96 	vpternlogd $0x96,%zmm20,%zmm18,%zmm30
  40638b:	62 61 7c 48 11 74 24 	vmovups %zmm30,0x7c0(%rsp)
  406392:	1f 
  406393:	62 61 7c 48 10 b6 80 	vmovups 0x9680(%rsi),%zmm30
  40639a:	96 00 00 
  40639d:	62 21 3d 40 ef c2    	vpxord %zmm18,%zmm24,%zmm24
  4063a3:	62 61 65 40 ef 9e 00 	vpxord 0x9200(%rsi),%zmm19,%zmm27
  4063aa:	92 00 00 
  4063ad:	62 23 3d 40 25 ec 6c 	vpternlogd $0x6c,%zmm20,%zmm24,%zmm29
  4063b4:	62 23 65 40 25 c4 56 	vpternlogd $0x56,%zmm20,%zmm19,%zmm24
  4063bb:	62 e1 7c 48 10 5c 24 	vmovups 0x1000(%rsp),%zmm19
  4063c2:	40 
  4063c3:	62 61 7c 48 11 5c 24 	vmovups %zmm27,0x280(%rsp)
  4063ca:	0a 
  4063cb:	62 81 7d 48 ef e2    	vpxord %zmm26,%zmm0,%zmm20
  4063d1:	62 e1 65 40 ef d1    	vpxord %zmm1,%zmm19,%zmm18
  4063d7:	62 b3 55 40 25 cc 36 	vpternlogd $0x36,%zmm20,%zmm21,%zmm1
  4063de:	62 a3 55 40 25 e2 6a 	vpternlogd $0x6a,%zmm18,%zmm21,%zmm20
  4063e5:	62 61 3d 40 ef 9e 00 	vpxord 0x9b00(%rsi),%zmm24,%zmm27
  4063ec:	9b 00 00 
  4063ef:	62 61 15 40 ef 86 c0 	vpxord 0x9ec0(%rsi),%zmm29,%zmm24
  4063f6:	9e 00 00 
  4063f9:	62 61 7c 48 10 ae 00 	vmovups 0x9600(%rsi),%zmm29
  406400:	96 00 00 
  406403:	62 61 7c 48 11 5c 24 	vmovups %zmm27,0x6c0(%rsp)
  40640a:	1b 
  40640b:	62 63 65 40 25 e9 96 	vpternlogd $0x96,%zmm1,%zmm19,%zmm29
  406412:	62 61 7c 48 11 6c 24 	vmovups %zmm29,0x880(%rsp)
  406419:	22 
  40641a:	62 61 7c 48 10 6c 24 	vmovups 0x1140(%rsp),%zmm29
  406421:	45 
  406422:	62 21 2d 40 ef d3    	vpxord %zmm19,%zmm26,%zmm26
  406428:	62 e3 2d 40 25 d1 6c 	vpternlogd $0x6c,%zmm1,%zmm26,%zmm18
  40642f:	62 63 5d 40 25 d1 56 	vpternlogd $0x56,%zmm1,%zmm20,%zmm26
  406436:	62 e1 7c 48 10 9e 40 	vmovups 0x9640(%rsi),%zmm19
  40643d:	96 00 00 
  406440:	62 e1 2d 40 ef ae 40 	vpxord 0x9b40(%rsi),%zmm26,%zmm21
  406447:	9b 00 00 
  40644a:	62 61 7c 48 10 54 24 	vmovups 0x10c0(%rsp),%zmm26
  406451:	43 
  406452:	62 e1 7c 48 11 6c 24 	vmovups %zmm21,0x540(%rsp)
  406459:	15 
  40645a:	62 f1 6d 48 ef 96 80 	vpxord 0x8280(%rsi),%zmm2,%zmm2
  406461:	82 00 00 
  406464:	62 f1 7d 48 ef cb    	vpxord %zmm3,%zmm0,%zmm1
  40646a:	62 a1 2d 40 ef ee    	vpxord %zmm22,%zmm26,%zmm21
  406470:	62 e3 6d 48 25 f1 36 	vpternlogd $0x36,%zmm1,%zmm2,%zmm22
  406477:	62 b3 6d 48 25 cd 6a 	vpternlogd $0x6a,%zmm21,%zmm2,%zmm1
  40647e:	62 a3 2d 40 25 de 96 	vpternlogd $0x96,%zmm22,%zmm26,%zmm19
  406485:	62 e1 7c 48 11 5c 24 	vmovups %zmm19,0x900(%rsp)
  40648c:	24 
  40648d:	62 e1 7c 48 10 5c 24 	vmovups 0x9c0(%rsp),%zmm19
  406494:	27 
  406495:	62 61 5d 40 ef 9e 40 	vpxord 0x9240(%rsi),%zmm20,%zmm27
  40649c:	92 00 00 
  40649f:	62 61 7c 48 11 5c 24 	vmovups %zmm27,0x100(%rsp)
  4064a6:	04 
  4064a7:	62 91 65 48 ef da    	vpxord %zmm26,%zmm3,%zmm3
  4064ad:	62 61 6d 40 ef 9e 00 	vpxord 0x9f00(%rsi),%zmm18,%zmm27
  4064b4:	9f 00 00 
  4064b7:	62 a3 65 48 25 ee 6c 	vpternlogd $0x6c,%zmm22,%zmm3,%zmm21
  4064be:	62 b3 75 48 25 de 56 	vpternlogd $0x56,%zmm22,%zmm1,%zmm3
  4064c5:	62 e1 7d 48 ef f5    	vpxord %zmm5,%zmm0,%zmm22
  4064cb:	62 e1 15 40 ef d4    	vpxord %zmm4,%zmm29,%zmm18
  4064d1:	62 b3 1d 48 25 e6 36 	vpternlogd $0x36,%zmm22,%zmm12,%zmm4
  4064d8:	62 a3 1d 48 25 f2 6a 	vpternlogd $0x6a,%zmm18,%zmm12,%zmm22
  4064df:	62 63 15 40 25 f4 96 	vpternlogd $0x96,%zmm4,%zmm29,%zmm30
  4064e6:	62 61 7c 48 11 74 24 	vmovups %zmm30,0x600(%rsp)
  4064ed:	18 
  4064ee:	62 71 4d 40 ef a6 c0 	vpxord 0x92c0(%rsi),%zmm22,%zmm12
  4064f5:	92 00 00 
  4064f8:	62 71 7c 48 11 64 24 	vmovups %zmm12,0x180(%rsp)
  4064ff:	06 
  406500:	62 71 7c 48 10 64 24 	vmovups 0x14c0(%rsp),%zmm12
  406507:	53 
  406508:	62 91 55 48 ef ed    	vpxord %zmm29,%zmm5,%zmm5
  40650e:	62 e3 55 48 25 d4 6c 	vpternlogd $0x6c,%zmm4,%zmm5,%zmm18
  406515:	62 f3 4d 40 25 ec 56 	vpternlogd $0x56,%zmm4,%zmm22,%zmm5
  40651c:	62 f1 7c 48 10 64 24 	vmovups 0x1600(%rsp),%zmm4
  406523:	58 
  406524:	62 61 7c 48 10 6c 24 	vmovups 0x16c0(%rsp),%zmm29
  40652b:	5b 
  40652c:	62 f1 75 48 ef 96 80 	vpxord 0x9280(%rsi),%zmm1,%zmm2
  406533:	92 00 00 
  406536:	62 f1 65 48 ef 8e 80 	vpxord 0x9b80(%rsi),%zmm3,%zmm1
  40653d:	9b 00 00 
  406540:	62 f1 7c 48 11 4c 24 	vmovups %zmm1,0x580(%rsp)
  406547:	16 
  406548:	62 f1 7c 48 11 54 24 	vmovups %zmm2,0x140(%rsp)
  40654f:	05 
  406550:	62 41 7d 48 ef ff    	vpxord %zmm15,%zmm0,%zmm31
  406556:	62 d1 4d 48 ef cc    	vpxord %zmm12,%zmm6,%zmm1
  40655c:	62 13 5d 48 25 e7 36 	vpternlogd $0x36,%zmm31,%zmm4,%zmm12
  406563:	62 63 5d 48 25 f9 6a 	vpternlogd $0x6a,%zmm1,%zmm4,%zmm31
  40656a:	62 e1 55 48 ef a6 c0 	vpxord 0x9bc0(%rsi),%zmm5,%zmm20
  406571:	9b 00 00 
  406574:	62 f1 7c 48 10 ae c0 	vmovups 0x96c0(%rsi),%zmm5
  40657b:	96 00 00 
  40657e:	62 e1 7c 48 11 64 24 	vmovups %zmm20,0x5c0(%rsp)
  406585:	17 
  406586:	62 e1 7c 48 10 64 24 	vmovups 0x1540(%rsp),%zmm20
  40658d:	55 
  40658e:	62 d3 4d 48 25 ec 96 	vpternlogd $0x96,%zmm12,%zmm6,%zmm5
  406595:	62 f1 7c 48 11 6c 24 	vmovups %zmm5,0x740(%rsp)
  40659c:	1d 
  40659d:	62 e1 05 48 ef f6    	vpxord %zmm6,%zmm15,%zmm22
  4065a3:	62 d3 4d 40 25 cc 6c 	vpternlogd $0x6c,%zmm12,%zmm22,%zmm1
  4065aa:	62 c3 05 40 25 f4 56 	vpternlogd $0x56,%zmm12,%zmm31,%zmm22
  4065b1:	62 f1 7c 48 10 74 24 	vmovups 0x1700(%rsp),%zmm6
  4065b8:	5c 
  4065b9:	62 61 4d 40 ef 96 00 	vpxord 0x9800(%rsi),%zmm22,%zmm26
  4065c0:	98 00 00 
  4065c3:	62 e1 75 48 ef b6 c0 	vpxord 0x9fc0(%rsi),%zmm1,%zmm22
  4065ca:	9f 00 00 
  4065cd:	62 f1 7c 48 10 4c 24 	vmovups 0x1680(%rsp),%zmm1
  4065d4:	5a 
  4065d5:	62 71 05 40 ef be 00 	vpxord 0x9300(%rsi),%zmm31,%zmm15
  4065dc:	93 00 00 
  4065df:	62 71 7c 48 11 7c 24 	vmovups %zmm15,0x1c0(%rsp)
  4065e6:	07 
  4065e7:	62 71 7d 48 ef e6    	vpxord %zmm6,%zmm0,%zmm12
  4065ed:	62 31 65 40 ef fc    	vpxord %zmm20,%zmm19,%zmm15
  4065f3:	62 c3 75 48 25 e4 36 	vpternlogd $0x36,%zmm12,%zmm1,%zmm20
  4065fa:	62 53 75 48 25 e7 6a 	vpternlogd $0x6a,%zmm15,%zmm1,%zmm12
  406601:	62 b1 4d 48 ef e3    	vpxord %zmm19,%zmm6,%zmm4
  406607:	62 33 5d 48 25 fc 6c 	vpternlogd $0x6c,%zmm20,%zmm4,%zmm15
  40660e:	62 b3 1d 48 25 e4 56 	vpternlogd $0x56,%zmm20,%zmm12,%zmm4
  406615:	62 f1 7c 48 10 74 24 	vmovups 0x1780(%rsp),%zmm6
  40661c:	5e 
  40661d:	62 f1 6d 40 ef 9e 80 	vpxord 0x9f80(%rsi),%zmm18,%zmm3
  406624:	9f 00 00 
  406627:	62 e1 7c 48 10 96 00 	vmovups 0x9700(%rsi),%zmm18
  40662e:	97 00 00 
  406631:	62 a3 65 40 25 d4 96 	vpternlogd $0x96,%zmm20,%zmm19,%zmm18
  406638:	62 e1 7c 48 10 9e 40 	vmovups 0x9740(%rsi),%zmm19
  40663f:	97 00 00 
  406642:	62 e1 7c 48 10 64 24 	vmovups 0xa40(%rsp),%zmm20
  406649:	29 
  40664a:	62 e1 7c 48 11 54 24 	vmovups %zmm18,0x940(%rsp)
  406651:	25 
  406652:	62 e1 7c 48 10 54 24 	vmovups 0x1740(%rsp),%zmm18
  406659:	5d 
  40665a:	62 f1 1d 48 ef ae 40 	vpxord 0x9340(%rsi),%zmm12,%zmm5
  406661:	93 00 00 
  406664:	62 f1 55 40 ef 96 40 	vpxord 0x9f40(%rsi),%zmm21,%zmm2
  40666b:	9f 00 00 
  40666e:	62 f1 7c 48 11 6c 24 	vmovups %zmm5,0x200(%rsp)
  406675:	08 
  406676:	62 f1 7c 48 10 6c 24 	vmovups 0x1500(%rsp),%zmm5
  40667d:	54 
  40667e:	62 e1 5d 48 ef ae 40 	vpxord 0x9840(%rsi),%zmm4,%zmm21
  406685:	98 00 00 
  406688:	62 f1 7c 48 10 64 24 	vmovups 0x15c0(%rsp),%zmm4
  40668f:	57 
  406690:	62 61 7d 48 ef f6    	vpxord %zmm6,%zmm0,%zmm30
  406696:	62 71 55 48 ef e4    	vpxord %zmm4,%zmm5,%zmm12
  40669c:	62 93 15 40 25 e6 36 	vpternlogd $0x36,%zmm30,%zmm29,%zmm4
  4066a3:	62 43 15 40 25 f4 6a 	vpternlogd $0x6a,%zmm12,%zmm29,%zmm30
  4066aa:	62 e3 55 48 25 dc 96 	vpternlogd $0x96,%zmm4,%zmm5,%zmm19
  4066b1:	62 e1 7c 48 11 5c 24 	vmovups %zmm19,0x640(%rsp)
  4066b8:	19 
  4066b9:	62 e1 7c 48 10 5c 24 	vmovups 0x1580(%rsp),%zmm19
  4066c0:	56 
  4066c1:	62 f1 4d 48 ef cd    	vpxord %zmm5,%zmm6,%zmm1
  4066c7:	62 73 75 48 25 e4 6c 	vpternlogd $0x6c,%zmm4,%zmm1,%zmm12
  4066ce:	62 f3 0d 40 25 cc 56 	vpternlogd $0x56,%zmm4,%zmm30,%zmm1
  4066d5:	62 f1 7c 48 10 a6 80 	vmovups 0x9780(%rsi),%zmm4
  4066dc:	97 00 00 
  4066df:	62 f1 1d 48 ef b6 40 	vpxord 0x9c40(%rsi),%zmm12,%zmm6
  4066e6:	9c 00 00 
  4066e9:	62 21 7d 48 ef ec    	vpxord %zmm20,%zmm0,%zmm29
  4066ef:	62 31 5d 40 ef e3    	vpxord %zmm19,%zmm20,%zmm12
  4066f5:	62 e1 7c 48 10 64 24 	vmovups 0x1640(%rsp),%zmm20
  4066fc:	59 
  4066fd:	62 b1 65 40 ef ec    	vpxord %zmm20,%zmm19,%zmm5
  406703:	62 83 6d 40 25 e5 36 	vpternlogd $0x36,%zmm29,%zmm18,%zmm20
  40670a:	62 63 6d 40 25 ed 6a 	vpternlogd $0x6a,%zmm5,%zmm18,%zmm29
  406711:	62 b3 65 40 25 e4 96 	vpternlogd $0x96,%zmm20,%zmm19,%zmm4
  406718:	62 b3 1d 48 25 ec 6c 	vpternlogd $0x6c,%zmm20,%zmm12,%zmm5
  40671f:	62 33 15 40 25 e4 56 	vpternlogd $0x56,%zmm20,%zmm29,%zmm12
  406726:	62 f1 7c 48 11 64 24 	vmovups %zmm4,0x480(%rsp)
  40672d:	12 
  40672e:	62 e1 7c 48 10 64 24 	vmovups 0x17c0(%rsp),%zmm20
  406735:	5f 
  406736:	62 71 05 48 ef be 00 	vpxord 0x9c00(%rsi),%zmm15,%zmm15
  40673d:	9c 00 00 
  406740:	62 c1 7d 48 ef d0    	vpxord %zmm8,%zmm0,%zmm18
  406746:	62 c1 2d 40 ef df    	vpxord %zmm15,%zmm26,%zmm19
  40674c:	62 33 45 48 25 fa 36 	vpternlogd $0x36,%zmm18,%zmm7,%zmm15
  406753:	62 a3 45 48 25 d3 6a 	vpternlogd $0x6a,%zmm19,%zmm7,%zmm18
  40675a:	62 f1 6d 40 ef be 00 	vpxord 0xa000(%rsi),%zmm18,%zmm7
  406761:	a0 00 00 
  406764:	62 f1 7c 48 11 7c 24 	vmovups %zmm7,0xc0(%rsp)
  40676b:	03 
  40676c:	62 f1 7c 48 10 be c0 	vmovups 0xa7c0(%rsi),%zmm7
  406773:	a7 00 00 
  406776:	62 d3 2d 40 25 ff 96 	vpternlogd $0x96,%zmm15,%zmm26,%zmm7
  40677d:	62 f1 7c 48 11 3c 24 	vmovups %zmm7,(%rsp)
  406784:	62 11 3d 48 ef c2    	vpxord %zmm26,%zmm8,%zmm8
  40678a:	62 c3 3d 48 25 df 6c 	vpternlogd $0x6c,%zmm15,%zmm8,%zmm19
  406791:	62 53 6d 40 25 c7 56 	vpternlogd $0x56,%zmm15,%zmm18,%zmm8
  406798:	62 f1 3d 48 ef a6 00 	vpxord 0xa900(%rsi),%zmm8,%zmm4
  40679f:	a9 00 00 
  4067a2:	62 71 7c 48 10 86 00 	vmovups 0xa400(%rsi),%zmm8
  4067a9:	a4 00 00 
  4067ac:	62 f1 7c 48 11 64 24 	vmovups %zmm4,0x680(%rsp)
  4067b3:	1a 
  4067b4:	62 51 7d 48 ef fa    	vpxord %zmm10,%zmm0,%zmm15
  4067ba:	62 f1 55 40 ef fe    	vpxord %zmm6,%zmm21,%zmm7
  4067c0:	62 d3 35 48 25 f7 36 	vpternlogd $0x36,%zmm15,%zmm9,%zmm6
  4067c7:	62 73 35 48 25 ff 6a 	vpternlogd $0x6a,%zmm7,%zmm9,%zmm15
  4067ce:	62 73 55 40 25 c6 96 	vpternlogd $0x96,%zmm6,%zmm21,%zmm8
  4067d5:	62 71 7c 48 11 44 24 	vmovups %zmm8,0x4c0(%rsp)
  4067dc:	13 
  4067dd:	62 f1 75 48 ef 8e 80 	vpxord 0x9880(%rsi),%zmm1,%zmm1
  4067e4:	98 00 00 
  4067e7:	62 f1 55 48 ef ae 80 	vpxord 0x9c80(%rsi),%zmm5,%zmm5
  4067ee:	9c 00 00 
  4067f1:	62 31 2d 48 ef d5    	vpxord %zmm21,%zmm10,%zmm10
  4067f7:	62 e1 7d 40 ef 86 80 	vpxord 0x9080(%rsi),%zmm16,%zmm16
  4067fe:	90 00 00 
  406801:	62 f3 2d 48 25 fe 6c 	vpternlogd $0x6c,%zmm6,%zmm10,%zmm7
  406808:	62 73 05 48 25 d6 56 	vpternlogd $0x56,%zmm6,%zmm15,%zmm10
  40680f:	62 b1 7d 48 ef f1    	vpxord %zmm17,%zmm0,%zmm6
  406815:	62 e1 75 48 ef d5    	vpxord %zmm5,%zmm1,%zmm18
  40681b:	62 f3 7d 40 25 ee 36 	vpternlogd $0x36,%zmm6,%zmm16,%zmm5
  406822:	62 b3 7d 40 25 f2 6a 	vpternlogd $0x6a,%zmm18,%zmm16,%zmm6
  406829:	62 71 05 48 ef 8e 40 	vpxord 0xa040(%rsi),%zmm15,%zmm9
  406830:	a0 00 00 
  406833:	62 61 0d 40 ef be 80 	vpxord 0x9380(%rsi),%zmm30,%zmm31
  40683a:	93 00 00 
  40683d:	62 71 2d 48 ef be 40 	vpxord 0xa940(%rsi),%zmm10,%zmm15
  406844:	a9 00 00 
  406847:	62 61 15 40 ef b6 c0 	vpxord 0x93c0(%rsi),%zmm29,%zmm30
  40684e:	93 00 00 
  406851:	62 e1 4d 48 ef 86 80 	vpxord 0xa080(%rsi),%zmm6,%zmm16
  406858:	a0 00 00 
  40685b:	62 71 7c 48 11 7c 24 	vmovups %zmm15,0x700(%rsp)
  406862:	1c 
  406863:	62 61 7c 48 11 74 24 	vmovups %zmm30,0x80(%rsp)
  40686a:	02 
  40686b:	62 71 7c 48 11 4c 24 	vmovups %zmm9,0x2c0(%rsp)
  406872:	0b 
  406873:	62 e1 7c 48 11 44 24 	vmovups %zmm16,0x300(%rsp)
  40687a:	0c 
  40687b:	62 61 7c 48 11 7c 24 	vmovups %zmm31,0x240(%rsp)
  406882:	09 
  406883:	62 e1 7c 48 10 44 24 	vmovups 0x1840(%rsp),%zmm16
  40688a:	61 
  40688b:	62 71 7c 48 10 4c 24 	vmovups 0x1940(%rsp),%zmm9
  406892:	65 
  406893:	62 61 7c 48 10 74 24 	vmovups 0x1900(%rsp),%zmm30
  40689a:	64 
  40689b:	62 71 7c 48 10 54 24 	vmovups 0x1980(%rsp),%zmm10
  4068a2:	66 
  4068a3:	62 f1 65 40 ef a6 c0 	vpxord 0xacc0(%rsi),%zmm19,%zmm4
  4068aa:	ac 00 00 
  4068ad:	62 71 45 48 ef be 00 	vpxord 0xad00(%rsi),%zmm7,%zmm15
  4068b4:	ad 00 00 
  4068b7:	62 71 75 40 ef c1    	vpxord %zmm1,%zmm17,%zmm8
  4068bd:	62 71 15 48 ef ae 40 	vpxord 0x9a40(%rsi),%zmm13,%zmm13
  4068c4:	9a 00 00 
  4068c7:	62 61 35 40 ef 8e 80 	vpxord 0x9a80(%rsi),%zmm25,%zmm25
  4068ce:	9a 00 00 
  4068d1:	62 71 25 48 ef 9e 40 	vpxord 0x9e40(%rsi),%zmm11,%zmm11
  4068d8:	9e 00 00 
  4068db:	62 71 1d 48 ef a6 c0 	vpxord 0x98c0(%rsi),%zmm12,%zmm12
  4068e2:	98 00 00 
  4068e5:	62 e3 3d 48 25 d5 6c 	vpternlogd $0x6c,%zmm5,%zmm8,%zmm18
  4068ec:	62 73 4d 48 25 c5 56 	vpternlogd $0x56,%zmm5,%zmm6,%zmm8
  4068f3:	62 e1 7c 48 10 4c 24 	vmovups 0x1800(%rsp),%zmm17
  4068fa:	60 
  4068fb:	62 e1 7c 48 10 5c 24 	vmovups 0x18c0(%rsp),%zmm19
  406902:	63 
  406903:	62 f1 7c 48 10 7c 24 	vmovups 0x1880(%rsp),%zmm7
  40690a:	62 
  40690b:	62 61 7c 48 10 96 40 	vmovups 0xa440(%rsi),%zmm26
  406912:	a4 00 00 
  406915:	62 61 7c 48 10 7c 24 	vmovups 0x800(%rsp),%zmm31
  40691c:	20 
  40691d:	62 63 75 48 25 d5 96 	vpternlogd $0x96,%zmm5,%zmm1,%zmm26
  406924:	62 f1 7c 48 10 4c 24 	vmovups 0x500(%rsp),%zmm1
  40692b:	14 
  40692c:	62 f1 7c 48 10 6c 24 	vmovups 0x340(%rsp),%zmm5
  406933:	0d 
  406934:	62 f1 3d 48 ef b6 80 	vpxord 0xa980(%rsi),%zmm8,%zmm6
  40693b:	a9 00 00 
  40693e:	62 71 7d 48 ef c1    	vpxord %zmm1,%zmm0,%zmm8
  406944:	62 21 1d 48 ef ec    	vpxord %zmm20,%zmm12,%zmm29
  40694a:	62 c3 55 48 25 e0 36 	vpternlogd $0x36,%zmm8,%zmm5,%zmm20
  406951:	62 13 55 48 25 c5 6a 	vpternlogd $0x6a,%zmm29,%zmm5,%zmm8
  406958:	62 c1 75 48 ef ec    	vpxord %zmm12,%zmm1,%zmm21
  40695e:	62 23 55 40 25 ec 6c 	vpternlogd $0x6c,%zmm20,%zmm21,%zmm29
  406965:	62 a3 3d 48 25 ec 56 	vpternlogd $0x56,%zmm20,%zmm8,%zmm21
  40696c:	62 f1 3d 48 ef 8e c0 	vpxord 0xa0c0(%rsi),%zmm8,%zmm1
  406973:	a0 00 00 
  406976:	62 71 55 40 ef 86 c0 	vpxord 0xa9c0(%rsi),%zmm21,%zmm8
  40697d:	a9 00 00 
  406980:	62 e1 7c 48 10 ae 80 	vmovups 0xa480(%rsi),%zmm21
  406987:	a4 00 00 
  40698a:	62 a3 1d 48 25 ec 96 	vpternlogd $0x96,%zmm20,%zmm12,%zmm21
  406991:	62 f1 15 40 ef ae 80 	vpxord 0xad80(%rsi),%zmm29,%zmm5
  406998:	ad 00 00 
  40699b:	62 11 7d 48 ef e7    	vpxord %zmm31,%zmm0,%zmm12
  4069a1:	62 41 05 40 ef ee    	vpxord %zmm14,%zmm31,%zmm29
  4069a7:	62 61 7c 48 10 7c 24 	vmovups 0x380(%rsp),%zmm31
  4069ae:	0e 
  4069af:	62 a1 0d 48 ef e0    	vpxord %zmm16,%zmm14,%zmm20
  4069b5:	62 c3 05 40 25 c4 36 	vpternlogd $0x36,%zmm12,%zmm31,%zmm16
  4069bc:	62 33 05 40 25 e4 6a 	vpternlogd $0x6a,%zmm20,%zmm31,%zmm12
  4069c3:	62 61 7c 48 10 7c 24 	vmovups 0x3c0(%rsp),%zmm31
  4069ca:	0f 
  4069cb:	62 a3 15 40 25 e0 6c 	vpternlogd $0x6c,%zmm16,%zmm29,%zmm20
  4069d2:	62 23 1d 48 25 e8 56 	vpternlogd $0x56,%zmm16,%zmm12,%zmm29
  4069d9:	62 61 15 40 ef ae 00 	vpxord 0xaa00(%rsi),%zmm29,%zmm29
  4069e0:	aa 00 00 
  4069e3:	62 61 7c 48 11 6c 24 	vmovups %zmm29,0x1340(%rsp)
  4069ea:	4d 
  4069eb:	62 61 7c 48 10 ae c0 	vmovups 0xa4c0(%rsi),%zmm29
  4069f2:	a4 00 00 
  4069f5:	62 23 0d 48 25 e8 96 	vpternlogd $0x96,%zmm16,%zmm14,%zmm29
  4069fc:	62 71 7c 48 10 74 24 	vmovups 0x840(%rsp),%zmm14
  406a03:	21 
  406a04:	62 e1 5d 40 ef a6 c0 	vpxord 0xadc0(%rsi),%zmm20,%zmm20
  406a0b:	ad 00 00 
  406a0e:	62 e1 7c 48 11 64 24 	vmovups %zmm20,0x1380(%rsp)
  406a15:	4e 
  406a16:	62 c1 7d 48 ef c6    	vpxord %zmm14,%zmm0,%zmm16
  406a1c:	62 a1 75 40 ef e3    	vpxord %zmm19,%zmm17,%zmm20
  406a22:	62 a3 05 40 25 d8 36 	vpternlogd $0x36,%zmm16,%zmm31,%zmm19
  406a29:	62 a3 05 40 25 c4 6a 	vpternlogd $0x6a,%zmm20,%zmm31,%zmm16
  406a30:	62 61 7c 48 10 7c 24 	vmovups 0x400(%rsp),%zmm31
  406a37:	10 
  406a38:	62 31 0d 48 ef f1    	vpxord %zmm17,%zmm14,%zmm14
  406a3e:	62 a3 0d 48 25 e3 6c 	vpternlogd $0x6c,%zmm19,%zmm14,%zmm20
  406a45:	62 33 7d 40 25 f3 56 	vpternlogd $0x56,%zmm19,%zmm16,%zmm14
  406a4c:	62 71 0d 48 ef b6 40 	vpxord 0xaa40(%rsi),%zmm14,%zmm14
  406a53:	aa 00 00 
  406a56:	62 71 7c 48 11 74 24 	vmovups %zmm14,0x13c0(%rsp)
  406a5d:	4f 
  406a5e:	62 71 7c 48 10 b6 00 	vmovups 0xa500(%rsi),%zmm14
  406a65:	a5 00 00 
  406a68:	62 33 75 40 25 f3 96 	vpternlogd $0x96,%zmm19,%zmm17,%zmm14
  406a6f:	62 e1 7c 48 10 4c 24 	vmovups 0x780(%rsp),%zmm17
  406a76:	1e 
  406a77:	62 e1 5d 40 ef a6 00 	vpxord 0xae00(%rsi),%zmm20,%zmm20
  406a7e:	ae 00 00 
  406a81:	62 e1 7c 48 11 64 24 	vmovups %zmm20,0x1400(%rsp)
  406a88:	50 
  406a89:	62 a1 7d 48 ef d9    	vpxord %zmm17,%zmm0,%zmm19
  406a8f:	62 c1 45 48 ef e1    	vpxord %zmm9,%zmm7,%zmm20
  406a95:	62 33 05 40 25 cb 36 	vpternlogd $0x36,%zmm19,%zmm31,%zmm9
  406a9c:	62 a3 05 40 25 dc 6a 	vpternlogd $0x6a,%zmm20,%zmm31,%zmm19
  406aa3:	62 61 7c 48 10 7c 24 	vmovups 0x440(%rsp),%zmm31
  406aaa:	11 
  406aab:	62 e1 75 40 ef cf    	vpxord %zmm7,%zmm17,%zmm17
  406ab1:	62 c3 75 40 25 e1 6c 	vpternlogd $0x6c,%zmm9,%zmm17,%zmm20
  406ab8:	62 c3 65 40 25 c9 56 	vpternlogd $0x56,%zmm9,%zmm19,%zmm17
  406abf:	62 e1 75 40 ef 8e 80 	vpxord 0xaa80(%rsi),%zmm17,%zmm17
  406ac6:	aa 00 00 
  406ac9:	62 e1 7c 48 11 4c 24 	vmovups %zmm17,0x1440(%rsp)
  406ad0:	51 
  406ad1:	62 e1 7c 48 10 8e 40 	vmovups 0xa540(%rsi),%zmm17
  406ad8:	a5 00 00 
  406adb:	62 c3 45 48 25 c9 96 	vpternlogd $0x96,%zmm9,%zmm7,%zmm17
  406ae2:	62 f1 7c 48 10 7c 24 	vmovups 0x7c0(%rsp),%zmm7
  406ae9:	1f 
  406aea:	62 e1 5d 40 ef a6 40 	vpxord 0xae40(%rsi),%zmm20,%zmm20
  406af1:	ae 00 00 
  406af4:	62 e1 7c 48 11 64 24 	vmovups %zmm20,0x1480(%rsp)
  406afb:	52 
  406afc:	62 71 7d 48 ef cf    	vpxord %zmm7,%zmm0,%zmm9
  406b02:	62 81 45 48 ef e6    	vpxord %zmm30,%zmm7,%zmm20
  406b08:	62 91 0d 40 ef fc    	vpxord %zmm28,%zmm30,%zmm7
  406b0e:	62 43 05 40 25 e1 36 	vpternlogd $0x36,%zmm9,%zmm31,%zmm28
  406b15:	62 73 05 40 25 cf 6a 	vpternlogd $0x6a,%zmm7,%zmm31,%zmm9
  406b1c:	62 61 7c 48 10 7c 24 	vmovups 0x280(%rsp),%zmm31
  406b23:	0a 
  406b24:	62 93 5d 40 25 fc 6c 	vpternlogd $0x6c,%zmm28,%zmm20,%zmm7
  406b2b:	62 83 35 48 25 e4 56 	vpternlogd $0x56,%zmm28,%zmm9,%zmm20
  406b32:	62 71 35 48 ef 8e c0 	vpxord 0xa1c0(%rsi),%zmm9,%zmm9
  406b39:	a1 00 00 
  406b3c:	62 71 7c 48 11 4c 24 	vmovups %zmm9,0x14c0(%rsp)
  406b43:	53 
  406b44:	62 71 5d 40 ef 8e c0 	vpxord 0xaac0(%rsi),%zmm20,%zmm9
  406b4b:	aa 00 00 
  406b4e:	62 e1 7c 48 10 a6 80 	vmovups 0xa580(%rsi),%zmm20
  406b55:	a5 00 00 
  406b58:	62 71 7c 48 11 4c 24 	vmovups %zmm9,0x1500(%rsp)
  406b5f:	54 
  406b60:	62 83 0d 40 25 e4 96 	vpternlogd $0x96,%zmm28,%zmm30,%zmm20
  406b67:	62 61 7c 48 10 74 24 	vmovups 0x880(%rsp),%zmm30
  406b6e:	22 
  406b6f:	62 61 7c 48 10 64 24 	vmovups 0x8c0(%rsp),%zmm28
  406b76:	23 
  406b77:	62 f1 45 48 ef be 80 	vpxord 0xae80(%rsi),%zmm7,%zmm7
  406b7e:	ae 00 00 
  406b81:	62 f1 7c 48 11 7c 24 	vmovups %zmm7,0x1540(%rsp)
  406b88:	55 
  406b89:	62 11 7d 48 ef ce    	vpxord %zmm30,%zmm0,%zmm9
  406b8f:	62 91 0d 40 ef fc    	vpxord %zmm28,%zmm30,%zmm7
  406b95:	62 41 1d 40 ef f2    	vpxord %zmm10,%zmm28,%zmm30
  406b9b:	62 53 05 40 25 d1 36 	vpternlogd $0x36,%zmm9,%zmm31,%zmm10
  406ba2:	62 13 05 40 25 ce 6a 	vpternlogd $0x6a,%zmm30,%zmm31,%zmm9
  406ba9:	62 43 45 48 25 f2 6c 	vpternlogd $0x6c,%zmm10,%zmm7,%zmm30
  406bb0:	62 d3 35 48 25 fa 56 	vpternlogd $0x56,%zmm10,%zmm9,%zmm7
  406bb7:	62 f1 45 48 ef be 00 	vpxord 0xab00(%rsi),%zmm7,%zmm7
  406bbe:	ab 00 00 
  406bc1:	62 f1 7c 48 11 7c 24 	vmovups %zmm7,0x1580(%rsp)
  406bc8:	56 
  406bc9:	62 f1 7c 48 10 be c0 	vmovups 0xa5c0(%rsi),%zmm7
  406bd0:	a5 00 00 
  406bd3:	62 d3 1d 40 25 fa 96 	vpternlogd $0x96,%zmm10,%zmm28,%zmm7
  406bda:	62 71 7c 48 10 54 24 	vmovups 0x900(%rsp),%zmm10
  406be1:	24 
  406be2:	62 61 7c 48 10 64 24 	vmovups 0x100(%rsp),%zmm28
  406be9:	04 
  406bea:	62 61 0d 40 ef b6 c0 	vpxord 0xaec0(%rsi),%zmm30,%zmm30
  406bf1:	ae 00 00 
  406bf4:	62 61 7c 48 11 74 24 	vmovups %zmm30,0x15c0(%rsp)
  406bfb:	57 
  406bfc:	62 41 7d 48 ef fa    	vpxord %zmm10,%zmm0,%zmm31
  406c02:	62 41 15 48 ef f3    	vpxord %zmm11,%zmm13,%zmm30
  406c08:	62 13 1d 40 25 df 36 	vpternlogd $0x36,%zmm31,%zmm28,%zmm11
  406c0f:	62 03 1d 40 25 fe 6a 	vpternlogd $0x6a,%zmm30,%zmm28,%zmm31
  406c16:	62 51 2d 48 ef d5    	vpxord %zmm13,%zmm10,%zmm10
  406c1c:	62 43 2d 48 25 f3 6c 	vpternlogd $0x6c,%zmm11,%zmm10,%zmm30
  406c23:	62 53 05 40 25 d3 56 	vpternlogd $0x56,%zmm11,%zmm31,%zmm10
  406c2a:	62 71 2d 48 ef 96 40 	vpxord 0xab40(%rsi),%zmm10,%zmm10
  406c31:	ab 00 00 
  406c34:	62 71 7c 48 11 54 24 	vmovups %zmm10,0x1640(%rsp)
  406c3b:	59 
  406c3c:	62 71 7c 48 10 96 00 	vmovups 0xa600(%rsi),%zmm10
  406c43:	a6 00 00 
  406c46:	62 53 15 48 25 d3 96 	vpternlogd $0x96,%zmm11,%zmm13,%zmm10
  406c4d:	62 71 7c 48 10 6c 24 	vmovups 0x600(%rsp),%zmm13
  406c54:	18 
  406c55:	62 61 0d 40 ef b6 00 	vpxord 0xaf00(%rsi),%zmm30,%zmm30
  406c5c:	af 00 00 
  406c5f:	62 61 7c 48 11 74 24 	vmovups %zmm30,0x1680(%rsp)
  406c66:	5a 
  406c67:	62 61 7c 48 10 74 24 	vmovups 0x140(%rsp),%zmm30
  406c6e:	05 
  406c6f:	62 61 05 40 ef be 40 	vpxord 0xa240(%rsi),%zmm31,%zmm31
  406c76:	a2 00 00 
  406c79:	62 61 7c 48 11 7c 24 	vmovups %zmm31,0x1600(%rsp)
  406c80:	58 
  406c81:	62 41 7d 48 ef fd    	vpxord %zmm13,%zmm0,%zmm31
  406c87:	62 31 35 40 ef df    	vpxord %zmm23,%zmm25,%zmm11
  406c8d:	62 83 0d 40 25 ff 36 	vpternlogd $0x36,%zmm31,%zmm30,%zmm23
  406c94:	62 43 0d 40 25 fb 6a 	vpternlogd $0x6a,%zmm11,%zmm30,%zmm31
  406c9b:	62 01 15 48 ef e1    	vpxord %zmm25,%zmm13,%zmm28
  406ca1:	62 33 1d 40 25 df 6c 	vpternlogd $0x6c,%zmm23,%zmm28,%zmm11
  406ca8:	62 23 05 40 25 e7 56 	vpternlogd $0x56,%zmm23,%zmm31,%zmm28
  406caf:	62 71 25 48 ef 9e 40 	vpxord 0xaf40(%rsi),%zmm11,%zmm11
  406cb6:	af 00 00 
  406cb9:	62 71 7c 48 11 5c 24 	vmovups %zmm11,0xdc0(%rsp)
  406cc0:	37 
  406cc1:	62 71 7c 48 10 9e 40 	vmovups 0xa640(%rsi),%zmm11
  406cc8:	a6 00 00 
  406ccb:	62 33 35 40 25 df 96 	vpternlogd $0x96,%zmm23,%zmm25,%zmm11
  406cd2:	62 61 7c 48 10 4c 24 	vmovups 0x740(%rsp),%zmm25
  406cd9:	1d 
  406cda:	62 e1 7c 48 10 7c 24 	vmovups 0x980(%rsp),%zmm23
  406ce1:	26 
  406ce2:	62 71 05 40 ef ae 80 	vpxord 0xa280(%rsi),%zmm31,%zmm13
  406ce9:	a2 00 00 
  406cec:	62 71 7c 48 11 6c 24 	vmovups %zmm13,0x16c0(%rsp)
  406cf3:	5b 
  406cf4:	62 71 7c 48 10 6c 24 	vmovups 0x180(%rsp),%zmm13
  406cfb:	06 
  406cfc:	62 61 1d 40 ef b6 80 	vpxord 0xab80(%rsi),%zmm28,%zmm30
  406d03:	ab 00 00 
  406d06:	62 61 7c 48 11 74 24 	vmovups %zmm30,0x1700(%rsp)
  406d0d:	5c 
  406d0e:	62 01 7d 48 ef f9    	vpxord %zmm25,%zmm0,%zmm31
  406d14:	62 21 35 40 ef f7    	vpxord %zmm23,%zmm25,%zmm30
  406d1a:	62 01 45 40 ef c8    	vpxord %zmm24,%zmm23,%zmm25
  406d20:	62 03 15 48 25 c7 36 	vpternlogd $0x36,%zmm31,%zmm13,%zmm24
  406d27:	62 03 15 48 25 f9 6a 	vpternlogd $0x6a,%zmm25,%zmm13,%zmm31
  406d2e:	62 03 0d 40 25 c8 6c 	vpternlogd $0x6c,%zmm24,%zmm30,%zmm25
  406d35:	62 03 05 40 25 f0 56 	vpternlogd $0x56,%zmm24,%zmm31,%zmm30
  406d3c:	62 61 05 40 ef a6 c0 	vpxord 0xa2c0(%rsi),%zmm31,%zmm28
  406d43:	a2 00 00 
  406d46:	62 61 7c 48 10 be 80 	vmovups 0xa680(%rsi),%zmm31
  406d4d:	a6 00 00 
  406d50:	62 61 7c 48 11 64 24 	vmovups %zmm28,0x1740(%rsp)
  406d57:	5d 
  406d58:	62 61 7c 48 10 a6 c0 	vmovups 0xa6c0(%rsi),%zmm28
  406d5f:	a6 00 00 
  406d62:	62 03 45 40 25 f8 96 	vpternlogd $0x96,%zmm24,%zmm23,%zmm31
  406d69:	62 61 7c 48 10 44 24 	vmovups 0x940(%rsp),%zmm24
  406d70:	25 
  406d71:	62 e1 7c 48 10 7c 24 	vmovups 0x1c0(%rsp),%zmm23
  406d78:	07 
  406d79:	62 61 7c 48 11 7c 24 	vmovups %zmm31,0x1800(%rsp)
  406d80:	60 
  406d81:	62 71 0d 40 ef ae c0 	vpxord 0xabc0(%rsi),%zmm30,%zmm13
  406d88:	ab 00 00 
  406d8b:	62 61 7c 48 10 74 24 	vmovups 0x6c0(%rsp),%zmm30
  406d92:	1b 
  406d93:	62 71 7c 48 11 6c 24 	vmovups %zmm13,0x1780(%rsp)
  406d9a:	5e 
  406d9b:	62 61 35 40 ef 8e 80 	vpxord 0xaf80(%rsi),%zmm25,%zmm25
  406da2:	af 00 00 
  406da5:	62 61 7c 48 11 4c 24 	vmovups %zmm25,0x17c0(%rsp)
  406dac:	5f 
  406dad:	62 01 7d 48 ef c8    	vpxord %zmm24,%zmm0,%zmm25
  406db3:	62 01 0d 40 ef fb    	vpxord %zmm27,%zmm30,%zmm31
  406db9:	62 03 45 40 25 d9 36 	vpternlogd $0x36,%zmm25,%zmm23,%zmm27
  406dc0:	62 03 45 40 25 cf 6a 	vpternlogd $0x6a,%zmm31,%zmm23,%zmm25
  406dc7:	62 03 0d 40 25 e3 96 	vpternlogd $0x96,%zmm27,%zmm30,%zmm28
  406dce:	62 61 7c 48 11 64 24 	vmovups %zmm28,0x18c0(%rsp)
  406dd5:	63 
  406dd6:	62 11 3d 40 ef ee    	vpxord %zmm30,%zmm24,%zmm13
  406ddc:	62 61 35 40 ef 86 00 	vpxord 0xa300(%rsi),%zmm25,%zmm24
  406de3:	a3 00 00 
  406de6:	62 03 15 48 25 fb 6c 	vpternlogd $0x6c,%zmm27,%zmm13,%zmm31
  406ded:	62 13 35 40 25 eb 56 	vpternlogd $0x56,%zmm27,%zmm25,%zmm13
  406df4:	62 61 7c 48 11 44 24 	vmovups %zmm24,0x1840(%rsp)
  406dfb:	61 
  406dfc:	62 61 7c 48 10 74 24 	vmovups 0x640(%rsp),%zmm30
  406e03:	19 
  406e04:	62 61 7c 48 10 5c 24 	vmovups 0x540(%rsp),%zmm27
  406e0b:	15 
  406e0c:	62 61 7c 48 10 44 24 	vmovups 0x200(%rsp),%zmm24
  406e13:	08 
  406e14:	62 61 15 48 ef 8e 00 	vpxord 0xa800(%rsi),%zmm13,%zmm25
  406e1b:	a8 00 00 
  406e1e:	62 e1 05 40 ef be c0 	vpxord 0xafc0(%rsi),%zmm31,%zmm23
  406e25:	af 00 00 
  406e28:	62 11 7d 48 ef ee    	vpxord %zmm30,%zmm0,%zmm13
  406e2e:	62 61 25 40 ef fa    	vpxord %zmm2,%zmm27,%zmm31
  406e34:	62 d3 3d 40 25 d5 36 	vpternlogd $0x36,%zmm13,%zmm24,%zmm2
  406e3b:	62 13 3d 40 25 ef 6a 	vpternlogd $0x6a,%zmm31,%zmm24,%zmm13
  406e42:	62 61 7c 48 10 86 00 	vmovups 0xa700(%rsi),%zmm24
  406e49:	a7 00 00 
  406e4c:	62 e1 7c 48 11 7c 24 	vmovups %zmm23,0x1880(%rsp)
  406e53:	62 
  406e54:	62 63 25 40 25 c2 96 	vpternlogd $0x96,%zmm2,%zmm27,%zmm24
  406e5b:	62 61 7c 48 11 44 24 	vmovups %zmm24,0x1940(%rsp)
  406e62:	65 
  406e63:	62 61 7c 48 10 44 24 	vmovups 0x580(%rsp),%zmm24
  406e6a:	16 
  406e6b:	62 81 0d 40 ef fb    	vpxord %zmm27,%zmm30,%zmm23
  406e71:	62 63 45 40 25 fa 6c 	vpternlogd $0x6c,%zmm2,%zmm23,%zmm31
  406e78:	62 e3 15 48 25 fa 56 	vpternlogd $0x56,%zmm2,%zmm13,%zmm23
  406e7f:	62 f1 7c 48 10 54 24 	vmovups 0x480(%rsp),%zmm2
  406e86:	12 
  406e87:	62 61 15 48 ef b6 40 	vpxord 0xa340(%rsi),%zmm13,%zmm30
  406e8e:	a3 00 00 
  406e91:	62 71 7d 48 ef ea    	vpxord %zmm2,%zmm0,%zmm13
  406e97:	62 01 6d 48 ef e0    	vpxord %zmm24,%zmm2,%zmm28
  406e9d:	62 f1 7c 48 10 54 24 	vmovups 0x240(%rsp),%zmm2
  406ea4:	09 
  406ea5:	62 61 7c 48 11 74 24 	vmovups %zmm30,0x1900(%rsp)
  406eac:	64 
  406ead:	62 61 3d 40 ef db    	vpxord %zmm3,%zmm24,%zmm27
  406eb3:	62 d3 6d 48 25 dd 36 	vpternlogd $0x36,%zmm13,%zmm2,%zmm3
  406eba:	62 13 6d 48 25 eb 6a 	vpternlogd $0x6a,%zmm27,%zmm2,%zmm13
  406ec1:	62 63 1d 40 25 db 6c 	vpternlogd $0x6c,%zmm3,%zmm28,%zmm27
  406ec8:	62 63 15 48 25 e3 56 	vpternlogd $0x56,%zmm3,%zmm13,%zmm28
  406ecf:	62 61 05 40 ef b6 00 	vpxord 0xac00(%rsi),%zmm31,%zmm30
  406ed6:	ac 00 00 
  406ed9:	62 61 15 48 ef be 80 	vpxord 0xa380(%rsi),%zmm13,%zmm31
  406ee0:	a3 00 00 
  406ee3:	62 71 7c 48 10 ae 40 	vmovups 0xa740(%rsi),%zmm13
  406eea:	a7 00 00 
  406eed:	62 61 7c 48 11 7c 24 	vmovups %zmm31,0xa80(%rsp)
  406ef4:	2a 
  406ef5:	62 61 7c 48 10 7c 24 	vmovups 0x80(%rsp),%zmm31
  406efc:	02 
  406efd:	62 73 3d 40 25 eb 96 	vpternlogd $0x96,%zmm3,%zmm24,%zmm13
  406f04:	62 f1 7c 48 10 5c 24 	vmovups 0x40(%rsp),%zmm3
  406f0b:	01 
  406f0c:	62 61 7c 48 10 44 24 	vmovups 0x5c0(%rsp),%zmm24
  406f13:	17 
  406f14:	62 71 7c 48 11 6c 24 	vmovups %zmm13,0x1980(%rsp)
  406f1b:	66 
  406f1c:	62 f1 1d 40 ef 96 80 	vpxord 0xa880(%rsi),%zmm28,%zmm2
  406f23:	a8 00 00 
  406f26:	62 71 7d 48 ef eb    	vpxord %zmm3,%zmm0,%zmm13
  406f2c:	62 21 3d 40 ef e6    	vpxord %zmm22,%zmm24,%zmm28
  406f32:	62 c3 05 40 25 f5 36 	vpternlogd $0x36,%zmm13,%zmm31,%zmm22
  406f39:	62 13 05 40 25 ec 6a 	vpternlogd $0x6a,%zmm28,%zmm31,%zmm13
  406f40:	62 91 65 48 ef d8    	vpxord %zmm24,%zmm3,%zmm3
  406f46:	62 23 65 48 25 e6 6c 	vpternlogd $0x6c,%zmm22,%zmm3,%zmm28
  406f4d:	62 b3 15 48 25 de 56 	vpternlogd $0x56,%zmm22,%zmm13,%zmm3
  406f54:	62 71 15 48 ef ae c0 	vpxord 0xa3c0(%rsi),%zmm13,%zmm13
  406f5b:	a3 00 00 
  406f5e:	62 71 7c 48 11 6c 24 	vmovups %zmm13,0xa00(%rsp)
  406f65:	28 
  406f66:	62 71 65 48 ef ae c0 	vpxord 0xa8c0(%rsi),%zmm3,%zmm13
  406f6d:	a8 00 00 
  406f70:	62 f1 1d 40 ef 9e 80 	vpxord 0xac80(%rsi),%zmm28,%zmm3
  406f77:	ac 00 00 
  406f7a:	62 61 7c 48 10 a6 80 	vmovups 0xa780(%rsi),%zmm28
  406f81:	a7 00 00 
  406f84:	62 23 3d 40 25 e6 96 	vpternlogd $0x96,%zmm22,%zmm24,%zmm28
  406f8b:	62 e1 7c 48 10 74 24 	vmovups 0x4c0(%rsp),%zmm22
  406f92:	13 
  406f93:	62 61 7c 48 11 64 24 	vmovups %zmm28,0xe00(%rsp)
  406f9a:	38 
  406f9b:	62 61 7c 48 10 64 24 	vmovups 0xc0(%rsp),%zmm28
  406fa2:	03 
  406fa3:	62 21 7d 48 ef c6    	vpxord %zmm22,%zmm0,%zmm24
  406fa9:	62 01 35 40 ef fe    	vpxord %zmm30,%zmm25,%zmm31
  406faf:	62 03 1d 40 25 f0 36 	vpternlogd $0x36,%zmm24,%zmm28,%zmm30
  406fb6:	62 03 1d 40 25 c7 6a 	vpternlogd $0x6a,%zmm31,%zmm28,%zmm24
  406fbd:	62 61 7c 48 10 a6 00 	vmovups 0xb400(%rsi),%zmm28
  406fc4:	b4 00 00 
  406fc7:	62 81 4d 40 ef f1    	vpxord %zmm25,%zmm22,%zmm22
  406fcd:	62 03 4d 40 25 fe 6c 	vpternlogd $0x6c,%zmm30,%zmm22,%zmm31
  406fd4:	62 83 3d 40 25 f6 56 	vpternlogd $0x56,%zmm30,%zmm24,%zmm22
  406fdb:	62 61 3d 40 ef 86 00 	vpxord 0xb000(%rsi),%zmm24,%zmm24
  406fe2:	b0 00 00 
  406fe5:	62 61 7c 48 11 44 24 	vmovups %zmm24,0xa40(%rsp)
  406fec:	29 
  406fed:	62 61 4d 40 ef 86 00 	vpxord 0xb900(%rsi),%zmm22,%zmm24
  406ff4:	b9 00 00 
  406ff7:	62 e1 05 40 ef b6 c0 	vpxord 0xbcc0(%rsi),%zmm31,%zmm22
  406ffe:	bc 00 00 
  407001:	62 61 7c 48 10 be c0 	vmovups 0xb7c0(%rsi),%zmm31
  407008:	b7 00 00 
  40700b:	62 03 35 40 25 fe 96 	vpternlogd $0x96,%zmm30,%zmm25,%zmm31
  407012:	62 61 7c 48 11 7c 24 	vmovups %zmm31,0x9c0(%rsp)
  407019:	27 
  40701a:	62 e1 45 40 ef be 40 	vpxord 0xa840(%rsi),%zmm23,%zmm23
  407021:	a8 00 00 
  407024:	62 01 7d 48 ef ca    	vpxord %zmm26,%zmm0,%zmm25
  40702a:	62 21 2d 40 ef f7    	vpxord %zmm23,%zmm26,%zmm30
  407030:	62 61 7c 48 10 54 24 	vmovups 0x2c0(%rsp),%zmm26
  407037:	0b 
  407038:	62 61 25 40 ef 9e 40 	vpxord 0xac40(%rsi),%zmm27,%zmm27
  40703f:	ac 00 00 
  407042:	62 01 45 40 ef fb    	vpxord %zmm27,%zmm23,%zmm31
  407048:	62 03 2d 40 25 d9 36 	vpternlogd $0x36,%zmm25,%zmm26,%zmm27
  40704f:	62 03 2d 40 25 cf 6a 	vpternlogd $0x6a,%zmm31,%zmm26,%zmm25
  407056:	62 03 0d 40 25 fb 6c 	vpternlogd $0x6c,%zmm27,%zmm30,%zmm31
  40705d:	62 03 35 40 25 f3 56 	vpternlogd $0x56,%zmm27,%zmm25,%zmm30
  407064:	62 03 45 40 25 e3 96 	vpternlogd $0x96,%zmm27,%zmm23,%zmm28
  40706b:	62 61 7c 48 10 5c 24 	vmovups 0x300(%rsp),%zmm27
  407072:	0c 
  407073:	62 61 7c 48 11 64 24 	vmovups %zmm28,0xe40(%rsp)
  40707a:	39 
  40707b:	62 61 35 40 ef 96 40 	vpxord 0xb040(%rsi),%zmm25,%zmm26
  407082:	b0 00 00 
  407085:	62 61 7c 48 11 54 24 	vmovups %zmm26,0xac0(%rsp)
  40708c:	2b 
  40708d:	62 61 0d 40 ef 96 40 	vpxord 0xb940(%rsi),%zmm30,%zmm26
  407094:	b9 00 00 
  407097:	62 21 7d 48 ef f5    	vpxord %zmm21,%zmm0,%zmm30
  40709d:	62 61 6d 48 ef e3    	vpxord %zmm3,%zmm2,%zmm28
  4070a3:	62 93 25 40 25 de 36 	vpternlogd $0x36,%zmm30,%zmm27,%zmm3
  4070aa:	62 03 25 40 25 f4 6a 	vpternlogd $0x6a,%zmm28,%zmm27,%zmm30
  4070b1:	62 61 05 40 ef 8e 00 	vpxord 0xbd00(%rsi),%zmm31,%zmm25
  4070b8:	bd 00 00 
  4070bb:	62 61 7c 48 10 be 40 	vmovups 0xb440(%rsi),%zmm31
  4070c2:	b4 00 00 
  4070c5:	62 63 6d 48 25 fb 96 	vpternlogd $0x96,%zmm3,%zmm2,%zmm31
  4070cc:	62 61 7c 48 11 7c 24 	vmovups %zmm31,0xe80(%rsp)
  4070d3:	3a 
  4070d4:	62 e1 55 40 ef fa    	vpxord %zmm2,%zmm21,%zmm23
  4070da:	62 e1 0d 40 ef ae 80 	vpxord 0xb080(%rsi),%zmm30,%zmm21
  4070e1:	b0 00 00 
  4070e4:	62 e1 7c 48 11 6c 24 	vmovups %zmm21,0xb00(%rsp)
  4070eb:	2c 
  4070ec:	62 e1 7c 48 10 ae 80 	vmovups 0xb480(%rsi),%zmm21
  4070f3:	b4 00 00 
  4070f6:	62 63 45 40 25 e3 6c 	vpternlogd $0x6c,%zmm3,%zmm23,%zmm28
  4070fd:	62 e3 0d 40 25 fb 56 	vpternlogd $0x56,%zmm3,%zmm30,%zmm23
  407104:	62 91 7d 48 ef d5    	vpxord %zmm29,%zmm0,%zmm2
  40710a:	62 f1 15 48 ef dc    	vpxord %zmm4,%zmm13,%zmm3
  407110:	62 f3 75 48 25 e2 36 	vpternlogd $0x36,%zmm2,%zmm1,%zmm4
  407117:	62 f3 75 48 25 d3 6a 	vpternlogd $0x6a,%zmm3,%zmm1,%zmm2
  40711e:	62 e3 15 48 25 ec 96 	vpternlogd $0x96,%zmm4,%zmm13,%zmm21
  407125:	62 e1 7c 48 11 6c 24 	vmovups %zmm21,0xec0(%rsp)
  40712c:	3b 
  40712d:	62 e1 7c 48 10 6c 24 	vmovups 0x680(%rsp),%zmm21
  407134:	1a 
  407135:	62 41 15 40 ef ed    	vpxord %zmm13,%zmm29,%zmm29
  40713b:	62 71 1d 48 ef a6 00 	vpxord 0xa100(%rsi),%zmm12,%zmm12
  407142:	a1 00 00 
  407145:	62 f3 15 40 25 dc 6c 	vpternlogd $0x6c,%zmm4,%zmm29,%zmm3
  40714c:	62 63 6d 48 25 ec 56 	vpternlogd $0x56,%zmm4,%zmm2,%zmm29
  407153:	62 d1 7d 48 ef e6    	vpxord %zmm14,%zmm0,%zmm4
  407159:	62 51 55 40 ef ef    	vpxord %zmm15,%zmm21,%zmm13
  40715f:	62 73 1d 48 25 fc 36 	vpternlogd $0x36,%zmm4,%zmm12,%zmm15
  407166:	62 d3 1d 48 25 e5 6a 	vpternlogd $0x6a,%zmm13,%zmm12,%zmm4
  40716d:	62 71 7c 48 10 a6 c0 	vmovups 0xb4c0(%rsi),%zmm12
  407174:	b4 00 00 
  407177:	62 53 55 40 25 e7 96 	vpternlogd $0x96,%zmm15,%zmm21,%zmm12
  40717e:	62 71 7c 48 11 64 24 	vmovups %zmm12,0xf00(%rsp)
  407185:	3c 
  407186:	62 71 7c 48 10 64 24 	vmovups 0x700(%rsp),%zmm12
  40718d:	1c 
  40718e:	62 f1 6d 48 ef 8e c0 	vpxord 0xb0c0(%rsi),%zmm2,%zmm1
  407195:	b0 00 00 
  407198:	62 f1 7c 48 11 4c 24 	vmovups %zmm1,0xb40(%rsp)
  40719f:	2d 
  4071a0:	62 f1 15 40 ef 8e c0 	vpxord 0xb9c0(%rsi),%zmm29,%zmm1
  4071a7:	b9 00 00 
  4071aa:	62 61 65 48 ef ae 80 	vpxord 0xbd80(%rsi),%zmm3,%zmm29
  4071b1:	bd 00 00 
  4071b4:	62 b1 0d 48 ef dd    	vpxord %zmm21,%zmm14,%zmm3
  4071ba:	62 53 65 48 25 ef 6c 	vpternlogd $0x6c,%zmm15,%zmm3,%zmm13
  4071c1:	62 d3 5d 48 25 df 56 	vpternlogd $0x56,%zmm15,%zmm4,%zmm3
  4071c8:	62 71 7c 48 10 b6 00 	vmovups 0xb500(%rsi),%zmm14
  4071cf:	b5 00 00 
  4071d2:	62 e1 7c 48 10 ae 40 	vmovups 0xb540(%rsi),%zmm21
  4071d9:	b5 00 00 
  4071dc:	62 f1 5d 48 ef 96 00 	vpxord 0xb100(%rsi),%zmm4,%zmm2
  4071e3:	b1 00 00 
  4071e6:	62 e1 6d 40 ef 96 40 	vpxord 0xad40(%rsi),%zmm18,%zmm18
  4071ed:	ad 00 00 
  4071f0:	62 f1 7c 48 11 54 24 	vmovups %zmm2,0xb80(%rsp)
  4071f7:	2e 
  4071f8:	62 e1 7d 40 ef 86 40 	vpxord 0xa140(%rsi),%zmm16,%zmm16
  4071ff:	a1 00 00 
  407202:	62 f1 15 48 ef 96 c0 	vpxord 0xbdc0(%rsi),%zmm13,%zmm2
  407209:	bd 00 00 
  40720c:	62 31 7d 48 ef f9    	vpxord %zmm17,%zmm0,%zmm15
  407212:	62 31 1d 48 ef ea    	vpxord %zmm18,%zmm12,%zmm13
  407218:	62 c3 7d 40 25 d7 36 	vpternlogd $0x36,%zmm15,%zmm16,%zmm18
  40721f:	62 53 7d 40 25 fd 6a 	vpternlogd $0x6a,%zmm13,%zmm16,%zmm15
  407226:	62 33 1d 48 25 f2 96 	vpternlogd $0x96,%zmm18,%zmm12,%zmm14
  40722d:	62 71 7c 48 11 74 24 	vmovups %zmm14,0xf40(%rsp)
  407234:	3d 
  407235:	62 71 7c 48 10 b6 00 	vmovups 0xb600(%rsi),%zmm14
  40723c:	b6 00 00 
  40723f:	62 f1 65 48 ef a6 00 	vpxord 0xba00(%rsi),%zmm3,%zmm4
  407246:	ba 00 00 
  407249:	62 f1 7c 48 11 64 24 	vmovups %zmm4,0x1040(%rsp)
  407250:	41 
  407251:	62 d1 75 40 ef e4    	vpxord %zmm12,%zmm17,%zmm4
  407257:	62 33 5d 48 25 ea 6c 	vpternlogd $0x6c,%zmm18,%zmm4,%zmm13
  40725e:	62 b3 05 48 25 e2 56 	vpternlogd $0x56,%zmm18,%zmm15,%zmm4
  407265:	62 71 7c 48 10 64 24 	vmovups 0x13c0(%rsp),%zmm12
  40726c:	4f 
  40726d:	62 e1 65 40 ef 9e 80 	vpxord 0xa180(%rsi),%zmm19,%zmm19
  407274:	a1 00 00 
  407277:	62 a1 7d 48 ef cc    	vpxord %zmm20,%zmm0,%zmm17
  40727d:	62 e1 5d 40 ef d6    	vpxord %zmm6,%zmm20,%zmm18
  407283:	62 e1 4d 48 ef e5    	vpxord %zmm5,%zmm6,%zmm20
  407289:	62 b3 65 40 25 e9 36 	vpternlogd $0x36,%zmm17,%zmm19,%zmm5
  407290:	62 a3 65 40 25 cc 6a 	vpternlogd $0x6a,%zmm20,%zmm19,%zmm17
  407297:	62 e3 6d 40 25 e5 6c 	vpternlogd $0x6c,%zmm5,%zmm18,%zmm20
  40729e:	62 e3 75 40 25 d5 56 	vpternlogd $0x56,%zmm5,%zmm17,%zmm18
  4072a5:	62 e3 4d 48 25 ed 96 	vpternlogd $0x96,%zmm5,%zmm6,%zmm21
  4072ac:	62 f1 7c 48 10 6c 24 	vmovups 0x14c0(%rsp),%zmm5
  4072b3:	53 
  4072b4:	62 e1 7c 48 11 6c 24 	vmovups %zmm21,0x1200(%rsp)
  4072bb:	48 
  4072bc:	62 e1 5d 48 ef 86 40 	vpxord 0xba40(%rsi),%zmm4,%zmm16
  4072c3:	ba 00 00 
  4072c6:	62 e1 7c 48 11 44 24 	vmovups %zmm16,0x1080(%rsp)
  4072cd:	42 
  4072ce:	62 e1 7c 48 10 44 24 	vmovups 0x1380(%rsp),%zmm16
  4072d5:	4e 
  4072d6:	62 f1 7d 48 ef f7    	vpxord %zmm7,%zmm0,%zmm6
  4072dc:	62 21 3d 48 ef f8    	vpxord %zmm16,%zmm8,%zmm31
  4072e2:	62 e3 55 48 25 c6 36 	vpternlogd $0x36,%zmm6,%zmm5,%zmm16
  4072e9:	62 93 55 48 25 f7 6a 	vpternlogd $0x6a,%zmm31,%zmm5,%zmm6
  4072f0:	62 61 45 40 ef b6 80 	vpxord 0xb980(%rsi),%zmm23,%zmm30
  4072f7:	b9 00 00 
  4072fa:	62 c1 45 48 ef f8    	vpxord %zmm8,%zmm7,%zmm23
  407300:	62 f1 4d 48 ef be c0 	vpxord 0xb1c0(%rsi),%zmm6,%zmm7
  407307:	b1 00 00 
  40730a:	62 23 45 40 25 f8 6c 	vpternlogd $0x6c,%zmm16,%zmm23,%zmm31
  407311:	62 a3 4d 48 25 f8 56 	vpternlogd $0x56,%zmm16,%zmm6,%zmm23
  407318:	62 f1 7c 48 10 b6 80 	vmovups 0xb580(%rsi),%zmm6
  40731f:	b5 00 00 
  407322:	62 f1 7c 48 11 7c 24 	vmovups %zmm7,0xc40(%rsp)
  407329:	31 
  40732a:	62 b3 3d 48 25 f0 96 	vpternlogd $0x96,%zmm16,%zmm8,%zmm6
  407331:	62 e1 7c 48 10 44 24 	vmovups 0x1340(%rsp),%zmm16
  407338:	4d 
  407339:	62 f1 7c 48 11 74 24 	vmovups %zmm6,0x1240(%rsp)
  407340:	49 
  407341:	62 f1 05 48 ef 9e 40 	vpxord 0xb140(%rsi),%zmm15,%zmm3
  407348:	b1 00 00 
  40734b:	62 f1 7c 48 11 5c 24 	vmovups %zmm3,0xbc0(%rsp)
  407352:	2f 
  407353:	62 f1 15 48 ef 9e 00 	vpxord 0xbe00(%rsi),%zmm13,%zmm3
  40735a:	be 00 00 
  40735d:	62 71 7c 48 10 6c 24 	vmovups 0x1400(%rsp),%zmm13
  407364:	50 
  407365:	62 71 35 48 ef 8e 00 	vpxord 0xa200(%rsi),%zmm9,%zmm9
  40736c:	a2 00 00 
  40736f:	62 51 7d 48 ef c2    	vpxord %zmm10,%zmm0,%zmm8
  407375:	62 d1 7d 40 ef fd    	vpxord %zmm13,%zmm16,%zmm7
  40737b:	62 53 35 48 25 e8 36 	vpternlogd $0x36,%zmm8,%zmm9,%zmm13
  407382:	62 73 35 48 25 c7 6a 	vpternlogd $0x6a,%zmm7,%zmm9,%zmm8
  407389:	62 31 2d 48 ef d0    	vpxord %zmm16,%zmm10,%zmm10
  40738f:	62 71 3d 48 ef 8e 00 	vpxord 0xb200(%rsi),%zmm8,%zmm9
  407396:	b2 00 00 
  407399:	62 d3 2d 48 25 fd 6c 	vpternlogd $0x6c,%zmm13,%zmm10,%zmm7
  4073a0:	62 53 3d 48 25 d5 56 	vpternlogd $0x56,%zmm13,%zmm8,%zmm10
  4073a7:	62 71 7c 48 10 86 c0 	vmovups 0xb5c0(%rsi),%zmm8
  4073ae:	b5 00 00 
  4073b1:	62 71 7c 48 11 4c 24 	vmovups %zmm9,0xc80(%rsp)
  4073b8:	32 
  4073b9:	62 53 7d 40 25 c5 96 	vpternlogd $0x96,%zmm13,%zmm16,%zmm8
  4073c0:	62 71 7c 48 10 6c 24 	vmovups 0x1480(%rsp),%zmm13
  4073c7:	52 
  4073c8:	62 71 7c 48 11 44 24 	vmovups %zmm8,0x12c0(%rsp)
  4073cf:	4b 
  4073d0:	62 51 7d 48 ef cb    	vpxord %zmm11,%zmm0,%zmm9
  4073d6:	62 51 25 48 ef c4    	vpxord %zmm12,%zmm11,%zmm8
  4073dc:	62 71 7c 48 10 5c 24 	vmovups 0x1600(%rsp),%zmm11
  4073e3:	58 
  4073e4:	62 61 1d 40 ef 9e 40 	vpxord 0xbd40(%rsi),%zmm28,%zmm27
  4073eb:	bd 00 00 
  4073ee:	62 61 45 40 ef a6 c0 	vpxord 0xbac0(%rsi),%zmm23,%zmm28
  4073f5:	ba 00 00 
  4073f8:	62 71 6d 40 ef be 80 	vpxord 0xba80(%rsi),%zmm18,%zmm15
  4073ff:	ba 00 00 
  407402:	62 61 7c 48 11 64 24 	vmovups %zmm28,0x1100(%rsp)
  407409:	44 
  40740a:	62 71 7c 48 11 7c 24 	vmovups %zmm15,0x1140(%rsp)
  407411:	45 
  407412:	62 e1 7c 48 10 7c 24 	vmovups 0x1440(%rsp),%zmm23
  407419:	51 
  40741a:	62 61 7c 48 10 64 24 	vmovups 0x1540(%rsp),%zmm28
  407421:	55 
  407422:	62 71 7c 48 10 7c 24 	vmovups 0x16c0(%rsp),%zmm15
  407429:	5b 
  40742a:	62 f1 2d 48 ef b6 00 	vpxord 0xbb00(%rsi),%zmm10,%zmm6
  407431:	bb 00 00 
  407434:	62 51 1d 48 ef d5    	vpxord %zmm13,%zmm12,%zmm10
  40743a:	62 53 25 48 25 e9 36 	vpternlogd $0x36,%zmm9,%zmm11,%zmm13
  407441:	62 53 25 48 25 ca 6a 	vpternlogd $0x6a,%zmm10,%zmm11,%zmm9
  407448:	62 71 7c 48 10 5c 24 	vmovups 0x1800(%rsp),%zmm11
  40744f:	60 
  407450:	62 f1 7c 48 11 74 24 	vmovups %zmm6,0x10c0(%rsp)
  407457:	43 
  407458:	62 53 3d 48 25 d5 6c 	vpternlogd $0x6c,%zmm13,%zmm8,%zmm10
  40745f:	62 53 35 48 25 c5 56 	vpternlogd $0x56,%zmm13,%zmm9,%zmm8
  407466:	62 53 1d 48 25 f5 96 	vpternlogd $0x96,%zmm13,%zmm12,%zmm14
  40746d:	62 71 7c 48 11 74 24 	vmovups %zmm14,0x1300(%rsp)
  407474:	4c 
  407475:	62 e1 75 40 ef 9e 80 	vpxord 0xb180(%rsi),%zmm17,%zmm19
  40747c:	b1 00 00 
  40747f:	62 c1 7d 48 ef cb    	vpxord %zmm11,%zmm0,%zmm17
  407485:	62 81 45 40 ef ec    	vpxord %zmm28,%zmm23,%zmm21
  40748b:	62 23 05 48 25 e1 36 	vpternlogd $0x36,%zmm17,%zmm15,%zmm28
  407492:	62 a3 05 48 25 cd 6a 	vpternlogd $0x6a,%zmm21,%zmm15,%zmm17
  407499:	62 e1 7c 48 11 5c 24 	vmovups %zmm19,0xc00(%rsp)
  4074a0:	30 
  4074a1:	62 71 7c 48 10 7c 24 	vmovups 0x1500(%rsp),%zmm15
  4074a8:	54 
  4074a9:	62 e1 3d 48 ef 86 40 	vpxord 0xbb40(%rsi),%zmm8,%zmm16
  4074b0:	bb 00 00 
  4074b3:	62 f1 45 48 ef b6 c0 	vpxord 0xbec0(%rsi),%zmm7,%zmm6
  4074ba:	be 00 00 
  4074bd:	62 f1 35 48 ef be 40 	vpxord 0xb240(%rsi),%zmm9,%zmm7
  4074c4:	b2 00 00 
  4074c7:	62 e1 75 40 ef 96 80 	vpxord 0xb280(%rsi),%zmm17,%zmm18
  4074ce:	b2 00 00 
  4074d1:	62 a1 25 48 ef df    	vpxord %zmm23,%zmm11,%zmm19
  4074d7:	62 e1 7c 48 11 44 24 	vmovups %zmm16,0xf80(%rsp)
  4074de:	3e 
  4074df:	62 71 7c 48 10 4c 24 	vmovups 0x18c0(%rsp),%zmm9
  4074e6:	63 
  4074e7:	62 e1 7c 48 10 44 24 	vmovups 0x1740(%rsp),%zmm16
  4074ee:	5d 
  4074ef:	62 f1 7c 48 11 7c 24 	vmovups %zmm7,0xcc0(%rsp)
  4074f6:	33 
  4074f7:	62 e1 7c 48 11 54 24 	vmovups %zmm18,0xd00(%rsp)
  4074fe:	34 
  4074ff:	62 e1 7c 48 10 96 80 	vmovups 0xb680(%rsi),%zmm18
  407506:	b6 00 00 
  407509:	62 83 65 40 25 ec 6c 	vpternlogd $0x6c,%zmm28,%zmm19,%zmm21
  407510:	62 83 75 40 25 dc 56 	vpternlogd $0x56,%zmm28,%zmm17,%zmm19
  407517:	62 e1 7c 48 10 4c 24 	vmovups 0x15c0(%rsp),%zmm17
  40751e:	57 
  40751f:	62 f1 05 40 ef ae 80 	vpxord 0xbe80(%rsi),%zmm31,%zmm5
  407526:	be 00 00 
  407529:	62 61 7c 48 10 be 40 	vmovups 0xb640(%rsi),%zmm31
  407530:	b6 00 00 
  407533:	62 03 45 40 25 fc 96 	vpternlogd $0x96,%zmm28,%zmm23,%zmm31
  40753a:	62 61 7c 48 11 7c 24 	vmovups %zmm31,0x1280(%rsp)
  407541:	4a 
  407542:	62 61 7c 48 10 7c 24 	vmovups 0x1580(%rsp),%zmm31
  407549:	56 
  40754a:	62 f1 2d 48 ef be 00 	vpxord 0xbf00(%rsi),%zmm10,%zmm7
  407551:	bf 00 00 
  407554:	62 51 7d 48 ef d1    	vpxord %zmm9,%zmm0,%zmm10
  40755a:	62 31 05 48 ef f1    	vpxord %zmm17,%zmm15,%zmm14
  407560:	62 c3 7d 40 25 ca 36 	vpternlogd $0x36,%zmm10,%zmm16,%zmm17
  407567:	62 53 7d 40 25 d6 6a 	vpternlogd $0x6a,%zmm14,%zmm16,%zmm10
  40756e:	62 a3 05 48 25 d1 96 	vpternlogd $0x96,%zmm17,%zmm15,%zmm18
  407575:	62 e1 7c 48 11 54 24 	vmovups %zmm18,0x1180(%rsp)
  40757c:	46 
  40757d:	62 f1 5d 40 ef a6 40 	vpxord 0xbe40(%rsi),%zmm20,%zmm4
  407584:	be 00 00 
  407587:	62 71 2d 48 ef ae c0 	vpxord 0xb2c0(%rsi),%zmm10,%zmm13
  40758e:	b2 00 00 
  407591:	62 e1 65 40 ef a6 80 	vpxord 0xbb80(%rsi),%zmm19,%zmm20
  407598:	bb 00 00 
  40759b:	62 51 35 48 ef df    	vpxord %zmm15,%zmm9,%zmm11
  4075a1:	62 71 7c 48 11 6c 24 	vmovups %zmm13,0xd40(%rsp)
  4075a8:	35 
  4075a9:	62 e1 7c 48 11 64 24 	vmovups %zmm20,0xfc0(%rsp)
  4075b0:	3f 
  4075b1:	62 e1 7c 48 10 5c 24 	vmovups 0x1940(%rsp),%zmm19
  4075b8:	65 
  4075b9:	62 71 7c 48 10 6c 24 	vmovups 0x1680(%rsp),%zmm13
  4075c0:	5a 
  4075c1:	62 e1 7c 48 10 64 24 	vmovups 0x1840(%rsp),%zmm20
  4075c8:	61 
  4075c9:	62 71 7c 48 10 7c 24 	vmovups 0x1780(%rsp),%zmm15
  4075d0:	5e 
  4075d1:	62 33 25 48 25 f1 6c 	vpternlogd $0x6c,%zmm17,%zmm11,%zmm14
  4075d8:	62 33 2d 48 25 d9 56 	vpternlogd $0x56,%zmm17,%zmm10,%zmm11
  4075df:	62 e1 7c 48 10 4c 24 	vmovups 0x1700(%rsp),%zmm17
  4075e6:	5c 
  4075e7:	62 71 25 48 ef a6 c0 	vpxord 0xbbc0(%rsi),%zmm11,%zmm12
  4075ee:	bb 00 00 
  4075f1:	62 71 7c 48 10 9e c0 	vmovups 0xb6c0(%rsi),%zmm11
  4075f8:	b6 00 00 
  4075fb:	62 71 7c 48 11 64 24 	vmovups %zmm12,0x1000(%rsp)
  407602:	40 
  407603:	62 71 7c 48 10 64 24 	vmovups 0x1980(%rsp),%zmm12
  40760a:	66 
  40760b:	62 71 55 40 ef 86 40 	vpxord 0xbf40(%rsi),%zmm21,%zmm8
  407612:	bf 00 00 
  407615:	62 a1 7d 48 ef eb    	vpxord %zmm19,%zmm0,%zmm21
  40761b:	62 51 05 40 ef d5    	vpxord %zmm13,%zmm31,%zmm10
  407621:	62 33 5d 40 25 ed 36 	vpternlogd $0x36,%zmm21,%zmm20,%zmm13
  407628:	62 c3 5d 40 25 ea 6a 	vpternlogd $0x6a,%zmm10,%zmm20,%zmm21
  40762f:	62 53 05 40 25 dd 96 	vpternlogd $0x96,%zmm13,%zmm31,%zmm11
  407636:	62 71 7c 48 11 5c 24 	vmovups %zmm11,0x11c0(%rsp)
  40763d:	47 
  40763e:	62 01 65 40 ef e7    	vpxord %zmm31,%zmm19,%zmm28
  407644:	62 53 1d 40 25 d5 6c 	vpternlogd $0x6c,%zmm13,%zmm28,%zmm10
  40764b:	62 43 55 40 25 e5 56 	vpternlogd $0x56,%zmm13,%zmm21,%zmm28
  407652:	62 71 7c 48 10 6c 24 	vmovups 0x1640(%rsp),%zmm13
  407659:	59 
  40765a:	62 e1 7c 48 10 5c 24 	vmovups 0x17c0(%rsp),%zmm19
  407661:	5f 
  407662:	62 51 7d 48 ef dc    	vpxord %zmm12,%zmm0,%zmm11
  407668:	62 c1 1d 48 ef e5    	vpxord %zmm13,%zmm12,%zmm20
  40766e:	62 71 7c 48 10 64 24 	vmovups 0x1900(%rsp),%zmm12
  407675:	64 
  407676:	62 e1 55 40 ef be 00 	vpxord 0xb300(%rsi),%zmm21,%zmm23
  40767d:	b3 00 00 
  407680:	62 e1 15 48 ef 6c 24 	vpxord 0xdc0(%rsp),%zmm13,%zmm21
  407687:	37 
  407688:	62 a1 7c 48 28 d5    	vmovaps %zmm21,%zmm18
  40768e:	62 e1 7c 48 11 7c 24 	vmovups %zmm23,0xd80(%rsp)
  407695:	36 
  407696:	62 c3 1d 48 25 d3 78 	vpternlogd $0x78,%zmm11,%zmm12,%zmm18
  40769d:	62 71 0d 48 ef 8e 80 	vpxord 0xbf80(%rsi),%zmm14,%zmm9
  4076a4:	bf 00 00 
  4076a7:	62 71 2d 48 ef 96 c0 	vpxord 0xbfc0(%rsi),%zmm10,%zmm10
  4076ae:	bf 00 00 
  4076b1:	62 e1 1d 40 ef 86 00 	vpxord 0xb800(%rsi),%zmm28,%zmm16
  4076b8:	b8 00 00 
  4076bb:	62 71 7c 48 10 74 24 	vmovups 0x1880(%rsp),%zmm14
  4076c2:	62 
  4076c3:	62 73 25 48 25 64 24 	vpternlogd $0x1e,0xdc0(%rsp),%zmm11,%zmm12
  4076ca:	37 1e 
  4076cc:	62 71 7c 48 10 9e 00 	vmovups 0xb700(%rsi),%zmm11
  4076d3:	b7 00 00 
  4076d6:	62 e1 7c 48 10 7c 24 	vmovups 0xa80(%rsp),%zmm23
  4076dd:	2a 
  4076de:	62 71 7c 48 11 54 24 	vmovups %zmm10,0x1340(%rsp)
  4076e5:	4d 
  4076e6:	62 c3 5d 40 25 ec 6c 	vpternlogd $0x6c,%zmm12,%zmm20,%zmm21
  4076ed:	62 c3 6d 40 25 e4 56 	vpternlogd $0x56,%zmm12,%zmm18,%zmm20
  4076f4:	62 53 15 48 25 dc 96 	vpternlogd $0x96,%zmm12,%zmm13,%zmm11
  4076fb:	62 61 5d 40 ef a6 40 	vpxord 0xb840(%rsi),%zmm20,%zmm28
  407702:	b8 00 00 
  407705:	62 e1 7c 48 10 64 24 	vmovups 0xe00(%rsp),%zmm20
  40770c:	38 
  40770d:	62 31 7d 48 ef ec    	vpxord %zmm20,%zmm0,%zmm13
  407713:	62 21 5d 40 ef f9    	vpxord %zmm17,%zmm20,%zmm31
  407719:	62 a1 75 40 ef e3    	vpxord %zmm19,%zmm17,%zmm20
  40771f:	62 c3 45 40 25 dd 36 	vpternlogd $0x36,%zmm13,%zmm23,%zmm19
  407726:	62 33 45 40 25 ec 6a 	vpternlogd $0x6a,%zmm20,%zmm23,%zmm13
  40772d:	62 a3 05 40 25 e3 6c 	vpternlogd $0x6c,%zmm19,%zmm31,%zmm20
  407734:	62 23 15 48 25 fb 56 	vpternlogd $0x56,%zmm19,%zmm13,%zmm31
  40773b:	62 71 15 48 ef a6 80 	vpxord 0xb380(%rsi),%zmm13,%zmm12
  407742:	b3 00 00 
  407745:	62 71 7c 48 11 64 24 	vmovups %zmm12,0x1440(%rsp)
  40774c:	51 
  40774d:	62 71 7c 48 10 a6 40 	vmovups 0xb740(%rsi),%zmm12
  407754:	b7 00 00 
  407757:	62 71 7c 48 10 6c 24 	vmovups 0xa00(%rsp),%zmm13
  40775e:	28 
  40775f:	62 33 75 40 25 e3 96 	vpternlogd $0x96,%zmm19,%zmm17,%zmm12
  407766:	62 e1 7c 48 10 0c 24 	vmovups (%rsp),%zmm17
  40776d:	62 71 6d 40 ef 96 40 	vpxord 0xb340(%rsi),%zmm18,%zmm10
  407774:	b3 00 00 
  407777:	62 e1 55 40 ef 96 00 	vpxord 0xbc00(%rsi),%zmm21,%zmm18
  40777e:	bc 00 00 
  407781:	62 a1 7d 48 ef d9    	vpxord %zmm17,%zmm0,%zmm19
  407787:	62 c1 05 48 ef ee    	vpxord %zmm14,%zmm15,%zmm21
  40778d:	62 33 15 48 25 f3 36 	vpternlogd $0x36,%zmm19,%zmm13,%zmm14
  407794:	62 a3 15 48 25 dd 6a 	vpternlogd $0x6a,%zmm21,%zmm13,%zmm19
  40779b:	62 71 7c 48 10 ae 80 	vmovups 0xb780(%rsi),%zmm13
  4077a2:	b7 00 00 
  4077a5:	62 53 05 48 25 ee 96 	vpternlogd $0x96,%zmm14,%zmm15,%zmm13
  4077ac:	62 e1 05 40 ef be 80 	vpxord 0xb880(%rsi),%zmm31,%zmm23
  4077b3:	b8 00 00 
  4077b6:	62 41 75 40 ef ff    	vpxord %zmm15,%zmm17,%zmm31
  4077bc:	62 e1 65 40 ef 8e c0 	vpxord 0xb3c0(%rsi),%zmm19,%zmm17
  4077c3:	b3 00 00 
  4077c6:	62 e1 7c 48 11 4c 24 	vmovups %zmm17,0x1480(%rsp)
  4077cd:	52 
  4077ce:	62 71 7c 48 10 7c 24 	vmovups 0xe40(%rsp),%zmm15
  4077d5:	39 
  4077d6:	62 e1 7c 48 10 4c 24 	vmovups 0xa40(%rsp),%zmm17
  4077dd:	29 
  4077de:	62 c3 05 40 25 ee 6c 	vpternlogd $0x6c,%zmm14,%zmm31,%zmm21
  4077e5:	62 43 65 40 25 fe 56 	vpternlogd $0x56,%zmm14,%zmm19,%zmm31
  4077ec:	62 51 7d 48 ef f7    	vpxord %zmm15,%zmm0,%zmm14
  4077f2:	62 a1 7d 40 ef da    	vpxord %zmm18,%zmm16,%zmm19
  4077f8:	62 c3 75 40 25 d6 36 	vpternlogd $0x36,%zmm14,%zmm17,%zmm18
  4077ff:	62 33 75 40 25 f3 6a 	vpternlogd $0x6a,%zmm19,%zmm17,%zmm14
  407806:	62 31 05 48 ef f8    	vpxord %zmm16,%zmm15,%zmm15
  40780c:	62 a3 05 48 25 da 6c 	vpternlogd $0x6c,%zmm18,%zmm15,%zmm19
  407813:	62 33 0d 48 25 fa 56 	vpternlogd $0x56,%zmm18,%zmm14,%zmm15
  40781a:	62 71 05 48 ef be 00 	vpxord 0xc900(%rsi),%zmm15,%zmm15
  407821:	c9 00 00 
  407824:	62 71 7c 48 11 7c 24 	vmovups %zmm15,0x14c0(%rsp)
  40782b:	53 
  40782c:	62 71 65 40 ef be c0 	vpxord 0xccc0(%rsi),%zmm19,%zmm15
  407833:	cc 00 00 
  407836:	62 e1 7c 48 10 9e c0 	vmovups 0xc7c0(%rsi),%zmm19
  40783d:	c7 00 00 
  407840:	62 a3 7d 40 25 da 96 	vpternlogd $0x96,%zmm18,%zmm16,%zmm19
  407847:	62 e1 7c 48 10 54 24 	vmovups 0xe80(%rsp),%zmm18
  40784e:	3a 
  40784f:	62 e1 7c 48 11 5c 24 	vmovups %zmm19,0x40(%rsp)
  407856:	01 
  407857:	62 e1 7c 48 10 5c 24 	vmovups 0xac0(%rsp),%zmm19
  40785e:	2b 
  40785f:	62 e1 5d 40 ef a6 40 	vpxord 0xbc40(%rsi),%zmm20,%zmm20
  407866:	bc 00 00 
  407869:	62 a1 7d 48 ef c2    	vpxord %zmm18,%zmm0,%zmm16
  40786f:	62 81 6d 40 ef cc    	vpxord %zmm28,%zmm18,%zmm17
  407875:	62 a1 1d 40 ef d4    	vpxord %zmm20,%zmm28,%zmm18
  40787b:	62 a3 65 40 25 e0 36 	vpternlogd $0x36,%zmm16,%zmm19,%zmm20
  407882:	62 a3 65 40 25 c2 6a 	vpternlogd $0x6a,%zmm18,%zmm19,%zmm16
  407889:	62 a3 75 40 25 d4 6c 	vpternlogd $0x6c,%zmm20,%zmm17,%zmm18
  407890:	62 a3 7d 40 25 cc 56 	vpternlogd $0x56,%zmm20,%zmm16,%zmm17
  407897:	62 e1 75 40 ef 8e 40 	vpxord 0xc940(%rsi),%zmm17,%zmm17
  40789e:	c9 00 00 
  4078a1:	62 e1 7c 48 11 4c 24 	vmovups %zmm17,0x1500(%rsp)
  4078a8:	54 
  4078a9:	62 e1 7c 48 10 8e 00 	vmovups 0xc400(%rsi),%zmm17
  4078b0:	c4 00 00 
  4078b3:	62 a3 1d 40 25 cc 96 	vpternlogd $0x96,%zmm20,%zmm28,%zmm17
  4078ba:	62 e1 7c 48 10 64 24 	vmovups 0xec0(%rsp),%zmm20
  4078c1:	3b 
  4078c2:	62 e1 6d 40 ef 96 00 	vpxord 0xcd00(%rsi),%zmm18,%zmm18
  4078c9:	cd 00 00 
  4078cc:	62 e1 7c 48 11 54 24 	vmovups %zmm18,0x1540(%rsp)
  4078d3:	55 
  4078d4:	62 e1 7c 48 10 54 24 	vmovups 0xb00(%rsp),%zmm18
  4078db:	2c 
  4078dc:	62 e1 55 40 ef ae 80 	vpxord 0xbc80(%rsi),%zmm21,%zmm21
  4078e3:	bc 00 00 
  4078e6:	62 21 7d 48 ef e4    	vpxord %zmm20,%zmm0,%zmm28
  4078ec:	62 a1 5d 40 ef df    	vpxord %zmm23,%zmm20,%zmm19
  4078f2:	62 a1 45 40 ef e5    	vpxord %zmm21,%zmm23,%zmm20
  4078f8:	62 83 6d 40 25 ec 36 	vpternlogd $0x36,%zmm28,%zmm18,%zmm21
  4078ff:	62 23 6d 40 25 e4 6a 	vpternlogd $0x6a,%zmm20,%zmm18,%zmm28
  407906:	62 a3 65 40 25 e5 6c 	vpternlogd $0x6c,%zmm21,%zmm19,%zmm20
  40790d:	62 a3 1d 40 25 dd 56 	vpternlogd $0x56,%zmm21,%zmm28,%zmm19
  407914:	62 e1 1d 40 ef 96 80 	vpxord 0xc080(%rsi),%zmm28,%zmm18
  40791b:	c0 00 00 
  40791e:	62 61 65 40 ef a6 80 	vpxord 0xc980(%rsi),%zmm19,%zmm28
  407925:	c9 00 00 
  407928:	62 e1 7c 48 10 9e 40 	vmovups 0xc440(%rsi),%zmm19
  40792f:	c4 00 00 
  407932:	62 61 7c 48 11 64 24 	vmovups %zmm28,0x1580(%rsp)
  407939:	56 
  40793a:	62 a3 45 40 25 dd 96 	vpternlogd $0x96,%zmm21,%zmm23,%zmm19
  407941:	62 e1 7c 48 10 7c 24 	vmovups 0xf00(%rsp),%zmm23
  407948:	3c 
  407949:	62 61 05 40 ef be c0 	vpxord 0xb8c0(%rsi),%zmm31,%zmm31
  407950:	b8 00 00 
  407953:	62 61 5d 40 ef a6 40 	vpxord 0xcd40(%rsi),%zmm20,%zmm28
  40795a:	cd 00 00 
  40795d:	62 a1 7d 48 ef e7    	vpxord %zmm23,%zmm0,%zmm20
  407963:	62 81 45 40 ef ef    	vpxord %zmm31,%zmm23,%zmm21
  407969:	62 e1 7c 48 10 7c 24 	vmovups 0xb40(%rsp),%zmm23
  407970:	2d 
  407971:	62 61 7c 48 11 64 24 	vmovups %zmm28,0x15c0(%rsp)
  407978:	57 
  407979:	62 21 05 40 ef e6    	vpxord %zmm22,%zmm31,%zmm28
  40797f:	62 a3 45 40 25 f4 36 	vpternlogd $0x36,%zmm20,%zmm23,%zmm22
  407986:	62 83 45 40 25 e4 6a 	vpternlogd $0x6a,%zmm28,%zmm23,%zmm20
  40798d:	62 23 55 40 25 e6 6c 	vpternlogd $0x6c,%zmm22,%zmm21,%zmm28
  407994:	62 a3 5d 40 25 ee 56 	vpternlogd $0x56,%zmm22,%zmm20,%zmm21
  40799b:	62 e1 55 40 ef ae c0 	vpxord 0xc9c0(%rsi),%zmm21,%zmm21
  4079a2:	c9 00 00 
  4079a5:	62 e1 7c 48 11 6c 24 	vmovups %zmm21,0x1600(%rsp)
  4079ac:	58 
  4079ad:	62 e1 7c 48 10 ae 80 	vmovups 0xc480(%rsi),%zmm21
  4079b4:	c4 00 00 
  4079b7:	62 a3 05 40 25 ee 96 	vpternlogd $0x96,%zmm22,%zmm31,%zmm21
  4079be:	62 61 7c 48 10 7c 24 	vmovups 0xf40(%rsp),%zmm31
  4079c5:	3d 
  4079c6:	62 81 7d 48 ef f7    	vpxord %zmm31,%zmm0,%zmm22
  4079cc:	62 81 05 40 ef f8    	vpxord %zmm24,%zmm31,%zmm23
  4079d2:	62 61 7c 48 10 7c 24 	vmovups 0xb80(%rsp),%zmm31
  4079d9:	2e 
  4079da:	62 61 1d 40 ef a6 80 	vpxord 0xcd80(%rsi),%zmm28,%zmm28
  4079e1:	cd 00 00 
  4079e4:	62 61 7c 48 11 64 24 	vmovups %zmm28,0x1640(%rsp)
  4079eb:	59 
  4079ec:	62 01 3d 40 ef e1    	vpxord %zmm25,%zmm24,%zmm28
  4079f2:	62 23 05 40 25 ce 36 	vpternlogd $0x36,%zmm22,%zmm31,%zmm25
  4079f9:	62 83 05 40 25 f4 6a 	vpternlogd $0x6a,%zmm28,%zmm31,%zmm22
  407a00:	62 61 7c 48 10 7c 24 	vmovups 0xbc0(%rsp),%zmm31
  407a07:	2f 
  407a08:	62 03 45 40 25 e1 6c 	vpternlogd $0x6c,%zmm25,%zmm23,%zmm28
  407a0f:	62 83 4d 40 25 f9 56 	vpternlogd $0x56,%zmm25,%zmm22,%zmm23
  407a16:	62 e1 45 40 ef be 00 	vpxord 0xca00(%rsi),%zmm23,%zmm23
  407a1d:	ca 00 00 
  407a20:	62 e1 7c 48 11 7c 24 	vmovups %zmm23,0x13c0(%rsp)
  407a27:	4f 
  407a28:	62 e1 7c 48 10 be c0 	vmovups 0xc4c0(%rsi),%zmm23
  407a2f:	c4 00 00 
  407a32:	62 83 3d 40 25 f9 96 	vpternlogd $0x96,%zmm25,%zmm24,%zmm23
  407a39:	62 61 7c 48 10 4c 24 	vmovups 0x1200(%rsp),%zmm25
  407a40:	48 
  407a41:	62 61 1d 40 ef a6 c0 	vpxord 0xcdc0(%rsi),%zmm28,%zmm28
  407a48:	cd 00 00 
  407a4b:	62 61 7c 48 11 64 24 	vmovups %zmm28,0x1680(%rsp)
  407a52:	5a 
  407a53:	62 01 7d 48 ef c1    	vpxord %zmm25,%zmm0,%zmm24
  407a59:	62 01 2d 40 ef e3    	vpxord %zmm27,%zmm26,%zmm28
  407a5f:	62 03 05 40 25 d8 36 	vpternlogd $0x36,%zmm24,%zmm31,%zmm27
  407a66:	62 03 05 40 25 c4 6a 	vpternlogd $0x6a,%zmm28,%zmm31,%zmm24
  407a6d:	62 01 35 40 ef ca    	vpxord %zmm26,%zmm25,%zmm25
  407a73:	62 03 35 40 25 e3 6c 	vpternlogd $0x6c,%zmm27,%zmm25,%zmm28
  407a7a:	62 03 3d 40 25 cb 56 	vpternlogd $0x56,%zmm27,%zmm24,%zmm25
  407a81:	62 61 35 40 ef 8e 40 	vpxord 0xca40(%rsi),%zmm25,%zmm25
  407a88:	ca 00 00 
  407a8b:	62 61 7c 48 11 4c 24 	vmovups %zmm25,0x1400(%rsp)
  407a92:	50 
  407a93:	62 61 7c 48 10 8e 00 	vmovups 0xc500(%rsi),%zmm25
  407a9a:	c5 00 00 
  407a9d:	62 03 2d 40 25 cb 96 	vpternlogd $0x96,%zmm27,%zmm26,%zmm25
  407aa4:	62 61 7c 48 10 54 24 	vmovups 0x1240(%rsp),%zmm26
  407aab:	49 
  407aac:	62 61 1d 40 ef a6 00 	vpxord 0xce00(%rsi),%zmm28,%zmm28
  407ab3:	ce 00 00 
  407ab6:	62 61 7c 48 11 64 24 	vmovups %zmm28,0x16c0(%rsp)
  407abd:	5b 
  407abe:	62 01 7d 48 ef da    	vpxord %zmm26,%zmm0,%zmm27
  407ac4:	62 01 2d 40 ef e6    	vpxord %zmm30,%zmm26,%zmm28
  407aca:	62 61 7c 48 10 54 24 	vmovups 0xc00(%rsp),%zmm26
  407ad1:	30 
  407ad2:	62 01 0d 40 ef fd    	vpxord %zmm29,%zmm30,%zmm31
  407ad8:	62 03 2d 40 25 eb 36 	vpternlogd $0x36,%zmm27,%zmm26,%zmm29
  407adf:	62 03 2d 40 25 df 6a 	vpternlogd $0x6a,%zmm31,%zmm26,%zmm27
  407ae6:	62 03 1d 40 25 fd 6c 	vpternlogd $0x6c,%zmm29,%zmm28,%zmm31
  407aed:	62 03 25 40 25 e5 56 	vpternlogd $0x56,%zmm29,%zmm27,%zmm28
  407af4:	62 61 1d 40 ef a6 80 	vpxord 0xca80(%rsi),%zmm28,%zmm28
  407afb:	ca 00 00 
  407afe:	62 61 7c 48 11 64 24 	vmovups %zmm28,0x1700(%rsp)
  407b05:	5c 
  407b06:	62 61 7c 48 10 a6 40 	vmovups 0xc540(%rsi),%zmm28
  407b0d:	c5 00 00 
  407b10:	62 03 0d 40 25 e5 96 	vpternlogd $0x96,%zmm29,%zmm30,%zmm28
  407b17:	62 61 7c 48 10 6c 24 	vmovups 0x12c0(%rsp),%zmm29
  407b1e:	4b 
  407b1f:	62 61 05 40 ef be 40 	vpxord 0xce40(%rsi),%zmm31,%zmm31
  407b26:	ce 00 00 
  407b29:	62 61 7c 48 11 7c 24 	vmovups %zmm31,0x1740(%rsp)
  407b30:	5d 
  407b31:	62 61 7c 48 10 7c 24 	vmovups 0xc40(%rsp),%zmm31
  407b38:	31 
  407b39:	62 01 7d 48 ef f5    	vpxord %zmm29,%zmm0,%zmm30
  407b3f:	62 61 15 40 ef d1    	vpxord %zmm1,%zmm29,%zmm26
  407b45:	62 61 75 48 ef ea    	vpxord %zmm2,%zmm1,%zmm29
  407b4b:	62 93 05 40 25 d6 36 	vpternlogd $0x36,%zmm30,%zmm31,%zmm2
  407b52:	62 03 05 40 25 f5 6a 	vpternlogd $0x6a,%zmm29,%zmm31,%zmm30
  407b59:	62 63 2d 40 25 ea 6c 	vpternlogd $0x6c,%zmm2,%zmm26,%zmm29
  407b60:	62 63 0d 40 25 d2 56 	vpternlogd $0x56,%zmm2,%zmm30,%zmm26
  407b67:	62 61 0d 40 ef b6 c0 	vpxord 0xc1c0(%rsi),%zmm30,%zmm30
  407b6e:	c1 00 00 
  407b71:	62 61 7c 48 11 74 24 	vmovups %zmm30,0x1780(%rsp)
  407b78:	5e 
  407b79:	62 61 2d 40 ef b6 c0 	vpxord 0xcac0(%rsi),%zmm26,%zmm30
  407b80:	ca 00 00 
  407b83:	62 61 7c 48 10 96 80 	vmovups 0xc580(%rsi),%zmm26
  407b8a:	c5 00 00 
  407b8d:	62 61 7c 48 11 74 24 	vmovups %zmm30,0x17c0(%rsp)
  407b94:	5f 
  407b95:	62 63 75 48 25 d2 96 	vpternlogd $0x96,%zmm2,%zmm1,%zmm26
  407b9c:	62 f1 7c 48 10 54 24 	vmovups 0x1300(%rsp),%zmm2
  407ba3:	4c 
  407ba4:	62 f1 7c 48 10 4c 24 	vmovups 0x1040(%rsp),%zmm1
  407bab:	41 
  407bac:	62 61 15 40 ef ae 80 	vpxord 0xce80(%rsi),%zmm29,%zmm29
  407bb3:	ce 00 00 
  407bb6:	62 61 7c 48 11 6c 24 	vmovups %zmm29,0x1800(%rsp)
  407bbd:	60 
  407bbe:	62 61 7d 48 ef ea    	vpxord %zmm2,%zmm0,%zmm29
  407bc4:	62 61 6d 48 ef f1    	vpxord %zmm1,%zmm2,%zmm30
  407bca:	62 f1 7c 48 10 54 24 	vmovups 0xc80(%rsp),%zmm2
  407bd1:	32 
  407bd2:	62 61 75 48 ef fb    	vpxord %zmm3,%zmm1,%zmm31
  407bd8:	62 93 6d 48 25 dd 36 	vpternlogd $0x36,%zmm29,%zmm2,%zmm3
  407bdf:	62 03 6d 48 25 ef 6a 	vpternlogd $0x6a,%zmm31,%zmm2,%zmm29
  407be6:	62 f1 7c 48 10 54 24 	vmovups 0x1080(%rsp),%zmm2
  407bed:	42 
  407bee:	62 63 0d 40 25 fb 6c 	vpternlogd $0x6c,%zmm3,%zmm30,%zmm31
  407bf5:	62 63 15 40 25 f3 56 	vpternlogd $0x56,%zmm3,%zmm29,%zmm30
  407bfc:	62 61 0d 40 ef b6 00 	vpxord 0xcb00(%rsi),%zmm30,%zmm30
  407c03:	cb 00 00 
  407c06:	62 61 7c 48 11 74 24 	vmovups %zmm30,0x1840(%rsp)
  407c0d:	61 
  407c0e:	62 61 7c 48 10 b6 c0 	vmovups 0xc5c0(%rsi),%zmm30
  407c15:	c5 00 00 
  407c18:	62 63 75 48 25 f3 96 	vpternlogd $0x96,%zmm3,%zmm1,%zmm30
  407c1f:	62 f1 7c 48 10 5c 24 	vmovups 0x1280(%rsp),%zmm3
  407c26:	4a 
  407c27:	62 61 05 40 ef be c0 	vpxord 0xcec0(%rsi),%zmm31,%zmm31
  407c2e:	ce 00 00 
  407c31:	62 61 7c 48 11 7c 24 	vmovups %zmm31,0x1880(%rsp)
  407c38:	62 
  407c39:	62 61 7c 48 10 7c 24 	vmovups 0xcc0(%rsp),%zmm31
  407c40:	33 
  407c41:	62 61 15 40 ef ae 00 	vpxord 0xc200(%rsi),%zmm29,%zmm29
  407c48:	c2 00 00 
  407c4b:	62 61 7c 48 11 6c 24 	vmovups %zmm29,0x140(%rsp)
  407c52:	05 
  407c53:	62 f1 7d 48 ef cb    	vpxord %zmm3,%zmm0,%zmm1
  407c59:	62 61 65 48 ef ea    	vpxord %zmm2,%zmm3,%zmm29
  407c5f:	62 f1 6d 48 ef dc    	vpxord %zmm4,%zmm2,%zmm3
  407c65:	62 f3 05 40 25 e1 36 	vpternlogd $0x36,%zmm1,%zmm31,%zmm4
  407c6c:	62 f3 05 40 25 cb 6a 	vpternlogd $0x6a,%zmm3,%zmm31,%zmm1
  407c73:	62 61 7c 48 10 be 00 	vmovups 0xc600(%rsi),%zmm31
  407c7a:	c6 00 00 
  407c7d:	62 f3 15 40 25 dc 6c 	vpternlogd $0x6c,%zmm4,%zmm29,%zmm3
  407c84:	62 63 75 48 25 ec 56 	vpternlogd $0x56,%zmm4,%zmm1,%zmm29
  407c8b:	62 63 6d 48 25 fc 96 	vpternlogd $0x96,%zmm4,%zmm2,%zmm31
  407c92:	62 f1 7c 48 10 64 24 	vmovups 0x1180(%rsp),%zmm4
  407c99:	46 
  407c9a:	62 61 7c 48 11 7c 24 	vmovups %zmm31,0x800(%rsp)
  407ca1:	20 
  407ca2:	62 61 7c 48 10 7c 24 	vmovups 0x1140(%rsp),%zmm31
  407ca9:	45 
  407caa:	62 f1 65 48 ef 9e 00 	vpxord 0xcf00(%rsi),%zmm3,%zmm3
  407cb1:	cf 00 00 
  407cb4:	62 f1 7c 48 11 5c 24 	vmovups %zmm3,0x18c0(%rsp)
  407cbb:	63 
  407cbc:	62 f1 7d 48 ef d4    	vpxord %zmm4,%zmm0,%zmm2
  407cc2:	62 91 5d 48 ef df    	vpxord %zmm31,%zmm4,%zmm3
  407cc8:	62 f1 7c 48 10 64 24 	vmovups 0xd00(%rsp),%zmm4
  407ccf:	34 
  407cd0:	62 f1 75 48 ef 8e 40 	vpxord 0xc240(%rsi),%zmm1,%zmm1
  407cd7:	c2 00 00 
  407cda:	62 f1 7c 48 11 4c 24 	vmovups %zmm1,0x180(%rsp)
  407ce1:	06 
  407ce2:	62 f1 05 40 ef cd    	vpxord %zmm5,%zmm31,%zmm1
  407ce8:	62 f3 5d 48 25 ea 36 	vpternlogd $0x36,%zmm2,%zmm4,%zmm5
  407cef:	62 f3 5d 48 25 d1 6a 	vpternlogd $0x6a,%zmm1,%zmm4,%zmm2
  407cf6:	62 f3 65 48 25 cd 6c 	vpternlogd $0x6c,%zmm5,%zmm3,%zmm1
  407cfd:	62 f3 6d 48 25 dd 56 	vpternlogd $0x56,%zmm5,%zmm2,%zmm3
  407d04:	62 f1 6d 48 ef 96 80 	vpxord 0xc280(%rsi),%zmm2,%zmm2
  407d0b:	c2 00 00 
  407d0e:	62 f1 7c 48 11 54 24 	vmovups %zmm2,0x300(%rsp)
  407d15:	0c 
  407d16:	62 f1 7c 48 10 96 40 	vmovups 0xc640(%rsi),%zmm2
  407d1d:	c6 00 00 
  407d20:	62 f3 05 40 25 d5 96 	vpternlogd $0x96,%zmm5,%zmm31,%zmm2
  407d27:	62 f1 7c 48 10 6c 24 	vmovups 0x1100(%rsp),%zmm5
  407d2e:	44 
  407d2f:	62 61 7c 48 10 7c 24 	vmovups 0xd40(%rsp),%zmm31
  407d36:	35 
  407d37:	62 f1 7c 48 11 54 24 	vmovups %zmm2,0x840(%rsp)
  407d3e:	21 
  407d3f:	62 f1 75 48 ef 8e 40 	vpxord 0xcf40(%rsi),%zmm1,%zmm1
  407d46:	cf 00 00 
  407d49:	62 f1 7c 48 11 4c 24 	vmovups %zmm1,0x1900(%rsp)
  407d50:	64 
  407d51:	62 f1 7c 48 10 4c 24 	vmovups 0x11c0(%rsp),%zmm1
  407d58:	47 
  407d59:	62 f1 7d 48 ef e1    	vpxord %zmm1,%zmm0,%zmm4
  407d5f:	62 f1 55 48 ef d6    	vpxord %zmm6,%zmm5,%zmm2
  407d65:	62 f3 05 40 25 f4 36 	vpternlogd $0x36,%zmm4,%zmm31,%zmm6
  407d6c:	62 f3 05 40 25 e2 6a 	vpternlogd $0x6a,%zmm2,%zmm31,%zmm4
  407d73:	62 61 7c 48 10 be 80 	vmovups 0xc680(%rsi),%zmm31
  407d7a:	c6 00 00 
  407d7d:	62 63 55 48 25 fe 96 	vpternlogd $0x96,%zmm6,%zmm5,%zmm31
  407d84:	62 61 7c 48 11 7c 24 	vmovups %zmm31,0x880(%rsp)
  407d8b:	22 
  407d8c:	62 61 7c 48 10 7c 24 	vmovups 0xd80(%rsp),%zmm31
  407d93:	36 
  407d94:	62 f1 75 48 ef cd    	vpxord %zmm5,%zmm1,%zmm1
  407d9a:	62 f3 75 48 25 d6 6c 	vpternlogd $0x6c,%zmm6,%zmm1,%zmm2
  407da1:	62 f3 5d 48 25 ce 56 	vpternlogd $0x56,%zmm6,%zmm4,%zmm1
  407da8:	62 f1 7c 48 10 74 24 	vmovups 0x10c0(%rsp),%zmm6
  407daf:	43 
  407db0:	62 f1 5d 48 ef a6 c0 	vpxord 0xc2c0(%rsi),%zmm4,%zmm4
  407db7:	c2 00 00 
  407dba:	62 f1 7c 48 11 64 24 	vmovups %zmm4,0x340(%rsp)
  407dc1:	0d 
  407dc2:	62 d1 7d 48 ef e3    	vpxord %zmm11,%zmm0,%zmm4
  407dc8:	62 f1 25 48 ef ee    	vpxord %zmm6,%zmm11,%zmm5
  407dce:	62 71 4d 48 ef df    	vpxord %zmm7,%zmm6,%zmm11
  407dd4:	62 f3 05 40 25 fc 36 	vpternlogd $0x36,%zmm4,%zmm31,%zmm7
  407ddb:	62 d3 05 40 25 e3 6a 	vpternlogd $0x6a,%zmm11,%zmm31,%zmm4
  407de2:	62 61 7c 48 10 7c 24 	vmovups 0xf80(%rsp),%zmm31
  407de9:	3e 
  407dea:	62 73 55 48 25 df 6c 	vpternlogd $0x6c,%zmm7,%zmm5,%zmm11
  407df1:	62 f3 5d 48 25 ef 56 	vpternlogd $0x56,%zmm7,%zmm4,%zmm5
  407df8:	62 f1 5d 48 ef a6 00 	vpxord 0xc300(%rsi),%zmm4,%zmm4
  407dff:	c3 00 00 
  407e02:	62 f1 7c 48 11 64 24 	vmovups %zmm4,0x380(%rsp)
  407e09:	0e 
  407e0a:	62 f1 55 48 ef a6 00 	vpxord 0xc800(%rsi),%zmm5,%zmm4
  407e11:	c8 00 00 
  407e14:	62 f1 25 48 ef ae c0 	vpxord 0xcfc0(%rsi),%zmm11,%zmm5
  407e1b:	cf 00 00 
  407e1e:	62 71 7c 48 10 9e c0 	vmovups 0xc6c0(%rsi),%zmm11
  407e25:	c6 00 00 
  407e28:	62 f1 7c 48 11 6c 24 	vmovups %zmm5,0x1940(%rsp)
  407e2f:	65 
  407e30:	62 73 4d 48 25 df 96 	vpternlogd $0x96,%zmm7,%zmm6,%zmm11
  407e37:	62 71 7c 48 11 5c 24 	vmovups %zmm11,0x8c0(%rsp)
  407e3e:	23 
  407e3f:	62 d1 7d 48 ef fc    	vpxord %zmm12,%zmm0,%zmm7
  407e45:	62 d1 05 40 ef e8    	vpxord %zmm8,%zmm31,%zmm5
  407e4b:	62 73 2d 48 25 c7 36 	vpternlogd $0x36,%zmm7,%zmm10,%zmm8
  407e52:	62 f3 2d 48 25 fd 6a 	vpternlogd $0x6a,%zmm5,%zmm10,%zmm7
  407e59:	62 71 45 48 ef 96 40 	vpxord 0xc340(%rsi),%zmm7,%zmm10
  407e60:	c3 00 00 
  407e63:	62 71 7c 48 11 54 24 	vmovups %zmm10,0x3c0(%rsp)
  407e6a:	0f 
  407e6b:	62 71 7c 48 10 96 00 	vmovups 0xc700(%rsi),%zmm10
  407e72:	c7 00 00 
  407e75:	62 53 05 40 25 d0 96 	vpternlogd $0x96,%zmm8,%zmm31,%zmm10
  407e7c:	62 71 7c 48 11 54 24 	vmovups %zmm10,0x900(%rsp)
  407e83:	24 
  407e84:	62 91 1d 48 ef f7    	vpxord %zmm31,%zmm12,%zmm6
  407e8a:	62 d3 4d 48 25 e8 6c 	vpternlogd $0x6c,%zmm8,%zmm6,%zmm5
  407e91:	62 d3 45 48 25 f0 56 	vpternlogd $0x56,%zmm8,%zmm7,%zmm6
  407e98:	62 71 7c 48 10 44 24 	vmovups 0xfc0(%rsp),%zmm8
  407e9f:	3f 
  407ea0:	62 f1 4d 48 ef be 40 	vpxord 0xc840(%rsi),%zmm6,%zmm7
  407ea7:	c8 00 00 
  407eaa:	62 f1 7c 48 10 74 24 	vmovups 0x1440(%rsp),%zmm6
  407eb1:	51 
  407eb2:	62 71 55 48 ef a6 00 	vpxord 0xcc00(%rsi),%zmm5,%zmm12
  407eb9:	cc 00 00 
  407ebc:	62 f1 7c 48 10 ae 40 	vmovups 0xc740(%rsi),%zmm5
  407ec3:	c7 00 00 
  407ec6:	62 51 7d 48 ef dd    	vpxord %zmm13,%zmm0,%zmm11
  407ecc:	62 51 3d 48 ef d1    	vpxord %zmm9,%zmm8,%zmm10
  407ed2:	62 53 4d 48 25 cb 36 	vpternlogd $0x36,%zmm11,%zmm6,%zmm9
  407ed9:	62 53 4d 48 25 da 6a 	vpternlogd $0x6a,%zmm10,%zmm6,%zmm11
  407ee0:	62 d3 3d 48 25 e9 96 	vpternlogd $0x96,%zmm9,%zmm8,%zmm5
  407ee7:	62 f1 7c 48 11 6c 24 	vmovups %zmm5,0x940(%rsp)
  407eee:	25 
  407eef:	62 41 15 48 ef f8    	vpxord %zmm8,%zmm13,%zmm31
  407ef5:	62 53 05 40 25 d1 6c 	vpternlogd $0x6c,%zmm9,%zmm31,%zmm10
  407efc:	62 43 25 48 25 f9 56 	vpternlogd $0x56,%zmm9,%zmm11,%zmm31
  407f03:	62 71 7c 48 10 44 24 	vmovups 0x9c0(%rsp),%zmm8
  407f0a:	27 
  407f0b:	62 71 7c 48 10 4c 24 	vmovups 0x1000(%rsp),%zmm9
  407f12:	40 
  407f13:	62 71 25 48 ef ae 80 	vpxord 0xc380(%rsi),%zmm11,%zmm13
  407f1a:	c3 00 00 
  407f1d:	62 71 7c 48 11 6c 24 	vmovups %zmm13,0x400(%rsp)
  407f24:	10 
  407f25:	62 f1 05 40 ef b6 80 	vpxord 0xc880(%rsi),%zmm31,%zmm6
  407f2c:	c8 00 00 
  407f2f:	62 71 2d 48 ef ae 40 	vpxord 0xcc40(%rsi),%zmm10,%zmm13
  407f36:	cc 00 00 
  407f39:	62 d1 7d 48 ef e8    	vpxord %zmm8,%zmm0,%zmm5
  407f3f:	62 51 3d 48 ef d1    	vpxord %zmm9,%zmm8,%zmm10
  407f45:	62 71 7c 48 10 44 24 	vmovups 0x1340(%rsp),%zmm8
  407f4c:	4d 
  407f4d:	62 61 7c 48 10 7c 24 	vmovups 0x1480(%rsp),%zmm31
  407f54:	52 
  407f55:	62 51 35 48 ef d8    	vpxord %zmm8,%zmm9,%zmm11
  407f5b:	62 73 05 40 25 c5 36 	vpternlogd $0x36,%zmm5,%zmm31,%zmm8
  407f62:	62 d3 05 40 25 eb 6a 	vpternlogd $0x6a,%zmm11,%zmm31,%zmm5
  407f69:	62 53 2d 48 25 d8 6c 	vpternlogd $0x6c,%zmm8,%zmm10,%zmm11
  407f70:	62 53 55 48 25 d0 56 	vpternlogd $0x56,%zmm8,%zmm5,%zmm10
  407f77:	62 f1 55 48 ef ae c0 	vpxord 0xc3c0(%rsi),%zmm5,%zmm5
  407f7e:	c3 00 00 
  407f81:	62 f1 7c 48 11 6c 24 	vmovups %zmm5,0xc0(%rsp)
  407f88:	03 
  407f89:	62 f1 2d 48 ef ae c0 	vpxord 0xc8c0(%rsi),%zmm10,%zmm5
  407f90:	c8 00 00 
  407f93:	62 71 7c 48 10 96 80 	vmovups 0xc780(%rsi),%zmm10
  407f9a:	c7 00 00 
  407f9d:	62 53 35 48 25 d0 96 	vpternlogd $0x96,%zmm8,%zmm9,%zmm10
  407fa4:	62 71 7c 48 11 54 24 	vmovups %zmm10,0x4c0(%rsp)
  407fab:	13 
  407fac:	62 71 0d 48 ef b6 00 	vpxord 0xc000(%rsi),%zmm14,%zmm14
  407fb3:	c0 00 00 
  407fb6:	62 31 7d 48 ef c9    	vpxord %zmm17,%zmm0,%zmm9
  407fbc:	62 71 75 40 ef c4    	vpxord %zmm4,%zmm17,%zmm8
  407fc2:	62 c1 5d 48 ef cc    	vpxord %zmm12,%zmm4,%zmm17
  407fc8:	62 53 0d 48 25 e1 36 	vpternlogd $0x36,%zmm9,%zmm14,%zmm12
  407fcf:	62 33 0d 48 25 c9 6a 	vpternlogd $0x6a,%zmm17,%zmm14,%zmm9
  407fd6:	62 71 7c 48 10 b6 c0 	vmovups 0xd7c0(%rsi),%zmm14
  407fdd:	d7 00 00 
  407fe0:	62 c3 3d 48 25 cc 6c 	vpternlogd $0x6c,%zmm12,%zmm8,%zmm17
  407fe7:	62 53 35 48 25 c4 56 	vpternlogd $0x56,%zmm12,%zmm9,%zmm8
  407fee:	62 53 5d 48 25 f4 96 	vpternlogd $0x96,%zmm12,%zmm4,%zmm14
  407ff5:	62 71 7c 48 11 74 24 	vmovups %zmm14,0x80(%rsp)
  407ffc:	02 
  407ffd:	62 71 7c 48 10 b6 80 	vmovups 0xd480(%rsi),%zmm14
  408004:	d4 00 00 
  408007:	62 71 35 48 ef 96 00 	vpxord 0xd000(%rsi),%zmm9,%zmm10
  40800e:	d0 00 00 
  408011:	62 e1 7d 40 ef 86 40 	vpxord 0xc040(%rsi),%zmm16,%zmm16
  408018:	c0 00 00 
  40801b:	62 71 3d 48 ef 8e 00 	vpxord 0xd900(%rsi),%zmm8,%zmm9
  408022:	d9 00 00 
  408025:	62 31 7d 48 ef c3    	vpxord %zmm19,%zmm0,%zmm8
  40802b:	62 51 45 48 ef e5    	vpxord %zmm13,%zmm7,%zmm12
  408031:	62 53 7d 40 25 e8 36 	vpternlogd $0x36,%zmm8,%zmm16,%zmm13
  408038:	62 53 7d 40 25 c4 6a 	vpternlogd $0x6a,%zmm12,%zmm16,%zmm8
  40803f:	62 71 7c 48 11 4c 24 	vmovups %zmm9,0x980(%rsp)
  408046:	26 
  408047:	62 e1 7c 48 10 86 00 	vmovups 0xd400(%rsi),%zmm16
  40804e:	d4 00 00 
  408051:	62 71 7c 48 11 54 24 	vmovups %zmm10,0x100(%rsp)
  408058:	04 
  408059:	62 c3 45 48 25 c5 96 	vpternlogd $0x96,%zmm13,%zmm7,%zmm16
  408060:	62 e1 7c 48 11 44 24 	vmovups %zmm16,0x500(%rsp)
  408067:	14 
  408068:	62 71 65 40 ef cf    	vpxord %zmm7,%zmm19,%zmm9
  40806e:	62 53 35 48 25 e5 6c 	vpternlogd $0x6c,%zmm13,%zmm9,%zmm12
  408075:	62 53 3d 48 25 cd 56 	vpternlogd $0x56,%zmm13,%zmm8,%zmm9
  40807c:	62 f1 3d 48 ef a6 40 	vpxord 0xd040(%rsi),%zmm8,%zmm4
  408083:	d0 00 00 
  408086:	62 71 35 48 ef 86 40 	vpxord 0xd940(%rsi),%zmm9,%zmm8
  40808d:	d9 00 00 
  408090:	62 71 1d 48 ef 8e 00 	vpxord 0xdd00(%rsi),%zmm12,%zmm9
  408097:	dd 00 00 
  40809a:	62 71 7c 48 10 a6 40 	vmovups 0xd440(%rsi),%zmm12
  4080a1:	d4 00 00 
  4080a4:	62 f1 7c 48 11 64 24 	vmovups %zmm4,0x440(%rsp)
  4080ab:	11 
  4080ac:	62 71 25 48 ef 9e 80 	vpxord 0xcc80(%rsi),%zmm11,%zmm11
  4080b3:	cc 00 00 
  4080b6:	62 a1 7d 48 ef dd    	vpxord %zmm21,%zmm0,%zmm19
  4080bc:	62 d1 4d 48 ef e3    	vpxord %zmm11,%zmm6,%zmm4
  4080c2:	62 33 6d 40 25 db 36 	vpternlogd $0x36,%zmm19,%zmm18,%zmm11
  4080c9:	62 e3 6d 40 25 dc 6a 	vpternlogd $0x6a,%zmm4,%zmm18,%zmm19
  4080d0:	62 53 4d 48 25 e3 96 	vpternlogd $0x96,%zmm11,%zmm6,%zmm12
  4080d7:	62 71 7c 48 11 64 24 	vmovups %zmm12,0x540(%rsp)
  4080de:	15 
  4080df:	62 71 7c 48 10 64 24 	vmovups 0x1500(%rsp),%zmm12
  4080e6:	54 
  4080e7:	62 e1 5d 40 ef a6 c0 	vpxord 0xc0c0(%rsi),%zmm20,%zmm20
  4080ee:	c0 00 00 
  4080f1:	62 e1 55 40 ef ee    	vpxord %zmm6,%zmm21,%zmm21
  4080f7:	62 b1 7d 48 ef f7    	vpxord %zmm23,%zmm0,%zmm6
  4080fd:	62 51 55 48 ef ef    	vpxord %zmm15,%zmm5,%zmm13
  408103:	62 73 5d 40 25 fe 36 	vpternlogd $0x36,%zmm6,%zmm20,%zmm15
  40810a:	62 d3 55 40 25 e3 6c 	vpternlogd $0x6c,%zmm11,%zmm21,%zmm4
  408111:	62 c3 65 40 25 eb 56 	vpternlogd $0x56,%zmm11,%zmm19,%zmm21
  408118:	62 d3 5d 40 25 f5 6a 	vpternlogd $0x6a,%zmm13,%zmm20,%zmm6
  40811f:	62 53 55 48 25 f7 96 	vpternlogd $0x96,%zmm15,%zmm5,%zmm14
  408126:	62 71 7c 48 11 74 24 	vmovups %zmm14,0x5c0(%rsp)
  40812d:	17 
  40812e:	62 71 45 40 ef dd    	vpxord %zmm5,%zmm23,%zmm11
  408134:	62 53 25 48 25 ef 6c 	vpternlogd $0x6c,%zmm15,%zmm11,%zmm13
  40813b:	62 53 4d 48 25 df 56 	vpternlogd $0x56,%zmm15,%zmm6,%zmm11
  408142:	62 e1 7c 48 10 7c 24 	vmovups 0x1540(%rsp),%zmm23
  408149:	55 
  40814a:	62 e1 4d 48 ef 86 c0 	vpxord 0xd0c0(%rsi),%zmm6,%zmm16
  408151:	d0 00 00 
  408154:	62 f1 15 48 ef b6 80 	vpxord 0xdd80(%rsi),%zmm13,%zmm6
  40815b:	dd 00 00 
  40815e:	62 71 7c 48 10 6c 24 	vmovups 0x15c0(%rsp),%zmm13
  408165:	57 
  408166:	62 e1 7c 48 11 44 24 	vmovups %zmm16,0x1c0(%rsp)
  40816d:	07 
  40816e:	62 61 3d 40 ef 86 40 	vpxord 0xc140(%rsi),%zmm24,%zmm24
  408175:	c1 00 00 
  408178:	62 e1 25 48 ef a6 c0 	vpxord 0xd9c0(%rsi),%zmm11,%zmm20
  40817f:	d9 00 00 
  408182:	62 81 7d 48 ef c4    	vpxord %zmm28,%zmm0,%zmm16
  408188:	62 51 1d 48 ef dd    	vpxord %zmm13,%zmm12,%zmm11
  40818e:	62 33 3d 40 25 e8 36 	vpternlogd $0x36,%zmm16,%zmm24,%zmm13
  408195:	62 c3 3d 40 25 c3 6a 	vpternlogd $0x6a,%zmm11,%zmm24,%zmm16
  40819c:	62 e1 7c 48 11 64 24 	vmovups %zmm20,0x740(%rsp)
  4081a3:	1d 
  4081a4:	62 e1 7c 48 10 64 24 	vmovups 0x1680(%rsp),%zmm20
  4081ab:	5a 
  4081ac:	62 71 75 40 ef 96 c0 	vpxord 0xdcc0(%rsi),%zmm17,%zmm10
  4081b3:	dc 00 00 
  4081b6:	62 e1 7c 48 10 4c 24 	vmovups 0x14c0(%rsp),%zmm17
  4081bd:	53 
  4081be:	62 f1 65 40 ef be 80 	vpxord 0xd080(%rsi),%zmm19,%zmm7
  4081c5:	d0 00 00 
  4081c8:	62 f1 7c 48 11 7c 24 	vmovups %zmm7,0x480(%rsp)
  4081cf:	12 
  4081d0:	62 e1 7c 48 10 5c 24 	vmovups 0x1600(%rsp),%zmm19
  4081d7:	58 
  4081d8:	62 41 1d 40 ef e4    	vpxord %zmm12,%zmm28,%zmm28
  4081de:	62 61 7d 40 ef 86 40 	vpxord 0xd140(%rsi),%zmm16,%zmm24
  4081e5:	d1 00 00 
  4081e8:	62 f1 5d 48 ef be 40 	vpxord 0xdd40(%rsi),%zmm4,%zmm7
  4081ef:	dd 00 00 
  4081f2:	62 53 1d 40 25 dd 6c 	vpternlogd $0x6c,%zmm13,%zmm28,%zmm11
  4081f9:	62 43 7d 40 25 e5 56 	vpternlogd $0x56,%zmm13,%zmm16,%zmm28
  408200:	62 e1 7c 48 10 86 00 	vmovups 0xd500(%rsi),%zmm16
  408207:	d5 00 00 
  40820a:	62 f1 7c 48 10 a6 c0 	vmovups 0xd4c0(%rsi),%zmm4
  408211:	d4 00 00 
  408214:	62 61 7c 48 11 44 24 	vmovups %zmm24,0x240(%rsp)
  40821b:	09 
  40821c:	62 c3 1d 48 25 c5 96 	vpternlogd $0x96,%zmm13,%zmm12,%zmm16
  408223:	62 e1 7c 48 11 44 24 	vmovups %zmm16,0x6c0(%rsp)
  40822a:	1b 
  40822b:	62 e1 7c 48 10 86 40 	vmovups 0xd540(%rsi),%zmm16
  408232:	d5 00 00 
  408235:	62 e1 4d 40 ef b6 00 	vpxord 0xc100(%rsi),%zmm22,%zmm22
  40823c:	c1 00 00 
  40823f:	62 91 7d 48 ef e9    	vpxord %zmm25,%zmm0,%zmm5
  408245:	62 31 75 40 ef ff    	vpxord %zmm23,%zmm17,%zmm15
  40824b:	62 e3 4d 40 25 fd 36 	vpternlogd $0x36,%zmm5,%zmm22,%zmm23
  408252:	62 d3 4d 40 25 ef 6a 	vpternlogd $0x6a,%zmm15,%zmm22,%zmm5
  408259:	62 b3 75 40 25 e7 96 	vpternlogd $0x96,%zmm23,%zmm17,%zmm4
  408260:	62 f1 7c 48 11 64 24 	vmovups %zmm4,0x600(%rsp)
  408267:	18 
  408268:	62 e1 55 40 ef 96 80 	vpxord 0xd980(%rsi),%zmm21,%zmm18
  40826f:	d9 00 00 
  408272:	62 e1 7c 48 11 54 24 	vmovups %zmm18,0x7c0(%rsp)
  408279:	1f 
  40827a:	62 e1 7c 48 10 54 24 	vmovups 0x1640(%rsp),%zmm18
  408281:	59 
  408282:	62 e1 7c 48 10 ae 80 	vmovups 0xd580(%rsi),%zmm21
  408289:	d5 00 00 
  40828c:	62 21 35 40 ef c9    	vpxord %zmm17,%zmm25,%zmm25
  408292:	62 e1 7c 48 10 4c 24 	vmovups 0x1580(%rsp),%zmm17
  408299:	56 
  40829a:	62 33 35 40 25 ff 6c 	vpternlogd $0x6c,%zmm23,%zmm25,%zmm15
  4082a1:	62 23 55 48 25 cf 56 	vpternlogd $0x56,%zmm23,%zmm5,%zmm25
  4082a8:	62 e1 55 48 ef b6 00 	vpxord 0xd100(%rsi),%zmm5,%zmm22
  4082af:	d1 00 00 
  4082b2:	62 f1 35 40 ef ae 00 	vpxord 0xda00(%rsi),%zmm25,%zmm5
  4082b9:	da 00 00 
  4082bc:	62 61 25 40 ef 9e 80 	vpxord 0xc180(%rsi),%zmm27,%zmm27
  4082c3:	c1 00 00 
  4082c6:	62 f1 7c 48 11 6c 24 	vmovups %zmm5,0x680(%rsp)
  4082cd:	1a 
  4082ce:	62 e1 7c 48 11 74 24 	vmovups %zmm22,0x200(%rsp)
  4082d5:	08 
  4082d6:	62 61 7c 48 10 4c 24 	vmovups 0x1880(%rsp),%zmm25
  4082dd:	62 
  4082de:	62 11 7d 48 ef f2    	vpxord %zmm26,%zmm0,%zmm14
  4082e4:	62 f1 05 48 ef ae c0 	vpxord 0xddc0(%rsi),%zmm15,%zmm5
  4082eb:	dd 00 00 
  4082ee:	62 f1 1d 40 ef a6 40 	vpxord 0xda40(%rsi),%zmm28,%zmm4
  4082f5:	da 00 00 
  4082f8:	62 31 75 40 ef fa    	vpxord %zmm18,%zmm17,%zmm15
  4082fe:	62 c3 25 40 25 d6 36 	vpternlogd $0x36,%zmm14,%zmm27,%zmm18
  408305:	62 53 25 40 25 f7 6a 	vpternlogd $0x6a,%zmm15,%zmm27,%zmm14
  40830c:	62 f1 7c 48 11 64 24 	vmovups %zmm4,0x640(%rsp)
  408313:	19 
  408314:	62 a3 75 40 25 c2 96 	vpternlogd $0x96,%zmm18,%zmm17,%zmm16
  40831b:	62 e1 7c 48 11 44 24 	vmovups %zmm16,0x1380(%rsp)
  408322:	4e 
  408323:	62 f1 25 48 ef a6 00 	vpxord 0xde00(%rsi),%zmm11,%zmm4
  40832a:	de 00 00 
  40832d:	62 11 7d 48 ef de    	vpxord %zmm30,%zmm0,%zmm11
  408333:	62 31 0d 40 ef eb    	vpxord %zmm19,%zmm30,%zmm13
  408339:	62 61 7c 48 10 74 24 	vmovups 0x1780(%rsp),%zmm30
  408340:	5e 
  408341:	62 a1 65 40 ef c4    	vpxord %zmm20,%zmm19,%zmm16
  408347:	62 c3 0d 40 25 e3 36 	vpternlogd $0x36,%zmm11,%zmm30,%zmm20
  40834e:	62 33 0d 40 25 d8 6a 	vpternlogd $0x6a,%zmm16,%zmm30,%zmm11
  408355:	62 61 7c 48 10 74 24 	vmovups 0x1900(%rsp),%zmm30
  40835c:	64 
  40835d:	62 a3 15 48 25 c4 6c 	vpternlogd $0x6c,%zmm20,%zmm13,%zmm16
  408364:	62 33 25 48 25 ec 56 	vpternlogd $0x56,%zmm20,%zmm11,%zmm13
  40836b:	62 a3 65 40 25 ec 96 	vpternlogd $0x96,%zmm20,%zmm19,%zmm21
  408372:	62 e1 7c 48 10 5c 24 	vmovups 0x17c0(%rsp),%zmm19
  408379:	5f 
  40837a:	62 e1 7c 48 10 a6 80 	vmovups 0xde80(%rsi),%zmm20
  408381:	de 00 00 
  408384:	62 e1 7c 48 11 6c 24 	vmovups %zmm21,0x580(%rsp)
  40838b:	16 
  40838c:	62 21 2d 40 ef d1    	vpxord %zmm17,%zmm26,%zmm26
  408392:	62 33 2d 40 25 fa 6c 	vpternlogd $0x6c,%zmm18,%zmm26,%zmm15
  408399:	62 23 0d 48 25 d2 56 	vpternlogd $0x56,%zmm18,%zmm14,%zmm26
  4083a0:	62 e1 7c 48 10 4c 24 	vmovups 0x16c0(%rsp),%zmm17
  4083a7:	5b 
  4083a8:	62 e1 7c 48 10 54 24 	vmovups 0x1700(%rsp),%zmm18
  4083af:	5c 
  4083b0:	62 61 0d 48 ef 9e 80 	vpxord 0xd180(%rsi),%zmm14,%zmm27
  4083b7:	d1 00 00 
  4083ba:	62 61 2d 40 ef a6 80 	vpxord 0xda80(%rsi),%zmm26,%zmm28
  4083c1:	da 00 00 
  4083c4:	62 71 15 48 ef b6 c0 	vpxord 0xdac0(%rsi),%zmm13,%zmm14
  4083cb:	da 00 00 
  4083ce:	62 71 25 48 ef a6 c0 	vpxord 0xd1c0(%rsi),%zmm11,%zmm12
  4083d5:	d1 00 00 
  4083d8:	62 61 7c 48 11 64 24 	vmovups %zmm28,0x700(%rsp)
  4083df:	1c 
  4083e0:	62 71 7c 48 11 64 24 	vmovups %zmm12,0x2c0(%rsp)
  4083e7:	0b 
  4083e8:	62 71 7c 48 11 74 24 	vmovups %zmm14,0x780(%rsp)
  4083ef:	1e 
  4083f0:	62 61 7c 48 11 5c 24 	vmovups %zmm27,0x280(%rsp)
  4083f7:	0a 
  4083f8:	62 71 7c 48 10 6c 24 	vmovups 0x1740(%rsp),%zmm13
  4083ff:	5d 
  408400:	62 71 7c 48 10 64 24 	vmovups 0x1840(%rsp),%zmm12
  408407:	61 
  408408:	62 71 7c 48 10 74 24 	vmovups 0x18c0(%rsp),%zmm14
  40840f:	63 
  408410:	62 71 7c 48 10 5c 24 	vmovups 0x1940(%rsp),%zmm11
  408417:	65 
  408418:	62 61 05 48 ef a6 40 	vpxord 0xde40(%rsi),%zmm15,%zmm28
  40841f:	de 00 00 
  408422:	62 61 15 40 ef ae 40 	vpxord 0xcb40(%rsi),%zmm29,%zmm29
  408429:	cb 00 00 
  40842c:	62 f1 65 48 ef 9e 80 	vpxord 0xcb80(%rsi),%zmm3,%zmm3
  408433:	cb 00 00 
  408436:	62 f1 75 48 ef 8e c0 	vpxord 0xcbc0(%rsi),%zmm1,%zmm1
  40843d:	cb 00 00 
  408440:	62 f1 6d 48 ef 96 80 	vpxord 0xcf80(%rsi),%zmm2,%zmm2
  408447:	cf 00 00 
  40844a:	62 71 7c 48 10 7c 24 	vmovups 0x1800(%rsp),%zmm15
  408451:	60 
  408452:	62 21 7d 40 ef d4    	vpxord %zmm20,%zmm16,%zmm26
  408458:	62 e1 7c 48 10 74 24 	vmovups 0x800(%rsp),%zmm22
  40845f:	20 
  408460:	62 e1 7c 48 10 44 24 	vmovups 0x13c0(%rsp),%zmm16
  408467:	4f 
  408468:	62 e1 7c 48 10 6c 24 	vmovups 0x140(%rsp),%zmm21
  40846f:	05 
  408470:	62 a1 7d 48 ef e6    	vpxord %zmm22,%zmm0,%zmm20
  408476:	62 a1 7d 40 ef f9    	vpxord %zmm17,%zmm16,%zmm23
  40847c:	62 a3 55 40 25 cc 36 	vpternlogd $0x36,%zmm20,%zmm21,%zmm17
  408483:	62 a3 55 40 25 e7 6a 	vpternlogd $0x6a,%zmm23,%zmm21,%zmm20
  40848a:	62 e1 7c 48 10 6c 24 	vmovups 0x1400(%rsp),%zmm21
  408491:	50 
  408492:	62 21 4d 40 ef d8    	vpxord %zmm16,%zmm22,%zmm27
  408498:	62 a3 25 40 25 f9 6c 	vpternlogd $0x6c,%zmm17,%zmm27,%zmm23
  40849f:	62 23 5d 40 25 d9 56 	vpternlogd $0x56,%zmm17,%zmm20,%zmm27
  4084a6:	62 61 25 40 ef be 00 	vpxord 0xdb00(%rsi),%zmm27,%zmm31
  4084ad:	db 00 00 
  4084b0:	62 61 45 40 ef 9e c0 	vpxord 0xdec0(%rsi),%zmm23,%zmm27
  4084b7:	de 00 00 
  4084ba:	62 e1 7c 48 10 be c0 	vmovups 0xd5c0(%rsi),%zmm23
  4084c1:	d5 00 00 
  4084c4:	62 61 7c 48 11 7c 24 	vmovups %zmm31,0x9c0(%rsp)
  4084cb:	27 
  4084cc:	62 a3 7d 40 25 f9 96 	vpternlogd $0x96,%zmm17,%zmm16,%zmm23
  4084d3:	62 e1 7c 48 10 4c 24 	vmovups 0x840(%rsp),%zmm17
  4084da:	21 
  4084db:	62 e1 7c 48 10 44 24 	vmovups 0x180(%rsp),%zmm16
  4084e2:	06 
  4084e3:	62 61 5d 40 ef 86 00 	vpxord 0xd200(%rsi),%zmm20,%zmm24
  4084ea:	d2 00 00 
  4084ed:	62 a1 7d 48 ef e1    	vpxord %zmm17,%zmm0,%zmm20
  4084f3:	62 a1 75 40 ef f5    	vpxord %zmm21,%zmm17,%zmm22
  4084f9:	62 c1 55 40 ef cd    	vpxord %zmm13,%zmm21,%zmm17
  4084ff:	62 33 7d 40 25 ec 36 	vpternlogd $0x36,%zmm20,%zmm16,%zmm13
  408506:	62 a3 7d 40 25 e1 6a 	vpternlogd $0x6a,%zmm17,%zmm16,%zmm20
  40850d:	62 c3 4d 40 25 cd 6c 	vpternlogd $0x6c,%zmm13,%zmm22,%zmm17
  408514:	62 c3 5d 40 25 f5 56 	vpternlogd $0x56,%zmm13,%zmm20,%zmm22
  40851b:	62 e1 5d 40 ef 86 40 	vpxord 0xd240(%rsi),%zmm20,%zmm16
  408522:	d2 00 00 
  408525:	62 e1 4d 40 ef a6 40 	vpxord 0xdb40(%rsi),%zmm22,%zmm20
  40852c:	db 00 00 
  40852f:	62 e1 7c 48 10 b6 00 	vmovups 0xd600(%rsi),%zmm22
  408536:	d6 00 00 
  408539:	62 e1 7c 48 11 64 24 	vmovups %zmm20,0x1440(%rsp)
  408540:	51 
  408541:	62 e1 7c 48 10 64 24 	vmovups 0x300(%rsp),%zmm20
  408548:	0c 
  408549:	62 c3 55 40 25 f5 96 	vpternlogd $0x96,%zmm13,%zmm21,%zmm22
  408550:	62 71 7c 48 10 6c 24 	vmovups 0x880(%rsp),%zmm13
  408557:	22 
  408558:	62 e1 75 40 ef 8e 00 	vpxord 0xdf00(%rsi),%zmm17,%zmm17
  40855f:	df 00 00 
  408562:	62 e1 7c 48 11 4c 24 	vmovups %zmm17,0x1480(%rsp)
  408569:	52 
  40856a:	62 c1 7d 48 ef cd    	vpxord %zmm13,%zmm0,%zmm17
  408570:	62 c1 6d 40 ef ef    	vpxord %zmm15,%zmm18,%zmm21
  408576:	62 33 5d 40 25 f9 36 	vpternlogd $0x36,%zmm17,%zmm20,%zmm15
  40857d:	62 a3 5d 40 25 cd 6a 	vpternlogd $0x6a,%zmm21,%zmm20,%zmm17
  408584:	62 21 15 48 ef fa    	vpxord %zmm18,%zmm13,%zmm31
  40858a:	62 c3 05 40 25 ef 6c 	vpternlogd $0x6c,%zmm15,%zmm31,%zmm21
  408591:	62 43 75 40 25 ff 56 	vpternlogd $0x56,%zmm15,%zmm17,%zmm31
  408598:	62 e1 55 40 ef ae 40 	vpxord 0xdf40(%rsi),%zmm21,%zmm21
  40859f:	df 00 00 
  4085a2:	62 e1 7c 48 11 6c 24 	vmovups %zmm21,0x1500(%rsp)
  4085a9:	54 
  4085aa:	62 e1 7c 48 10 ae 40 	vmovups 0xd640(%rsi),%zmm21
  4085b1:	d6 00 00 
  4085b4:	62 c3 6d 40 25 ef 96 	vpternlogd $0x96,%zmm15,%zmm18,%zmm21
  4085bb:	62 e1 7c 48 10 54 24 	vmovups 0x8c0(%rsp),%zmm18
  4085c2:	23 
  4085c3:	62 71 05 40 ef ae 80 	vpxord 0xdb80(%rsi),%zmm31,%zmm13
  4085ca:	db 00 00 
  4085cd:	62 71 7c 48 11 6c 24 	vmovups %zmm13,0x14c0(%rsp)
  4085d4:	53 
  4085d5:	62 31 7d 48 ef fa    	vpxord %zmm18,%zmm0,%zmm15
  4085db:	62 31 6d 40 ef eb    	vpxord %zmm19,%zmm18,%zmm13
  4085e1:	62 e1 7c 48 10 54 24 	vmovups 0x340(%rsp),%zmm18
  4085e8:	0d 
  4085e9:	62 81 65 40 ef e1    	vpxord %zmm25,%zmm19,%zmm20
  4085ef:	62 43 6d 40 25 cf 36 	vpternlogd $0x36,%zmm15,%zmm18,%zmm25
  4085f6:	62 33 6d 40 25 fc 6a 	vpternlogd $0x6a,%zmm20,%zmm18,%zmm15
  4085fd:	62 83 15 48 25 e1 6c 	vpternlogd $0x6c,%zmm25,%zmm13,%zmm20
  408604:	62 13 05 48 25 e9 56 	vpternlogd $0x56,%zmm25,%zmm15,%zmm13
  40860b:	62 e1 5d 40 ef a6 80 	vpxord 0xdf80(%rsi),%zmm20,%zmm20
  408612:	df 00 00 
  408615:	62 e1 7c 48 11 64 24 	vmovups %zmm20,0x1580(%rsp)
  40861c:	56 
  40861d:	62 e1 7c 48 10 a6 80 	vmovups 0xd680(%rsi),%zmm20
  408624:	d6 00 00 
  408627:	62 83 65 40 25 e1 96 	vpternlogd $0x96,%zmm25,%zmm19,%zmm20
  40862e:	62 e1 7c 48 10 5c 24 	vmovups 0x900(%rsp),%zmm19
  408635:	24 
  408636:	62 61 7c 48 10 4c 24 	vmovups 0x380(%rsp),%zmm25
  40863d:	0e 
  40863e:	62 e1 05 48 ef 96 c0 	vpxord 0xd2c0(%rsi),%zmm15,%zmm18
  408645:	d2 00 00 
  408648:	62 71 15 48 ef be c0 	vpxord 0xdbc0(%rsi),%zmm13,%zmm15
  40864f:	db 00 00 
  408652:	62 71 7c 48 11 7c 24 	vmovups %zmm15,0x1540(%rsp)
  408659:	55 
  40865a:	62 31 7d 48 ef eb    	vpxord %zmm19,%zmm0,%zmm13
  408660:	62 51 1d 48 ef fe    	vpxord %zmm14,%zmm12,%zmm15
  408666:	62 53 35 40 25 f5 36 	vpternlogd $0x36,%zmm13,%zmm25,%zmm14
  40866d:	62 53 35 40 25 ef 6a 	vpternlogd $0x6a,%zmm15,%zmm25,%zmm13
  408674:	62 41 65 40 ef fc    	vpxord %zmm12,%zmm19,%zmm31
  40867a:	62 e1 15 48 ef 9e 00 	vpxord 0xd300(%rsi),%zmm13,%zmm19
  408681:	d3 00 00 
  408684:	62 e1 7c 48 11 5c 24 	vmovups %zmm19,0x15c0(%rsp)
  40868b:	57 
  40868c:	62 e1 7c 48 10 9e c0 	vmovups 0xd6c0(%rsi),%zmm19
  408693:	d6 00 00 
  408696:	62 53 05 40 25 fe 6c 	vpternlogd $0x6c,%zmm14,%zmm31,%zmm15
  40869d:	62 43 15 48 25 fe 56 	vpternlogd $0x56,%zmm14,%zmm13,%zmm31
  4086a4:	62 c3 1d 48 25 de 96 	vpternlogd $0x96,%zmm14,%zmm12,%zmm19
  4086ab:	62 71 7c 48 10 64 24 	vmovups 0x940(%rsp),%zmm12
  4086b2:	25 
  4086b3:	62 71 7c 48 10 74 24 	vmovups 0x3c0(%rsp),%zmm14
  4086ba:	0f 
  4086bb:	62 71 05 48 ef be c0 	vpxord 0xdfc0(%rsi),%zmm15,%zmm15
  4086c2:	df 00 00 
  4086c5:	62 71 7c 48 11 7c 24 	vmovups %zmm15,0x1600(%rsp)
  4086cc:	58 
  4086cd:	62 51 7d 48 ef fc    	vpxord %zmm12,%zmm0,%zmm15
  4086d3:	62 01 15 40 ef ce    	vpxord %zmm30,%zmm29,%zmm25
  4086d9:	62 43 0d 48 25 f7 36 	vpternlogd $0x36,%zmm15,%zmm14,%zmm30
  4086e0:	62 13 0d 48 25 f9 6a 	vpternlogd $0x6a,%zmm25,%zmm14,%zmm15
  4086e7:	62 71 05 40 ef ae 00 	vpxord 0xd800(%rsi),%zmm31,%zmm13
  4086ee:	d8 00 00 
  4086f1:	62 01 1d 48 ef fd    	vpxord %zmm29,%zmm12,%zmm31
  4086f7:	62 03 05 40 25 ce 6c 	vpternlogd $0x6c,%zmm30,%zmm31,%zmm25
  4086fe:	62 03 05 48 25 fe 56 	vpternlogd $0x56,%zmm30,%zmm15,%zmm31
  408705:	62 71 35 40 ef b6 00 	vpxord 0xdc00(%rsi),%zmm25,%zmm14
  40870c:	dc 00 00 
  40870f:	62 61 7c 48 10 8e 00 	vmovups 0xd700(%rsi),%zmm25
  408716:	d7 00 00 
  408719:	62 03 15 40 25 ce 96 	vpternlogd $0x96,%zmm30,%zmm29,%zmm25
  408720:	62 61 7c 48 10 74 24 	vmovups 0x4c0(%rsp),%zmm30
  408727:	13 
  408728:	62 71 05 48 ef a6 40 	vpxord 0xd340(%rsi),%zmm15,%zmm12
  40872f:	d3 00 00 
  408732:	62 71 7c 48 11 64 24 	vmovups %zmm12,0x1640(%rsp)
  408739:	59 
  40873a:	62 71 05 40 ef be 40 	vpxord 0xd840(%rsi),%zmm31,%zmm15
  408741:	d8 00 00 
  408744:	62 01 7d 48 ef fe    	vpxord %zmm30,%zmm0,%zmm31
  40874a:	62 71 0d 40 ef e3    	vpxord %zmm3,%zmm30,%zmm12
  408750:	62 61 7c 48 10 74 24 	vmovups 0x400(%rsp),%zmm30
  408757:	10 
  408758:	62 61 65 48 ef ea    	vpxord %zmm2,%zmm3,%zmm29
  40875e:	62 93 0d 40 25 d7 36 	vpternlogd $0x36,%zmm31,%zmm30,%zmm2
  408765:	62 03 0d 40 25 fd 6a 	vpternlogd $0x6a,%zmm29,%zmm30,%zmm31
  40876c:	62 61 7c 48 10 b6 40 	vmovups 0xd740(%rsi),%zmm30
  408773:	d7 00 00 
  408776:	62 63 1d 48 25 ea 6c 	vpternlogd $0x6c,%zmm2,%zmm12,%zmm29
  40877d:	62 73 05 40 25 e2 56 	vpternlogd $0x56,%zmm2,%zmm31,%zmm12
  408784:	62 63 65 48 25 f2 96 	vpternlogd $0x96,%zmm2,%zmm3,%zmm30
  40878b:	62 f1 7c 48 10 54 24 	vmovups 0x40(%rsp),%zmm2
  408792:	01 
  408793:	62 61 7c 48 11 74 24 	vmovups %zmm30,0x16c0(%rsp)
  40879a:	5b 
  40879b:	62 61 05 40 ef be 80 	vpxord 0xd380(%rsi),%zmm31,%zmm31
  4087a2:	d3 00 00 
  4087a5:	62 61 7c 48 11 7c 24 	vmovups %zmm31,0x1680(%rsp)
  4087ac:	5a 
  4087ad:	62 61 7c 48 10 7c 24 	vmovups 0xc0(%rsp),%zmm31
  4087b4:	03 
  4087b5:	62 61 7d 48 ef f2    	vpxord %zmm2,%zmm0,%zmm30
  4087bb:	62 f1 6d 48 ef d9    	vpxord %zmm1,%zmm2,%zmm3
  4087c1:	62 d1 75 48 ef d3    	vpxord %zmm11,%zmm1,%zmm2
  4087c7:	62 13 05 40 25 de 36 	vpternlogd $0x36,%zmm30,%zmm31,%zmm11
  4087ce:	62 63 05 40 25 f2 6a 	vpternlogd $0x6a,%zmm2,%zmm31,%zmm30
  4087d5:	62 d3 65 48 25 d3 6c 	vpternlogd $0x6c,%zmm11,%zmm3,%zmm2
  4087dc:	62 d3 0d 40 25 db 56 	vpternlogd $0x56,%zmm11,%zmm30,%zmm3
  4087e3:	62 61 0d 40 ef be c0 	vpxord 0xd3c0(%rsi),%zmm30,%zmm31
  4087ea:	d3 00 00 
  4087ed:	62 61 65 48 ef b6 c0 	vpxord 0xd8c0(%rsi),%zmm3,%zmm30
  4087f4:	d8 00 00 
  4087f7:	62 f1 6d 48 ef 9e 80 	vpxord 0xdc80(%rsi),%zmm2,%zmm3
  4087fe:	dc 00 00 
  408801:	62 f1 7c 48 10 96 80 	vmovups 0xd780(%rsi),%zmm2
  408808:	d7 00 00 
  40880b:	62 61 7c 48 11 7c 24 	vmovups %zmm31,0x1700(%rsp)
  408812:	5c 
  408813:	62 d3 75 48 25 d3 96 	vpternlogd $0x96,%zmm11,%zmm1,%zmm2
  40881a:	62 71 7c 48 10 5c 24 	vmovups 0x500(%rsp),%zmm11
  408821:	14 
  408822:	62 f1 7c 48 10 4c 24 	vmovups 0x100(%rsp),%zmm1
  408829:	04 
  40882a:	62 f1 7c 48 11 54 24 	vmovups %zmm2,0x1740(%rsp)
  408831:	5d 
  408832:	62 d1 7d 48 ef d3    	vpxord %zmm11,%zmm0,%zmm2
  408838:	62 41 25 48 ef fd    	vpxord %zmm13,%zmm11,%zmm31
  40883e:	62 51 15 48 ef de    	vpxord %zmm14,%zmm13,%zmm11
  408844:	62 73 75 48 25 f2 36 	vpternlogd $0x36,%zmm2,%zmm1,%zmm14
  40884b:	62 d3 75 48 25 d3 6a 	vpternlogd $0x6a,%zmm11,%zmm1,%zmm2
  408852:	62 53 05 40 25 de 6c 	vpternlogd $0x6c,%zmm14,%zmm31,%zmm11
  408859:	62 43 6d 48 25 fe 56 	vpternlogd $0x56,%zmm14,%zmm2,%zmm31
  408860:	62 f1 6d 48 ef 8e 00 	vpxord 0xe000(%rsi),%zmm2,%zmm1
  408867:	e0 00 00 
  40886a:	62 f1 05 40 ef 96 00 	vpxord 0xe900(%rsi),%zmm31,%zmm2
  408871:	e9 00 00 
  408874:	62 61 7c 48 10 be c0 	vmovups 0xe7c0(%rsi),%zmm31
  40887b:	e7 00 00 
  40887e:	62 43 15 48 25 fe 96 	vpternlogd $0x96,%zmm14,%zmm13,%zmm31
  408885:	62 71 7c 48 10 74 24 	vmovups 0x540(%rsp),%zmm14
  40888c:	15 
  40888d:	62 61 7c 48 11 7c 24 	vmovups %zmm31,0xa00(%rsp)
  408894:	28 
  408895:	62 61 7c 48 10 7c 24 	vmovups 0x440(%rsp),%zmm31
  40889c:	11 
  40889d:	62 71 25 48 ef 9e c0 	vpxord 0xecc0(%rsi),%zmm11,%zmm11
  4088a4:	ec 00 00 
  4088a7:	62 61 15 40 ef ae 40 	vpxord 0xdc40(%rsi),%zmm29,%zmm29
  4088ae:	dc 00 00 
  4088b1:	62 71 7c 48 11 5c 24 	vmovups %zmm11,0x1780(%rsp)
  4088b8:	5e 
  4088b9:	62 51 7d 48 ef ee    	vpxord %zmm14,%zmm0,%zmm13
  4088bf:	62 11 05 48 ef dd    	vpxord %zmm29,%zmm15,%zmm11
  4088c5:	62 43 05 40 25 ed 36 	vpternlogd $0x36,%zmm13,%zmm31,%zmm29
  4088cc:	62 53 05 40 25 eb 6a 	vpternlogd $0x6a,%zmm11,%zmm31,%zmm13
  4088d3:	62 51 0d 48 ef f7    	vpxord %zmm15,%zmm14,%zmm14
  4088d9:	62 13 0d 48 25 dd 6c 	vpternlogd $0x6c,%zmm29,%zmm14,%zmm11
  4088e0:	62 13 15 48 25 f5 56 	vpternlogd $0x56,%zmm29,%zmm13,%zmm14
  4088e7:	62 71 0d 48 ef b6 40 	vpxord 0xe940(%rsi),%zmm14,%zmm14
  4088ee:	e9 00 00 
  4088f1:	62 71 7c 48 11 74 24 	vmovups %zmm14,0x17c0(%rsp)
  4088f8:	5f 
  4088f9:	62 71 7c 48 10 b6 00 	vmovups 0xe400(%rsi),%zmm14
  408900:	e4 00 00 
  408903:	62 13 05 48 25 f5 96 	vpternlogd $0x96,%zmm29,%zmm15,%zmm14
  40890a:	62 61 7c 48 10 6c 24 	vmovups 0x5c0(%rsp),%zmm29
  408911:	17 
  408912:	62 71 25 48 ef 9e 00 	vpxord 0xed00(%rsi),%zmm11,%zmm11
  408919:	ed 00 00 
  40891c:	62 71 1d 48 ef a6 80 	vpxord 0xd880(%rsi),%zmm12,%zmm12
  408923:	d8 00 00 
  408926:	62 71 7c 48 11 5c 24 	vmovups %zmm11,0x1800(%rsp)
  40892d:	60 
  40892e:	62 11 7d 48 ef dd    	vpxord %zmm29,%zmm0,%zmm11
  408934:	62 41 15 40 ef fc    	vpxord %zmm12,%zmm29,%zmm31
  40893a:	62 61 7c 48 10 6c 24 	vmovups 0x480(%rsp),%zmm29
  408941:	12 
  408942:	62 71 1d 48 ef fb    	vpxord %zmm3,%zmm12,%zmm15
  408948:	62 d3 15 40 25 db 36 	vpternlogd $0x36,%zmm11,%zmm29,%zmm3
  40894f:	62 53 15 40 25 df 6a 	vpternlogd $0x6a,%zmm15,%zmm29,%zmm11
  408956:	62 73 05 40 25 fb 6c 	vpternlogd $0x6c,%zmm3,%zmm31,%zmm15
  40895d:	62 63 25 48 25 fb 56 	vpternlogd $0x56,%zmm3,%zmm11,%zmm31
  408964:	62 61 05 40 ef be 80 	vpxord 0xe980(%rsi),%zmm31,%zmm31
  40896b:	e9 00 00 
  40896e:	62 61 7c 48 11 7c 24 	vmovups %zmm31,0x1840(%rsp)
  408975:	61 
  408976:	62 61 7c 48 10 be 40 	vmovups 0xe440(%rsi),%zmm31
  40897d:	e4 00 00 
  408980:	62 63 1d 48 25 fb 96 	vpternlogd $0x96,%zmm3,%zmm12,%zmm31
  408987:	62 f1 7c 48 10 5c 24 	vmovups 0x600(%rsp),%zmm3
  40898e:	18 
  40898f:	62 71 7c 48 10 64 24 	vmovups 0x1c0(%rsp),%zmm12
  408996:	07 
  408997:	62 71 05 48 ef be 40 	vpxord 0xed40(%rsi),%zmm15,%zmm15
  40899e:	ed 00 00 
  4089a1:	62 61 7d 48 ef eb    	vpxord %zmm3,%zmm0,%zmm29
  4089a7:	62 71 7c 48 11 7c 24 	vmovups %zmm15,0x1880(%rsp)
  4089ae:	62 
  4089af:	62 51 0d 40 ef fa    	vpxord %zmm10,%zmm30,%zmm15
  4089b5:	62 13 1d 48 25 d5 36 	vpternlogd $0x36,%zmm29,%zmm12,%zmm10
  4089bc:	62 43 1d 48 25 ef 6a 	vpternlogd $0x6a,%zmm15,%zmm12,%zmm29
  4089c3:	62 91 65 48 ef de    	vpxord %zmm30,%zmm3,%zmm3
  4089c9:	62 53 65 48 25 fa 6c 	vpternlogd $0x6c,%zmm10,%zmm3,%zmm15
  4089d0:	62 d3 15 40 25 da 56 	vpternlogd $0x56,%zmm10,%zmm29,%zmm3
  4089d7:	62 71 05 48 ef be 80 	vpxord 0xed80(%rsi),%zmm15,%zmm15
  4089de:	ed 00 00 
  4089e1:	62 71 7c 48 11 7c 24 	vmovups %zmm15,0x1900(%rsp)
  4089e8:	64 
  4089e9:	62 71 7c 48 10 be 80 	vmovups 0xe480(%rsi),%zmm15
  4089f0:	e4 00 00 
  4089f3:	62 53 0d 40 25 fa 96 	vpternlogd $0x96,%zmm10,%zmm30,%zmm15
  4089fa:	62 71 7c 48 10 54 24 	vmovups 0x6c0(%rsp),%zmm10
  408a01:	1b 
  408a02:	62 f1 65 48 ef 9e c0 	vpxord 0xe9c0(%rsi),%zmm3,%zmm3
  408a09:	e9 00 00 
  408a0c:	62 f1 7c 48 11 5c 24 	vmovups %zmm3,0x18c0(%rsp)
  408a13:	63 
  408a14:	62 f1 7c 48 10 5c 24 	vmovups 0x980(%rsp),%zmm3
  408a1b:	26 
  408a1c:	62 71 15 40 ef a6 c0 	vpxord 0xe0c0(%rsi),%zmm29,%zmm12
  408a23:	e0 00 00 
  408a26:	62 61 7c 48 10 6c 24 	vmovups 0x200(%rsp),%zmm29
  408a2d:	08 
  408a2e:	62 71 7c 48 11 64 24 	vmovups %zmm12,0xd00(%rsp)
  408a35:	34 
  408a36:	62 41 7d 48 ef f2    	vpxord %zmm10,%zmm0,%zmm30
  408a3c:	62 51 65 48 ef e1    	vpxord %zmm9,%zmm3,%zmm12
  408a42:	62 13 15 40 25 ce 36 	vpternlogd $0x36,%zmm30,%zmm29,%zmm9
  408a49:	62 43 15 40 25 f4 6a 	vpternlogd $0x6a,%zmm12,%zmm29,%zmm30
  408a50:	62 61 7c 48 10 ae c0 	vmovups 0xe4c0(%rsi),%zmm29
  408a57:	e4 00 00 
  408a5a:	62 43 65 48 25 e9 96 	vpternlogd $0x96,%zmm9,%zmm3,%zmm29
  408a61:	62 61 7c 48 11 6c 24 	vmovups %zmm29,0xec0(%rsp)
  408a68:	3b 
  408a69:	62 71 2d 48 ef d3    	vpxord %zmm3,%zmm10,%zmm10
  408a6f:	62 53 2d 48 25 e1 6c 	vpternlogd $0x6c,%zmm9,%zmm10,%zmm12
  408a76:	62 53 0d 40 25 d1 56 	vpternlogd $0x56,%zmm9,%zmm30,%zmm10
  408a7d:	62 f1 7c 48 10 5c 24 	vmovups 0x1380(%rsp),%zmm3
  408a84:	4e 
  408a85:	62 61 0d 40 ef b6 00 	vpxord 0xe100(%rsi),%zmm30,%zmm30
  408a8c:	e1 00 00 
  408a8f:	62 61 7c 48 11 74 24 	vmovups %zmm30,0xd40(%rsp)
  408a96:	35 
  408a97:	62 61 7c 48 10 74 24 	vmovups 0x240(%rsp),%zmm30
  408a9e:	09 
  408a9f:	62 71 7d 48 ef cb    	vpxord %zmm3,%zmm0,%zmm9
  408aa5:	62 61 3d 48 ef ef    	vpxord %zmm7,%zmm8,%zmm29
  408aab:	62 d3 0d 40 25 f9 36 	vpternlogd $0x36,%zmm9,%zmm30,%zmm7
  408ab2:	62 13 0d 40 25 cd 6a 	vpternlogd $0x6a,%zmm29,%zmm30,%zmm9
  408ab9:	62 61 7c 48 10 b6 00 	vmovups 0xe500(%rsi),%zmm30
  408ac0:	e5 00 00 
  408ac3:	62 63 3d 48 25 f7 96 	vpternlogd $0x96,%zmm7,%zmm8,%zmm30
  408aca:	62 61 7c 48 11 74 24 	vmovups %zmm30,0x11c0(%rsp)
  408ad1:	47 
  408ad2:	62 d1 65 48 ef d8    	vpxord %zmm8,%zmm3,%zmm3
  408ad8:	62 63 65 48 25 ef 6c 	vpternlogd $0x6c,%zmm7,%zmm3,%zmm29
  408adf:	62 f3 35 48 25 df 56 	vpternlogd $0x56,%zmm7,%zmm9,%zmm3
  408ae6:	62 f1 7c 48 10 7c 24 	vmovups 0x580(%rsp),%zmm7
  408aed:	16 
  408aee:	62 71 35 48 ef 8e 40 	vpxord 0xe140(%rsi),%zmm9,%zmm9
  408af5:	e1 00 00 
  408af8:	62 f1 65 48 ef 9e 40 	vpxord 0xea40(%rsi),%zmm3,%zmm3
  408aff:	ea 00 00 
  408b02:	62 71 7c 48 11 4c 24 	vmovups %zmm9,0xd80(%rsp)
  408b09:	36 
  408b0a:	62 f1 7c 48 11 5c 24 	vmovups %zmm3,0x1340(%rsp)
  408b11:	4d 
  408b12:	62 71 7c 48 10 4c 24 	vmovups 0x7c0(%rsp),%zmm9
  408b19:	1f 
  408b1a:	62 f1 15 40 ef 9e 00 	vpxord 0xee00(%rsi),%zmm29,%zmm3
  408b21:	ee 00 00 
  408b24:	62 61 7c 48 10 6c 24 	vmovups 0x280(%rsp),%zmm29
  408b2b:	0a 
  408b2c:	62 61 7d 48 ef f7    	vpxord %zmm7,%zmm0,%zmm30
  408b32:	62 51 45 48 ef c1    	vpxord %zmm9,%zmm7,%zmm8
  408b38:	62 f1 35 48 ef fe    	vpxord %zmm6,%zmm9,%zmm7
  408b3e:	62 93 15 40 25 f6 36 	vpternlogd $0x36,%zmm30,%zmm29,%zmm6
  408b45:	62 63 15 40 25 f7 6a 	vpternlogd $0x6a,%zmm7,%zmm29,%zmm30
  408b4c:	62 61 7c 48 10 ae 40 	vmovups 0xe540(%rsi),%zmm29
  408b53:	e5 00 00 
  408b56:	62 f3 3d 48 25 fe 6c 	vpternlogd $0x6c,%zmm6,%zmm8,%zmm7
  408b5d:	62 73 0d 40 25 c6 56 	vpternlogd $0x56,%zmm6,%zmm30,%zmm8
  408b64:	62 63 35 48 25 ee 96 	vpternlogd $0x96,%zmm6,%zmm9,%zmm29
  408b6b:	62 71 7c 48 10 4c 24 	vmovups 0x740(%rsp),%zmm9
  408b72:	1d 
  408b73:	62 61 7c 48 11 6c 24 	vmovups %zmm29,0x1140(%rsp)
  408b7a:	45 
  408b7b:	62 61 7c 48 10 6c 24 	vmovups 0x2c0(%rsp),%zmm29
  408b82:	0b 
  408b83:	62 61 0d 40 ef b6 80 	vpxord 0xe180(%rsi),%zmm30,%zmm30
  408b8a:	e1 00 00 
  408b8d:	62 61 7c 48 11 74 24 	vmovups %zmm30,0xdc0(%rsp)
  408b94:	37 
  408b95:	62 21 7d 48 ef f7    	vpxord %zmm23,%zmm0,%zmm30
  408b9b:	62 d1 45 40 ef f1    	vpxord %zmm9,%zmm23,%zmm6
  408ba1:	62 e1 35 48 ef fd    	vpxord %zmm5,%zmm9,%zmm23
  408ba7:	62 93 15 40 25 ee 36 	vpternlogd $0x36,%zmm30,%zmm29,%zmm5
  408bae:	62 23 15 40 25 f7 6a 	vpternlogd $0x6a,%zmm23,%zmm29,%zmm30
  408bb5:	62 61 7c 48 10 ae c0 	vmovups 0xe6c0(%rsi),%zmm29
  408bbc:	e6 00 00 
  408bbf:	62 e3 4d 48 25 fd 6c 	vpternlogd $0x6c,%zmm5,%zmm6,%zmm23
  408bc6:	62 f3 0d 40 25 f5 56 	vpternlogd $0x56,%zmm5,%zmm30,%zmm6
  408bcd:	62 f1 4d 48 ef b6 c0 	vpxord 0xeac0(%rsi),%zmm6,%zmm6
  408bd4:	ea 00 00 
  408bd7:	62 f1 7c 48 11 74 24 	vmovups %zmm6,0x1300(%rsp)
  408bde:	4c 
  408bdf:	62 f1 45 40 ef b6 80 	vpxord 0xee80(%rsi),%zmm23,%zmm6
  408be6:	ee 00 00 
  408be9:	62 e1 7c 48 10 be 80 	vmovups 0xe580(%rsi),%zmm23
  408bf0:	e5 00 00 
  408bf3:	62 e3 35 48 25 fd 96 	vpternlogd $0x96,%zmm5,%zmm9,%zmm23
  408bfa:	62 e1 7c 48 11 7c 24 	vmovups %zmm23,0x1180(%rsp)
  408c01:	46 
  408c02:	62 e1 7c 48 10 7c 24 	vmovups 0x680(%rsp),%zmm23
  408c09:	1a 
  408c0a:	62 b1 7d 48 ef ee    	vpxord %zmm22,%zmm0,%zmm5
  408c10:	62 31 4d 40 ef cf    	vpxord %zmm23,%zmm22,%zmm9
  408c16:	62 e1 45 40 ef f4    	vpxord %zmm4,%zmm23,%zmm22
  408c1c:	62 f3 3d 40 25 e5 36 	vpternlogd $0x36,%zmm5,%zmm24,%zmm4
  408c23:	62 b3 3d 40 25 ee 6a 	vpternlogd $0x6a,%zmm22,%zmm24,%zmm5
  408c2a:	62 e3 35 48 25 f4 6c 	vpternlogd $0x6c,%zmm4,%zmm9,%zmm22
  408c31:	62 73 55 48 25 cc 56 	vpternlogd $0x56,%zmm4,%zmm5,%zmm9
  408c38:	62 61 35 48 ef 86 00 	vpxord 0xeb00(%rsi),%zmm9,%zmm24
  408c3f:	eb 00 00 
  408c42:	62 71 7c 48 10 8e c0 	vmovups 0xe5c0(%rsi),%zmm9
  408c49:	e5 00 00 
  408c4c:	62 61 7c 48 11 44 24 	vmovups %zmm24,0x12c0(%rsp)
  408c53:	4b 
  408c54:	62 73 45 40 25 cc 96 	vpternlogd $0x96,%zmm4,%zmm23,%zmm9
  408c5b:	62 e1 7c 48 10 7c 24 	vmovups 0x1480(%rsp),%zmm23
  408c62:	52 
  408c63:	62 71 7c 48 11 4c 24 	vmovups %zmm9,0x1100(%rsp)
  408c6a:	44 
  408c6b:	62 71 7c 48 10 4c 24 	vmovups 0x640(%rsp),%zmm9
  408c72:	19 
  408c73:	62 f1 55 48 ef ae 00 	vpxord 0xe200(%rsi),%zmm5,%zmm5
  408c7a:	e2 00 00 
  408c7d:	62 f1 7c 48 11 6c 24 	vmovups %zmm5,0xc40(%rsp)
  408c84:	31 
  408c85:	62 f1 4d 40 ef ae c0 	vpxord 0xeec0(%rsi),%zmm22,%zmm5
  408c8c:	ee 00 00 
  408c8f:	62 b1 7d 48 ef e5    	vpxord %zmm21,%zmm0,%zmm4
  408c95:	62 81 35 48 ef f4    	vpxord %zmm28,%zmm9,%zmm22
  408c9b:	62 63 7d 40 25 e4 36 	vpternlogd $0x36,%zmm4,%zmm16,%zmm28
  408ca2:	62 b3 7d 40 25 e6 6a 	vpternlogd $0x6a,%zmm22,%zmm16,%zmm4
  408ca9:	62 e1 7c 48 10 86 00 	vmovups 0xe600(%rsi),%zmm16
  408cb0:	e6 00 00 
  408cb3:	62 83 35 48 25 c4 96 	vpternlogd $0x96,%zmm28,%zmm9,%zmm16
  408cba:	62 e1 7c 48 11 44 24 	vmovups %zmm16,0x1200(%rsp)
  408cc1:	48 
  408cc2:	62 e1 7c 48 10 44 24 	vmovups 0x700(%rsp),%zmm16
  408cc9:	1c 
  408cca:	62 41 55 40 ef c1    	vpxord %zmm9,%zmm21,%zmm24
  408cd0:	62 83 3d 40 25 f4 6c 	vpternlogd $0x6c,%zmm28,%zmm24,%zmm22
  408cd7:	62 03 5d 48 25 c4 56 	vpternlogd $0x56,%zmm28,%zmm4,%zmm24
  408cde:	62 e1 5d 48 ef ae 40 	vpxord 0xe240(%rsi),%zmm4,%zmm21
  408ce5:	e2 00 00 
  408ce8:	62 f1 3d 40 ef a6 40 	vpxord 0xeb40(%rsi),%zmm24,%zmm4
  408cef:	eb 00 00 
  408cf2:	62 61 7c 48 10 86 40 	vmovups 0xe640(%rsi),%zmm24
  408cf9:	e6 00 00 
  408cfc:	62 f1 7c 48 11 64 24 	vmovups %zmm4,0xf00(%rsp)
  408d03:	3c 
  408d04:	62 e1 7c 48 11 6c 24 	vmovups %zmm21,0xac0(%rsp)
  408d0b:	2b 
  408d0c:	62 e1 75 40 ef 8e 80 	vpxord 0xd280(%rsi),%zmm17,%zmm17
  408d13:	d2 00 00 
  408d16:	62 21 7d 48 ef e4    	vpxord %zmm20,%zmm0,%zmm28
  408d1c:	62 91 7d 40 ef e2    	vpxord %zmm26,%zmm16,%zmm4
  408d22:	62 03 75 40 25 d4 36 	vpternlogd $0x36,%zmm28,%zmm17,%zmm26
  408d29:	62 63 75 40 25 e4 6a 	vpternlogd $0x6a,%zmm4,%zmm17,%zmm28
  408d30:	62 03 7d 40 25 c2 96 	vpternlogd $0x96,%zmm26,%zmm16,%zmm24
  408d37:	62 61 7c 48 11 44 24 	vmovups %zmm24,0x1240(%rsp)
  408d3e:	49 
  408d3f:	62 31 5d 40 ef c8    	vpxord %zmm16,%zmm20,%zmm9
  408d45:	62 e1 7c 48 10 44 24 	vmovups 0x780(%rsp),%zmm16
  408d4c:	1e 
  408d4d:	62 93 35 48 25 e2 6c 	vpternlogd $0x6c,%zmm26,%zmm9,%zmm4
  408d54:	62 13 1d 40 25 ca 56 	vpternlogd $0x56,%zmm26,%zmm28,%zmm9
  408d5b:	62 e1 1d 40 ef a6 80 	vpxord 0xe280(%rsi),%zmm28,%zmm20
  408d62:	e2 00 00 
  408d65:	62 e1 7c 48 11 64 24 	vmovups %zmm20,0xb00(%rsp)
  408d6c:	2c 
  408d6d:	62 e1 5d 48 ef a6 40 	vpxord 0xef40(%rsi),%zmm4,%zmm20
  408d74:	ef 00 00 
  408d77:	62 21 7d 48 ef d3    	vpxord %zmm19,%zmm0,%zmm26
  408d7d:	62 91 7d 40 ef e3    	vpxord %zmm27,%zmm16,%zmm4
  408d83:	62 03 6d 40 25 da 36 	vpternlogd $0x36,%zmm26,%zmm18,%zmm27
  408d8a:	62 63 6d 40 25 d4 6a 	vpternlogd $0x6a,%zmm4,%zmm18,%zmm26
  408d91:	62 e1 35 48 ef 8e 80 	vpxord 0xeb80(%rsi),%zmm9,%zmm17
  408d98:	eb 00 00 
  408d9b:	62 e1 4d 40 ef ae 00 	vpxord 0xef00(%rsi),%zmm22,%zmm21
  408da2:	ef 00 00 
  408da5:	62 e1 7c 48 11 4c 24 	vmovups %zmm17,0xf40(%rsp)
  408dac:	3d 
  408dad:	62 e1 7c 48 10 74 24 	vmovups 0x9c0(%rsp),%zmm22
  408db4:	27 
  408db5:	62 a1 65 40 ef c8    	vpxord %zmm16,%zmm19,%zmm17
  408dbb:	62 e1 2d 40 ef 96 c0 	vpxord 0xe2c0(%rsi),%zmm26,%zmm18
  408dc2:	e2 00 00 
  408dc5:	62 e1 7c 48 10 9e 80 	vmovups 0xe680(%rsi),%zmm19
  408dcc:	e6 00 00 
  408dcf:	62 e1 7c 48 11 54 24 	vmovups %zmm18,0xb40(%rsp)
  408dd6:	2d 
  408dd7:	62 93 75 40 25 e3 6c 	vpternlogd $0x6c,%zmm27,%zmm17,%zmm4
  408dde:	62 83 2d 40 25 cb 56 	vpternlogd $0x56,%zmm27,%zmm26,%zmm17
  408de5:	62 83 7d 40 25 db 96 	vpternlogd $0x96,%zmm27,%zmm16,%zmm19
  408dec:	62 61 7c 48 10 54 24 	vmovups 0x15c0(%rsp),%zmm26
  408df3:	57 
  408df4:	62 e1 7c 48 11 5c 24 	vmovups %zmm19,0xfc0(%rsp)
  408dfb:	3f 
  408dfc:	62 01 7d 48 ef d9    	vpxord %zmm25,%zmm0,%zmm27
  408e02:	62 21 4d 40 ef e7    	vpxord %zmm23,%zmm22,%zmm28
  408e08:	62 83 2d 40 25 fb 36 	vpternlogd $0x36,%zmm27,%zmm26,%zmm23
  408e0f:	62 03 2d 40 25 dc 6a 	vpternlogd $0x6a,%zmm28,%zmm26,%zmm27
  408e16:	62 23 4d 40 25 ef 96 	vpternlogd $0x96,%zmm23,%zmm22,%zmm29
  408e1d:	62 61 7c 48 11 6c 24 	vmovups %zmm29,0x1280(%rsp)
  408e24:	4a 
  408e25:	62 61 7c 48 10 6c 24 	vmovups 0x1680(%rsp),%zmm29
  408e2c:	5a 
  408e2d:	62 21 35 40 ef c6    	vpxord %zmm22,%zmm25,%zmm24
  408e33:	62 23 3d 40 25 e7 6c 	vpternlogd $0x6c,%zmm23,%zmm24,%zmm28
  408e3a:	62 23 25 40 25 c7 56 	vpternlogd $0x56,%zmm23,%zmm27,%zmm24
  408e41:	62 e1 7c 48 10 b6 00 	vmovups 0xe700(%rsi),%zmm22
  408e48:	e7 00 00 
  408e4b:	62 e1 7c 48 10 7c 24 	vmovups 0x1740(%rsp),%zmm23
  408e52:	5d 
  408e53:	62 61 0d 40 ef b6 c0 	vpxord 0xe1c0(%rsi),%zmm30,%zmm30
  408e5a:	e1 00 00 
  408e5d:	62 71 75 40 ef 8e c0 	vpxord 0xebc0(%rsi),%zmm17,%zmm9
  408e64:	eb 00 00 
  408e67:	62 61 7c 48 11 74 24 	vmovups %zmm30,0xe00(%rsp)
  408e6e:	38 
  408e6f:	62 71 7c 48 11 4c 24 	vmovups %zmm9,0xf80(%rsp)
  408e76:	3e 
  408e77:	62 61 7c 48 10 74 24 	vmovups 0x16c0(%rsp),%zmm30
  408e7e:	5b 
  408e7f:	62 71 7c 48 10 4c 24 	vmovups 0x1640(%rsp),%zmm9
  408e86:	59 
  408e87:	62 61 25 40 ef 8e 00 	vpxord 0xe300(%rsi),%zmm27,%zmm25
  408e8e:	e3 00 00 
  408e91:	62 e1 1d 40 ef 8e c0 	vpxord 0xefc0(%rsi),%zmm28,%zmm17
  408e98:	ef 00 00 
  408e9b:	62 61 7c 48 10 5c 24 	vmovups 0x1440(%rsp),%zmm27
  408ea2:	51 
  408ea3:	62 61 7c 48 10 64 24 	vmovups 0x1500(%rsp),%zmm28
  408eaa:	54 
  408eab:	62 61 7c 48 11 4c 24 	vmovups %zmm25,0xb80(%rsp)
  408eb2:	2e 
  408eb3:	62 e1 5d 48 ef 96 80 	vpxord 0xef80(%rsi),%zmm4,%zmm18
  408eba:	ef 00 00 
  408ebd:	62 91 7d 48 ef e6    	vpxord %zmm30,%zmm0,%zmm4
  408ec3:	62 01 25 40 ef cc    	vpxord %zmm28,%zmm27,%zmm25
  408ec9:	62 63 35 48 25 e4 36 	vpternlogd $0x36,%zmm4,%zmm9,%zmm28
  408ed0:	62 93 35 48 25 e1 6a 	vpternlogd $0x6a,%zmm25,%zmm9,%zmm4
  408ed7:	62 83 25 40 25 f4 96 	vpternlogd $0x96,%zmm28,%zmm27,%zmm22
  408ede:	62 e1 7c 48 11 74 24 	vmovups %zmm22,0x10c0(%rsp)
  408ee5:	43 
  408ee6:	62 e1 7c 48 10 b6 40 	vmovups 0xe740(%rsi),%zmm22
  408eed:	e7 00 00 
  408ef0:	62 01 0d 40 ef d3    	vpxord %zmm27,%zmm30,%zmm26
  408ef6:	62 e1 5d 48 ef 86 40 	vpxord 0xe340(%rsi),%zmm4,%zmm16
  408efd:	e3 00 00 
  408f00:	62 03 2d 40 25 cc 6c 	vpternlogd $0x6c,%zmm28,%zmm26,%zmm25
  408f07:	62 03 5d 48 25 d4 56 	vpternlogd $0x56,%zmm28,%zmm4,%zmm26
  408f0e:	62 f1 7c 48 10 64 24 	vmovups 0x14c0(%rsp),%zmm4
  408f15:	53 
  408f16:	62 61 7c 48 10 64 24 	vmovups 0x1580(%rsp),%zmm28
  408f1d:	56 
  408f1e:	62 e1 7c 48 11 44 24 	vmovups %zmm16,0xbc0(%rsp)
  408f25:	2f 
  408f26:	62 31 7d 48 ef cf    	vpxord %zmm23,%zmm0,%zmm9
  408f2c:	62 e1 2d 40 ef 9e 40 	vpxord 0xe840(%rsi),%zmm26,%zmm19
  408f33:	e8 00 00 
  408f36:	62 01 5d 48 ef d4    	vpxord %zmm28,%zmm4,%zmm26
  408f3c:	62 43 15 40 25 e1 36 	vpternlogd $0x36,%zmm9,%zmm29,%zmm28
  408f43:	62 13 15 40 25 ca 6a 	vpternlogd $0x6a,%zmm26,%zmm29,%zmm9
  408f4a:	62 83 5d 48 25 f4 96 	vpternlogd $0x96,%zmm28,%zmm4,%zmm22
  408f51:	62 e1 7c 48 11 74 24 	vmovups %zmm22,0x1000(%rsp)
  408f58:	40 
  408f59:	62 e1 45 40 ef c4    	vpxord %zmm4,%zmm23,%zmm16
  408f5f:	62 03 7d 40 25 d4 6c 	vpternlogd $0x6c,%zmm28,%zmm16,%zmm26
  408f66:	62 83 35 48 25 c4 56 	vpternlogd $0x56,%zmm28,%zmm9,%zmm16
  408f6d:	62 f1 7c 48 10 64 24 	vmovups 0x80(%rsp),%zmm4
  408f74:	02 
  408f75:	62 61 7c 48 10 64 24 	vmovups 0x1600(%rsp),%zmm28
  408f7c:	58 
  408f7d:	62 e1 7c 48 10 7c 24 	vmovups 0x1700(%rsp),%zmm23
  408f84:	5c 
  408f85:	62 61 2d 40 ef 9e 40 	vpxord 0xec40(%rsi),%zmm26,%zmm27
  408f8c:	ec 00 00 
  408f8f:	62 61 7c 48 10 54 24 	vmovups 0x1540(%rsp),%zmm26
  408f96:	55 
  408f97:	62 61 35 48 ef b6 80 	vpxord 0xe380(%rsi),%zmm9,%zmm30
  408f9e:	e3 00 00 
  408fa1:	62 71 7d 40 ef 8e 80 	vpxord 0xe880(%rsi),%zmm16,%zmm9
  408fa8:	e8 00 00 
  408fab:	62 e1 7d 48 ef c4    	vpxord %zmm4,%zmm0,%zmm16
  408fb1:	62 81 2d 40 ef f4    	vpxord %zmm28,%zmm26,%zmm22
  408fb7:	62 23 45 40 25 e0 36 	vpternlogd $0x36,%zmm16,%zmm23,%zmm28
  408fbe:	62 a3 45 40 25 c6 6a 	vpternlogd $0x6a,%zmm22,%zmm23,%zmm16
  408fc5:	62 61 7c 48 11 74 24 	vmovups %zmm30,0xc00(%rsp)
  408fcc:	30 
  408fcd:	62 61 7c 48 10 b6 80 	vmovups 0xe780(%rsi),%zmm30
  408fd4:	e7 00 00 
  408fd7:	62 e1 7c 48 10 7c 24 	vmovups 0x1900(%rsp),%zmm23
  408fde:	64 
  408fdf:	62 03 2d 40 25 f4 96 	vpternlogd $0x96,%zmm28,%zmm26,%zmm30
  408fe6:	62 61 7c 48 11 74 24 	vmovups %zmm30,0xe40(%rsp)
  408fed:	39 
  408fee:	62 61 7c 48 10 74 24 	vmovups 0x1780(%rsp),%zmm30
  408ff5:	5e 
  408ff6:	62 91 5d 48 ef e2    	vpxord %zmm26,%zmm4,%zmm4
  408ffc:	62 83 5d 48 25 f4 6c 	vpternlogd $0x6c,%zmm28,%zmm4,%zmm22
  409003:	62 93 7d 40 25 e4 56 	vpternlogd $0x56,%zmm28,%zmm16,%zmm4
  40900a:	62 61 3d 40 ef 86 00 	vpxord 0xe800(%rsi),%zmm24,%zmm24
  409011:	e8 00 00 
  409014:	62 61 35 40 ef 8e 00 	vpxord 0xec00(%rsi),%zmm25,%zmm25
  40901b:	ec 00 00 
  40901e:	62 61 7d 40 ef ae c0 	vpxord 0xe3c0(%rsi),%zmm16,%zmm29
  409025:	e3 00 00 
  409028:	62 e1 4d 40 ef 86 80 	vpxord 0xec80(%rsi),%zmm22,%zmm16
  40902f:	ec 00 00 
  409032:	62 41 7d 48 ef d6    	vpxord %zmm14,%zmm0,%zmm26
  409038:	62 81 3d 40 ef f1    	vpxord %zmm25,%zmm24,%zmm22
  40903e:	62 03 75 48 25 ca 36 	vpternlogd $0x36,%zmm26,%zmm1,%zmm25
  409045:	62 23 75 48 25 d6 6a 	vpternlogd $0x6a,%zmm22,%zmm1,%zmm26
  40904c:	62 61 7c 48 11 6c 24 	vmovups %zmm29,0xa40(%rsp)
  409053:	29 
  409054:	62 f1 2d 40 ef 8e 00 	vpxord 0xf000(%rsi),%zmm26,%zmm1
  40905b:	f0 00 00 
  40905e:	62 f1 7c 48 11 4c 24 	vmovups %zmm1,0xa80(%rsp)
  409065:	2a 
  409066:	62 f1 7c 48 10 8e c0 	vmovups 0xf7c0(%rsi),%zmm1
  40906d:	f7 00 00 
  409070:	62 93 3d 40 25 c9 96 	vpternlogd $0x96,%zmm25,%zmm24,%zmm1
  409077:	62 f1 7c 48 11 0c 24 	vmovups %zmm1,(%rsp)
  40907e:	62 11 0d 48 ef f0    	vpxord %zmm24,%zmm14,%zmm14
  409084:	62 83 0d 48 25 f1 6c 	vpternlogd $0x6c,%zmm25,%zmm14,%zmm22
  40908b:	62 13 2d 40 25 f1 56 	vpternlogd $0x56,%zmm25,%zmm26,%zmm14
  409092:	62 61 0d 48 ef 96 00 	vpxord 0xf900(%rsi),%zmm14,%zmm26
  409099:	f9 00 00 
  40909c:	62 71 7c 48 10 b6 00 	vmovups 0xf400(%rsi),%zmm14
  4090a3:	f4 00 00 
  4090a6:	62 61 7c 48 11 54 24 	vmovups %zmm26,0x1040(%rsp)
  4090ad:	41 
  4090ae:	62 71 15 48 ef ae 40 	vpxord 0xe040(%rsi),%zmm13,%zmm13
  4090b5:	e0 00 00 
  4090b8:	62 01 7d 48 ef cf    	vpxord %zmm31,%zmm0,%zmm25
  4090be:	62 91 65 40 ef cb    	vpxord %zmm27,%zmm19,%zmm1
  4090c4:	62 03 15 48 25 d9 36 	vpternlogd $0x36,%zmm25,%zmm13,%zmm27
  4090cb:	62 63 15 48 25 c9 6a 	vpternlogd $0x6a,%zmm1,%zmm13,%zmm25
  4090d2:	62 13 65 40 25 f3 96 	vpternlogd $0x96,%zmm27,%zmm19,%zmm14
  4090d9:	62 71 7c 48 11 74 24 	vmovups %zmm14,0xe80(%rsp)
  4090e0:	3a 
  4090e1:	62 71 7c 48 10 74 24 	vmovups 0x18c0(%rsp),%zmm14
  4090e8:	63 
  4090e9:	62 21 05 40 ef fb    	vpxord %zmm19,%zmm31,%zmm31
  4090ef:	62 93 05 40 25 cb 6c 	vpternlogd $0x6c,%zmm27,%zmm31,%zmm1
  4090f6:	62 03 35 40 25 fb 56 	vpternlogd $0x56,%zmm27,%zmm25,%zmm31
  4090fd:	62 71 25 48 ef 9e 80 	vpxord 0xe080(%rsi),%zmm11,%zmm11
  409104:	e0 00 00 
  409107:	62 c1 7d 48 ef df    	vpxord %zmm15,%zmm0,%zmm19
  40910d:	62 21 35 48 ef c0    	vpxord %zmm16,%zmm9,%zmm24
  409113:	62 a3 25 48 25 c3 36 	vpternlogd $0x36,%zmm19,%zmm11,%zmm16
  40911a:	62 83 25 48 25 d8 6a 	vpternlogd $0x6a,%zmm24,%zmm11,%zmm19
  409121:	62 71 35 40 ef ae 40 	vpxord 0xf040(%rsi),%zmm25,%zmm13
  409128:	f0 00 00 
  40912b:	62 61 05 40 ef 8e 40 	vpxord 0xf940(%rsi),%zmm31,%zmm25
  409132:	f9 00 00 
  409135:	62 71 65 40 ef 9e 80 	vpxord 0xf080(%rsi),%zmm19,%zmm11
  40913c:	f0 00 00 
  40913f:	62 61 7c 48 11 4c 24 	vmovups %zmm25,0x1080(%rsp)
  409146:	42 
  409147:	62 71 7c 48 11 6c 24 	vmovups %zmm13,0xc80(%rsp)
  40914e:	32 
  40914f:	62 71 7c 48 11 5c 24 	vmovups %zmm11,0xcc0(%rsp)
  409156:	33 
  409157:	62 61 4d 40 ef 96 c0 	vpxord 0xfcc0(%rsi),%zmm22,%zmm26
  40915e:	fc 00 00 
  409161:	62 61 75 48 ef 8e 00 	vpxord 0xfd00(%rsi),%zmm1,%zmm25
  409168:	fd 00 00 
  40916b:	62 51 05 48 ef e9    	vpxord %zmm9,%zmm15,%zmm13
  409171:	62 71 2d 48 ef 96 00 	vpxord 0xea00(%rsi),%zmm10,%zmm10
  409178:	ea 00 00 
  40917b:	62 71 1d 48 ef a6 c0 	vpxord 0xedc0(%rsi),%zmm12,%zmm12
  409182:	ed 00 00 
  409185:	62 71 3d 48 ef 86 80 	vpxord 0xea80(%rsi),%zmm8,%zmm8
  40918c:	ea 00 00 
  40918f:	62 f1 45 48 ef be 40 	vpxord 0xee40(%rsi),%zmm7,%zmm7
  409196:	ee 00 00 
  409199:	62 f1 5d 48 ef a6 c0 	vpxord 0xe8c0(%rsi),%zmm4,%zmm4
  4091a0:	e8 00 00 
  4091a3:	62 23 15 48 25 c0 6c 	vpternlogd $0x6c,%zmm16,%zmm13,%zmm24
  4091aa:	62 33 65 40 25 e8 56 	vpternlogd $0x56,%zmm16,%zmm19,%zmm13
  4091b1:	62 e1 7c 48 10 5c 24 	vmovups 0x1800(%rsp),%zmm19
  4091b8:	60 
  4091b9:	62 f1 7c 48 10 4c 24 	vmovups 0x17c0(%rsp),%zmm1
  4091c0:	5f 
  4091c1:	62 e1 7c 48 10 74 24 	vmovups 0x1880(%rsp),%zmm22
  4091c8:	62 
  4091c9:	62 71 7c 48 10 7c 24 	vmovups 0x1840(%rsp),%zmm15
  4091d0:	61 
  4091d1:	62 71 7c 48 10 9e 40 	vmovups 0xf440(%rsi),%zmm11
  4091d8:	f4 00 00 
  4091db:	62 61 7c 48 10 6c 24 	vmovups 0xd00(%rsp),%zmm29
  4091e2:	34 
  4091e3:	62 61 7c 48 10 7c 24 	vmovups 0xd40(%rsp),%zmm31
  4091ea:	35 
  4091eb:	62 33 35 48 25 d8 96 	vpternlogd $0x96,%zmm16,%zmm9,%zmm11
  4091f2:	62 e1 7c 48 10 44 24 	vmovups 0xec0(%rsp),%zmm16
  4091f9:	3b 
  4091fa:	62 21 7d 48 ef d8    	vpxord %zmm16,%zmm0,%zmm27
  409200:	62 11 5d 48 ef ce    	vpxord %zmm30,%zmm4,%zmm9
  409206:	62 03 15 40 25 f3 36 	vpternlogd $0x36,%zmm27,%zmm29,%zmm30
  40920d:	62 43 15 40 25 d9 6a 	vpternlogd $0x6a,%zmm9,%zmm29,%zmm27
  409214:	62 61 7d 40 ef e4    	vpxord %zmm4,%zmm16,%zmm28
  40921a:	62 13 1d 40 25 ce 6c 	vpternlogd $0x6c,%zmm30,%zmm28,%zmm9
  409221:	62 03 25 40 25 e6 56 	vpternlogd $0x56,%zmm30,%zmm27,%zmm28
  409228:	62 61 1d 40 ef ae c0 	vpxord 0xf9c0(%rsi),%zmm28,%zmm29
  40922f:	f9 00 00 
  409232:	62 61 7c 48 10 a6 80 	vmovups 0xf480(%rsi),%zmm28
  409239:	f4 00 00 
  40923c:	62 03 5d 48 25 e6 96 	vpternlogd $0x96,%zmm30,%zmm4,%zmm28
  409243:	62 f1 7c 48 10 64 24 	vmovups 0x11c0(%rsp),%zmm4
  40924a:	47 
  40924b:	62 e1 25 40 ef 86 c0 	vpxord 0xf0c0(%rsi),%zmm27,%zmm16
  409252:	f0 00 00 
  409255:	62 61 35 48 ef 9e 80 	vpxord 0xfd80(%rsi),%zmm9,%zmm27
  40925c:	fd 00 00 
  40925f:	62 71 7d 48 ef cc    	vpxord %zmm4,%zmm0,%zmm9
  409265:	62 21 6d 48 ef f3    	vpxord %zmm19,%zmm2,%zmm30
  40926b:	62 c3 05 40 25 d9 36 	vpternlogd $0x36,%zmm9,%zmm31,%zmm19
  409272:	62 13 05 40 25 ce 6a 	vpternlogd $0x6a,%zmm30,%zmm31,%zmm9
  409279:	62 61 7c 48 10 7c 24 	vmovups 0xd80(%rsp),%zmm31
  409280:	36 
  409281:	62 f1 5d 48 ef e2    	vpxord %zmm2,%zmm4,%zmm4
  409287:	62 23 5d 48 25 f3 6c 	vpternlogd $0x6c,%zmm19,%zmm4,%zmm30
  40928e:	62 b3 35 48 25 e3 56 	vpternlogd $0x56,%zmm19,%zmm9,%zmm4
  409295:	62 f1 5d 48 ef a6 00 	vpxord 0xfa00(%rsi),%zmm4,%zmm4
  40929c:	fa 00 00 
  40929f:	62 f1 7c 48 11 64 24 	vmovups %zmm4,0x1380(%rsp)
  4092a6:	4e 
  4092a7:	62 f1 7c 48 10 a6 c0 	vmovups 0xf4c0(%rsi),%zmm4
  4092ae:	f4 00 00 
  4092b1:	62 b3 6d 48 25 e3 96 	vpternlogd $0x96,%zmm19,%zmm2,%zmm4
  4092b8:	62 e1 7c 48 10 5c 24 	vmovups 0x1140(%rsp),%zmm19
  4092bf:	45 
  4092c0:	62 61 0d 40 ef b6 c0 	vpxord 0xfdc0(%rsi),%zmm30,%zmm30
  4092c7:	fd 00 00 
  4092ca:	62 61 7c 48 11 74 24 	vmovups %zmm30,0x13c0(%rsp)
  4092d1:	4f 
  4092d2:	62 b1 7d 48 ef d3    	vpxord %zmm19,%zmm0,%zmm2
  4092d8:	62 21 75 48 ef f6    	vpxord %zmm22,%zmm1,%zmm30
  4092de:	62 e3 05 40 25 f2 36 	vpternlogd $0x36,%zmm2,%zmm31,%zmm22
  4092e5:	62 93 05 40 25 d6 6a 	vpternlogd $0x6a,%zmm30,%zmm31,%zmm2
  4092ec:	62 61 7c 48 10 7c 24 	vmovups 0xdc0(%rsp),%zmm31
  4092f3:	37 
  4092f4:	62 e1 65 40 ef d9    	vpxord %zmm1,%zmm19,%zmm19
  4092fa:	62 23 65 40 25 f6 6c 	vpternlogd $0x6c,%zmm22,%zmm19,%zmm30
  409301:	62 a3 6d 48 25 de 56 	vpternlogd $0x56,%zmm22,%zmm2,%zmm19
  409308:	62 e1 65 40 ef 9e 40 	vpxord 0xfa40(%rsi),%zmm19,%zmm19
  40930f:	fa 00 00 
  409312:	62 e1 7c 48 11 5c 24 	vmovups %zmm19,0x1400(%rsp)
  409319:	50 
  40931a:	62 e1 7c 48 10 9e 00 	vmovups 0xf500(%rsi),%zmm19
  409321:	f5 00 00 
  409324:	62 a3 75 48 25 de 96 	vpternlogd $0x96,%zmm22,%zmm1,%zmm19
  40932b:	62 e1 7c 48 10 74 24 	vmovups 0x1180(%rsp),%zmm22
  409332:	46 
  409333:	62 61 0d 40 ef b6 00 	vpxord 0xfe00(%rsi),%zmm30,%zmm30
  40933a:	fe 00 00 
  40933d:	62 61 7c 48 11 74 24 	vmovups %zmm30,0x1440(%rsp)
  409344:	51 
  409345:	62 b1 7d 48 ef ce    	vpxord %zmm22,%zmm0,%zmm1
  40934b:	62 21 05 48 ef f7    	vpxord %zmm23,%zmm15,%zmm30
  409351:	62 e3 05 40 25 f9 36 	vpternlogd $0x36,%zmm1,%zmm31,%zmm23
  409358:	62 93 05 40 25 ce 6a 	vpternlogd $0x6a,%zmm30,%zmm31,%zmm1
  40935f:	62 61 7c 48 10 7c 24 	vmovups 0xe00(%rsp),%zmm31
  409366:	38 
  409367:	62 c1 4d 40 ef f7    	vpxord %zmm15,%zmm22,%zmm22
  40936d:	62 23 4d 40 25 f7 6c 	vpternlogd $0x6c,%zmm23,%zmm22,%zmm30
  409374:	62 a3 75 48 25 f7 56 	vpternlogd $0x56,%zmm23,%zmm1,%zmm22
  40937b:	62 e1 4d 40 ef b6 80 	vpxord 0xfa80(%rsi),%zmm22,%zmm22
  409382:	fa 00 00 
  409385:	62 e1 7c 48 11 74 24 	vmovups %zmm22,0x1480(%rsp)
  40938c:	52 
  40938d:	62 e1 7c 48 10 b6 40 	vmovups 0xf540(%rsi),%zmm22
  409394:	f5 00 00 
  409397:	62 a3 05 48 25 f7 96 	vpternlogd $0x96,%zmm23,%zmm15,%zmm22
  40939e:	62 71 7c 48 10 7c 24 	vmovups 0x1100(%rsp),%zmm15
  4093a5:	44 
  4093a6:	62 61 0d 40 ef b6 40 	vpxord 0xfe40(%rsi),%zmm30,%zmm30
  4093ad:	fe 00 00 
  4093b0:	62 61 7c 48 11 74 24 	vmovups %zmm30,0x14c0(%rsp)
  4093b7:	53 
  4093b8:	62 c1 7d 48 ef ff    	vpxord %zmm15,%zmm0,%zmm23
  4093be:	62 41 0d 48 ef f4    	vpxord %zmm12,%zmm14,%zmm30
  4093c4:	62 33 05 40 25 e7 36 	vpternlogd $0x36,%zmm23,%zmm31,%zmm12
  4093cb:	62 83 05 40 25 fe 6a 	vpternlogd $0x6a,%zmm30,%zmm31,%zmm23
  4093d2:	62 61 7c 48 10 7c 24 	vmovups 0xc40(%rsp),%zmm31
  4093d9:	31 
  4093da:	62 51 05 48 ef fe    	vpxord %zmm14,%zmm15,%zmm15
  4093e0:	62 43 05 48 25 f4 6c 	vpternlogd $0x6c,%zmm12,%zmm15,%zmm30
  4093e7:	62 53 45 40 25 fc 56 	vpternlogd $0x56,%zmm12,%zmm23,%zmm15
  4093ee:	62 71 05 48 ef be c0 	vpxord 0xfac0(%rsi),%zmm15,%zmm15
  4093f5:	fa 00 00 
  4093f8:	62 71 7c 48 11 7c 24 	vmovups %zmm15,0x1500(%rsp)
  4093ff:	54 
  409400:	62 71 7c 48 10 be 80 	vmovups 0xf580(%rsi),%zmm15
  409407:	f5 00 00 
  40940a:	62 53 0d 48 25 fc 96 	vpternlogd $0x96,%zmm12,%zmm14,%zmm15
  409411:	62 71 7c 48 10 64 24 	vmovups 0x1200(%rsp),%zmm12
  409418:	48 
  409419:	62 61 0d 40 ef b6 80 	vpxord 0xfe80(%rsi),%zmm30,%zmm30
  409420:	fe 00 00 
  409423:	62 61 7c 48 11 74 24 	vmovups %zmm30,0x1540(%rsp)
  40942a:	55 
  40942b:	62 41 7d 48 ef f4    	vpxord %zmm12,%zmm0,%zmm30
  409431:	62 71 2d 48 ef f3    	vpxord %zmm3,%zmm10,%zmm14
  409437:	62 93 05 40 25 de 36 	vpternlogd $0x36,%zmm30,%zmm31,%zmm3
  40943e:	62 43 05 40 25 f6 6a 	vpternlogd $0x6a,%zmm14,%zmm31,%zmm30
  409445:	62 61 7c 48 10 7c 24 	vmovups 0xac0(%rsp),%zmm31
  40944c:	2b 
  40944d:	62 51 1d 48 ef e2    	vpxord %zmm10,%zmm12,%zmm12
  409453:	62 73 1d 48 25 f3 6c 	vpternlogd $0x6c,%zmm3,%zmm12,%zmm14
  40945a:	62 73 0d 40 25 e3 56 	vpternlogd $0x56,%zmm3,%zmm30,%zmm12
  409461:	62 71 1d 48 ef a6 00 	vpxord 0xfb00(%rsi),%zmm12,%zmm12
  409468:	fb 00 00 
  40946b:	62 71 7c 48 11 64 24 	vmovups %zmm12,0x15c0(%rsp)
  409472:	57 
  409473:	62 71 7c 48 10 a6 c0 	vmovups 0xf5c0(%rsi),%zmm12
  40947a:	f5 00 00 
  40947d:	62 73 2d 48 25 e3 96 	vpternlogd $0x96,%zmm3,%zmm10,%zmm12
  409484:	62 f1 7c 48 10 5c 24 	vmovups 0x1240(%rsp),%zmm3
  40948b:	49 
  40948c:	62 61 0d 40 ef b6 00 	vpxord 0xf200(%rsi),%zmm30,%zmm30
  409493:	f2 00 00 
  409496:	62 61 7c 48 11 74 24 	vmovups %zmm30,0x1580(%rsp)
  40949d:	56 
  40949e:	62 61 7c 48 10 74 24 	vmovups 0x1340(%rsp),%zmm30
  4094a5:	4d 
  4094a6:	62 71 0d 48 ef b6 c0 	vpxord 0xfec0(%rsi),%zmm14,%zmm14
  4094ad:	fe 00 00 
  4094b0:	62 71 7c 48 11 74 24 	vmovups %zmm14,0x1600(%rsp)
  4094b7:	58 
  4094b8:	62 71 7d 48 ef f3    	vpxord %zmm3,%zmm0,%zmm14
  4094be:	62 71 0d 40 ef d7    	vpxord %zmm7,%zmm30,%zmm10
  4094c4:	62 d3 05 40 25 fe 36 	vpternlogd $0x36,%zmm14,%zmm31,%zmm7
  4094cb:	62 53 05 40 25 f2 6a 	vpternlogd $0x6a,%zmm10,%zmm31,%zmm14
  4094d2:	62 91 65 48 ef de    	vpxord %zmm30,%zmm3,%zmm3
  4094d8:	62 73 65 48 25 d7 6c 	vpternlogd $0x6c,%zmm7,%zmm3,%zmm10
  4094df:	62 f3 0d 48 25 df 56 	vpternlogd $0x56,%zmm7,%zmm14,%zmm3
  4094e6:	62 f1 65 48 ef 9e 40 	vpxord 0xfb40(%rsi),%zmm3,%zmm3
  4094ed:	fb 00 00 
  4094f0:	62 f1 7c 48 11 5c 24 	vmovups %zmm3,0x1680(%rsp)
  4094f7:	5a 
  4094f8:	62 f1 7c 48 10 9e 00 	vmovups 0xf600(%rsi),%zmm3
  4094ff:	f6 00 00 
  409502:	62 f3 0d 40 25 df 96 	vpternlogd $0x96,%zmm7,%zmm30,%zmm3
  409509:	62 f1 7c 48 10 7c 24 	vmovups 0xfc0(%rsp),%zmm7
  409510:	3f 
  409511:	62 71 2d 48 ef 96 00 	vpxord 0xff00(%rsi),%zmm10,%zmm10
  409518:	ff 00 00 
  40951b:	62 71 7c 48 11 54 24 	vmovups %zmm10,0x16c0(%rsp)
  409522:	5b 
  409523:	62 71 7c 48 10 54 24 	vmovups 0xb00(%rsp),%zmm10
  40952a:	2c 
  40952b:	62 71 0d 48 ef b6 40 	vpxord 0xf240(%rsi),%zmm14,%zmm14
  409532:	f2 00 00 
  409535:	62 71 7c 48 11 74 24 	vmovups %zmm14,0x1640(%rsp)
  40953c:	59 
  40953d:	62 71 7d 48 ef f7    	vpxord %zmm7,%zmm0,%zmm14
  409543:	62 41 45 48 ef f8    	vpxord %zmm8,%zmm7,%zmm31
  409549:	62 f1 3d 48 ef fe    	vpxord %zmm6,%zmm8,%zmm7
  40954f:	62 d3 2d 48 25 f6 36 	vpternlogd $0x36,%zmm14,%zmm10,%zmm6
  409556:	62 73 2d 48 25 f7 6a 	vpternlogd $0x6a,%zmm7,%zmm10,%zmm14
  40955d:	62 f3 05 40 25 fe 6c 	vpternlogd $0x6c,%zmm6,%zmm31,%zmm7
  409564:	62 63 0d 48 25 fe 56 	vpternlogd $0x56,%zmm6,%zmm14,%zmm31
  40956b:	62 f1 45 48 ef be 40 	vpxord 0xff40(%rsi),%zmm7,%zmm7
  409572:	ff 00 00 
  409575:	62 f1 7c 48 11 7c 24 	vmovups %zmm7,0x440(%rsp)
  40957c:	11 
  40957d:	62 f1 7c 48 10 be 40 	vmovups 0xf640(%rsi),%zmm7
  409584:	f6 00 00 
  409587:	62 f3 3d 48 25 fe 96 	vpternlogd $0x96,%zmm6,%zmm8,%zmm7
  40958e:	62 71 7c 48 10 44 24 	vmovups 0x1280(%rsp),%zmm8
  409595:	4a 
  409596:	62 71 05 40 ef 96 80 	vpxord 0xfb80(%rsi),%zmm31,%zmm10
  40959d:	fb 00 00 
  4095a0:	62 71 7c 48 11 54 24 	vmovups %zmm10,0x1740(%rsp)
  4095a7:	5d 
  4095a8:	62 71 7c 48 10 54 24 	vmovups 0x1300(%rsp),%zmm10
  4095af:	4c 
  4095b0:	62 61 0d 48 ef b6 80 	vpxord 0xf280(%rsi),%zmm14,%zmm30
  4095b7:	f2 00 00 
  4095ba:	62 51 7d 48 ef f0    	vpxord %zmm8,%zmm0,%zmm14
  4095c0:	62 41 3d 48 ef fa    	vpxord %zmm10,%zmm8,%zmm31
  4095c6:	62 71 7c 48 10 44 24 	vmovups 0xb40(%rsp),%zmm8
  4095cd:	2d 
  4095ce:	62 61 7c 48 11 74 24 	vmovups %zmm30,0x1700(%rsp)
  4095d5:	5c 
  4095d6:	62 f1 2d 48 ef f5    	vpxord %zmm5,%zmm10,%zmm6
  4095dc:	62 d3 3d 48 25 ee 36 	vpternlogd $0x36,%zmm14,%zmm8,%zmm5
  4095e3:	62 73 3d 48 25 f6 6a 	vpternlogd $0x6a,%zmm6,%zmm8,%zmm14
  4095ea:	62 f3 05 40 25 f5 6c 	vpternlogd $0x6c,%zmm5,%zmm31,%zmm6
  4095f1:	62 63 0d 48 25 fd 56 	vpternlogd $0x56,%zmm5,%zmm14,%zmm31
  4095f8:	62 71 05 40 ef 86 c0 	vpxord 0xfbc0(%rsi),%zmm31,%zmm8
  4095ff:	fb 00 00 
  409602:	62 71 7c 48 11 44 24 	vmovups %zmm8,0x17c0(%rsp)
  409609:	5f 
  40960a:	62 71 7c 48 10 86 80 	vmovups 0xf680(%rsi),%zmm8
  409611:	f6 00 00 
  409614:	62 73 2d 48 25 c5 96 	vpternlogd $0x96,%zmm5,%zmm10,%zmm8
  40961b:	62 71 7c 48 10 54 24 	vmovups 0x10c0(%rsp),%zmm10
  409622:	43 
  409623:	62 f1 7c 48 10 6c 24 	vmovups 0x12c0(%rsp),%zmm5
  40962a:	4b 
  40962b:	62 71 7c 48 11 44 24 	vmovups %zmm8,0x1840(%rsp)
  409632:	61 
  409633:	62 f1 4d 48 ef b6 80 	vpxord 0xff80(%rsi),%zmm6,%zmm6
  40963a:	ff 00 00 
  40963d:	62 f1 7c 48 11 74 24 	vmovups %zmm6,0x1800(%rsp)
  409644:	60 
  409645:	62 f1 7c 48 10 74 24 	vmovups 0xb80(%rsp),%zmm6
  40964c:	2e 
  40964d:	62 51 7d 48 ef c2    	vpxord %zmm10,%zmm0,%zmm8
  409653:	62 21 55 48 ef fd    	vpxord %zmm21,%zmm5,%zmm31
  409659:	62 c3 4d 48 25 e8 36 	vpternlogd $0x36,%zmm8,%zmm6,%zmm21
  409660:	62 13 4d 48 25 c7 6a 	vpternlogd $0x6a,%zmm31,%zmm6,%zmm8
  409667:	62 61 0d 48 ef b6 c0 	vpxord 0xf2c0(%rsi),%zmm14,%zmm30
  40966e:	f2 00 00 
  409671:	62 71 3d 48 ef b6 00 	vpxord 0xf300(%rsi),%zmm8,%zmm14
  409678:	f3 00 00 
  40967b:	62 61 7c 48 11 74 24 	vmovups %zmm30,0x1780(%rsp)
  409682:	5e 
  409683:	62 71 7c 48 11 74 24 	vmovups %zmm14,0x1880(%rsp)
  40968a:	62 
  40968b:	62 61 2d 48 ef f5    	vpxord %zmm5,%zmm10,%zmm30
  409691:	62 23 0d 40 25 fd 6c 	vpternlogd $0x6c,%zmm21,%zmm30,%zmm31
  409698:	62 23 3d 48 25 f5 56 	vpternlogd $0x56,%zmm21,%zmm8,%zmm30
  40969f:	62 71 7c 48 10 86 c0 	vmovups 0xf6c0(%rsi),%zmm8
  4096a6:	f6 00 00 
  4096a9:	62 33 55 48 25 c5 96 	vpternlogd $0x96,%zmm21,%zmm5,%zmm8
  4096b0:	62 e1 7c 48 10 6c 24 	vmovups 0x1000(%rsp),%zmm21
  4096b7:	40 
  4096b8:	62 71 7c 48 11 44 24 	vmovups %zmm8,0x1900(%rsp)
  4096bf:	64 
  4096c0:	62 71 05 40 ef 96 c0 	vpxord 0xffc0(%rsi),%zmm31,%zmm10
  4096c7:	ff 00 00 
  4096ca:	62 f1 0d 40 ef b6 00 	vpxord 0xf800(%rsi),%zmm30,%zmm6
  4096d1:	f8 00 00 
  4096d4:	62 71 7c 48 11 54 24 	vmovups %zmm10,0x18c0(%rsp)
  4096db:	63 
  4096dc:	62 61 7c 48 10 74 24 	vmovups 0xf00(%rsp),%zmm30
  4096e3:	3c 
  4096e4:	62 71 7c 48 10 54 24 	vmovups 0xbc0(%rsp),%zmm10
  4096eb:	2f 
  4096ec:	62 31 7d 48 ef c5    	vpxord %zmm21,%zmm0,%zmm8
  4096f2:	62 21 0d 40 ef fc    	vpxord %zmm20,%zmm30,%zmm31
  4096f8:	62 c3 2d 48 25 e0 36 	vpternlogd $0x36,%zmm8,%zmm10,%zmm20
  4096ff:	62 13 2d 48 25 c7 6a 	vpternlogd $0x6a,%zmm31,%zmm10,%zmm8
  409706:	62 71 7c 48 10 96 00 	vmovups 0xf700(%rsi),%zmm10
  40970d:	f7 00 00 
  409710:	62 33 0d 40 25 d4 96 	vpternlogd $0x96,%zmm20,%zmm30,%zmm10
  409717:	62 71 7c 48 11 54 24 	vmovups %zmm10,0x1980(%rsp)
  40971e:	66 
  40971f:	62 11 55 40 ef f6    	vpxord %zmm30,%zmm21,%zmm14
  409725:	62 23 0d 48 25 fc 6c 	vpternlogd $0x6c,%zmm20,%zmm14,%zmm31
  40972c:	62 33 3d 48 25 f4 56 	vpternlogd $0x56,%zmm20,%zmm8,%zmm14
  409733:	62 e1 7c 48 10 64 24 	vmovups 0xe40(%rsp),%zmm20
  40973a:	39 
  40973b:	62 61 7c 48 10 74 24 	vmovups 0xc00(%rsp),%zmm30
  409742:	30 
  409743:	62 f1 3d 48 ef ae 40 	vpxord 0xf340(%rsi),%zmm8,%zmm5
  40974a:	f3 00 00 
  40974d:	62 f1 7c 48 11 6c 24 	vmovups %zmm5,0x1940(%rsp)
  409754:	65 
  409755:	62 f1 05 40 ef ae 00 	vpxord 0xfc00(%rsi),%zmm31,%zmm5
  40975c:	fc 00 00 
  40975f:	62 61 7c 48 10 7c 24 	vmovups 0xf40(%rsp),%zmm31
  409766:	3d 
  409767:	62 e1 0d 48 ef ae 40 	vpxord 0xf840(%rsi),%zmm14,%zmm21
  40976e:	f8 00 00 
  409771:	62 31 7d 48 ef c4    	vpxord %zmm20,%zmm0,%zmm8
  409777:	62 11 5d 40 ef f7    	vpxord %zmm31,%zmm20,%zmm14
  40977d:	62 a1 05 40 ef e2    	vpxord %zmm18,%zmm31,%zmm20
  409783:	62 c3 0d 40 25 d0 36 	vpternlogd $0x36,%zmm8,%zmm30,%zmm18
  40978a:	62 33 0d 40 25 c4 6a 	vpternlogd $0x6a,%zmm20,%zmm30,%zmm8
  409791:	62 a3 0d 48 25 e2 6c 	vpternlogd $0x6c,%zmm18,%zmm14,%zmm20
  409798:	62 33 3d 48 25 f2 56 	vpternlogd $0x56,%zmm18,%zmm8,%zmm14
  40979f:	62 71 3d 48 ef 96 80 	vpxord 0xf380(%rsi),%zmm8,%zmm10
  4097a6:	f3 00 00 
  4097a9:	62 71 7c 48 11 54 24 	vmovups %zmm10,0x100(%rsp)
  4097b0:	04 
  4097b1:	62 71 7c 48 10 96 40 	vmovups 0xf740(%rsi),%zmm10
  4097b8:	f7 00 00 
  4097bb:	62 71 7c 48 10 44 24 	vmovups 0xf80(%rsp),%zmm8
  4097c2:	3e 
  4097c3:	62 33 05 40 25 d2 96 	vpternlogd $0x96,%zmm18,%zmm31,%zmm10
  4097ca:	62 e1 7c 48 10 54 24 	vmovups 0xa00(%rsp),%zmm18
  4097d1:	28 
  4097d2:	62 61 7c 48 10 7c 24 	vmovups 0xa40(%rsp),%zmm31
  4097d9:	29 
  4097da:	62 71 7c 48 11 54 24 	vmovups %zmm10,0x19c0(%rsp)
  4097e1:	67 
  4097e2:	62 61 0d 48 ef b6 80 	vpxord 0xf880(%rsi),%zmm14,%zmm30
  4097e9:	f8 00 00 
  4097ec:	62 31 7d 48 ef f2    	vpxord %zmm18,%zmm0,%zmm14
  4097f2:	62 51 6d 40 ef d0    	vpxord %zmm8,%zmm18,%zmm10
  4097f8:	62 a1 3d 48 ef d1    	vpxord %zmm17,%zmm8,%zmm18
  4097fe:	62 c3 05 40 25 ce 36 	vpternlogd $0x36,%zmm14,%zmm31,%zmm17
  409805:	62 33 05 40 25 f2 6a 	vpternlogd $0x6a,%zmm18,%zmm31,%zmm14
  40980c:	62 a3 2d 48 25 d1 6c 	vpternlogd $0x6c,%zmm17,%zmm10,%zmm18
  409813:	62 33 0d 48 25 d1 56 	vpternlogd $0x56,%zmm17,%zmm14,%zmm10
  40981a:	62 71 0d 48 ef b6 c0 	vpxord 0xf3c0(%rsi),%zmm14,%zmm14
  409821:	f3 00 00 
  409824:	62 71 7c 48 11 74 24 	vmovups %zmm14,0x80(%rsp)
  40982b:	02 
  40982c:	62 71 2d 48 ef b6 c0 	vpxord 0xf8c0(%rsi),%zmm10,%zmm14
  409833:	f8 00 00 
  409836:	62 71 7c 48 10 96 80 	vmovups 0xf780(%rsi),%zmm10
  40983d:	f7 00 00 
  409840:	62 33 3d 48 25 d1 96 	vpternlogd $0x96,%zmm17,%zmm8,%zmm10
  409847:	62 e1 7c 48 10 4c 24 	vmovups 0xe80(%rsp),%zmm17
  40984e:	3a 
  40984f:	62 71 7c 48 11 54 24 	vmovups %zmm10,0x480(%rsp)
  409856:	12 
  409857:	62 31 7d 48 ef c1    	vpxord %zmm17,%zmm0,%zmm8
  40985d:	62 71 75 40 ef d6    	vpxord %zmm6,%zmm17,%zmm10
  409863:	62 e1 7c 48 10 4c 24 	vmovups 0xa80(%rsp),%zmm17
  40986a:	2a 
  40986b:	62 61 4d 48 ef fd    	vpxord %zmm5,%zmm6,%zmm31
  409871:	62 d3 75 40 25 e8 36 	vpternlogd $0x36,%zmm8,%zmm17,%zmm5
  409878:	62 13 75 40 25 c7 6a 	vpternlogd $0x6a,%zmm31,%zmm17,%zmm8
  40987f:	62 63 2d 48 25 fd 6c 	vpternlogd $0x6c,%zmm5,%zmm10,%zmm31
  409886:	62 73 3d 48 25 d5 56 	vpternlogd $0x56,%zmm5,%zmm8,%zmm10
  40988d:	62 71 3d 48 ef 86 00 	vpxord 0x10000(%rsi),%zmm8,%zmm8
  409894:	00 01 00 
  409897:	62 71 7c 48 11 44 24 	vmovups %zmm8,0xc0(%rsp)
  40989e:	03 
  40989f:	62 71 2d 48 ef 86 00 	vpxord 0x10900(%rsi),%zmm10,%zmm8
  4098a6:	09 01 00 
  4098a9:	62 71 05 40 ef 96 c0 	vpxord 0x10cc0(%rsi),%zmm31,%zmm10
  4098b0:	0c 01 00 
  4098b3:	62 61 7c 48 10 be c0 	vmovups 0x107c0(%rsi),%zmm31
  4098ba:	07 01 00 
  4098bd:	62 63 4d 48 25 fd 96 	vpternlogd $0x96,%zmm5,%zmm6,%zmm31
  4098c4:	62 61 7c 48 11 7c 24 	vmovups %zmm31,0x40(%rsp)
  4098cb:	01 
  4098cc:	62 61 7c 48 10 be 00 	vmovups 0x10400(%rsi),%zmm31
  4098d3:	04 01 00 
  4098d6:	62 d1 7d 48 ef f3    	vpxord %zmm11,%zmm0,%zmm6
  4098dc:	62 b1 25 48 ef ed    	vpxord %zmm21,%zmm11,%zmm5
  4098e2:	62 71 7c 48 10 5c 24 	vmovups 0xc80(%rsp),%zmm11
  4098e9:	32 
  4098ea:	62 e1 5d 40 ef a6 40 	vpxord 0xfc40(%rsi),%zmm20,%zmm20
  4098f1:	fc 00 00 
  4098f4:	62 a1 55 40 ef cc    	vpxord %zmm20,%zmm21,%zmm17
  4098fa:	62 e3 25 48 25 e6 36 	vpternlogd $0x36,%zmm6,%zmm11,%zmm20
  409901:	62 b3 25 48 25 f1 6a 	vpternlogd $0x6a,%zmm17,%zmm11,%zmm6
  409908:	62 23 55 40 25 fc 96 	vpternlogd $0x96,%zmm20,%zmm21,%zmm31
  40990f:	62 a3 55 48 25 cc 6c 	vpternlogd $0x6c,%zmm20,%zmm5,%zmm17
  409916:	62 b3 4d 48 25 ec 56 	vpternlogd $0x56,%zmm20,%zmm6,%zmm5
  40991d:	62 61 7c 48 11 7c 24 	vmovups %zmm31,0x4c0(%rsp)
  409924:	13 
  409925:	62 61 7c 48 10 be 40 	vmovups 0x10440(%rsi),%zmm31
  40992c:	04 01 00 
  40992f:	62 71 4d 48 ef 9e 40 	vpxord 0x10040(%rsi),%zmm6,%zmm11
  409936:	00 01 00 
  409939:	62 81 7d 48 ef e4    	vpxord %zmm28,%zmm0,%zmm20
  40993f:	62 91 1d 40 ef f6    	vpxord %zmm30,%zmm28,%zmm6
  409945:	62 61 7c 48 10 64 24 	vmovups 0xcc0(%rsp),%zmm28
  40994c:	33 
  40994d:	62 71 7c 48 11 5c 24 	vmovups %zmm11,0x140(%rsp)
  409954:	05 
  409955:	62 e1 6d 40 ef 96 80 	vpxord 0xfc80(%rsi),%zmm18,%zmm18
  40995c:	fc 00 00 
  40995f:	62 71 55 48 ef 9e 40 	vpxord 0x10940(%rsi),%zmm5,%zmm11
  409966:	09 01 00 
  409969:	62 b1 0d 40 ef ea    	vpxord %zmm18,%zmm30,%zmm5
  40996f:	62 a3 1d 40 25 d4 36 	vpternlogd $0x36,%zmm20,%zmm28,%zmm18
  409976:	62 e3 1d 40 25 e5 6a 	vpternlogd $0x6a,%zmm5,%zmm28,%zmm20
  40997d:	62 61 7c 48 10 64 24 	vmovups 0x13c0(%rsp),%zmm28
  409984:	4f 
  409985:	62 b3 4d 48 25 ea 6c 	vpternlogd $0x6c,%zmm18,%zmm6,%zmm5
  40998c:	62 b3 5d 40 25 f2 56 	vpternlogd $0x56,%zmm18,%zmm20,%zmm6
  409993:	62 23 0d 40 25 fa 96 	vpternlogd $0x96,%zmm18,%zmm30,%zmm31
  40999a:	62 61 7c 48 10 b6 80 	vmovups 0x10580(%rsi),%zmm30
  4099a1:	05 01 00 
  4099a4:	62 61 7c 48 11 7c 24 	vmovups %zmm31,0x500(%rsp)
  4099ab:	14 
  4099ac:	62 e1 5d 40 ef ae 80 	vpxord 0x10080(%rsi),%zmm20,%zmm21
  4099b3:	00 01 00 
  4099b6:	62 e1 7d 48 ef d4    	vpxord %zmm4,%zmm0,%zmm18
  4099bc:	62 81 0d 48 ef e2    	vpxord %zmm26,%zmm14,%zmm20
  4099c2:	62 23 7d 40 25 d2 36 	vpternlogd $0x36,%zmm18,%zmm16,%zmm26
  4099c9:	62 a3 7d 40 25 d4 6a 	vpternlogd $0x6a,%zmm20,%zmm16,%zmm18
  4099d0:	62 e1 7c 48 11 6c 24 	vmovups %zmm21,0x180(%rsp)
  4099d7:	06 
  4099d8:	62 d1 5d 48 ef e6    	vpxord %zmm14,%zmm4,%zmm4
  4099de:	62 e1 6d 40 ef 86 c0 	vpxord 0x100c0(%rsi),%zmm18,%zmm16
  4099e5:	00 01 00 
  4099e8:	62 83 5d 48 25 e2 6c 	vpternlogd $0x6c,%zmm26,%zmm4,%zmm20
  4099ef:	62 93 6d 40 25 e2 56 	vpternlogd $0x56,%zmm26,%zmm18,%zmm4
  4099f6:	62 e1 7c 48 10 96 80 	vmovups 0x10480(%rsi),%zmm18
  4099fd:	04 01 00 
  409a00:	62 e1 7c 48 11 44 24 	vmovups %zmm16,0x1c0(%rsp)
  409a07:	07 
  409a08:	62 83 0d 48 25 d2 96 	vpternlogd $0x96,%zmm26,%zmm14,%zmm18
  409a0f:	62 71 7c 48 10 74 24 	vmovups 0x1040(%rsp),%zmm14
  409a16:	41 
  409a17:	62 e1 7c 48 11 54 24 	vmovups %zmm18,0x540(%rsp)
  409a1e:	15 
  409a1f:	62 e1 5d 48 ef 86 c0 	vpxord 0x109c0(%rsi),%zmm4,%zmm16
  409a26:	09 01 00 
  409a29:	62 21 7d 48 ef d3    	vpxord %zmm19,%zmm0,%zmm26
  409a2f:	62 d1 65 40 ef e6    	vpxord %zmm14,%zmm19,%zmm4
  409a35:	62 e1 7c 48 10 9e c0 	vmovups 0x104c0(%rsi),%zmm19
  409a3c:	04 01 00 
  409a3f:	62 e1 7c 48 11 44 24 	vmovups %zmm16,0x9c0(%rsp)
  409a46:	27 
  409a47:	62 71 35 48 ef 8e 00 	vpxord 0xf100(%rsi),%zmm9,%zmm9
  409a4e:	f1 00 00 
  409a51:	62 81 0d 48 ef d1    	vpxord %zmm25,%zmm14,%zmm18
  409a57:	62 03 35 48 25 ca 36 	vpternlogd $0x36,%zmm26,%zmm9,%zmm25
  409a5e:	62 23 35 48 25 d2 6a 	vpternlogd $0x6a,%zmm18,%zmm9,%zmm26
  409a65:	62 83 0d 48 25 d9 96 	vpternlogd $0x96,%zmm25,%zmm14,%zmm19
  409a6c:	62 83 5d 48 25 d1 6c 	vpternlogd $0x6c,%zmm25,%zmm4,%zmm18
  409a73:	62 93 2d 40 25 e1 56 	vpternlogd $0x56,%zmm25,%zmm26,%zmm4
  409a7a:	62 71 7c 48 10 74 24 	vmovups 0x1080(%rsp),%zmm14
  409a81:	42 
  409a82:	62 e1 7c 48 11 5c 24 	vmovups %zmm19,0x580(%rsp)
  409a89:	16 
  409a8a:	62 e1 7c 48 10 9e 00 	vmovups 0x10500(%rsi),%zmm19
  409a91:	05 01 00 
  409a94:	62 71 2d 40 ef 8e 00 	vpxord 0x10100(%rsi),%zmm26,%zmm9
  409a9b:	01 01 00 
  409a9e:	62 61 5d 48 ef 96 00 	vpxord 0x10a00(%rsi),%zmm4,%zmm26
  409aa5:	0a 01 00 
  409aa8:	62 61 7c 48 11 54 24 	vmovups %zmm26,0x6c0(%rsp)
  409aaf:	1b 
  409ab0:	62 71 7c 48 11 4c 24 	vmovups %zmm9,0x200(%rsp)
  409ab7:	08 
  409ab8:	62 21 7d 48 ef ce    	vpxord %zmm22,%zmm0,%zmm25
  409abe:	62 41 4d 40 ef d6    	vpxord %zmm14,%zmm22,%zmm26
  409ac4:	62 e1 7c 48 10 b6 40 	vmovups 0x10540(%rsi),%zmm22
  409acb:	05 01 00 
  409ace:	62 71 15 48 ef ae 80 	vpxord 0xf980(%rsi),%zmm13,%zmm13
  409ad5:	f9 00 00 
  409ad8:	62 61 3d 40 ef 86 40 	vpxord 0xfd40(%rsi),%zmm24,%zmm24
  409adf:	fd 00 00 
  409ae2:	62 f1 6d 48 ef 96 40 	vpxord 0xf140(%rsi),%zmm2,%zmm2
  409ae9:	f1 00 00 
  409aec:	62 f1 75 48 ef 8e 80 	vpxord 0xf180(%rsi),%zmm1,%zmm1
  409af3:	f1 00 00 
  409af6:	62 e1 5d 40 ef 86 80 	vpxord 0x10d80(%rsi),%zmm20,%zmm16
  409afd:	0d 01 00 
  409b00:	62 71 6d 40 ef 8e c0 	vpxord 0x10dc0(%rsi),%zmm18,%zmm9
  409b07:	0d 01 00 
  409b0a:	62 81 0d 48 ef d0    	vpxord %zmm24,%zmm14,%zmm18
  409b10:	62 c1 7d 48 ef e7    	vpxord %zmm15,%zmm0,%zmm20
  409b16:	62 81 15 48 ef eb    	vpxord %zmm27,%zmm13,%zmm21
  409b1c:	62 03 6d 48 25 c1 36 	vpternlogd $0x36,%zmm25,%zmm2,%zmm24
  409b23:	62 23 6d 48 25 ca 6a 	vpternlogd $0x6a,%zmm18,%zmm2,%zmm25
  409b2a:	62 23 75 48 25 dc 36 	vpternlogd $0x36,%zmm20,%zmm1,%zmm27
  409b31:	62 a3 75 48 25 e5 6a 	vpternlogd $0x6a,%zmm21,%zmm1,%zmm20
  409b38:	62 83 2d 40 25 d0 6c 	vpternlogd $0x6c,%zmm24,%zmm26,%zmm18
  409b3f:	62 03 35 40 25 d0 56 	vpternlogd $0x56,%zmm24,%zmm25,%zmm26
  409b46:	62 83 0d 48 25 d8 96 	vpternlogd $0x96,%zmm24,%zmm14,%zmm19
  409b4d:	62 83 15 48 25 f3 96 	vpternlogd $0x96,%zmm27,%zmm13,%zmm22
  409b54:	62 71 7c 48 10 b6 00 	vmovups 0x10600(%rsi),%zmm14
  409b5b:	06 01 00 
  409b5e:	62 e1 7c 48 11 5c 24 	vmovups %zmm19,0x5c0(%rsp)
  409b65:	17 
  409b66:	62 e1 7c 48 11 74 24 	vmovups %zmm22,0x880(%rsp)
  409b6d:	22 
  409b6e:	62 51 05 48 ef fd    	vpxord %zmm13,%zmm15,%zmm15
  409b74:	62 e1 45 40 ef be c0 	vpxord 0xf1c0(%rsi),%zmm23,%zmm23
  409b7b:	f1 00 00 
  409b7e:	62 83 05 48 25 eb 6c 	vpternlogd $0x6c,%zmm27,%zmm15,%zmm21
  409b85:	62 13 5d 40 25 fb 56 	vpternlogd $0x56,%zmm27,%zmm20,%zmm15
  409b8c:	62 41 7d 48 ef dc    	vpxord %zmm12,%zmm0,%zmm27
  409b92:	62 01 15 40 ef c4    	vpxord %zmm28,%zmm29,%zmm24
  409b98:	62 03 45 40 25 e3 36 	vpternlogd $0x36,%zmm27,%zmm23,%zmm28
  409b9f:	62 03 45 40 25 d8 6a 	vpternlogd $0x6a,%zmm24,%zmm23,%zmm27
  409ba6:	62 03 15 40 25 f4 96 	vpternlogd $0x96,%zmm28,%zmm29,%zmm30
  409bad:	62 61 7c 48 11 74 24 	vmovups %zmm30,0x8c0(%rsp)
  409bb4:	23 
  409bb5:	62 f1 35 40 ef a6 40 	vpxord 0x10140(%rsi),%zmm25,%zmm4
  409bbc:	01 01 00 
  409bbf:	62 f1 7c 48 11 64 24 	vmovups %zmm4,0x240(%rsp)
  409bc6:	09 
  409bc7:	62 f1 6d 40 ef a6 00 	vpxord 0x10e00(%rsi),%zmm18,%zmm4
  409bce:	0e 01 00 
  409bd1:	62 11 1d 48 ef e5    	vpxord %zmm29,%zmm12,%zmm12
  409bd7:	62 e1 25 40 ef be c0 	vpxord 0x101c0(%rsi),%zmm27,%zmm23
  409bde:	01 01 00 
  409be1:	62 03 1d 48 25 c4 6c 	vpternlogd $0x6c,%zmm28,%zmm12,%zmm24
  409be8:	62 13 25 40 25 e4 56 	vpternlogd $0x56,%zmm28,%zmm27,%zmm12
  409bef:	62 61 7c 48 10 5c 24 	vmovups 0x1380(%rsp),%zmm27
  409bf6:	4e 
  409bf7:	62 e1 7c 48 10 54 24 	vmovups 0x1440(%rsp),%zmm18
  409bfe:	51 
  409bff:	62 61 7c 48 10 6c 24 	vmovups 0x1580(%rsp),%zmm29
  409c06:	56 
  409c07:	62 e1 7c 48 11 7c 24 	vmovups %zmm23,0x2c0(%rsp)
  409c0e:	0b 
  409c0f:	62 f1 2d 40 ef 96 40 	vpxord 0x10a40(%rsi),%zmm26,%zmm2
  409c16:	0a 01 00 
  409c19:	62 61 7d 48 ef fb    	vpxord %zmm3,%zmm0,%zmm31
  409c1f:	62 21 25 40 ef d2    	vpxord %zmm18,%zmm27,%zmm26
  409c25:	62 83 15 40 25 d7 36 	vpternlogd $0x36,%zmm31,%zmm29,%zmm18
  409c2c:	62 03 15 40 25 fa 6a 	vpternlogd $0x6a,%zmm26,%zmm29,%zmm31
  409c33:	62 f1 7c 48 11 54 24 	vmovups %zmm2,0x840(%rsp)
  409c3a:	21 
  409c3b:	62 71 1d 48 ef ae c0 	vpxord 0x10ac0(%rsi),%zmm12,%zmm13
  409c42:	0a 01 00 
  409c45:	62 71 7c 48 10 a6 c0 	vmovups 0x105c0(%rsi),%zmm12
  409c4c:	05 01 00 
  409c4f:	62 71 7c 48 11 6c 24 	vmovups %zmm13,0x740(%rsp)
  409c56:	1d 
  409c57:	62 33 25 40 25 e2 96 	vpternlogd $0x96,%zmm18,%zmm27,%zmm12
  409c5e:	62 71 7c 48 11 64 24 	vmovups %zmm12,0x940(%rsp)
  409c65:	25 
  409c66:	62 71 7c 48 10 64 24 	vmovups 0x14c0(%rsp),%zmm12
  409c6d:	53 
  409c6e:	62 61 05 48 ef 8e 80 	vpxord 0x10a80(%rsi),%zmm15,%zmm25
  409c75:	0a 01 00 
  409c78:	62 61 7c 48 11 4c 24 	vmovups %zmm25,0x7c0(%rsp)
  409c7f:	1f 
  409c80:	62 71 7c 48 10 7c 24 	vmovups 0x1700(%rsp),%zmm15
  409c87:	5c 
  409c88:	62 01 65 48 ef cb    	vpxord %zmm27,%zmm3,%zmm25
  409c8e:	62 f1 05 40 ef 9e 00 	vpxord 0x10200(%rsi),%zmm31,%zmm3
  409c95:	02 01 00 
  409c98:	62 f1 7c 48 11 5c 24 	vmovups %zmm3,0x300(%rsp)
  409c9f:	0c 
  409ca0:	62 f1 7c 48 10 5c 24 	vmovups 0x1400(%rsp),%zmm3
  409ca7:	50 
  409ca8:	62 23 35 40 25 d2 6c 	vpternlogd $0x6c,%zmm18,%zmm25,%zmm26
  409caf:	62 23 05 40 25 ca 56 	vpternlogd $0x56,%zmm18,%zmm31,%zmm25
  409cb6:	62 61 35 40 ef ae 00 	vpxord 0x10b00(%rsi),%zmm25,%zmm29
  409cbd:	0b 01 00 
  409cc0:	62 61 7c 48 11 6c 24 	vmovups %zmm29,0x700(%rsp)
  409cc7:	1c 
  409cc8:	62 61 2d 40 ef ae c0 	vpxord 0x10ec0(%rsi),%zmm26,%zmm29
  409ccf:	0e 01 00 
  409cd2:	62 71 7d 48 ef ef    	vpxord %zmm7,%zmm0,%zmm13
  409cd8:	62 61 45 48 ef d3    	vpxord %zmm3,%zmm7,%zmm26
  409cde:	62 f1 7c 48 10 7c 24 	vmovups 0x1640(%rsp),%zmm7
  409ce5:	59 
  409ce6:	62 c1 65 48 ef d4    	vpxord %zmm12,%zmm3,%zmm18
  409cec:	62 53 45 48 25 e5 36 	vpternlogd $0x36,%zmm13,%zmm7,%zmm12
  409cf3:	62 33 45 48 25 ea 6a 	vpternlogd $0x6a,%zmm18,%zmm7,%zmm13
  409cfa:	62 f1 7c 48 10 7c 24 	vmovups 0x1840(%rsp),%zmm7
  409d01:	61 
  409d02:	62 c3 2d 40 25 d4 6c 	vpternlogd $0x6c,%zmm12,%zmm26,%zmm18
  409d09:	62 43 15 48 25 d4 56 	vpternlogd $0x56,%zmm12,%zmm13,%zmm26
  409d10:	62 53 65 48 25 f4 96 	vpternlogd $0x96,%zmm12,%zmm3,%zmm14
  409d17:	62 f1 7c 48 10 5c 24 	vmovups 0x1900(%rsp),%zmm3
  409d1e:	64 
  409d1f:	62 71 7c 48 11 74 24 	vmovups %zmm14,0x900(%rsp)
  409d26:	24 
  409d27:	62 f1 5d 40 ef 8e 80 	vpxord 0x10180(%rsi),%zmm20,%zmm1
  409d2e:	01 01 00 
  409d31:	62 61 2d 40 ef 9e 40 	vpxord 0x10b40(%rsi),%zmm26,%zmm27
  409d38:	0b 01 00 
  409d3b:	62 f1 7c 48 11 4c 24 	vmovups %zmm1,0x280(%rsp)
  409d42:	0a 
  409d43:	62 61 7c 48 11 5c 24 	vmovups %zmm27,0x600(%rsp)
  409d4a:	18 
  409d4b:	62 61 7c 48 10 5c 24 	vmovups 0x1540(%rsp),%zmm27
  409d52:	55 
  409d53:	62 f1 3d 40 ef 8e 80 	vpxord 0x10e80(%rsi),%zmm24,%zmm1
  409d5a:	0e 01 00 
  409d5d:	62 61 7c 48 10 44 24 	vmovups 0x1480(%rsp),%zmm24
  409d64:	52 
  409d65:	62 e1 7d 48 ef df    	vpxord %zmm7,%zmm0,%zmm19
  409d6b:	62 81 3d 40 ef fb    	vpxord %zmm27,%zmm24,%zmm23
  409d71:	62 23 05 48 25 db 36 	vpternlogd $0x36,%zmm19,%zmm15,%zmm27
  409d78:	62 a3 05 48 25 df 6a 	vpternlogd $0x6a,%zmm23,%zmm15,%zmm19
  409d7f:	62 f1 55 40 ef 96 40 	vpxord 0x10e40(%rsi),%zmm21,%zmm2
  409d86:	0e 01 00 
  409d89:	62 81 45 48 ef e8    	vpxord %zmm24,%zmm7,%zmm21
  409d8f:	62 83 55 40 25 fb 6c 	vpternlogd $0x6c,%zmm27,%zmm21,%zmm23
  409d96:	62 83 65 40 25 eb 56 	vpternlogd $0x56,%zmm27,%zmm19,%zmm21
  409d9d:	62 f1 7c 48 10 7c 24 	vmovups 0x1780(%rsp),%zmm7
  409da4:	5e 
  409da5:	62 e1 65 40 ef a6 80 	vpxord 0x10280(%rsi),%zmm19,%zmm20
  409dac:	02 01 00 
  409daf:	62 e1 7c 48 11 64 24 	vmovups %zmm20,0x380(%rsp)
  409db6:	0e 
  409db7:	62 e1 7c 48 10 64 24 	vmovups 0x1500(%rsp),%zmm20
  409dbe:	54 
  409dbf:	62 e1 55 40 ef b6 80 	vpxord 0x10b80(%rsi),%zmm21,%zmm22
  409dc6:	0b 01 00 
  409dc9:	62 e1 7c 48 10 6c 24 	vmovups 0x1600(%rsp),%zmm21
  409dd0:	58 
  409dd1:	62 e1 7c 48 11 74 24 	vmovups %zmm22,0x640(%rsp)
  409dd8:	19 
  409dd9:	62 e1 7c 48 10 b6 80 	vmovups 0x10680(%rsi),%zmm22
  409de0:	06 01 00 
  409de3:	62 61 15 48 ef 8e 40 	vpxord 0x10240(%rsi),%zmm13,%zmm25
  409dea:	02 01 00 
  409ded:	62 61 7c 48 11 4c 24 	vmovups %zmm25,0x340(%rsp)
  409df4:	0d 
  409df5:	62 61 6d 40 ef 8e 00 	vpxord 0x10f00(%rsi),%zmm18,%zmm25
  409dfc:	0f 01 00 
  409dff:	62 e1 7c 48 10 96 40 	vmovups 0x10640(%rsi),%zmm18
  409e06:	06 01 00 
  409e09:	62 83 3d 40 25 d3 96 	vpternlogd $0x96,%zmm27,%zmm24,%zmm18
  409e10:	62 61 7c 48 10 44 24 	vmovups 0x1880(%rsp),%zmm24
  409e17:	62 
  409e18:	62 e1 7c 48 11 54 24 	vmovups %zmm18,0x980(%rsp)
  409e1f:	26 
  409e20:	62 71 7d 48 ef e3    	vpxord %zmm3,%zmm0,%zmm12
  409e26:	62 a1 5d 40 ef dd    	vpxord %zmm21,%zmm20,%zmm19
  409e2c:	62 c3 45 48 25 ec 36 	vpternlogd $0x36,%zmm12,%zmm7,%zmm21
  409e33:	62 33 45 48 25 e3 6a 	vpternlogd $0x6a,%zmm19,%zmm7,%zmm12
  409e3a:	62 f1 7c 48 10 7c 24 	vmovups 0x15c0(%rsp),%zmm7
  409e41:	57 
  409e42:	62 a3 5d 40 25 f5 96 	vpternlogd $0x96,%zmm21,%zmm20,%zmm22
  409e49:	62 e1 7c 48 11 74 24 	vmovups %zmm22,0x800(%rsp)
  409e50:	20 
  409e51:	62 61 45 40 ef 96 40 	vpxord 0x10f40(%rsi),%zmm23,%zmm26
  409e58:	0f 01 00 
  409e5b:	62 31 65 48 ef f4    	vpxord %zmm20,%zmm3,%zmm14
  409e61:	62 71 1d 48 ef ae c0 	vpxord 0x102c0(%rsi),%zmm12,%zmm13
  409e68:	02 01 00 
  409e6b:	62 e1 7c 48 10 7c 24 	vmovups 0x1980(%rsp),%zmm23
  409e72:	66 
  409e73:	62 71 7c 48 11 6c 24 	vmovups %zmm13,0x3c0(%rsp)
  409e7a:	0f 
  409e7b:	62 71 7c 48 10 ae c0 	vmovups 0x106c0(%rsi),%zmm13
  409e82:	06 01 00 
  409e85:	62 a3 0d 48 25 dd 6c 	vpternlogd $0x6c,%zmm21,%zmm14,%zmm19
  409e8c:	62 33 1d 48 25 f5 56 	vpternlogd $0x56,%zmm21,%zmm12,%zmm14
  409e93:	62 71 7c 48 10 64 24 	vmovups 0x16c0(%rsp),%zmm12
  409e9a:	5b 
  409e9b:	62 21 7d 48 ef e7    	vpxord %zmm23,%zmm0,%zmm28
  409ea1:	62 d1 45 48 ef dc    	vpxord %zmm12,%zmm7,%zmm3
  409ea7:	62 13 3d 40 25 e4 36 	vpternlogd $0x36,%zmm28,%zmm24,%zmm12
  409eae:	62 63 3d 40 25 e3 6a 	vpternlogd $0x6a,%zmm3,%zmm24,%zmm28
  409eb5:	62 61 7c 48 10 44 24 	vmovups 0x1940(%rsp),%zmm24
  409ebc:	65 
  409ebd:	62 53 45 48 25 ec 96 	vpternlogd $0x96,%zmm12,%zmm7,%zmm13
  409ec4:	62 71 7c 48 11 6c 24 	vmovups %zmm13,0x780(%rsp)
  409ecb:	1e 
  409ecc:	62 61 45 40 ef ff    	vpxord %zmm7,%zmm23,%zmm31
  409ed2:	62 d3 05 40 25 dc 6c 	vpternlogd $0x6c,%zmm12,%zmm31,%zmm3
  409ed9:	62 43 1d 40 25 fc 56 	vpternlogd $0x56,%zmm12,%zmm28,%zmm31
  409ee0:	62 71 7c 48 10 64 24 	vmovups 0x1740(%rsp),%zmm12
  409ee7:	5d 
  409ee8:	62 f1 7c 48 10 7c 24 	vmovups 0x17c0(%rsp),%zmm7
  409eef:	5f 
  409ef0:	62 71 0d 48 ef be c0 	vpxord 0x10bc0(%rsi),%zmm14,%zmm15
  409ef7:	0b 01 00 
  409efa:	62 71 7c 48 11 7c 24 	vmovups %zmm15,0x680(%rsp)
  409f01:	1a 
  409f02:	62 71 7c 48 10 74 24 	vmovups 0x19c0(%rsp),%zmm14
  409f09:	67 
  409f0a:	62 71 65 48 ef be c0 	vpxord 0x10fc0(%rsi),%zmm3,%zmm15
  409f11:	0f 01 00 
  409f14:	62 f1 7c 48 10 5c 24 	vmovups 0x1680(%rsp),%zmm3
  409f1b:	5a 
  409f1c:	62 e1 65 48 ef 7c 24 	vpxord 0x440(%rsp),%zmm3,%zmm23
  409f23:	11 
  409f24:	62 61 1d 40 ef b6 00 	vpxord 0x10300(%rsi),%zmm28,%zmm30
  409f2b:	03 01 00 
  409f2e:	62 a1 7c 48 28 e7    	vmovaps %zmm23,%zmm20
  409f34:	62 61 7c 48 11 74 24 	vmovups %zmm30,0x400(%rsp)
  409f3b:	10 
  409f3c:	62 61 65 40 ef 9e 80 	vpxord 0x10f80(%rsi),%zmm19,%zmm27
  409f43:	0f 01 00 
  409f46:	62 51 7d 48 ef ee    	vpxord %zmm14,%zmm0,%zmm13
  409f4c:	62 e1 75 40 ef 8e 00 	vpxord 0x10d00(%rsi),%zmm17,%zmm17
  409f53:	0d 01 00 
  409f56:	62 f1 55 48 ef ae 40 	vpxord 0x10d40(%rsi),%zmm5,%zmm5
  409f5d:	0d 01 00 
  409f60:	62 f1 4d 48 ef b6 80 	vpxord 0x10980(%rsi),%zmm6,%zmm6
  409f67:	09 01 00 
  409f6a:	62 e1 05 40 ef 96 00 	vpxord 0x10800(%rsi),%zmm31,%zmm18
  409f71:	08 01 00 
  409f74:	62 e1 0d 48 ef eb    	vpxord %zmm3,%zmm14,%zmm21
  409f7a:	62 c3 3d 40 25 e5 78 	vpternlogd $0x78,%zmm13,%zmm24,%zmm20
  409f81:	62 e1 7c 48 10 5c 24 	vmovups 0x1800(%rsp),%zmm19
  409f88:	60 
  409f89:	62 71 7c 48 10 74 24 	vmovups 0x18c0(%rsp),%zmm14
  409f90:	63 
  409f91:	62 63 15 48 25 44 24 	vpternlogd $0x1e,0x440(%rsp),%zmm13,%zmm24
  409f98:	11 1e 
  409f9a:	62 71 7c 48 10 6c 24 	vmovups 0x480(%rsp),%zmm13
  409fa1:	12 
  409fa2:	62 71 7c 48 11 7c 24 	vmovups %zmm15,0x1480(%rsp)
  409fa9:	52 
  409faa:	62 61 7c 48 10 24 24 	vmovups (%rsp),%zmm28
  409fb1:	62 83 55 40 25 f8 6c 	vpternlogd $0x6c,%zmm24,%zmm21,%zmm23
  409fb8:	62 83 5d 40 25 e8 56 	vpternlogd $0x56,%zmm24,%zmm20,%zmm21
  409fbf:	62 e1 5d 40 ef b6 40 	vpxord 0x10340(%rsi),%zmm20,%zmm22
  409fc6:	03 01 00 
  409fc9:	62 e1 7c 48 10 a6 00 	vmovups 0x10700(%rsi),%zmm20
  409fd0:	07 01 00 
  409fd3:	62 83 65 48 25 e0 96 	vpternlogd $0x96,%zmm24,%zmm3,%zmm20
  409fda:	62 f1 7c 48 10 5c 24 	vmovups 0x100(%rsp),%zmm3
  409fe1:	04 
  409fe2:	62 71 45 40 ef be 00 	vpxord 0x10c00(%rsi),%zmm23,%zmm15
  409fe9:	0c 01 00 
  409fec:	62 c1 7d 48 ef fd    	vpxord %zmm13,%zmm0,%zmm23
  409ff2:	62 61 55 40 ef be 40 	vpxord 0x10840(%rsi),%zmm21,%zmm31
  409ff9:	08 01 00 
  409ffc:	62 a1 1d 48 ef eb    	vpxord %zmm19,%zmm12,%zmm21
  40a002:	62 a3 65 48 25 df 36 	vpternlogd $0x36,%zmm23,%zmm3,%zmm19
  40a009:	62 a3 65 48 25 fd 6a 	vpternlogd $0x6a,%zmm21,%zmm3,%zmm23
  40a010:	62 41 15 48 ef c4    	vpxord %zmm12,%zmm13,%zmm24
  40a016:	62 a3 3d 40 25 eb 6c 	vpternlogd $0x6c,%zmm19,%zmm24,%zmm21
  40a01d:	62 23 45 40 25 c3 56 	vpternlogd $0x56,%zmm19,%zmm23,%zmm24
  40a024:	62 71 55 40 ef ae 40 	vpxord 0x10c40(%rsi),%zmm21,%zmm13
  40a02b:	0c 01 00 
  40a02e:	62 e1 7c 48 10 ae 40 	vmovups 0x10740(%rsi),%zmm21
  40a035:	07 01 00 
  40a038:	62 a3 1d 48 25 eb 96 	vpternlogd $0x96,%zmm19,%zmm12,%zmm21
  40a03f:	62 e1 7c 48 10 5c 24 	vmovups 0x80(%rsp),%zmm19
  40a046:	02 
  40a047:	62 01 7d 48 ef f4    	vpxord %zmm28,%zmm0,%zmm30
  40a04d:	62 51 45 48 ef e6    	vpxord %zmm14,%zmm7,%zmm12
  40a053:	62 13 65 40 25 f6 36 	vpternlogd $0x36,%zmm30,%zmm19,%zmm14
  40a05a:	62 43 65 40 25 f4 6a 	vpternlogd $0x6a,%zmm12,%zmm19,%zmm30
  40a061:	62 f1 3d 40 ef 9e 80 	vpxord 0x10880(%rsi),%zmm24,%zmm3
  40a068:	08 01 00 
  40a06b:	62 61 1d 40 ef c7    	vpxord %zmm7,%zmm28,%zmm24
  40a071:	62 53 3d 40 25 e6 6c 	vpternlogd $0x6c,%zmm14,%zmm24,%zmm12
  40a078:	62 43 0d 40 25 c6 56 	vpternlogd $0x56,%zmm14,%zmm30,%zmm24
  40a07f:	62 e1 1d 48 ef 9e 80 	vpxord 0x10c80(%rsi),%zmm12,%zmm19
  40a086:	0c 01 00 
  40a089:	62 71 7c 48 10 a6 80 	vmovups 0x10780(%rsi),%zmm12
  40a090:	07 01 00 
  40a093:	62 53 45 48 25 e6 96 	vpternlogd $0x96,%zmm14,%zmm7,%zmm12
  40a09a:	62 f1 7c 48 10 7c 24 	vmovups 0x4c0(%rsp),%zmm7
  40a0a1:	13 
  40a0a2:	62 61 0d 40 ef a6 c0 	vpxord 0x103c0(%rsi),%zmm30,%zmm28
  40a0a9:	03 01 00 
  40a0ac:	62 61 3d 40 ef b6 c0 	vpxord 0x108c0(%rsi),%zmm24,%zmm30
  40a0b3:	08 01 00 
  40a0b6:	62 61 7c 48 10 44 24 	vmovups 0xc0(%rsp),%zmm24
  40a0bd:	03 
  40a0be:	62 61 7c 48 11 64 24 	vmovups %zmm28,0x14c0(%rsp)
  40a0c5:	53 
  40a0c6:	62 71 7d 48 ef f7    	vpxord %zmm7,%zmm0,%zmm14
  40a0cc:	62 21 45 48 ef e2    	vpxord %zmm18,%zmm7,%zmm28
  40a0d2:	62 d1 6d 40 ef ff    	vpxord %zmm15,%zmm18,%zmm7
  40a0d8:	62 53 3d 40 25 fe 36 	vpternlogd $0x36,%zmm14,%zmm24,%zmm15
  40a0df:	62 73 3d 40 25 f7 6a 	vpternlogd $0x6a,%zmm7,%zmm24,%zmm14
  40a0e6:	62 d3 1d 40 25 ff 6c 	vpternlogd $0x6c,%zmm15,%zmm28,%zmm7
  40a0ed:	62 43 0d 48 25 e7 56 	vpternlogd $0x56,%zmm15,%zmm14,%zmm28
  40a0f4:	62 61 1d 40 ef a6 00 	vpxord 0x11900(%rsi),%zmm28,%zmm28
  40a0fb:	19 01 00 
  40a0fe:	62 61 7c 48 11 64 24 	vmovups %zmm28,0x1500(%rsp)
  40a105:	54 
  40a106:	62 61 45 48 ef a6 c0 	vpxord 0x11cc0(%rsi),%zmm7,%zmm28
  40a10d:	1c 01 00 
  40a110:	62 f1 7c 48 10 be c0 	vmovups 0x117c0(%rsi),%zmm7
  40a117:	17 01 00 
  40a11a:	62 d3 6d 40 25 ff 96 	vpternlogd $0x96,%zmm15,%zmm18,%zmm7
  40a121:	62 e1 7c 48 10 54 24 	vmovups 0x500(%rsp),%zmm18
  40a128:	14 
  40a129:	62 f1 7c 48 11 7c 24 	vmovups %zmm7,0xa00(%rsp)
  40a130:	28 
  40a131:	62 21 7d 48 ef c2    	vpxord %zmm18,%zmm0,%zmm24
  40a137:	62 91 6d 40 ef ff    	vpxord %zmm31,%zmm18,%zmm7
  40a13d:	62 e1 7c 48 10 54 24 	vmovups 0x140(%rsp),%zmm18
  40a144:	05 
  40a145:	62 51 05 40 ef fd    	vpxord %zmm13,%zmm31,%zmm15
  40a14b:	62 13 6d 40 25 e8 36 	vpternlogd $0x36,%zmm24,%zmm18,%zmm13
  40a152:	62 43 6d 40 25 c7 6a 	vpternlogd $0x6a,%zmm15,%zmm18,%zmm24
  40a159:	62 53 45 48 25 fd 6c 	vpternlogd $0x6c,%zmm13,%zmm7,%zmm15
  40a160:	62 d3 3d 40 25 fd 56 	vpternlogd $0x56,%zmm13,%zmm24,%zmm7
  40a167:	62 f1 45 48 ef be 40 	vpxord 0x11940(%rsi),%zmm7,%zmm7
  40a16e:	19 01 00 
  40a171:	62 f1 7c 48 11 7c 24 	vmovups %zmm7,0x1540(%rsp)
  40a178:	55 
  40a179:	62 f1 7c 48 10 be 00 	vmovups 0x11400(%rsi),%zmm7
  40a180:	14 01 00 
  40a183:	62 d3 05 40 25 fd 96 	vpternlogd $0x96,%zmm13,%zmm31,%zmm7
  40a18a:	62 61 7c 48 10 7c 24 	vmovups 0x540(%rsp),%zmm31
  40a191:	15 
  40a192:	62 71 05 48 ef be 00 	vpxord 0x11d00(%rsi),%zmm15,%zmm15
  40a199:	1d 01 00 
  40a19c:	62 71 7c 48 11 7c 24 	vmovups %zmm15,0x1580(%rsp)
  40a1a3:	56 
  40a1a4:	62 11 7d 48 ef ff    	vpxord %zmm31,%zmm0,%zmm15
  40a1aa:	62 71 05 40 ef eb    	vpxord %zmm3,%zmm31,%zmm13
  40a1b0:	62 61 7c 48 10 7c 24 	vmovups 0x180(%rsp),%zmm31
  40a1b7:	06 
  40a1b8:	62 a1 65 48 ef d3    	vpxord %zmm19,%zmm3,%zmm18
  40a1be:	62 c3 05 40 25 df 36 	vpternlogd $0x36,%zmm15,%zmm31,%zmm19
  40a1c5:	62 33 05 40 25 fa 6a 	vpternlogd $0x6a,%zmm18,%zmm31,%zmm15
  40a1cc:	62 a3 15 48 25 d3 6c 	vpternlogd $0x6c,%zmm19,%zmm13,%zmm18
  40a1d3:	62 33 05 48 25 eb 56 	vpternlogd $0x56,%zmm19,%zmm15,%zmm13
  40a1da:	62 71 15 48 ef ae 80 	vpxord 0x11980(%rsi),%zmm13,%zmm13
  40a1e1:	19 01 00 
  40a1e4:	62 71 7c 48 11 6c 24 	vmovups %zmm13,0x15c0(%rsp)
  40a1eb:	57 
  40a1ec:	62 71 7c 48 10 ae 40 	vmovups 0x11440(%rsi),%zmm13
  40a1f3:	14 01 00 
  40a1f6:	62 33 65 48 25 eb 96 	vpternlogd $0x96,%zmm19,%zmm3,%zmm13
  40a1fd:	62 e1 7c 48 10 5c 24 	vmovups 0x580(%rsp),%zmm19
  40a204:	16 
  40a205:	62 e1 6d 40 ef 96 40 	vpxord 0x11d40(%rsi),%zmm18,%zmm18
  40a20c:	1d 01 00 
  40a20f:	62 e1 7c 48 11 54 24 	vmovups %zmm18,0x1600(%rsp)
  40a216:	58 
  40a217:	62 b1 7d 48 ef db    	vpxord %zmm19,%zmm0,%zmm3
  40a21d:	62 81 65 40 ef d6    	vpxord %zmm30,%zmm19,%zmm18
  40a223:	62 e1 7c 48 10 5c 24 	vmovups 0x1c0(%rsp),%zmm19
  40a22a:	07 
  40a22b:	62 41 0d 40 ef fa    	vpxord %zmm10,%zmm30,%zmm31
  40a231:	62 73 65 40 25 d3 36 	vpternlogd $0x36,%zmm3,%zmm19,%zmm10
  40a238:	62 93 65 40 25 df 6a 	vpternlogd $0x6a,%zmm31,%zmm19,%zmm3
  40a23f:	62 43 6d 40 25 fa 6c 	vpternlogd $0x6c,%zmm10,%zmm18,%zmm31
  40a246:	62 c3 65 48 25 d2 56 	vpternlogd $0x56,%zmm10,%zmm3,%zmm18
  40a24d:	62 e1 65 48 ef 9e c0 	vpxord 0x110c0(%rsi),%zmm3,%zmm19
  40a254:	10 01 00 
  40a257:	62 f1 6d 40 ef 9e c0 	vpxord 0x119c0(%rsi),%zmm18,%zmm3
  40a25e:	19 01 00 
  40a261:	62 e1 7c 48 10 96 80 	vmovups 0x11480(%rsi),%zmm18
  40a268:	14 01 00 
  40a26b:	62 f1 7c 48 11 5c 24 	vmovups %zmm3,0x1640(%rsp)
  40a272:	59 
  40a273:	62 c3 0d 40 25 d2 96 	vpternlogd $0x96,%zmm10,%zmm30,%zmm18
  40a27a:	62 71 7c 48 10 54 24 	vmovups 0x5c0(%rsp),%zmm10
  40a281:	17 
  40a282:	62 f1 05 40 ef 9e 80 	vpxord 0x11d80(%rsi),%zmm31,%zmm3
  40a289:	1d 01 00 
  40a28c:	62 61 7c 48 10 7c 24 	vmovups 0x200(%rsp),%zmm31
  40a293:	08 
  40a294:	62 f1 7c 48 11 5c 24 	vmovups %zmm3,0x1680(%rsp)
  40a29b:	5a 
  40a29c:	62 d1 7d 48 ef da    	vpxord %zmm10,%zmm0,%zmm3
  40a2a2:	62 21 3d 48 ef f1    	vpxord %zmm17,%zmm8,%zmm30
  40a2a8:	62 e3 05 40 25 cb 36 	vpternlogd $0x36,%zmm3,%zmm31,%zmm17
  40a2af:	62 93 05 40 25 de 6a 	vpternlogd $0x6a,%zmm30,%zmm31,%zmm3
  40a2b6:	62 61 7c 48 10 7c 24 	vmovups 0x240(%rsp),%zmm31
  40a2bd:	09 
  40a2be:	62 51 2d 48 ef d0    	vpxord %zmm8,%zmm10,%zmm10
  40a2c4:	62 23 2d 48 25 f1 6c 	vpternlogd $0x6c,%zmm17,%zmm10,%zmm30
  40a2cb:	62 33 65 48 25 d1 56 	vpternlogd $0x56,%zmm17,%zmm3,%zmm10
  40a2d2:	62 71 2d 48 ef 96 00 	vpxord 0x11a00(%rsi),%zmm10,%zmm10
  40a2d9:	1a 01 00 
  40a2dc:	62 71 7c 48 11 54 24 	vmovups %zmm10,0x1400(%rsp)
  40a2e3:	50 
  40a2e4:	62 71 7c 48 10 96 c0 	vmovups 0x114c0(%rsi),%zmm10
  40a2eb:	14 01 00 
  40a2ee:	62 33 3d 48 25 d1 96 	vpternlogd $0x96,%zmm17,%zmm8,%zmm10
  40a2f5:	62 e1 7c 48 10 4c 24 	vmovups 0x880(%rsp),%zmm17
  40a2fc:	22 
  40a2fd:	62 61 0d 40 ef b6 c0 	vpxord 0x11dc0(%rsi),%zmm30,%zmm30
  40a304:	1d 01 00 
  40a307:	62 61 7c 48 11 74 24 	vmovups %zmm30,0x16c0(%rsp)
  40a30e:	5b 
  40a30f:	62 31 7d 48 ef c1    	vpxord %zmm17,%zmm0,%zmm8
  40a315:	62 61 25 48 ef f5    	vpxord %zmm5,%zmm11,%zmm30
  40a31b:	62 d3 05 40 25 e8 36 	vpternlogd $0x36,%zmm8,%zmm31,%zmm5
  40a322:	62 13 05 40 25 c6 6a 	vpternlogd $0x6a,%zmm30,%zmm31,%zmm8
  40a329:	62 61 7c 48 10 7c 24 	vmovups 0x280(%rsp),%zmm31
  40a330:	0a 
  40a331:	62 c1 75 40 ef cb    	vpxord %zmm11,%zmm17,%zmm17
  40a337:	62 63 75 40 25 f5 6c 	vpternlogd $0x6c,%zmm5,%zmm17,%zmm30
  40a33e:	62 e3 3d 48 25 cd 56 	vpternlogd $0x56,%zmm5,%zmm8,%zmm17
  40a345:	62 e1 75 40 ef 8e 40 	vpxord 0x11a40(%rsi),%zmm17,%zmm17
  40a34c:	1a 01 00 
  40a34f:	62 e1 7c 48 11 4c 24 	vmovups %zmm17,0x1440(%rsp)
  40a356:	51 
  40a357:	62 e1 7c 48 10 8e 00 	vmovups 0x11500(%rsi),%zmm17
  40a35e:	15 01 00 
  40a361:	62 e3 25 48 25 cd 96 	vpternlogd $0x96,%zmm5,%zmm11,%zmm17
  40a368:	62 f1 7c 48 10 6c 24 	vmovups 0x8c0(%rsp),%zmm5
  40a36f:	23 
  40a370:	62 61 0d 40 ef b6 00 	vpxord 0x11e00(%rsi),%zmm30,%zmm30
  40a377:	1e 01 00 
  40a37a:	62 61 7c 48 11 74 24 	vmovups %zmm30,0x1700(%rsp)
  40a381:	5c 
  40a382:	62 61 7d 48 ef f5    	vpxord %zmm5,%zmm0,%zmm30
  40a388:	62 31 4d 48 ef d8    	vpxord %zmm16,%zmm6,%zmm11
  40a38e:	62 83 05 40 25 c6 36 	vpternlogd $0x36,%zmm30,%zmm31,%zmm16
  40a395:	62 43 05 40 25 f3 6a 	vpternlogd $0x6a,%zmm11,%zmm31,%zmm30
  40a39c:	62 61 7c 48 10 7c 24 	vmovups 0x2c0(%rsp),%zmm31
  40a3a3:	0b 
  40a3a4:	62 f1 55 48 ef ee    	vpxord %zmm6,%zmm5,%zmm5
  40a3aa:	62 33 55 48 25 d8 6c 	vpternlogd $0x6c,%zmm16,%zmm5,%zmm11
  40a3b1:	62 b3 0d 40 25 e8 56 	vpternlogd $0x56,%zmm16,%zmm30,%zmm5
  40a3b8:	62 f1 55 48 ef ae 80 	vpxord 0x11a80(%rsi),%zmm5,%zmm5
  40a3bf:	1a 01 00 
  40a3c2:	62 f1 7c 48 11 6c 24 	vmovups %zmm5,0x1780(%rsp)
  40a3c9:	5e 
  40a3ca:	62 f1 7c 48 10 ae 40 	vmovups 0x11540(%rsi),%zmm5
  40a3d1:	15 01 00 
  40a3d4:	62 b3 4d 48 25 e8 96 	vpternlogd $0x96,%zmm16,%zmm6,%zmm5
  40a3db:	62 f1 7c 48 10 74 24 	vmovups 0x940(%rsp),%zmm6
  40a3e2:	25 
  40a3e3:	62 61 0d 40 ef b6 80 	vpxord 0x11180(%rsi),%zmm30,%zmm30
  40a3ea:	11 01 00 
  40a3ed:	62 61 7c 48 11 74 24 	vmovups %zmm30,0x1740(%rsp)
  40a3f4:	5d 
  40a3f5:	62 61 7c 48 10 74 24 	vmovups 0x9c0(%rsp),%zmm30
  40a3fc:	27 
  40a3fd:	62 71 25 48 ef 9e 40 	vpxord 0x11e40(%rsi),%zmm11,%zmm11
  40a404:	1e 01 00 
  40a407:	62 71 7c 48 11 5c 24 	vmovups %zmm11,0x17c0(%rsp)
  40a40e:	5f 
  40a40f:	62 e1 7d 48 ef c6    	vpxord %zmm6,%zmm0,%zmm16
  40a415:	62 51 0d 40 ef d9    	vpxord %zmm9,%zmm30,%zmm11
  40a41b:	62 33 05 40 25 c8 36 	vpternlogd $0x36,%zmm16,%zmm31,%zmm9
  40a422:	62 c3 05 40 25 c3 6a 	vpternlogd $0x6a,%zmm11,%zmm31,%zmm16
  40a429:	62 91 4d 48 ef f6    	vpxord %zmm30,%zmm6,%zmm6
  40a42f:	62 53 4d 48 25 d9 6c 	vpternlogd $0x6c,%zmm9,%zmm6,%zmm11
  40a436:	62 d3 7d 40 25 f1 56 	vpternlogd $0x56,%zmm9,%zmm16,%zmm6
  40a43d:	62 f1 4d 48 ef b6 c0 	vpxord 0x11ac0(%rsi),%zmm6,%zmm6
  40a444:	1a 01 00 
  40a447:	62 f1 7c 48 11 74 24 	vmovups %zmm6,0x1840(%rsp)
  40a44e:	61 
  40a44f:	62 f1 7c 48 10 b6 80 	vmovups 0x11580(%rsi),%zmm6
  40a456:	15 01 00 
  40a459:	62 d3 0d 40 25 f1 96 	vpternlogd $0x96,%zmm9,%zmm30,%zmm6
  40a460:	62 61 7c 48 10 74 24 	vmovups 0x300(%rsp),%zmm30
  40a467:	0c 
  40a468:	62 e1 7d 40 ef 86 c0 	vpxord 0x111c0(%rsi),%zmm16,%zmm16
  40a46f:	11 01 00 
  40a472:	62 71 25 48 ef 9e 80 	vpxord 0x11e80(%rsi),%zmm11,%zmm11
  40a479:	1e 01 00 
  40a47c:	62 e1 7c 48 11 44 24 	vmovups %zmm16,0x1800(%rsp)
  40a483:	60 
  40a484:	62 71 7c 48 11 5c 24 	vmovups %zmm11,0x1880(%rsp)
  40a48b:	62 
  40a48c:	62 e1 7c 48 10 44 24 	vmovups 0x900(%rsp),%zmm16
  40a493:	24 
  40a494:	62 71 7c 48 10 5c 24 	vmovups 0x6c0(%rsp),%zmm11
  40a49b:	1b 
  40a49c:	62 31 7d 48 ef c8    	vpxord %zmm16,%zmm0,%zmm9
  40a4a2:	62 61 25 48 ef fc    	vpxord %zmm4,%zmm11,%zmm31
  40a4a8:	62 d3 0d 40 25 e1 36 	vpternlogd $0x36,%zmm9,%zmm30,%zmm4
  40a4af:	62 13 0d 40 25 cf 6a 	vpternlogd $0x6a,%zmm31,%zmm30,%zmm9
  40a4b6:	62 61 7c 48 10 74 24 	vmovups 0x980(%rsp),%zmm30
  40a4bd:	26 
  40a4be:	62 c1 7d 40 ef c3    	vpxord %zmm11,%zmm16,%zmm16
  40a4c4:	62 63 7d 40 25 fc 6c 	vpternlogd $0x6c,%zmm4,%zmm16,%zmm31
  40a4cb:	62 e3 35 48 25 c4 56 	vpternlogd $0x56,%zmm4,%zmm9,%zmm16
  40a4d2:	62 71 35 48 ef 8e 00 	vpxord 0x11200(%rsi),%zmm9,%zmm9
  40a4d9:	12 01 00 
  40a4dc:	62 71 7c 48 11 4c 24 	vmovups %zmm9,0xb00(%rsp)
  40a4e3:	2c 
  40a4e4:	62 71 7d 40 ef 8e 00 	vpxord 0x11b00(%rsi),%zmm16,%zmm9
  40a4eb:	1b 01 00 
  40a4ee:	62 e1 05 40 ef 86 c0 	vpxord 0x11ec0(%rsi),%zmm31,%zmm16
  40a4f5:	1e 01 00 
  40a4f8:	62 e1 7c 48 11 44 24 	vmovups %zmm16,0x1900(%rsp)
  40a4ff:	64 
  40a500:	62 e1 7c 48 10 86 c0 	vmovups 0x115c0(%rsi),%zmm16
  40a507:	15 01 00 
  40a50a:	62 61 7c 48 10 7c 24 	vmovups 0x340(%rsp),%zmm31
  40a511:	0d 
  40a512:	62 71 7c 48 11 4c 24 	vmovups %zmm9,0x18c0(%rsp)
  40a519:	63 
  40a51a:	62 e3 25 48 25 c4 96 	vpternlogd $0x96,%zmm4,%zmm11,%zmm16
  40a521:	62 71 7c 48 10 5c 24 	vmovups 0x840(%rsp),%zmm11
  40a528:	21 
  40a529:	62 91 7d 48 ef e6    	vpxord %zmm30,%zmm0,%zmm4
  40a52f:	62 51 0d 40 ef cb    	vpxord %zmm11,%zmm30,%zmm9
  40a535:	62 61 25 48 ef f2    	vpxord %zmm2,%zmm11,%zmm30
  40a53b:	62 f3 05 40 25 d4 36 	vpternlogd $0x36,%zmm4,%zmm31,%zmm2
  40a542:	62 93 05 40 25 e6 6a 	vpternlogd $0x6a,%zmm30,%zmm31,%zmm4
  40a549:	62 61 7c 48 10 7c 24 	vmovups 0x800(%rsp),%zmm31
  40a550:	20 
  40a551:	62 63 35 48 25 f2 6c 	vpternlogd $0x6c,%zmm2,%zmm9,%zmm30
  40a558:	62 73 5d 48 25 ca 56 	vpternlogd $0x56,%zmm2,%zmm4,%zmm9
  40a55f:	62 f1 5d 48 ef a6 40 	vpxord 0x11240(%rsi),%zmm4,%zmm4
  40a566:	12 01 00 
  40a569:	62 f1 7c 48 11 64 24 	vmovups %zmm4,0xb40(%rsp)
  40a570:	2d 
  40a571:	62 f1 0d 40 ef a6 00 	vpxord 0x11f00(%rsi),%zmm30,%zmm4
  40a578:	1f 01 00 
  40a57b:	62 61 7c 48 10 b6 00 	vmovups 0x11600(%rsi),%zmm30
  40a582:	16 01 00 
  40a585:	62 f1 7c 48 11 64 24 	vmovups %zmm4,0x1940(%rsp)
  40a58c:	65 
  40a58d:	62 63 25 48 25 f2 96 	vpternlogd $0x96,%zmm2,%zmm11,%zmm30
  40a594:	62 71 7c 48 10 5c 24 	vmovups 0x7c0(%rsp),%zmm11
  40a59b:	1f 
  40a59c:	62 61 7c 48 11 74 24 	vmovups %zmm30,0x12c0(%rsp)
  40a5a3:	4b 
  40a5a4:	62 61 7c 48 10 74 24 	vmovups 0x380(%rsp),%zmm30
  40a5ab:	0e 
  40a5ac:	62 91 7d 48 ef d7    	vpxord %zmm31,%zmm0,%zmm2
  40a5b2:	62 d1 05 40 ef e3    	vpxord %zmm11,%zmm31,%zmm4
  40a5b8:	62 61 25 48 ef f9    	vpxord %zmm1,%zmm11,%zmm31
  40a5be:	62 f3 0d 40 25 ca 36 	vpternlogd $0x36,%zmm2,%zmm30,%zmm1
  40a5c5:	62 93 0d 40 25 d7 6a 	vpternlogd $0x6a,%zmm31,%zmm30,%zmm2
  40a5cc:	62 61 7c 48 10 b6 40 	vmovups 0x11640(%rsi),%zmm30
  40a5d3:	16 01 00 
  40a5d6:	62 63 5d 48 25 f9 6c 	vpternlogd $0x6c,%zmm1,%zmm4,%zmm31
  40a5dd:	62 f3 6d 48 25 e1 56 	vpternlogd $0x56,%zmm1,%zmm2,%zmm4
  40a5e4:	62 63 25 48 25 f1 96 	vpternlogd $0x96,%zmm1,%zmm11,%zmm30
  40a5eb:	62 f1 7c 48 10 4c 24 	vmovups 0x780(%rsp),%zmm1
  40a5f2:	1e 
  40a5f3:	62 61 7c 48 11 74 24 	vmovups %zmm30,0x1280(%rsp)
  40a5fa:	4a 
  40a5fb:	62 61 7c 48 10 74 24 	vmovups 0x740(%rsp),%zmm30
  40a602:	1d 
  40a603:	62 f1 6d 48 ef 96 80 	vpxord 0x11280(%rsi),%zmm2,%zmm2
  40a60a:	12 01 00 
  40a60d:	62 f1 7c 48 11 54 24 	vmovups %zmm2,0xcc0(%rsp)
  40a614:	33 
  40a615:	62 f1 05 40 ef 96 40 	vpxord 0x11f40(%rsi),%zmm31,%zmm2
  40a61c:	1f 01 00 
  40a61f:	62 61 7c 48 10 7c 24 	vmovups 0x3c0(%rsp),%zmm31
  40a626:	0f 
  40a627:	62 f1 7c 48 11 54 24 	vmovups %zmm2,0x1980(%rsp)
  40a62e:	66 
  40a62f:	62 71 7d 48 ef d9    	vpxord %zmm1,%zmm0,%zmm11
  40a635:	62 91 75 48 ef d6    	vpxord %zmm30,%zmm1,%zmm2
  40a63b:	62 91 0d 40 ef cd    	vpxord %zmm29,%zmm30,%zmm1
  40a641:	62 43 05 40 25 eb 36 	vpternlogd $0x36,%zmm11,%zmm31,%zmm29
  40a648:	62 73 05 40 25 d9 6a 	vpternlogd $0x6a,%zmm1,%zmm31,%zmm11
  40a64f:	62 93 6d 48 25 cd 6c 	vpternlogd $0x6c,%zmm29,%zmm2,%zmm1
  40a656:	62 93 25 48 25 d5 56 	vpternlogd $0x56,%zmm29,%zmm11,%zmm2
  40a65d:	62 f1 6d 48 ef 96 c0 	vpxord 0x11bc0(%rsi),%zmm2,%zmm2
  40a664:	1b 01 00 
  40a667:	62 f1 7c 48 11 54 24 	vmovups %zmm2,0x1380(%rsp)
  40a66e:	4e 
  40a66f:	62 f1 75 48 ef 96 80 	vpxord 0x11f80(%rsi),%zmm1,%zmm2
  40a676:	1f 01 00 
  40a679:	62 f1 7c 48 10 8e 80 	vmovups 0x11680(%rsi),%zmm1
  40a680:	16 01 00 
  40a683:	62 93 0d 40 25 cd 96 	vpternlogd $0x96,%zmm29,%zmm30,%zmm1
  40a68a:	62 61 7c 48 10 6c 24 	vmovups 0x400(%rsp),%zmm29
  40a691:	10 
  40a692:	62 f1 7c 48 11 4c 24 	vmovups %zmm1,0x1240(%rsp)
  40a699:	49 
  40a69a:	62 71 25 48 ef 9e c0 	vpxord 0x112c0(%rsi),%zmm11,%zmm11
  40a6a1:	12 01 00 
  40a6a4:	62 71 7c 48 11 5c 24 	vmovups %zmm11,0xd00(%rsp)
  40a6ab:	34 
  40a6ac:	62 71 7c 48 10 5c 24 	vmovups 0x700(%rsp),%zmm11
  40a6b3:	1c 
  40a6b4:	62 21 7d 48 ef f4    	vpxord %zmm20,%zmm0,%zmm30
  40a6ba:	62 91 25 48 ef c9    	vpxord %zmm25,%zmm11,%zmm1
  40a6c0:	62 03 15 40 25 ce 36 	vpternlogd $0x36,%zmm30,%zmm29,%zmm25
  40a6c7:	62 63 15 40 25 f1 6a 	vpternlogd $0x6a,%zmm1,%zmm29,%zmm30
  40a6ce:	62 41 5d 40 ef fb    	vpxord %zmm11,%zmm20,%zmm31
  40a6d4:	62 93 05 40 25 c9 6c 	vpternlogd $0x6c,%zmm25,%zmm31,%zmm1
  40a6db:	62 03 0d 40 25 f9 56 	vpternlogd $0x56,%zmm25,%zmm30,%zmm31
  40a6e2:	62 e1 0d 40 ef a6 00 	vpxord 0x11300(%rsi),%zmm30,%zmm20
  40a6e9:	13 01 00 
  40a6ec:	62 61 7c 48 10 b6 c0 	vmovups 0x116c0(%rsi),%zmm30
  40a6f3:	16 01 00 
  40a6f6:	62 e1 7c 48 11 64 24 	vmovups %zmm20,0xd40(%rsp)
  40a6fd:	35 
  40a6fe:	62 03 25 48 25 f1 96 	vpternlogd $0x96,%zmm25,%zmm11,%zmm30
  40a705:	62 61 7c 48 11 74 24 	vmovups %zmm30,0x1300(%rsp)
  40a70c:	4c 
  40a70d:	62 61 7c 48 10 74 24 	vmovups 0x640(%rsp),%zmm30
  40a714:	19 
  40a715:	62 61 05 40 ef ae 00 	vpxord 0x11800(%rsi),%zmm31,%zmm29
  40a71c:	18 01 00 
  40a71f:	62 61 7c 48 10 7c 24 	vmovups 0x600(%rsp),%zmm31
  40a726:	18 
  40a727:	62 21 7d 48 ef cd    	vpxord %zmm21,%zmm0,%zmm25
  40a72d:	62 81 55 40 ef e7    	vpxord %zmm31,%zmm21,%zmm20
  40a733:	62 81 05 40 ef ea    	vpxord %zmm26,%zmm31,%zmm21
  40a739:	62 03 4d 40 25 d1 36 	vpternlogd $0x36,%zmm25,%zmm22,%zmm26
  40a740:	62 23 4d 40 25 cd 6a 	vpternlogd $0x6a,%zmm21,%zmm22,%zmm25
  40a747:	62 e1 7c 48 10 b6 00 	vmovups 0x11700(%rsi),%zmm22
  40a74e:	17 01 00 
  40a751:	62 83 5d 40 25 ea 6c 	vpternlogd $0x6c,%zmm26,%zmm20,%zmm21
  40a758:	62 83 35 40 25 e2 56 	vpternlogd $0x56,%zmm26,%zmm25,%zmm20
  40a75f:	62 83 05 40 25 f2 96 	vpternlogd $0x96,%zmm26,%zmm31,%zmm22
  40a766:	62 e1 7c 48 11 74 24 	vmovups %zmm22,0x1340(%rsp)
  40a76d:	4d 
  40a76e:	62 71 35 40 ef 9e 40 	vpxord 0x11340(%rsi),%zmm25,%zmm11
  40a775:	13 01 00 
  40a778:	62 e1 45 40 ef be 80 	vpxord 0x10380(%rsi),%zmm23,%zmm23
  40a77f:	03 01 00 
  40a782:	62 71 7c 48 11 5c 24 	vmovups %zmm11,0xd80(%rsp)
  40a789:	36 
  40a78a:	62 41 7d 48 ef d4    	vpxord %zmm12,%zmm0,%zmm26
  40a790:	62 71 5d 40 ef 9e 40 	vpxord 0x11840(%rsi),%zmm20,%zmm11
  40a797:	18 01 00 
  40a79a:	62 81 0d 40 ef e3    	vpxord %zmm27,%zmm30,%zmm20
  40a7a0:	62 03 45 40 25 da 36 	vpternlogd $0x36,%zmm26,%zmm23,%zmm27
  40a7a7:	62 23 45 40 25 d4 6a 	vpternlogd $0x6a,%zmm20,%zmm23,%zmm26
  40a7ae:	62 61 55 40 ef 8e 00 	vpxord 0x11c00(%rsi),%zmm21,%zmm25
  40a7b5:	1c 01 00 
  40a7b8:	62 e1 7c 48 10 ae 40 	vmovups 0x11740(%rsi),%zmm21
  40a7bf:	17 01 00 
  40a7c2:	62 83 0d 40 25 eb 96 	vpternlogd $0x96,%zmm27,%zmm30,%zmm21
  40a7c9:	62 e1 7c 48 11 6c 24 	vmovups %zmm21,0x11c0(%rsp)
  40a7d0:	47 
  40a7d1:	62 e1 7c 48 10 6c 24 	vmovups 0x1480(%rsp),%zmm21
  40a7d8:	52 
  40a7d9:	62 81 1d 48 ef f6    	vpxord %zmm30,%zmm12,%zmm22
  40a7df:	62 83 4d 40 25 e3 6c 	vpternlogd $0x6c,%zmm27,%zmm22,%zmm20
  40a7e6:	62 83 2d 40 25 f3 56 	vpternlogd $0x56,%zmm27,%zmm26,%zmm22
  40a7ed:	62 61 7c 48 10 5c 24 	vmovups 0x40(%rsp),%zmm27
  40a7f4:	01 
  40a7f5:	62 71 2d 40 ef a6 80 	vpxord 0x11380(%rsi),%zmm26,%zmm12
  40a7fc:	13 01 00 
  40a7ff:	62 61 5d 40 ef 96 40 	vpxord 0x11c40(%rsi),%zmm20,%zmm26
  40a806:	1c 01 00 
  40a809:	62 e1 7c 48 10 64 24 	vmovups 0x680(%rsp),%zmm20
  40a810:	1a 
  40a811:	62 71 7c 48 11 64 24 	vmovups %zmm12,0xdc0(%rsp)
  40a818:	37 
  40a819:	62 e1 4d 40 ef be 80 	vpxord 0x11880(%rsi),%zmm22,%zmm23
  40a820:	18 01 00 
  40a823:	62 81 7d 48 ef f3    	vpxord %zmm27,%zmm0,%zmm22
  40a829:	62 21 25 40 ef fc    	vpxord %zmm20,%zmm27,%zmm31
  40a82f:	62 61 7c 48 10 5c 24 	vmovups 0x14c0(%rsp),%zmm27
  40a836:	53 
  40a837:	62 31 5d 40 ef e5    	vpxord %zmm21,%zmm20,%zmm12
  40a83d:	62 a3 25 40 25 ee 36 	vpternlogd $0x36,%zmm22,%zmm27,%zmm21
  40a844:	62 c3 25 40 25 f4 6a 	vpternlogd $0x6a,%zmm12,%zmm27,%zmm22
  40a84b:	62 33 05 40 25 e5 6c 	vpternlogd $0x6c,%zmm21,%zmm31,%zmm12
  40a852:	62 23 4d 40 25 fd 56 	vpternlogd $0x56,%zmm21,%zmm22,%zmm31
  40a859:	62 61 1d 48 ef 9e 80 	vpxord 0x11c80(%rsi),%zmm12,%zmm27
  40a860:	1c 01 00 
  40a863:	62 71 7c 48 10 a6 80 	vmovups 0x11780(%rsi),%zmm12
  40a86a:	17 01 00 
  40a86d:	62 33 5d 40 25 e5 96 	vpternlogd $0x96,%zmm21,%zmm20,%zmm12
  40a874:	62 71 7c 48 11 64 24 	vmovups %zmm12,0xe80(%rsp)
  40a87b:	3a 
  40a87c:	62 71 0d 48 ef b6 00 	vpxord 0x11000(%rsi),%zmm14,%zmm14
  40a883:	10 01 00 
  40a886:	62 e1 7d 48 ef e7    	vpxord %zmm7,%zmm0,%zmm20
  40a88c:	62 11 15 40 ef e1    	vpxord %zmm25,%zmm29,%zmm12
  40a892:	62 23 0d 48 25 cc 36 	vpternlogd $0x36,%zmm20,%zmm14,%zmm25
  40a899:	62 c3 0d 48 25 e4 6a 	vpternlogd $0x6a,%zmm12,%zmm14,%zmm20
  40a8a0:	62 91 45 48 ef fd    	vpxord %zmm29,%zmm7,%zmm7
  40a8a6:	62 13 45 48 25 e1 6c 	vpternlogd $0x6c,%zmm25,%zmm7,%zmm12
  40a8ad:	62 93 5d 40 25 f9 56 	vpternlogd $0x56,%zmm25,%zmm20,%zmm7
  40a8b4:	62 71 5d 40 ef b6 00 	vpxord 0x12000(%rsi),%zmm20,%zmm14
  40a8bb:	20 01 00 
  40a8be:	62 61 3d 40 ef 86 40 	vpxord 0x11040(%rsi),%zmm24,%zmm24
  40a8c5:	10 01 00 
  40a8c8:	62 71 7c 48 11 74 24 	vmovups %zmm14,0xac0(%rsp)
  40a8cf:	2b 
  40a8d0:	62 e1 7c 48 10 a6 c0 	vmovups 0x127c0(%rsi),%zmm20
  40a8d7:	27 01 00 
  40a8da:	62 83 15 40 25 e1 96 	vpternlogd $0x96,%zmm25,%zmm29,%zmm20
  40a8e1:	62 e1 7c 48 11 64 24 	vmovups %zmm20,0xa40(%rsp)
  40a8e8:	29 
  40a8e9:	62 e1 7c 48 10 64 24 	vmovups 0x1640(%rsp),%zmm20
  40a8f0:	59 
  40a8f1:	62 c1 7d 48 ef ed    	vpxord %zmm13,%zmm0,%zmm21
  40a8f7:	62 71 45 48 ef b6 00 	vpxord 0x12900(%rsi),%zmm7,%zmm14
  40a8fe:	29 01 00 
  40a901:	62 91 25 48 ef fa    	vpxord %zmm26,%zmm11,%zmm7
  40a907:	62 23 3d 40 25 d5 36 	vpternlogd $0x36,%zmm21,%zmm24,%zmm26
  40a90e:	62 e3 3d 40 25 ef 6a 	vpternlogd $0x6a,%zmm7,%zmm24,%zmm21
  40a915:	62 71 7c 48 11 74 24 	vmovups %zmm14,0x13c0(%rsp)
  40a91c:	4f 
  40a91d:	62 61 7c 48 10 86 00 	vmovups 0x12400(%rsi),%zmm24
  40a924:	24 01 00 
  40a927:	62 03 25 48 25 c2 96 	vpternlogd $0x96,%zmm26,%zmm11,%zmm24
  40a92e:	62 61 7c 48 11 44 24 	vmovups %zmm24,0xec0(%rsp)
  40a935:	3b 
  40a936:	62 71 1d 48 ef b6 c0 	vpxord 0x12cc0(%rsi),%zmm12,%zmm14
  40a93d:	2c 01 00 
  40a940:	62 51 15 48 ef e3    	vpxord %zmm11,%zmm13,%zmm12
  40a946:	62 93 1d 48 25 fa 6c 	vpternlogd $0x6c,%zmm26,%zmm12,%zmm7
  40a94d:	62 13 55 40 25 e2 56 	vpternlogd $0x56,%zmm26,%zmm21,%zmm12
  40a954:	62 71 55 40 ef ae 40 	vpxord 0x12040(%rsi),%zmm21,%zmm13
  40a95b:	20 01 00 
  40a95e:	62 71 7c 48 11 6c 24 	vmovups %zmm13,0xe00(%rsp)
  40a965:	38 
  40a966:	62 71 45 48 ef ae 00 	vpxord 0x12d00(%rsi),%zmm7,%zmm13
  40a96d:	2d 01 00 
  40a970:	62 f1 7c 48 10 be 40 	vmovups 0x12440(%rsi),%zmm7
  40a977:	24 01 00 
  40a97a:	62 71 05 48 ef be 80 	vpxord 0x11080(%rsi),%zmm15,%zmm15
  40a981:	10 01 00 
  40a984:	62 31 7d 48 ef da    	vpxord %zmm18,%zmm0,%zmm11
  40a98a:	62 01 45 40 ef eb    	vpxord %zmm27,%zmm23,%zmm29
  40a990:	62 43 05 48 25 db 36 	vpternlogd $0x36,%zmm11,%zmm15,%zmm27
  40a997:	62 13 05 48 25 dd 6a 	vpternlogd $0x6a,%zmm29,%zmm15,%zmm11
  40a99e:	62 93 45 40 25 fb 96 	vpternlogd $0x96,%zmm27,%zmm23,%zmm7
  40a9a5:	62 f1 7c 48 11 7c 24 	vmovups %zmm7,0xf00(%rsp)
  40a9ac:	3c 
  40a9ad:	62 61 4d 40 ef b6 c0 	vpxord 0x113c0(%rsi),%zmm22,%zmm30
  40a9b4:	13 01 00 
  40a9b7:	62 e1 05 40 ef b6 c0 	vpxord 0x118c0(%rsi),%zmm31,%zmm22
  40a9be:	18 01 00 
  40a9c1:	62 a1 6d 40 ef d7    	vpxord %zmm23,%zmm18,%zmm18
  40a9c7:	62 c1 7d 48 ef fa    	vpxord %zmm10,%zmm0,%zmm23
  40a9cd:	62 91 4d 40 ef fc    	vpxord %zmm28,%zmm22,%zmm7
  40a9d3:	62 23 65 40 25 e7 36 	vpternlogd $0x36,%zmm23,%zmm19,%zmm28
  40a9da:	62 e3 65 40 25 ff 6a 	vpternlogd $0x6a,%zmm7,%zmm19,%zmm23
  40a9e1:	62 03 6d 40 25 eb 6c 	vpternlogd $0x6c,%zmm27,%zmm18,%zmm29
  40a9e8:	62 83 25 48 25 d3 56 	vpternlogd $0x56,%zmm27,%zmm11,%zmm18
  40a9ef:	62 61 7c 48 10 9e 80 	vmovups 0x12480(%rsi),%zmm27
  40a9f6:	24 01 00 
  40a9f9:	62 61 7c 48 11 74 24 	vmovups %zmm30,0xa80(%rsp)
  40aa00:	2a 
  40aa01:	62 03 4d 40 25 dc 96 	vpternlogd $0x96,%zmm28,%zmm22,%zmm27
  40aa08:	62 61 7c 48 11 5c 24 	vmovups %zmm27,0xf80(%rsp)
  40aa0f:	3e 
  40aa10:	62 31 2d 48 ef d6    	vpxord %zmm22,%zmm10,%zmm10
  40aa16:	62 93 2d 48 25 fc 6c 	vpternlogd $0x6c,%zmm28,%zmm10,%zmm7
  40aa1d:	62 13 45 40 25 d4 56 	vpternlogd $0x56,%zmm28,%zmm23,%zmm10
  40aa24:	62 71 25 48 ef be 80 	vpxord 0x12080(%rsi),%zmm11,%zmm15
  40aa2b:	20 01 00 
  40aa2e:	62 71 7c 48 11 7c 24 	vmovups %zmm15,0xe40(%rsp)
  40aa35:	39 
  40aa36:	62 71 7c 48 10 7c 24 	vmovups 0x1580(%rsp),%zmm15
  40aa3d:	56 
  40aa3e:	62 61 2d 48 ef 96 c0 	vpxord 0x129c0(%rsi),%zmm10,%zmm26
  40aa45:	29 01 00 
  40aa48:	62 71 7c 48 10 54 24 	vmovups 0x1500(%rsp),%zmm10
  40aa4f:	54 
  40aa50:	62 61 7c 48 11 54 24 	vmovups %zmm26,0x1000(%rsp)
  40aa57:	40 
  40aa58:	62 61 7c 48 10 54 24 	vmovups 0x1940(%rsp),%zmm26
  40aa5f:	65 
  40aa60:	62 f1 65 48 ef 9e 00 	vpxord 0x11100(%rsi),%zmm3,%zmm3
  40aa67:	11 01 00 
  40aa6a:	62 21 7d 48 ef e1    	vpxord %zmm17,%zmm0,%zmm28
  40aa70:	62 41 2d 48 ef df    	vpxord %zmm15,%zmm10,%zmm27
  40aa76:	62 13 65 48 25 fc 36 	vpternlogd $0x36,%zmm28,%zmm3,%zmm15
  40aa7d:	62 03 65 48 25 e3 6a 	vpternlogd $0x6a,%zmm27,%zmm3,%zmm28
  40aa84:	62 c1 75 40 ef ca    	vpxord %zmm10,%zmm17,%zmm17
  40aa8a:	62 f1 1d 40 ef 9e 00 	vpxord 0x12100(%rsi),%zmm28,%zmm3
  40aa91:	21 01 00 
  40aa94:	62 43 75 40 25 df 6c 	vpternlogd $0x6c,%zmm15,%zmm17,%zmm27
  40aa9b:	62 c3 1d 40 25 cf 56 	vpternlogd $0x56,%zmm15,%zmm28,%zmm17
  40aaa2:	62 61 7c 48 10 a6 c0 	vmovups 0x124c0(%rsi),%zmm28
  40aaa9:	24 01 00 
  40aaac:	62 f1 7c 48 11 5c 24 	vmovups %zmm3,0xbc0(%rsp)
  40aab3:	2f 
  40aab4:	62 43 2d 48 25 e7 96 	vpternlogd $0x96,%zmm15,%zmm10,%zmm28
  40aabb:	62 71 7c 48 10 54 24 	vmovups 0x1600(%rsp),%zmm10
  40aac2:	58 
  40aac3:	62 61 7c 48 11 64 24 	vmovups %zmm28,0xfc0(%rsp)
  40aaca:	3f 
  40aacb:	62 f1 75 40 ef 9e 00 	vpxord 0x12a00(%rsi),%zmm17,%zmm3
  40aad2:	2a 01 00 
  40aad5:	62 e1 7c 48 10 4c 24 	vmovups 0x1540(%rsp),%zmm17
  40aadc:	55 
  40aadd:	62 f1 7c 48 11 5c 24 	vmovups %zmm3,0x1080(%rsp)
  40aae4:	42 
  40aae5:	62 71 3d 48 ef 86 40 	vpxord 0x11140(%rsi),%zmm8,%zmm8
  40aaec:	11 01 00 
  40aaef:	62 61 6d 40 ef 8e 80 	vpxord 0x12980(%rsi),%zmm18,%zmm25
  40aaf6:	29 01 00 
  40aaf9:	62 f1 25 40 ef 9e c0 	vpxord 0x12dc0(%rsi),%zmm27,%zmm3
  40ab00:	2d 01 00 
  40ab03:	62 e1 7d 48 ef d5    	vpxord %zmm5,%zmm0,%zmm18
  40ab09:	62 41 75 40 ef da    	vpxord %zmm10,%zmm17,%zmm27
  40ab0f:	62 33 3d 48 25 d2 36 	vpternlogd $0x36,%zmm18,%zmm8,%zmm10
  40ab16:	62 83 3d 48 25 d3 6a 	vpternlogd $0x6a,%zmm27,%zmm8,%zmm18
  40ab1d:	62 61 7c 48 11 4c 24 	vmovups %zmm25,0x1200(%rsp)
  40ab24:	48 
  40ab25:	62 71 6d 40 ef 86 40 	vpxord 0x12140(%rsi),%zmm18,%zmm8
  40ab2c:	21 01 00 
  40ab2f:	62 b1 55 48 ef e9    	vpxord %zmm17,%zmm5,%zmm5
  40ab35:	62 71 7c 48 11 44 24 	vmovups %zmm8,0xc00(%rsp)
  40ab3c:	30 
  40ab3d:	62 71 7c 48 10 86 00 	vmovups 0x12500(%rsi),%zmm8
  40ab44:	25 01 00 
  40ab47:	62 43 55 48 25 da 6c 	vpternlogd $0x6c,%zmm10,%zmm5,%zmm27
  40ab4e:	62 d3 6d 40 25 ea 56 	vpternlogd $0x56,%zmm10,%zmm18,%zmm5
  40ab55:	62 53 75 40 25 c2 96 	vpternlogd $0x96,%zmm10,%zmm17,%zmm8
  40ab5c:	62 e1 7c 48 10 54 24 	vmovups 0x15c0(%rsp),%zmm18
  40ab63:	57 
  40ab64:	62 71 7c 48 10 54 24 	vmovups 0x1680(%rsp),%zmm10
  40ab6b:	5a 
  40ab6c:	62 71 7c 48 11 44 24 	vmovups %zmm8,0x1040(%rsp)
  40ab73:	41 
  40ab74:	62 e1 7c 48 10 8e 40 	vmovups 0x12540(%rsi),%zmm17
  40ab7b:	25 01 00 
  40ab7e:	62 61 55 48 ef a6 40 	vpxord 0x12a40(%rsi),%zmm5,%zmm28
  40ab85:	2a 01 00 
  40ab88:	62 71 7d 48 ef fe    	vpxord %zmm6,%zmm0,%zmm15
  40ab8e:	62 b1 4d 48 ef ea    	vpxord %zmm18,%zmm6,%zmm5
  40ab94:	62 f1 7c 48 10 74 24 	vmovups 0x1740(%rsp),%zmm6
  40ab9b:	5d 
  40ab9c:	62 61 7c 48 11 64 24 	vmovups %zmm28,0x10c0(%rsp)
  40aba3:	43 
  40aba4:	62 51 6d 40 ef c2    	vpxord %zmm10,%zmm18,%zmm8
  40abaa:	62 53 4d 48 25 d7 36 	vpternlogd $0x36,%zmm15,%zmm6,%zmm10
  40abb1:	62 53 4d 48 25 f8 6a 	vpternlogd $0x6a,%zmm8,%zmm6,%zmm15
  40abb8:	62 53 55 48 25 c2 6c 	vpternlogd $0x6c,%zmm10,%zmm5,%zmm8
  40abbf:	62 d3 05 48 25 ea 56 	vpternlogd $0x56,%zmm10,%zmm15,%zmm5
  40abc6:	62 c3 6d 40 25 ca 96 	vpternlogd $0x96,%zmm10,%zmm18,%zmm17
  40abcd:	62 71 7c 48 10 96 80 	vmovups 0x12580(%rsi),%zmm10
  40abd4:	25 01 00 
  40abd7:	62 e1 7c 48 10 54 24 	vmovups 0x1780(%rsp),%zmm18
  40abde:	5e 
  40abdf:	62 e1 7c 48 11 4c 24 	vmovups %zmm17,0x1140(%rsp)
  40abe6:	45 
  40abe7:	62 61 25 40 ef a6 00 	vpxord 0x12e00(%rsi),%zmm27,%zmm28
  40abee:	2e 01 00 
  40abf1:	62 61 05 48 ef 9e 80 	vpxord 0x12180(%rsi),%zmm15,%zmm27
  40abf8:	21 01 00 
  40abfb:	62 e1 45 40 ef 9e c0 	vpxord 0x120c0(%rsi),%zmm23,%zmm19
  40ac02:	20 01 00 
  40ac05:	62 61 7c 48 11 5c 24 	vmovups %zmm27,0xc40(%rsp)
  40ac0c:	31 
  40ac0d:	62 e1 7c 48 11 5c 24 	vmovups %zmm19,0xb80(%rsp)
  40ac14:	2e 
  40ac15:	62 71 7c 48 10 7c 24 	vmovups 0x1700(%rsp),%zmm15
  40ac1c:	5c 
  40ac1d:	62 61 3d 48 ef 9e 40 	vpxord 0x12e40(%rsi),%zmm8,%zmm27
  40ac24:	2e 01 00 
  40ac27:	62 71 7c 48 10 44 24 	vmovups 0x16c0(%rsp),%zmm8
  40ac2e:	5b 
  40ac2f:	62 f1 55 48 ef b6 80 	vpxord 0x12a80(%rsi),%zmm5,%zmm6
  40ac36:	2a 01 00 
  40ac39:	62 a1 7d 48 ef d8    	vpxord %zmm16,%zmm0,%zmm19
  40ac3f:	62 b1 7d 40 ef ec    	vpxord %zmm20,%zmm16,%zmm5
  40ac45:	62 e1 7c 48 10 44 24 	vmovups 0x1800(%rsp),%zmm16
  40ac4c:	60 
  40ac4d:	62 f1 7c 48 11 74 24 	vmovups %zmm6,0x1100(%rsp)
  40ac54:	44 
  40ac55:	62 c1 5d 40 ef c8    	vpxord %zmm8,%zmm20,%zmm17
  40ac5b:	62 33 7d 40 25 c3 36 	vpternlogd $0x36,%zmm19,%zmm16,%zmm8
  40ac62:	62 a3 7d 40 25 d9 6a 	vpternlogd $0x6a,%zmm17,%zmm16,%zmm19
  40ac69:	62 c3 55 48 25 c8 6c 	vpternlogd $0x6c,%zmm8,%zmm5,%zmm17
  40ac70:	62 d3 65 40 25 e8 56 	vpternlogd $0x56,%zmm8,%zmm19,%zmm5
  40ac77:	62 53 5d 40 25 d0 96 	vpternlogd $0x96,%zmm8,%zmm20,%zmm10
  40ac7e:	62 e1 7c 48 10 64 24 	vmovups 0x1880(%rsp),%zmm20
  40ac85:	62 
  40ac86:	62 71 7c 48 10 44 24 	vmovups 0x1900(%rsp),%zmm8
  40ac8d:	64 
  40ac8e:	62 71 7c 48 11 54 24 	vmovups %zmm10,0xf40(%rsp)
  40ac95:	3d 
  40ac96:	62 71 7c 48 10 54 24 	vmovups 0x18c0(%rsp),%zmm10
  40ac9d:	63 
  40ac9e:	62 e1 65 40 ef 86 c0 	vpxord 0x121c0(%rsi),%zmm19,%zmm16
  40aca5:	21 01 00 
  40aca8:	62 f1 55 48 ef b6 c0 	vpxord 0x12ac0(%rsi),%zmm5,%zmm6
  40acaf:	2a 01 00 
  40acb2:	62 e1 7c 48 11 44 24 	vmovups %zmm16,0xc80(%rsp)
  40acb9:	32 
  40acba:	62 f1 7c 48 11 74 24 	vmovups %zmm6,0x1180(%rsp)
  40acc1:	46 
  40acc2:	62 e1 7c 48 10 9e 80 	vmovups 0x12e80(%rsi),%zmm19
  40acc9:	2e 01 00 
  40accc:	62 e1 7c 48 10 44 24 	vmovups 0x17c0(%rsp),%zmm16
  40acd3:	5f 
  40acd4:	62 f1 7c 48 10 74 24 	vmovups 0x1840(%rsp),%zmm6
  40acdb:	61 
  40acdc:	62 f1 7c 48 10 6c 24 	vmovups 0x1980(%rsp),%zmm5
  40ace3:	66 
  40ace4:	62 71 35 48 ef 8e 40 	vpxord 0x11b40(%rsi),%zmm9,%zmm9
  40aceb:	1b 01 00 
  40acee:	62 f1 5d 48 ef a6 80 	vpxord 0x11b80(%rsi),%zmm4,%zmm4
  40acf5:	1b 01 00 
  40acf8:	62 f1 75 48 ef 8e c0 	vpxord 0x11fc0(%rsi),%zmm1,%zmm1
  40acff:	1f 01 00 
  40ad02:	62 71 1d 48 ef a6 40 	vpxord 0x12940(%rsi),%zmm12,%zmm12
  40ad09:	29 01 00 
  40ad0c:	62 71 15 40 ef 9e 40 	vpxord 0x12d40(%rsi),%zmm29,%zmm11
  40ad13:	2d 01 00 
  40ad16:	62 f1 45 48 ef be 80 	vpxord 0x12d80(%rsi),%zmm7,%zmm7
  40ad1d:	2d 01 00 
  40ad20:	62 e1 7c 48 10 7c 24 	vmovups 0x12c0(%rsp),%zmm23
  40ad27:	4b 
  40ad28:	62 e1 7c 48 10 6c 24 	vmovups 0x1400(%rsp),%zmm21
  40ad2f:	50 
  40ad30:	62 e1 7c 48 10 74 24 	vmovups 0xb00(%rsp),%zmm22
  40ad37:	2c 
  40ad38:	62 61 7c 48 10 86 c0 	vmovups 0x125c0(%rsi),%zmm24
  40ad3f:	25 01 00 
  40ad42:	62 21 7d 48 ef cf    	vpxord %zmm23,%zmm0,%zmm25
  40ad48:	62 41 55 40 ef ff    	vpxord %zmm15,%zmm21,%zmm31
  40ad4e:	62 13 4d 40 25 f9 36 	vpternlogd $0x36,%zmm25,%zmm22,%zmm15
  40ad55:	62 03 4d 40 25 cf 6a 	vpternlogd $0x6a,%zmm31,%zmm22,%zmm25
  40ad5c:	62 e1 7c 48 10 74 24 	vmovups 0x1440(%rsp),%zmm22
  40ad63:	51 
  40ad64:	62 43 55 40 25 c7 96 	vpternlogd $0x96,%zmm15,%zmm21,%zmm24
  40ad6b:	62 21 45 40 ef f5    	vpxord %zmm21,%zmm23,%zmm30
  40ad71:	62 43 0d 40 25 ff 6c 	vpternlogd $0x6c,%zmm15,%zmm30,%zmm31
  40ad78:	62 43 35 40 25 f7 56 	vpternlogd $0x56,%zmm15,%zmm25,%zmm30
  40ad7f:	62 71 7c 48 10 7c 24 	vmovups 0x1280(%rsp),%zmm15
  40ad86:	4a 
  40ad87:	62 e1 7c 48 10 6c 24 	vmovups 0xb40(%rsp),%zmm21
  40ad8e:	2d 
  40ad8f:	62 a1 75 40 ef cb    	vpxord %zmm19,%zmm17,%zmm17
  40ad95:	62 e1 0d 40 ef 9e 00 	vpxord 0x12b00(%rsi),%zmm30,%zmm19
  40ad9c:	2b 01 00 
  40ad9f:	62 e1 7c 48 11 5c 24 	vmovups %zmm19,0x9c0(%rsp)
  40ada6:	27 
  40ada7:	62 e1 05 40 ef 9e c0 	vpxord 0x12ec0(%rsi),%zmm31,%zmm19
  40adae:	2e 01 00 
  40adb1:	62 41 7d 48 ef f7    	vpxord %zmm15,%zmm0,%zmm30
  40adb7:	62 21 4d 40 ef f8    	vpxord %zmm16,%zmm22,%zmm31
  40adbd:	62 83 55 40 25 c6 36 	vpternlogd $0x36,%zmm30,%zmm21,%zmm16
  40adc4:	62 03 55 40 25 f7 6a 	vpternlogd $0x6a,%zmm31,%zmm21,%zmm30
  40adcb:	62 21 05 48 ef ee    	vpxord %zmm22,%zmm15,%zmm29
  40add1:	62 23 15 40 25 f8 6c 	vpternlogd $0x6c,%zmm16,%zmm29,%zmm31
  40add8:	62 23 0d 40 25 e8 56 	vpternlogd $0x56,%zmm16,%zmm30,%zmm29
  40addf:	62 e1 15 40 ef be 40 	vpxord 0x12b40(%rsi),%zmm29,%zmm23
  40ade6:	2b 01 00 
  40ade9:	62 e1 7c 48 11 7c 24 	vmovups %zmm23,0x1480(%rsp)
  40adf0:	52 
  40adf1:	62 e1 7c 48 10 be 00 	vmovups 0x12600(%rsi),%zmm23
  40adf8:	26 01 00 
  40adfb:	62 a3 4d 40 25 f8 96 	vpternlogd $0x96,%zmm16,%zmm22,%zmm23
  40ae02:	62 e1 7c 48 10 44 24 	vmovups 0x1240(%rsp),%zmm16
  40ae09:	49 
  40ae0a:	62 e1 7c 48 10 74 24 	vmovups 0xcc0(%rsp),%zmm22
  40ae11:	33 
  40ae12:	62 e1 05 40 ef ae 00 	vpxord 0x12f00(%rsi),%zmm31,%zmm21
  40ae19:	2f 01 00 
  40ae1c:	62 e1 7c 48 11 6c 24 	vmovups %zmm21,0x14c0(%rsp)
  40ae23:	53 
  40ae24:	62 a1 7d 48 ef e8    	vpxord %zmm16,%zmm0,%zmm21
  40ae2a:	62 21 6d 40 ef fc    	vpxord %zmm20,%zmm18,%zmm31
  40ae30:	62 a3 4d 40 25 e5 36 	vpternlogd $0x36,%zmm21,%zmm22,%zmm20
  40ae37:	62 83 4d 40 25 ef 6a 	vpternlogd $0x6a,%zmm31,%zmm22,%zmm21
  40ae3e:	62 71 0d 40 ef be 40 	vpxord 0x12240(%rsi),%zmm30,%zmm15
  40ae45:	22 01 00 
  40ae48:	62 21 7d 40 ef f2    	vpxord %zmm18,%zmm16,%zmm30
  40ae4e:	62 23 0d 40 25 fc 6c 	vpternlogd $0x6c,%zmm20,%zmm30,%zmm31
  40ae55:	62 23 55 40 25 f4 56 	vpternlogd $0x56,%zmm20,%zmm21,%zmm30
  40ae5c:	62 e1 05 40 ef b6 40 	vpxord 0x12f40(%rsi),%zmm31,%zmm22
  40ae63:	2f 01 00 
  40ae66:	62 e1 7c 48 11 74 24 	vmovups %zmm22,0x1540(%rsp)
  40ae6d:	55 
  40ae6e:	62 e1 7c 48 10 b6 40 	vmovups 0x12640(%rsi),%zmm22
  40ae75:	26 01 00 
  40ae78:	62 a3 6d 40 25 f4 96 	vpternlogd $0x96,%zmm20,%zmm18,%zmm22
  40ae7f:	62 e1 7c 48 10 54 24 	vmovups 0x1300(%rsp),%zmm18
  40ae86:	4c 
  40ae87:	62 e1 7c 48 10 64 24 	vmovups 0xd00(%rsp),%zmm20
  40ae8e:	34 
  40ae8f:	62 61 0d 40 ef ae 80 	vpxord 0x12b80(%rsi),%zmm30,%zmm29
  40ae96:	2b 01 00 
  40ae99:	62 e1 55 40 ef 86 80 	vpxord 0x12280(%rsi),%zmm21,%zmm16
  40aea0:	22 01 00 
  40aea3:	62 61 7c 48 11 6c 24 	vmovups %zmm29,0x1500(%rsp)
  40aeaa:	54 
  40aeab:	62 a1 7d 48 ef ea    	vpxord %zmm18,%zmm0,%zmm21
  40aeb1:	62 41 4d 48 ef e8    	vpxord %zmm8,%zmm6,%zmm29
  40aeb7:	62 33 5d 40 25 c5 36 	vpternlogd $0x36,%zmm21,%zmm20,%zmm8
  40aebe:	62 83 5d 40 25 ed 6a 	vpternlogd $0x6a,%zmm29,%zmm20,%zmm21
  40aec5:	62 61 6d 40 ef f6    	vpxord %zmm6,%zmm18,%zmm30
  40aecb:	62 e1 55 40 ef 96 c0 	vpxord 0x122c0(%rsi),%zmm21,%zmm18
  40aed2:	22 01 00 
  40aed5:	62 43 0d 40 25 e8 6c 	vpternlogd $0x6c,%zmm8,%zmm30,%zmm29
  40aedc:	62 43 55 40 25 f0 56 	vpternlogd $0x56,%zmm8,%zmm21,%zmm30
  40aee3:	62 e1 7c 48 10 ae 80 	vmovups 0x12680(%rsi),%zmm21
  40aeea:	26 01 00 
  40aeed:	62 c3 4d 48 25 e8 96 	vpternlogd $0x96,%zmm8,%zmm6,%zmm21
  40aef4:	62 f1 7c 48 10 74 24 	vmovups 0x1340(%rsp),%zmm6
  40aefb:	4d 
  40aefc:	62 61 0d 40 ef be c0 	vpxord 0x12bc0(%rsi),%zmm30,%zmm31
  40af03:	2b 01 00 
  40af06:	62 61 7c 48 11 7c 24 	vmovups %zmm31,0x1580(%rsp)
  40af0d:	56 
  40af0e:	62 71 7d 48 ef c6    	vpxord %zmm6,%zmm0,%zmm8
  40af14:	62 41 4d 48 ef fa    	vpxord %zmm10,%zmm6,%zmm31
  40af1a:	62 f1 7c 48 10 74 24 	vmovups 0xd40(%rsp),%zmm6
  40af21:	35 
  40af22:	62 e1 15 40 ef a6 80 	vpxord 0x12f80(%rsi),%zmm29,%zmm20
  40af29:	2f 01 00 
  40af2c:	62 e1 7c 48 11 64 24 	vmovups %zmm20,0x15c0(%rsp)
  40af33:	57 
  40af34:	62 81 2d 48 ef e2    	vpxord %zmm26,%zmm10,%zmm20
  40af3a:	62 43 4d 48 25 d0 36 	vpternlogd $0x36,%zmm8,%zmm6,%zmm26
  40af41:	62 33 4d 48 25 c4 6a 	vpternlogd $0x6a,%zmm20,%zmm6,%zmm8
  40af48:	62 f1 7c 48 10 74 24 	vmovups 0xd80(%rsp),%zmm6
  40af4f:	36 
  40af50:	62 83 05 40 25 e2 6c 	vpternlogd $0x6c,%zmm26,%zmm31,%zmm20
  40af57:	62 03 3d 48 25 fa 56 	vpternlogd $0x56,%zmm26,%zmm8,%zmm31
  40af5e:	62 61 5d 40 ef ae c0 	vpxord 0x12fc0(%rsi),%zmm20,%zmm29
  40af65:	2f 01 00 
  40af68:	62 e1 7c 48 10 a6 c0 	vmovups 0x126c0(%rsi),%zmm20
  40af6f:	26 01 00 
  40af72:	62 61 7c 48 11 6c 24 	vmovups %zmm29,0x1640(%rsp)
  40af79:	59 
  40af7a:	62 83 2d 48 25 e2 96 	vpternlogd $0x96,%zmm26,%zmm10,%zmm20
  40af81:	62 61 7c 48 10 54 24 	vmovups 0x11c0(%rsp),%zmm26
  40af88:	47 
  40af89:	62 61 3d 48 ef b6 00 	vpxord 0x12300(%rsi),%zmm8,%zmm30
  40af90:	23 01 00 
  40af93:	62 61 7c 48 11 74 24 	vmovups %zmm30,0x1600(%rsp)
  40af9a:	58 
  40af9b:	62 01 7d 48 ef f2    	vpxord %zmm26,%zmm0,%zmm30
  40afa1:	62 71 35 48 ef d5    	vpxord %zmm5,%zmm9,%zmm10
  40afa7:	62 93 4d 48 25 ee 36 	vpternlogd $0x36,%zmm30,%zmm6,%zmm5
  40afae:	62 43 4d 48 25 f2 6a 	vpternlogd $0x6a,%zmm10,%zmm6,%zmm30
  40afb5:	62 71 05 40 ef 86 00 	vpxord 0x12800(%rsi),%zmm31,%zmm8
  40afbc:	28 01 00 
  40afbf:	62 41 2d 40 ef f9    	vpxord %zmm9,%zmm26,%zmm31
  40afc5:	62 61 0d 40 ef 96 40 	vpxord 0x12340(%rsi),%zmm30,%zmm26
  40afcc:	23 01 00 
  40afcf:	62 61 7c 48 11 54 24 	vmovups %zmm26,0x1680(%rsp)
  40afd6:	5a 
  40afd7:	62 61 7c 48 10 96 00 	vmovups 0x12700(%rsi),%zmm26
  40afde:	27 01 00 
  40afe1:	62 73 05 40 25 d5 6c 	vpternlogd $0x6c,%zmm5,%zmm31,%zmm10
  40afe8:	62 63 0d 40 25 fd 56 	vpternlogd $0x56,%zmm5,%zmm30,%zmm31
  40afef:	62 63 35 48 25 d5 96 	vpternlogd $0x96,%zmm5,%zmm9,%zmm26
  40aff6:	62 71 7c 48 10 4c 24 	vmovups 0xe80(%rsp),%zmm9
  40affd:	3a 
  40affe:	62 61 7c 48 10 74 24 	vmovups 0xdc0(%rsp),%zmm30
  40b005:	37 
  40b006:	62 f1 05 40 ef b6 40 	vpxord 0x12840(%rsi),%zmm31,%zmm6
  40b00d:	28 01 00 
  40b010:	62 41 7d 48 ef f9    	vpxord %zmm9,%zmm0,%zmm31
  40b016:	62 f1 5d 48 ef ea    	vpxord %zmm2,%zmm4,%zmm5
  40b01c:	62 93 0d 40 25 d7 36 	vpternlogd $0x36,%zmm31,%zmm30,%zmm2
  40b023:	62 63 0d 40 25 fd 6a 	vpternlogd $0x6a,%zmm5,%zmm30,%zmm31
  40b02a:	62 61 7c 48 10 b6 40 	vmovups 0x12740(%rsi),%zmm30
  40b031:	27 01 00 
  40b034:	62 63 5d 48 25 f2 96 	vpternlogd $0x96,%zmm2,%zmm4,%zmm30
  40b03b:	62 61 7c 48 11 74 24 	vmovups %zmm30,0x1700(%rsp)
  40b042:	5c 
  40b043:	62 61 35 48 ef ec    	vpxord %zmm4,%zmm9,%zmm29
  40b049:	62 f3 15 40 25 ea 6c 	vpternlogd $0x6c,%zmm2,%zmm29,%zmm5
  40b050:	62 63 05 40 25 ea 56 	vpternlogd $0x56,%zmm2,%zmm31,%zmm29
  40b057:	62 f1 7c 48 10 64 24 	vmovups 0xa00(%rsp),%zmm4
  40b05e:	28 
  40b05f:	62 f1 7c 48 10 54 24 	vmovups 0x1380(%rsp),%zmm2
  40b066:	4e 
  40b067:	62 71 05 40 ef 8e 80 	vpxord 0x12380(%rsi),%zmm31,%zmm9
  40b06e:	23 01 00 
  40b071:	62 61 7c 48 10 7c 24 	vmovups 0xa80(%rsp),%zmm31
  40b078:	2a 
  40b079:	62 71 7c 48 11 4c 24 	vmovups %zmm9,0x16c0(%rsp)
  40b080:	5b 
  40b081:	62 71 15 40 ef 8e 80 	vpxord 0x12880(%rsi),%zmm29,%zmm9
  40b088:	28 01 00 
  40b08b:	62 61 7d 48 ef ec    	vpxord %zmm4,%zmm0,%zmm29
  40b091:	62 61 6d 48 ef f1    	vpxord %zmm1,%zmm2,%zmm30
  40b097:	62 93 05 40 25 cd 36 	vpternlogd $0x36,%zmm29,%zmm31,%zmm1
  40b09e:	62 03 05 40 25 ee 6a 	vpternlogd $0x6a,%zmm30,%zmm31,%zmm29
  40b0a5:	62 61 7c 48 10 7c 24 	vmovups 0xac0(%rsp),%zmm31
  40b0ac:	2b 
  40b0ad:	62 f1 5d 48 ef e2    	vpxord %zmm2,%zmm4,%zmm4
  40b0b3:	62 63 5d 48 25 f1 6c 	vpternlogd $0x6c,%zmm1,%zmm4,%zmm30
  40b0ba:	62 f3 15 40 25 e1 56 	vpternlogd $0x56,%zmm1,%zmm29,%zmm4
  40b0c1:	62 61 15 40 ef ae c0 	vpxord 0x123c0(%rsi),%zmm29,%zmm29
  40b0c8:	23 01 00 
  40b0cb:	62 61 7c 48 11 6c 24 	vmovups %zmm29,0x1740(%rsp)
  40b0d2:	5d 
  40b0d3:	62 61 5d 48 ef ae c0 	vpxord 0x128c0(%rsi),%zmm4,%zmm29
  40b0da:	28 01 00 
  40b0dd:	62 f1 0d 40 ef a6 80 	vpxord 0x12c80(%rsi),%zmm30,%zmm4
  40b0e4:	2c 01 00 
  40b0e7:	62 61 7c 48 10 b6 80 	vmovups 0x12780(%rsi),%zmm30
  40b0ee:	27 01 00 
  40b0f1:	62 63 6d 48 25 f1 96 	vpternlogd $0x96,%zmm1,%zmm2,%zmm30
  40b0f8:	62 f1 7c 48 10 54 24 	vmovups 0xec0(%rsp),%zmm2
  40b0ff:	3b 
  40b100:	62 61 7c 48 11 74 24 	vmovups %zmm30,0x1780(%rsp)
  40b107:	5e 
  40b108:	62 71 2d 48 ef 96 00 	vpxord 0x12c00(%rsi),%zmm10,%zmm10
  40b10f:	2c 01 00 
  40b112:	62 f1 7d 48 ef ca    	vpxord %zmm2,%zmm0,%zmm1
  40b118:	62 41 3d 48 ef f2    	vpxord %zmm10,%zmm8,%zmm30
  40b11e:	62 73 05 40 25 d1 36 	vpternlogd $0x36,%zmm1,%zmm31,%zmm10
  40b125:	62 93 05 40 25 ce 6a 	vpternlogd $0x6a,%zmm30,%zmm31,%zmm1
  40b12c:	62 61 7c 48 10 be c0 	vmovups 0x137c0(%rsi),%zmm31
  40b133:	37 01 00 
  40b136:	62 43 3d 48 25 fa 96 	vpternlogd $0x96,%zmm10,%zmm8,%zmm31
  40b13d:	62 61 7c 48 11 7c 24 	vmovups %zmm31,0x40(%rsp)
  40b144:	01 
  40b145:	62 61 7c 48 10 7c 24 	vmovups 0xe00(%rsp),%zmm31
  40b14c:	38 
  40b14d:	62 d1 6d 48 ef d0    	vpxord %zmm8,%zmm2,%zmm2
  40b153:	62 43 6d 48 25 f2 6c 	vpternlogd $0x6c,%zmm10,%zmm2,%zmm30
  40b15a:	62 d3 75 48 25 d2 56 	vpternlogd $0x56,%zmm10,%zmm1,%zmm2
  40b161:	62 71 7c 48 10 54 24 	vmovups 0xf00(%rsp),%zmm10
  40b168:	3c 
  40b169:	62 61 0d 40 ef b6 c0 	vpxord 0x13cc0(%rsi),%zmm30,%zmm30
  40b170:	3c 01 00 
  40b173:	62 f1 55 48 ef ae 40 	vpxord 0x12c40(%rsi),%zmm5,%zmm5
  40b17a:	2c 01 00 
  40b17d:	62 61 7c 48 11 74 24 	vmovups %zmm30,0x17c0(%rsp)
  40b184:	5f 
  40b185:	62 51 7d 48 ef c2    	vpxord %zmm10,%zmm0,%zmm8
  40b18b:	62 61 4d 48 ef f5    	vpxord %zmm5,%zmm6,%zmm30
  40b191:	62 d3 05 40 25 e8 36 	vpternlogd $0x36,%zmm8,%zmm31,%zmm5
  40b198:	62 13 05 40 25 c6 6a 	vpternlogd $0x6a,%zmm30,%zmm31,%zmm8
  40b19f:	62 71 2d 48 ef d6    	vpxord %zmm6,%zmm10,%zmm10
  40b1a5:	62 63 2d 48 25 f5 6c 	vpternlogd $0x6c,%zmm5,%zmm10,%zmm30
  40b1ac:	62 73 3d 48 25 d5 56 	vpternlogd $0x56,%zmm5,%zmm8,%zmm10
  40b1b3:	62 71 2d 48 ef 96 40 	vpxord 0x13940(%rsi),%zmm10,%zmm10
  40b1ba:	39 01 00 
  40b1bd:	62 71 7c 48 11 54 24 	vmovups %zmm10,0x1800(%rsp)
  40b1c4:	60 
  40b1c5:	62 71 7c 48 10 96 00 	vmovups 0x13400(%rsi),%zmm10
  40b1cc:	34 01 00 
  40b1cf:	62 73 4d 48 25 d5 96 	vpternlogd $0x96,%zmm5,%zmm6,%zmm10
  40b1d6:	62 f1 7c 48 10 6c 24 	vmovups 0xf80(%rsp),%zmm5
  40b1dd:	3e 
  40b1de:	62 f1 7c 48 10 74 24 	vmovups 0xe40(%rsp),%zmm6
  40b1e5:	39 
  40b1e6:	62 61 0d 40 ef b6 00 	vpxord 0x13d00(%rsi),%zmm30,%zmm30
  40b1ed:	3d 01 00 
  40b1f0:	62 61 7c 48 11 74 24 	vmovups %zmm30,0x1840(%rsp)
  40b1f7:	61 
  40b1f8:	62 61 7d 48 ef f5    	vpxord %zmm5,%zmm0,%zmm30
  40b1fe:	62 41 55 48 ef f9    	vpxord %zmm9,%zmm5,%zmm31
  40b204:	62 f1 35 48 ef ec    	vpxord %zmm4,%zmm9,%zmm5
  40b20a:	62 93 4d 48 25 e6 36 	vpternlogd $0x36,%zmm30,%zmm6,%zmm4
  40b211:	62 63 4d 48 25 f5 6a 	vpternlogd $0x6a,%zmm5,%zmm6,%zmm30
  40b218:	62 f3 05 40 25 ec 6c 	vpternlogd $0x6c,%zmm4,%zmm31,%zmm5
  40b21f:	62 63 0d 40 25 fc 56 	vpternlogd $0x56,%zmm4,%zmm30,%zmm31
  40b226:	62 f1 05 40 ef b6 80 	vpxord 0x13980(%rsi),%zmm31,%zmm6
  40b22d:	39 01 00 
  40b230:	62 61 7c 48 10 be 40 	vmovups 0x13440(%rsi),%zmm31
  40b237:	34 01 00 
  40b23a:	62 f1 7c 48 11 74 24 	vmovups %zmm6,0x1880(%rsp)
  40b241:	62 
  40b242:	62 63 35 48 25 fc 96 	vpternlogd $0x96,%zmm4,%zmm9,%zmm31
  40b249:	62 f1 7c 48 10 64 24 	vmovups 0xfc0(%rsp),%zmm4
  40b250:	3f 
  40b251:	62 f1 55 48 ef ae 40 	vpxord 0x13d40(%rsi),%zmm5,%zmm5
  40b258:	3d 01 00 
  40b25b:	62 f1 7c 48 11 6c 24 	vmovups %zmm5,0x18c0(%rsp)
  40b262:	63 
  40b263:	62 f1 7d 48 ef f4    	vpxord %zmm4,%zmm0,%zmm6
  40b269:	62 91 5d 48 ef ed    	vpxord %zmm29,%zmm4,%zmm5
  40b26f:	62 f1 7c 48 10 64 24 	vmovups 0xb80(%rsp),%zmm4
  40b276:	2e 
  40b277:	62 51 15 40 ef ce    	vpxord %zmm14,%zmm29,%zmm9
  40b27d:	62 73 5d 48 25 f6 36 	vpternlogd $0x36,%zmm6,%zmm4,%zmm14
  40b284:	62 d3 5d 48 25 f1 6a 	vpternlogd $0x6a,%zmm9,%zmm4,%zmm6
  40b28b:	62 53 55 48 25 ce 6c 	vpternlogd $0x6c,%zmm14,%zmm5,%zmm9
  40b292:	62 d3 4d 48 25 ee 56 	vpternlogd $0x56,%zmm14,%zmm6,%zmm5
  40b299:	62 71 35 48 ef 8e 80 	vpxord 0x13d80(%rsi),%zmm9,%zmm9
  40b2a0:	3d 01 00 
  40b2a3:	62 71 7c 48 11 4c 24 	vmovups %zmm9,0x1940(%rsp)
  40b2aa:	65 
  40b2ab:	62 71 7c 48 10 8e 80 	vmovups 0x13480(%rsi),%zmm9
  40b2b2:	34 01 00 
  40b2b5:	62 53 15 40 25 ce 96 	vpternlogd $0x96,%zmm14,%zmm29,%zmm9
  40b2bc:	62 61 7c 48 10 6c 24 	vmovups 0x1040(%rsp),%zmm29
  40b2c3:	41 
  40b2c4:	62 71 7c 48 10 74 24 	vmovups 0x13c0(%rsp),%zmm14
  40b2cb:	4f 
  40b2cc:	62 f1 55 48 ef ae c0 	vpxord 0x139c0(%rsi),%zmm5,%zmm5
  40b2d3:	39 01 00 
  40b2d6:	62 f1 7c 48 11 6c 24 	vmovups %zmm5,0x1900(%rsp)
  40b2dd:	64 
  40b2de:	62 91 7d 48 ef e5    	vpxord %zmm29,%zmm0,%zmm4
  40b2e4:	62 d1 15 40 ef ee    	vpxord %zmm14,%zmm29,%zmm5
  40b2ea:	62 61 7c 48 10 6c 24 	vmovups 0xbc0(%rsp),%zmm29
  40b2f1:	2f 
  40b2f2:	62 f1 4d 48 ef b6 c0 	vpxord 0x130c0(%rsi),%zmm6,%zmm6
  40b2f9:	30 01 00 
  40b2fc:	62 f1 7c 48 11 74 24 	vmovups %zmm6,0x340(%rsp)
  40b303:	0d 
  40b304:	62 d1 0d 48 ef f5    	vpxord %zmm13,%zmm14,%zmm6
  40b30a:	62 73 15 40 25 ec 36 	vpternlogd $0x36,%zmm4,%zmm29,%zmm13
  40b311:	62 f3 15 40 25 e6 6a 	vpternlogd $0x6a,%zmm6,%zmm29,%zmm4
  40b318:	62 61 7c 48 10 ae c0 	vmovups 0x134c0(%rsi),%zmm29
  40b31f:	34 01 00 
  40b322:	62 d3 55 48 25 f5 6c 	vpternlogd $0x6c,%zmm13,%zmm5,%zmm6
  40b329:	62 d3 5d 48 25 ed 56 	vpternlogd $0x56,%zmm13,%zmm4,%zmm5
  40b330:	62 43 0d 48 25 ed 96 	vpternlogd $0x96,%zmm13,%zmm14,%zmm29
  40b337:	62 71 7c 48 10 74 24 	vmovups 0x1140(%rsp),%zmm14
  40b33e:	45 
  40b33f:	62 61 7c 48 11 6c 24 	vmovups %zmm29,0x640(%rsp)
  40b346:	19 
  40b347:	62 61 7c 48 10 6c 24 	vmovups 0xc00(%rsp),%zmm29
  40b34e:	30 
  40b34f:	62 f1 5d 48 ef a6 00 	vpxord 0x13100(%rsi),%zmm4,%zmm4
  40b356:	31 01 00 
  40b359:	62 f1 7c 48 11 64 24 	vmovups %zmm4,0x380(%rsp)
  40b360:	0e 
  40b361:	62 51 7d 48 ef ee    	vpxord %zmm14,%zmm0,%zmm13
  40b367:	62 d1 0d 48 ef e4    	vpxord %zmm12,%zmm14,%zmm4
  40b36d:	62 51 1d 48 ef f3    	vpxord %zmm11,%zmm12,%zmm14
  40b373:	62 53 15 40 25 dd 36 	vpternlogd $0x36,%zmm13,%zmm29,%zmm11
  40b37a:	62 53 15 40 25 ee 6a 	vpternlogd $0x6a,%zmm14,%zmm29,%zmm13
  40b381:	62 61 7c 48 10 6c 24 	vmovups 0xc40(%rsp),%zmm29
  40b388:	31 
  40b389:	62 53 5d 48 25 f3 6c 	vpternlogd $0x6c,%zmm11,%zmm4,%zmm14
  40b390:	62 d3 15 48 25 e3 56 	vpternlogd $0x56,%zmm11,%zmm13,%zmm4
  40b397:	62 f1 5d 48 ef a6 40 	vpxord 0x13a40(%rsi),%zmm4,%zmm4
  40b39e:	3a 01 00 
  40b3a1:	62 f1 7c 48 11 64 24 	vmovups %zmm4,0x980(%rsp)
  40b3a8:	26 
  40b3a9:	62 f1 0d 48 ef a6 00 	vpxord 0x13e00(%rsi),%zmm14,%zmm4
  40b3b0:	3e 01 00 
  40b3b3:	62 71 7c 48 10 b6 00 	vmovups 0x13500(%rsi),%zmm14
  40b3ba:	35 01 00 
  40b3bd:	62 53 1d 48 25 f3 96 	vpternlogd $0x96,%zmm11,%zmm12,%zmm14
  40b3c4:	62 71 7c 48 10 5c 24 	vmovups 0xf40(%rsp),%zmm11
  40b3cb:	3d 
  40b3cc:	62 71 7c 48 11 74 24 	vmovups %zmm14,0x740(%rsp)
  40b3d3:	1d 
  40b3d4:	62 71 15 48 ef ae 40 	vpxord 0x13140(%rsi),%zmm13,%zmm13
  40b3db:	31 01 00 
  40b3de:	62 71 7c 48 11 6c 24 	vmovups %zmm13,0x3c0(%rsp)
  40b3e5:	0f 
  40b3e6:	62 71 7c 48 10 6c 24 	vmovups 0x1200(%rsp),%zmm13
  40b3ed:	48 
  40b3ee:	62 51 7d 48 ef f3    	vpxord %zmm11,%zmm0,%zmm14
  40b3f4:	62 51 25 48 ef e5    	vpxord %zmm13,%zmm11,%zmm12
  40b3fa:	62 71 15 48 ef df    	vpxord %zmm7,%zmm13,%zmm11
  40b400:	62 d3 15 40 25 fe 36 	vpternlogd $0x36,%zmm14,%zmm29,%zmm7
  40b407:	62 53 15 40 25 f3 6a 	vpternlogd $0x6a,%zmm11,%zmm29,%zmm14
  40b40e:	62 61 7c 48 10 ae 40 	vmovups 0x13540(%rsi),%zmm29
  40b415:	35 01 00 
  40b418:	62 73 1d 48 25 df 6c 	vpternlogd $0x6c,%zmm7,%zmm12,%zmm11
  40b41f:	62 73 0d 48 25 e7 56 	vpternlogd $0x56,%zmm7,%zmm14,%zmm12
  40b426:	62 63 15 48 25 ef 96 	vpternlogd $0x96,%zmm7,%zmm13,%zmm29
  40b42d:	62 61 7c 48 11 6c 24 	vmovups %zmm29,0x500(%rsp)
  40b434:	14 
  40b435:	62 71 0d 48 ef b6 80 	vpxord 0x13180(%rsi),%zmm14,%zmm14
  40b43c:	31 01 00 
  40b43f:	62 71 7c 48 11 74 24 	vmovups %zmm14,0x400(%rsp)
  40b446:	10 
  40b447:	62 71 7c 48 10 74 24 	vmovups 0x1000(%rsp),%zmm14
  40b44e:	40 
  40b44f:	62 01 7d 48 ef e8    	vpxord %zmm24,%zmm0,%zmm29
  40b455:	62 d1 3d 40 ef fe    	vpxord %zmm14,%zmm24,%zmm7
  40b45b:	62 61 7c 48 10 44 24 	vmovups 0xc80(%rsp),%zmm24
  40b462:	32 
  40b463:	62 71 0d 48 ef eb    	vpxord %zmm3,%zmm14,%zmm13
  40b469:	62 93 3d 40 25 dd 36 	vpternlogd $0x36,%zmm29,%zmm24,%zmm3
  40b470:	62 43 3d 40 25 ed 6a 	vpternlogd $0x6a,%zmm13,%zmm24,%zmm29
  40b477:	62 73 45 48 25 eb 6c 	vpternlogd $0x6c,%zmm3,%zmm7,%zmm13
  40b47e:	62 f3 15 40 25 fb 56 	vpternlogd $0x56,%zmm3,%zmm29,%zmm7
  40b485:	62 f1 45 48 ef be c0 	vpxord 0x13ac0(%rsi),%zmm7,%zmm7
  40b48c:	3a 01 00 
  40b48f:	62 61 15 40 ef 86 c0 	vpxord 0x131c0(%rsi),%zmm29,%zmm24
  40b496:	31 01 00 
  40b499:	62 f1 7c 48 11 7c 24 	vmovups %zmm7,0x940(%rsp)
  40b4a0:	25 
  40b4a1:	62 61 7c 48 11 44 24 	vmovups %zmm24,0x440(%rsp)
  40b4a8:	11 
  40b4a9:	62 61 7c 48 10 44 24 	vmovups 0x1080(%rsp),%zmm24
  40b4b0:	42 
  40b4b1:	62 61 7c 48 10 6c 24 	vmovups 0x14c0(%rsp),%zmm29
  40b4b8:	53 
  40b4b9:	62 f1 15 48 ef be 80 	vpxord 0x13e80(%rsi),%zmm13,%zmm7
  40b4c0:	3e 01 00 
  40b4c3:	62 71 7c 48 10 ae 80 	vmovups 0x13580(%rsi),%zmm13
  40b4ca:	35 01 00 
  40b4cd:	62 73 0d 48 25 eb 96 	vpternlogd $0x96,%zmm3,%zmm14,%zmm13
  40b4d4:	62 71 7c 48 11 6c 24 	vmovups %zmm13,0x800(%rsp)
  40b4db:	20 
  40b4dc:	62 61 35 40 ef 8e 00 	vpxord 0x12200(%rsi),%zmm25,%zmm25
  40b4e3:	22 01 00 
  40b4e6:	62 b1 7d 48 ef df    	vpxord %zmm23,%zmm0,%zmm3
  40b4ec:	62 11 45 40 ef f0    	vpxord %zmm24,%zmm23,%zmm14
  40b4f2:	62 81 3d 40 ef fc    	vpxord %zmm28,%zmm24,%zmm23
  40b4f8:	62 63 35 40 25 e3 36 	vpternlogd $0x36,%zmm3,%zmm25,%zmm28
  40b4ff:	62 b3 35 40 25 df 6a 	vpternlogd $0x6a,%zmm23,%zmm25,%zmm3
  40b506:	62 61 7c 48 10 8e c0 	vmovups 0x135c0(%rsi),%zmm25
  40b50d:	35 01 00 
  40b510:	62 83 0d 48 25 fc 6c 	vpternlogd $0x6c,%zmm28,%zmm14,%zmm23
  40b517:	62 13 65 48 25 f4 56 	vpternlogd $0x56,%zmm28,%zmm3,%zmm14
  40b51e:	62 03 3d 40 25 cc 96 	vpternlogd $0x96,%zmm28,%zmm24,%zmm25
  40b525:	62 61 7c 48 11 4c 24 	vmovups %zmm25,0x780(%rsp)
  40b52c:	1e 
  40b52d:	62 71 0d 48 ef ae 00 	vpxord 0x13b00(%rsi),%zmm14,%zmm13
  40b534:	3b 01 00 
  40b537:	62 71 7c 48 10 74 24 	vmovups 0x10c0(%rsp),%zmm14
  40b53e:	43 
  40b53f:	62 71 7c 48 11 6c 24 	vmovups %zmm13,0x540(%rsp)
  40b546:	15 
  40b547:	62 21 7d 48 ef e6    	vpxord %zmm22,%zmm0,%zmm28
  40b54d:	62 01 0d 48 ef cb    	vpxord %zmm27,%zmm14,%zmm25
  40b553:	62 03 05 48 25 dc 36 	vpternlogd $0x36,%zmm28,%zmm15,%zmm27
  40b55a:	62 03 05 48 25 e1 6a 	vpternlogd $0x6a,%zmm25,%zmm15,%zmm28
  40b561:	62 51 4d 40 ef ee    	vpxord %zmm14,%zmm22,%zmm13
  40b567:	62 03 15 48 25 cb 6c 	vpternlogd $0x6c,%zmm27,%zmm13,%zmm25
  40b56e:	62 13 1d 40 25 eb 56 	vpternlogd $0x56,%zmm27,%zmm28,%zmm13
  40b575:	62 f1 65 48 ef 9e 00 	vpxord 0x13200(%rsi),%zmm3,%zmm3
  40b57c:	32 01 00 
  40b57f:	62 71 15 48 ef be 40 	vpxord 0x13b40(%rsi),%zmm13,%zmm15
  40b586:	3b 01 00 
  40b589:	62 f1 7c 48 11 5c 24 	vmovups %zmm3,0x280(%rsp)
  40b590:	0a 
  40b591:	62 71 7c 48 11 7c 24 	vmovups %zmm15,0x600(%rsp)
  40b598:	18 
  40b599:	62 71 7c 48 10 7c 24 	vmovups 0x1100(%rsp),%zmm15
  40b5a0:	44 
  40b5a1:	62 f1 45 40 ef 9e c0 	vpxord 0x13ec0(%rsi),%zmm23,%zmm3
  40b5a8:	3e 01 00 
  40b5ab:	62 e1 7c 48 10 be 00 	vmovups 0x13600(%rsi),%zmm23
  40b5b2:	36 01 00 
  40b5b5:	62 83 0d 48 25 fb 96 	vpternlogd $0x96,%zmm27,%zmm14,%zmm23
  40b5bc:	62 e1 7c 48 11 7c 24 	vmovups %zmm23,0x880(%rsp)
  40b5c3:	22 
  40b5c4:	62 e1 1d 40 ef b6 40 	vpxord 0x13240(%rsi),%zmm28,%zmm22
  40b5cb:	32 01 00 
  40b5ce:	62 21 7d 48 ef dd    	vpxord %zmm21,%zmm0,%zmm27
  40b5d4:	62 31 05 48 ef e9    	vpxord %zmm17,%zmm15,%zmm13
  40b5da:	62 83 7d 40 25 cb 36 	vpternlogd $0x36,%zmm27,%zmm16,%zmm17
  40b5e1:	62 43 7d 40 25 dd 6a 	vpternlogd $0x6a,%zmm13,%zmm16,%zmm27
  40b5e8:	62 e1 7c 48 11 74 24 	vmovups %zmm22,0x100(%rsp)
  40b5ef:	04 
  40b5f0:	62 61 7c 48 10 64 24 	vmovups 0x1180(%rsp),%zmm28
  40b5f7:	46 
  40b5f8:	62 e1 35 40 ef b6 00 	vpxord 0x13f00(%rsi),%zmm25,%zmm22
  40b5ff:	3f 01 00 
  40b602:	62 61 7c 48 10 8e 40 	vmovups 0x13640(%rsi),%zmm25
  40b609:	36 01 00 
  40b60c:	62 23 05 48 25 c9 96 	vpternlogd $0x96,%zmm17,%zmm15,%zmm25
  40b613:	62 61 7c 48 11 4c 24 	vmovups %zmm25,0x840(%rsp)
  40b61a:	21 
  40b61b:	62 51 55 40 ef f7    	vpxord %zmm15,%zmm21,%zmm14
  40b621:	62 33 0d 48 25 e9 6c 	vpternlogd $0x6c,%zmm17,%zmm14,%zmm13
  40b628:	62 33 25 40 25 f1 56 	vpternlogd $0x56,%zmm17,%zmm27,%zmm14
  40b62f:	62 71 7c 48 10 7c 24 	vmovups 0x1680(%rsp),%zmm15
  40b636:	5a 
  40b637:	62 e1 25 40 ef ae 80 	vpxord 0x13280(%rsi),%zmm27,%zmm21
  40b63e:	32 01 00 
  40b641:	62 e1 7c 48 11 6c 24 	vmovups %zmm21,0x140(%rsp)
  40b648:	05 
  40b649:	62 61 7c 48 10 5c 24 	vmovups 0x9c0(%rsp),%zmm27
  40b650:	27 
  40b651:	62 e1 15 48 ef ae 40 	vpxord 0x13f40(%rsi),%zmm13,%zmm21
  40b658:	3f 01 00 
  40b65b:	62 a1 7d 48 ef cc    	vpxord %zmm20,%zmm0,%zmm17
  40b661:	62 31 1d 40 ef eb    	vpxord %zmm19,%zmm28,%zmm13
  40b667:	62 a3 6d 40 25 d9 36 	vpternlogd $0x36,%zmm17,%zmm18,%zmm19
  40b66e:	62 c3 6d 40 25 cd 6a 	vpternlogd $0x6a,%zmm13,%zmm18,%zmm17
  40b675:	62 e1 7c 48 10 96 80 	vmovups 0x13680(%rsi),%zmm18
  40b67c:	36 01 00 
  40b67f:	62 a3 1d 40 25 d3 96 	vpternlogd $0x96,%zmm19,%zmm28,%zmm18
  40b686:	62 e1 7c 48 11 54 24 	vmovups %zmm18,0x700(%rsp)
  40b68d:	1c 
  40b68e:	62 e1 0d 48 ef 86 80 	vpxord 0x13b80(%rsi),%zmm14,%zmm16
  40b695:	3b 01 00 
  40b698:	62 e1 7c 48 11 44 24 	vmovups %zmm16,0x900(%rsp)
  40b69f:	24 
  40b6a0:	62 81 5d 40 ef c4    	vpxord %zmm28,%zmm20,%zmm16
  40b6a6:	62 33 7d 40 25 eb 6c 	vpternlogd $0x6c,%zmm19,%zmm16,%zmm13
  40b6ad:	62 a3 75 40 25 c3 56 	vpternlogd $0x56,%zmm19,%zmm17,%zmm16
  40b6b4:	62 61 7c 48 10 64 24 	vmovups 0x1480(%rsp),%zmm28
  40b6bb:	52 
  40b6bc:	62 81 7d 48 ef da    	vpxord %zmm26,%zmm0,%zmm19
  40b6c2:	62 81 2d 40 ef fb    	vpxord %zmm27,%zmm26,%zmm23
  40b6c8:	62 61 7c 48 10 54 24 	vmovups 0x1600(%rsp),%zmm26
  40b6cf:	58 
  40b6d0:	62 71 7d 40 ef b6 c0 	vpxord 0x13bc0(%rsi),%zmm16,%zmm14
  40b6d7:	3b 01 00 
  40b6da:	62 71 7c 48 11 74 24 	vmovups %zmm14,0x8c0(%rsp)
  40b6e1:	23 
  40b6e2:	62 71 7c 48 10 b6 c0 	vmovups 0x136c0(%rsi),%zmm14
  40b6e9:	36 01 00 
  40b6ec:	62 01 25 40 ef c5    	vpxord %zmm29,%zmm27,%zmm24
  40b6f2:	62 23 2d 40 25 eb 36 	vpternlogd $0x36,%zmm19,%zmm26,%zmm29
  40b6f9:	62 83 2d 40 25 d8 6a 	vpternlogd $0x6a,%zmm24,%zmm26,%zmm19
  40b700:	62 03 45 40 25 c5 6c 	vpternlogd $0x6c,%zmm29,%zmm23,%zmm24
  40b707:	62 83 65 40 25 fd 56 	vpternlogd $0x56,%zmm29,%zmm19,%zmm23
  40b70e:	62 13 25 40 25 f5 96 	vpternlogd $0x96,%zmm29,%zmm27,%zmm14
  40b715:	62 61 7c 48 10 5c 24 	vmovups 0x1540(%rsp),%zmm27
  40b71c:	55 
  40b71d:	62 61 7c 48 10 6c 24 	vmovups 0x16c0(%rsp),%zmm29
  40b724:	5b 
  40b725:	62 71 7c 48 11 74 24 	vmovups %zmm14,0x7c0(%rsp)
  40b72c:	1f 
  40b72d:	62 e1 75 40 ef 8e c0 	vpxord 0x132c0(%rsi),%zmm17,%zmm17
  40b734:	32 01 00 
  40b737:	62 e1 7c 48 11 4c 24 	vmovups %zmm17,0x180(%rsp)
  40b73e:	06 
  40b73f:	62 e1 15 48 ef 8e 80 	vpxord 0x13f80(%rsi),%zmm13,%zmm17
  40b746:	3f 01 00 
  40b749:	62 71 7c 48 10 6c 24 	vmovups 0x1700(%rsp),%zmm13
  40b750:	5c 
  40b751:	62 e1 65 40 ef a6 00 	vpxord 0x13300(%rsi),%zmm19,%zmm20
  40b758:	33 01 00 
  40b75b:	62 e1 7c 48 11 64 24 	vmovups %zmm20,0x1c0(%rsp)
  40b762:	07 
  40b763:	62 e1 45 40 ef a6 00 	vpxord 0x13800(%rsi),%zmm23,%zmm20
  40b76a:	38 01 00 
  40b76d:	62 e1 7c 48 10 be 00 	vmovups 0x13700(%rsi),%zmm23
  40b774:	37 01 00 
  40b777:	62 41 7d 48 ef d5    	vpxord %zmm13,%zmm0,%zmm26
  40b77d:	62 81 1d 40 ef db    	vpxord %zmm27,%zmm28,%zmm19
  40b783:	62 03 05 48 25 da 36 	vpternlogd $0x36,%zmm26,%zmm15,%zmm27
  40b78a:	62 23 05 48 25 d3 6a 	vpternlogd $0x6a,%zmm19,%zmm15,%zmm26
  40b791:	62 83 1d 40 25 fb 96 	vpternlogd $0x96,%zmm27,%zmm28,%zmm23
  40b798:	62 e1 7c 48 11 7c 24 	vmovups %zmm23,0x6c0(%rsp)
  40b79f:	1b 
  40b7a0:	62 e1 7c 48 10 7c 24 	vmovups 0x1740(%rsp),%zmm23
  40b7a7:	5d 
  40b7a8:	62 e1 3d 40 ef 86 c0 	vpxord 0x13fc0(%rsi),%zmm24,%zmm16
  40b7af:	3f 01 00 
  40b7b2:	62 61 7c 48 10 44 24 	vmovups 0x1780(%rsp),%zmm24
  40b7b9:	5e 
  40b7ba:	62 81 15 48 ef d4    	vpxord %zmm28,%zmm13,%zmm18
  40b7c0:	62 71 7c 48 10 6c 24 	vmovups 0x1500(%rsp),%zmm13
  40b7c7:	54 
  40b7c8:	62 61 7c 48 10 64 24 	vmovups 0x15c0(%rsp),%zmm28
  40b7cf:	57 
  40b7d0:	62 83 6d 40 25 db 6c 	vpternlogd $0x6c,%zmm27,%zmm18,%zmm19
  40b7d7:	62 83 2d 40 25 d3 56 	vpternlogd $0x56,%zmm27,%zmm26,%zmm18
  40b7de:	62 61 7c 48 10 9e 40 	vmovups 0x13740(%rsi),%zmm27
  40b7e5:	37 01 00 
  40b7e8:	62 61 2d 40 ef 8e 40 	vpxord 0x13340(%rsi),%zmm26,%zmm25
  40b7ef:	33 01 00 
  40b7f2:	62 61 7c 48 11 4c 24 	vmovups %zmm25,0x200(%rsp)
  40b7f9:	08 
  40b7fa:	62 11 7d 48 ef f0    	vpxord %zmm24,%zmm0,%zmm14
  40b800:	62 61 65 40 ef 8e 00 	vpxord 0x13c00(%rsi),%zmm19,%zmm25
  40b807:	3c 01 00 
  40b80a:	62 81 15 48 ef dc    	vpxord %zmm28,%zmm13,%zmm19
  40b810:	62 43 15 40 25 e6 36 	vpternlogd $0x36,%zmm14,%zmm29,%zmm28
  40b817:	62 33 15 40 25 f3 6a 	vpternlogd $0x6a,%zmm19,%zmm29,%zmm14
  40b81e:	62 61 7c 48 10 ae 80 	vmovups 0x13780(%rsi),%zmm29
  40b825:	37 01 00 
  40b828:	62 03 15 48 25 dc 96 	vpternlogd $0x96,%zmm28,%zmm13,%zmm27
  40b82f:	62 61 7c 48 11 5c 24 	vmovups %zmm27,0x580(%rsp)
  40b836:	16 
  40b837:	62 61 7c 48 10 5c 24 	vmovups 0x1640(%rsp),%zmm27
  40b83e:	59 
  40b83f:	62 41 3d 40 ef d5    	vpxord %zmm13,%zmm24,%zmm26
  40b845:	62 71 7c 48 10 6c 24 	vmovups 0xa40(%rsp),%zmm13
  40b84c:	29 
  40b84d:	62 83 2d 40 25 dc 6c 	vpternlogd $0x6c,%zmm28,%zmm26,%zmm19
  40b854:	62 03 0d 48 25 d4 56 	vpternlogd $0x56,%zmm28,%zmm14,%zmm26
  40b85b:	62 61 7c 48 10 64 24 	vmovups 0x1580(%rsp),%zmm28
  40b862:	56 
  40b863:	62 71 0d 48 ef be 80 	vpxord 0x13380(%rsi),%zmm14,%zmm15
  40b86a:	33 01 00 
  40b86d:	62 71 7c 48 11 7c 24 	vmovups %zmm15,0x240(%rsp)
  40b874:	09 
  40b875:	62 71 2d 40 ef b6 80 	vpxord 0x13880(%rsi),%zmm26,%zmm14
  40b87c:	38 01 00 
  40b87f:	62 51 7d 48 ef fd    	vpxord %zmm13,%zmm0,%zmm15
  40b885:	62 01 1d 40 ef d3    	vpxord %zmm27,%zmm28,%zmm26
  40b88b:	62 43 45 40 25 df 36 	vpternlogd $0x36,%zmm15,%zmm23,%zmm27
  40b892:	62 13 45 40 25 fa 6a 	vpternlogd $0x6a,%zmm26,%zmm23,%zmm15
  40b899:	62 03 1d 40 25 eb 96 	vpternlogd $0x96,%zmm27,%zmm28,%zmm29
  40b8a0:	62 61 7c 48 11 6c 24 	vmovups %zmm29,0x4c0(%rsp)
  40b8a7:	13 
  40b8a8:	62 11 15 48 ef ec    	vpxord %zmm28,%zmm13,%zmm13
  40b8ae:	62 f1 75 48 ef 8e 00 	vpxord 0x13000(%rsi),%zmm1,%zmm1
  40b8b5:	30 01 00 
  40b8b8:	62 03 15 48 25 d3 6c 	vpternlogd $0x6c,%zmm27,%zmm13,%zmm26
  40b8bf:	62 13 05 48 25 eb 56 	vpternlogd $0x56,%zmm27,%zmm15,%zmm13
  40b8c6:	62 41 7d 48 ef da    	vpxord %zmm10,%zmm0,%zmm27
  40b8cc:	62 81 5d 40 ef f9    	vpxord %zmm25,%zmm20,%zmm23
  40b8d2:	62 03 75 48 25 cb 36 	vpternlogd $0x36,%zmm27,%zmm1,%zmm25
  40b8d9:	62 23 75 48 25 df 6a 	vpternlogd $0x6a,%zmm23,%zmm1,%zmm27
  40b8e0:	62 f1 25 40 ef 8e 00 	vpxord 0x14000(%rsi),%zmm27,%zmm1
  40b8e7:	40 01 00 
  40b8ea:	62 f1 7c 48 11 4c 24 	vmovups %zmm1,0xc0(%rsp)
  40b8f1:	03 
  40b8f2:	62 f1 7c 48 10 8e c0 	vmovups 0x147c0(%rsi),%zmm1
  40b8f9:	47 01 00 
  40b8fc:	62 93 5d 40 25 c9 96 	vpternlogd $0x96,%zmm25,%zmm20,%zmm1
  40b903:	62 f1 7c 48 11 0c 24 	vmovups %zmm1,(%rsp)
  40b90a:	62 e1 6d 40 ef 96 40 	vpxord 0x13840(%rsi),%zmm18,%zmm18
  40b911:	38 01 00 
  40b914:	62 e1 65 40 ef 9e 40 	vpxord 0x13c40(%rsi),%zmm19,%zmm19
  40b91b:	3c 01 00 
  40b91e:	62 31 2d 48 ef d4    	vpxord %zmm20,%zmm10,%zmm10
  40b924:	62 71 3d 48 ef 86 40 	vpxord 0x13040(%rsi),%zmm8,%zmm8
  40b92b:	30 01 00 
  40b92e:	62 83 2d 48 25 f9 6c 	vpternlogd $0x6c,%zmm25,%zmm10,%zmm23
  40b935:	62 13 25 40 25 d1 56 	vpternlogd $0x56,%zmm25,%zmm27,%zmm10
  40b93c:	62 e1 7c 48 10 64 24 	vmovups 0x18c0(%rsp),%zmm20
  40b943:	63 
  40b944:	62 01 7d 48 ef cf    	vpxord %zmm31,%zmm0,%zmm25
  40b94a:	62 b1 6d 40 ef cb    	vpxord %zmm19,%zmm18,%zmm1
  40b950:	62 83 3d 48 25 d9 36 	vpternlogd $0x36,%zmm25,%zmm8,%zmm19
  40b957:	62 63 3d 48 25 c9 6a 	vpternlogd $0x6a,%zmm1,%zmm8,%zmm25
  40b95e:	62 71 35 40 ef 86 40 	vpxord 0x14040(%rsi),%zmm25,%zmm8
  40b965:	40 01 00 
  40b968:	62 71 7c 48 11 44 24 	vmovups %zmm8,0x2c0(%rsp)
  40b96f:	0b 
  40b970:	62 71 7c 48 10 86 00 	vmovups 0x14400(%rsi),%zmm8
  40b977:	44 01 00 
  40b97a:	62 33 6d 40 25 c3 96 	vpternlogd $0x96,%zmm19,%zmm18,%zmm8
  40b981:	62 71 7c 48 11 44 24 	vmovups %zmm8,0x480(%rsp)
  40b988:	12 
  40b989:	62 61 05 48 ef 86 c0 	vpxord 0x133c0(%rsi),%zmm15,%zmm24
  40b990:	33 01 00 
  40b993:	62 21 05 40 ef fa    	vpxord %zmm18,%zmm31,%zmm31
  40b999:	62 71 2d 40 ef be 80 	vpxord 0x13c80(%rsi),%zmm26,%zmm15
  40b9a0:	3c 01 00 
  40b9a3:	62 b3 05 40 25 cb 6c 	vpternlogd $0x6c,%zmm19,%zmm31,%zmm1
  40b9aa:	62 23 35 40 25 fb 56 	vpternlogd $0x56,%zmm19,%zmm25,%zmm31
  40b9b1:	62 61 7c 48 11 44 24 	vmovups %zmm24,0x80(%rsp)
  40b9b8:	02 
  40b9b9:	62 e1 7c 48 10 5c 24 	vmovups 0x1840(%rsp),%zmm19
  40b9c0:	61 
  40b9c1:	62 e1 7c 48 10 54 24 	vmovups 0x1880(%rsp),%zmm18
  40b9c8:	62 
  40b9c9:	62 61 0d 40 ef b6 80 	vpxord 0x13080(%rsi),%zmm30,%zmm30
  40b9d0:	30 01 00 
  40b9d3:	62 61 2d 48 ef 96 00 	vpxord 0x14900(%rsi),%zmm10,%zmm26
  40b9da:	49 01 00 
  40b9dd:	62 51 7d 48 ef d1    	vpxord %zmm9,%zmm0,%zmm10
  40b9e3:	62 41 0d 48 ef c7    	vpxord %zmm15,%zmm14,%zmm24
  40b9e9:	62 53 0d 40 25 fa 36 	vpternlogd $0x36,%zmm10,%zmm30,%zmm15
  40b9f0:	62 13 0d 40 25 d0 6a 	vpternlogd $0x6a,%zmm24,%zmm30,%zmm10
  40b9f7:	62 61 7c 48 11 54 24 	vmovups %zmm26,0x680(%rsp)
  40b9fe:	1a 
  40b9ff:	62 61 7c 48 10 74 24 	vmovups 0x17c0(%rsp),%zmm30
  40ba06:	5f 
  40ba07:	62 61 05 40 ef 8e 40 	vpxord 0x14940(%rsi),%zmm31,%zmm25
  40ba0e:	49 01 00 
  40ba11:	62 51 35 48 ef c6    	vpxord %zmm14,%zmm9,%zmm8
  40ba17:	62 71 2d 48 ef 8e 80 	vpxord 0x14080(%rsi),%zmm10,%zmm9
  40ba1e:	40 01 00 
  40ba21:	62 61 7c 48 11 4c 24 	vmovups %zmm25,0x5c0(%rsp)
  40ba28:	17 
  40ba29:	62 71 7c 48 11 4c 24 	vmovups %zmm9,0x300(%rsp)
  40ba30:	0c 
  40ba31:	62 43 3d 48 25 c7 6c 	vpternlogd $0x6c,%zmm15,%zmm8,%zmm24
  40ba38:	62 53 2d 48 25 c7 56 	vpternlogd $0x56,%zmm15,%zmm10,%zmm8
  40ba3f:	62 71 7c 48 10 54 24 	vmovups 0x1900(%rsp),%zmm10
  40ba46:	64 
  40ba47:	62 61 45 40 ef 96 c0 	vpxord 0x14cc0(%rsi),%zmm23,%zmm26
  40ba4e:	4c 01 00 
  40ba51:	62 61 75 48 ef 8e 00 	vpxord 0x14d00(%rsi),%zmm1,%zmm25
  40ba58:	4d 01 00 
  40ba5b:	62 f1 6d 48 ef 96 00 	vpxord 0x13900(%rsi),%zmm2,%zmm2
  40ba62:	39 01 00 
  40ba65:	62 71 15 48 ef ae c0 	vpxord 0x138c0(%rsi),%zmm13,%zmm13
  40ba6c:	38 01 00 
  40ba6f:	62 f1 55 48 ef ae 00 	vpxord 0x13a00(%rsi),%zmm5,%zmm5
  40ba76:	3a 01 00 
  40ba79:	62 f1 4d 48 ef b6 c0 	vpxord 0x13dc0(%rsi),%zmm6,%zmm6
  40ba80:	3d 01 00 
  40ba83:	62 71 1d 48 ef a6 80 	vpxord 0x13a80(%rsi),%zmm12,%zmm12
  40ba8a:	3a 01 00 
  40ba8d:	62 71 25 48 ef 9e 40 	vpxord 0x13e40(%rsi),%zmm11,%zmm11
  40ba94:	3e 01 00 
  40ba97:	62 f1 7c 48 10 4c 24 	vmovups 0x1800(%rsp),%zmm1
  40ba9e:	60 
  40ba9f:	62 e1 7c 48 10 7c 24 	vmovups 0x1940(%rsp),%zmm23
  40baa6:	65 
  40baa7:	62 71 3d 48 ef 8e 80 	vpxord 0x14980(%rsi),%zmm8,%zmm9
  40baae:	49 01 00 
  40bab1:	62 71 7c 48 10 86 40 	vmovups 0x14440(%rsi),%zmm8
  40bab8:	44 01 00 
  40babb:	62 61 7c 48 10 6c 24 	vmovups 0x340(%rsp),%zmm29
  40bac2:	0d 
  40bac3:	62 61 7c 48 10 7c 24 	vmovups 0x380(%rsp),%zmm31
  40baca:	0e 
  40bacb:	62 53 0d 48 25 c7 96 	vpternlogd $0x96,%zmm15,%zmm14,%zmm8
  40bad2:	62 71 7c 48 10 7c 24 	vmovups 0x640(%rsp),%zmm15
  40bad9:	19 
  40bada:	62 41 7d 48 ef df    	vpxord %zmm15,%zmm0,%zmm27
  40bae0:	62 11 15 48 ef f6    	vpxord %zmm30,%zmm13,%zmm14
  40bae6:	62 03 15 40 25 f3 36 	vpternlogd $0x36,%zmm27,%zmm29,%zmm30
  40baed:	62 43 15 40 25 de 6a 	vpternlogd $0x6a,%zmm14,%zmm29,%zmm27
  40baf4:	62 41 05 48 ef e5    	vpxord %zmm13,%zmm15,%zmm28
  40bafa:	62 13 1d 40 25 f6 6c 	vpternlogd $0x6c,%zmm30,%zmm28,%zmm14
  40bb01:	62 03 25 40 25 e6 56 	vpternlogd $0x56,%zmm30,%zmm27,%zmm28
  40bb08:	62 61 1d 40 ef ae c0 	vpxord 0x149c0(%rsi),%zmm28,%zmm29
  40bb0f:	49 01 00 
  40bb12:	62 61 7c 48 10 a6 80 	vmovups 0x14480(%rsi),%zmm28
  40bb19:	44 01 00 
  40bb1c:	62 03 15 48 25 e6 96 	vpternlogd $0x96,%zmm30,%zmm13,%zmm28
  40bb23:	62 71 7c 48 10 6c 24 	vmovups 0x740(%rsp),%zmm13
  40bb2a:	1d 
  40bb2b:	62 71 25 40 ef be c0 	vpxord 0x140c0(%rsi),%zmm27,%zmm15
  40bb32:	40 01 00 
  40bb35:	62 61 0d 48 ef 9e 80 	vpxord 0x14d80(%rsi),%zmm14,%zmm27
  40bb3c:	4d 01 00 
  40bb3f:	62 51 7d 48 ef f5    	vpxord %zmm13,%zmm0,%zmm14
  40bb45:	62 21 6d 48 ef f3    	vpxord %zmm19,%zmm2,%zmm30
  40bb4b:	62 c3 05 40 25 de 36 	vpternlogd $0x36,%zmm14,%zmm31,%zmm19
  40bb52:	62 13 05 40 25 f6 6a 	vpternlogd $0x6a,%zmm30,%zmm31,%zmm14
  40bb59:	62 61 7c 48 10 7c 24 	vmovups 0x3c0(%rsp),%zmm31
  40bb60:	0f 
  40bb61:	62 71 15 48 ef ea    	vpxord %zmm2,%zmm13,%zmm13
  40bb67:	62 23 15 48 25 f3 6c 	vpternlogd $0x6c,%zmm19,%zmm13,%zmm30
  40bb6e:	62 33 0d 48 25 eb 56 	vpternlogd $0x56,%zmm19,%zmm14,%zmm13
  40bb75:	62 71 15 48 ef ae 00 	vpxord 0x14a00(%rsi),%zmm13,%zmm13
  40bb7c:	4a 01 00 
  40bb7f:	62 71 7c 48 11 6c 24 	vmovups %zmm13,0x1380(%rsp)
  40bb86:	4e 
  40bb87:	62 71 7c 48 10 ae c0 	vmovups 0x144c0(%rsi),%zmm13
  40bb8e:	44 01 00 
  40bb91:	62 33 6d 48 25 eb 96 	vpternlogd $0x96,%zmm19,%zmm2,%zmm13
  40bb98:	62 e1 7c 48 10 5c 24 	vmovups 0x500(%rsp),%zmm19
  40bb9f:	14 
  40bba0:	62 61 0d 40 ef b6 c0 	vpxord 0x14dc0(%rsi),%zmm30,%zmm30
  40bba7:	4d 01 00 
  40bbaa:	62 61 7c 48 11 74 24 	vmovups %zmm30,0x13c0(%rsp)
  40bbb1:	4f 
  40bbb2:	62 b1 7d 48 ef d3    	vpxord %zmm19,%zmm0,%zmm2
  40bbb8:	62 21 75 48 ef f4    	vpxord %zmm20,%zmm1,%zmm30
  40bbbe:	62 e3 05 40 25 e2 36 	vpternlogd $0x36,%zmm2,%zmm31,%zmm20
  40bbc5:	62 93 05 40 25 d6 6a 	vpternlogd $0x6a,%zmm30,%zmm31,%zmm2
  40bbcc:	62 61 7c 48 10 7c 24 	vmovups 0x400(%rsp),%zmm31
  40bbd3:	10 
  40bbd4:	62 e1 65 40 ef d9    	vpxord %zmm1,%zmm19,%zmm19
  40bbda:	62 23 65 40 25 f4 6c 	vpternlogd $0x6c,%zmm20,%zmm19,%zmm30
  40bbe1:	62 a3 6d 48 25 dc 56 	vpternlogd $0x56,%zmm20,%zmm2,%zmm19
  40bbe8:	62 e1 65 40 ef 9e 40 	vpxord 0x14a40(%rsi),%zmm19,%zmm19
  40bbef:	4a 01 00 
  40bbf2:	62 e1 7c 48 11 5c 24 	vmovups %zmm19,0x1400(%rsp)
  40bbf9:	50 
  40bbfa:	62 e1 7c 48 10 9e 00 	vmovups 0x14500(%rsi),%zmm19
  40bc01:	45 01 00 
  40bc04:	62 a3 75 48 25 dc 96 	vpternlogd $0x96,%zmm20,%zmm1,%zmm19
  40bc0b:	62 e1 7c 48 10 64 24 	vmovups 0x800(%rsp),%zmm20
  40bc12:	20 
  40bc13:	62 61 0d 40 ef b6 00 	vpxord 0x14e00(%rsi),%zmm30,%zmm30
  40bc1a:	4e 01 00 
  40bc1d:	62 61 7c 48 11 74 24 	vmovups %zmm30,0x1440(%rsp)
  40bc24:	51 
  40bc25:	62 b1 7d 48 ef cc    	vpxord %zmm20,%zmm0,%zmm1
  40bc2b:	62 21 6d 40 ef f7    	vpxord %zmm23,%zmm18,%zmm30
  40bc31:	62 e3 05 40 25 f9 36 	vpternlogd $0x36,%zmm1,%zmm31,%zmm23
  40bc38:	62 93 05 40 25 ce 6a 	vpternlogd $0x6a,%zmm30,%zmm31,%zmm1
  40bc3f:	62 61 7c 48 10 7c 24 	vmovups 0x440(%rsp),%zmm31
  40bc46:	11 
  40bc47:	62 a1 5d 40 ef e2    	vpxord %zmm18,%zmm20,%zmm20
  40bc4d:	62 23 5d 40 25 f7 6c 	vpternlogd $0x6c,%zmm23,%zmm20,%zmm30
  40bc54:	62 a3 75 48 25 e7 56 	vpternlogd $0x56,%zmm23,%zmm1,%zmm20
  40bc5b:	62 e1 5d 40 ef a6 80 	vpxord 0x14a80(%rsi),%zmm20,%zmm20
  40bc62:	4a 01 00 
  40bc65:	62 e1 7c 48 11 64 24 	vmovups %zmm20,0x1480(%rsp)
  40bc6c:	52 
  40bc6d:	62 e1 7c 48 10 a6 40 	vmovups 0x14540(%rsi),%zmm20
  40bc74:	45 01 00 
  40bc77:	62 a3 6d 40 25 e7 96 	vpternlogd $0x96,%zmm23,%zmm18,%zmm20
  40bc7e:	62 e1 7c 48 10 54 24 	vmovups 0x780(%rsp),%zmm18
  40bc85:	1e 
  40bc86:	62 61 0d 40 ef b6 40 	vpxord 0x14e40(%rsi),%zmm30,%zmm30
  40bc8d:	4e 01 00 
  40bc90:	62 61 7c 48 11 74 24 	vmovups %zmm30,0x14c0(%rsp)
  40bc97:	53 
  40bc98:	62 a1 7d 48 ef fa    	vpxord %zmm18,%zmm0,%zmm23
  40bc9e:	62 61 2d 48 ef f6    	vpxord %zmm6,%zmm10,%zmm30
  40bca4:	62 b3 05 40 25 f7 36 	vpternlogd $0x36,%zmm23,%zmm31,%zmm6
  40bcab:	62 83 05 40 25 fe 6a 	vpternlogd $0x6a,%zmm30,%zmm31,%zmm23
  40bcb2:	62 61 7c 48 10 7c 24 	vmovups 0x280(%rsp),%zmm31
  40bcb9:	0a 
  40bcba:	62 c1 6d 40 ef d2    	vpxord %zmm10,%zmm18,%zmm18
  40bcc0:	62 63 6d 40 25 f6 6c 	vpternlogd $0x6c,%zmm6,%zmm18,%zmm30
  40bcc7:	62 e3 45 40 25 d6 56 	vpternlogd $0x56,%zmm6,%zmm23,%zmm18
  40bcce:	62 e1 6d 40 ef 96 c0 	vpxord 0x14ac0(%rsi),%zmm18,%zmm18
  40bcd5:	4a 01 00 
  40bcd8:	62 e1 7c 48 11 54 24 	vmovups %zmm18,0x1500(%rsp)
  40bcdf:	54 
  40bce0:	62 e1 7c 48 10 96 80 	vmovups 0x14580(%rsi),%zmm18
  40bce7:	45 01 00 
  40bcea:	62 e3 2d 48 25 d6 96 	vpternlogd $0x96,%zmm6,%zmm10,%zmm18
  40bcf1:	62 f1 7c 48 10 74 24 	vmovups 0x880(%rsp),%zmm6
  40bcf8:	22 
  40bcf9:	62 61 0d 40 ef b6 80 	vpxord 0x14e80(%rsi),%zmm30,%zmm30
  40bd00:	4e 01 00 
  40bd03:	62 61 7c 48 11 74 24 	vmovups %zmm30,0x1540(%rsp)
  40bd0a:	55 
  40bd0b:	62 61 7d 48 ef f6    	vpxord %zmm6,%zmm0,%zmm30
  40bd11:	62 71 55 48 ef d4    	vpxord %zmm4,%zmm5,%zmm10
  40bd17:	62 93 05 40 25 e6 36 	vpternlogd $0x36,%zmm30,%zmm31,%zmm4
  40bd1e:	62 43 05 40 25 f2 6a 	vpternlogd $0x6a,%zmm10,%zmm31,%zmm30
  40bd25:	62 61 7c 48 10 7c 24 	vmovups 0x100(%rsp),%zmm31
  40bd2c:	04 
  40bd2d:	62 f1 4d 48 ef f5    	vpxord %zmm5,%zmm6,%zmm6
  40bd33:	62 73 4d 48 25 d4 6c 	vpternlogd $0x6c,%zmm4,%zmm6,%zmm10
  40bd3a:	62 f3 0d 40 25 f4 56 	vpternlogd $0x56,%zmm4,%zmm30,%zmm6
  40bd41:	62 f1 4d 48 ef b6 00 	vpxord 0x14b00(%rsi),%zmm6,%zmm6
  40bd48:	4b 01 00 
  40bd4b:	62 f1 7c 48 11 74 24 	vmovups %zmm6,0x15c0(%rsp)
  40bd52:	57 
  40bd53:	62 f1 7c 48 10 b6 c0 	vmovups 0x145c0(%rsi),%zmm6
  40bd5a:	45 01 00 
  40bd5d:	62 f3 55 48 25 f4 96 	vpternlogd $0x96,%zmm4,%zmm5,%zmm6
  40bd64:	62 f1 7c 48 10 64 24 	vmovups 0x840(%rsp),%zmm4
  40bd6b:	21 
  40bd6c:	62 61 0d 40 ef b6 00 	vpxord 0x14200(%rsi),%zmm30,%zmm30
  40bd73:	42 01 00 
  40bd76:	62 61 7c 48 11 74 24 	vmovups %zmm30,0x1580(%rsp)
  40bd7d:	56 
  40bd7e:	62 61 7c 48 10 74 24 	vmovups 0x980(%rsp),%zmm30
  40bd85:	26 
  40bd86:	62 71 2d 48 ef 96 c0 	vpxord 0x14ec0(%rsi),%zmm10,%zmm10
  40bd8d:	4e 01 00 
  40bd90:	62 71 7c 48 11 54 24 	vmovups %zmm10,0x1600(%rsp)
  40bd97:	58 
  40bd98:	62 f1 7d 48 ef ec    	vpxord %zmm4,%zmm0,%zmm5
  40bd9e:	62 51 0d 40 ef d3    	vpxord %zmm11,%zmm30,%zmm10
  40bda4:	62 73 05 40 25 dd 36 	vpternlogd $0x36,%zmm5,%zmm31,%zmm11
  40bdab:	62 d3 05 40 25 ea 6a 	vpternlogd $0x6a,%zmm10,%zmm31,%zmm5
  40bdb2:	62 91 5d 48 ef e6    	vpxord %zmm30,%zmm4,%zmm4
  40bdb8:	62 53 5d 48 25 d3 6c 	vpternlogd $0x6c,%zmm11,%zmm4,%zmm10
  40bdbf:	62 d3 55 48 25 e3 56 	vpternlogd $0x56,%zmm11,%zmm5,%zmm4
  40bdc6:	62 f1 5d 48 ef a6 40 	vpxord 0x14b40(%rsi),%zmm4,%zmm4
  40bdcd:	4b 01 00 
  40bdd0:	62 f1 7c 48 11 64 24 	vmovups %zmm4,0x1680(%rsp)
  40bdd7:	5a 
  40bdd8:	62 f1 7c 48 10 a6 00 	vmovups 0x14600(%rsi),%zmm4
  40bddf:	46 01 00 
  40bde2:	62 d3 0d 40 25 e3 96 	vpternlogd $0x96,%zmm11,%zmm30,%zmm4
  40bde9:	62 71 7c 48 10 5c 24 	vmovups 0x700(%rsp),%zmm11
  40bdf0:	1c 
  40bdf1:	62 f1 55 48 ef ae 40 	vpxord 0x14240(%rsi),%zmm5,%zmm5
  40bdf8:	42 01 00 
  40bdfb:	62 f1 7c 48 11 6c 24 	vmovups %zmm5,0x1640(%rsp)
  40be02:	59 
  40be03:	62 f1 7c 48 10 6c 24 	vmovups 0x140(%rsp),%zmm5
  40be0a:	05 
  40be0b:	62 71 2d 48 ef 96 00 	vpxord 0x14f00(%rsi),%zmm10,%zmm10
  40be12:	4f 01 00 
  40be15:	62 41 7d 48 ef f3    	vpxord %zmm11,%zmm0,%zmm30
  40be1b:	62 71 7c 48 11 54 24 	vmovups %zmm10,0x16c0(%rsp)
  40be22:	5b 
  40be23:	62 51 25 48 ef d4    	vpxord %zmm12,%zmm11,%zmm10
  40be29:	62 71 1d 48 ef df    	vpxord %zmm7,%zmm12,%zmm11
  40be2f:	62 93 55 48 25 fe 36 	vpternlogd $0x36,%zmm30,%zmm5,%zmm7
  40be36:	62 43 55 48 25 f3 6a 	vpternlogd $0x6a,%zmm11,%zmm5,%zmm30
  40be3d:	62 73 2d 48 25 df 6c 	vpternlogd $0x6c,%zmm7,%zmm10,%zmm11
  40be44:	62 73 0d 40 25 d7 56 	vpternlogd $0x56,%zmm7,%zmm30,%zmm10
  40be4b:	62 71 25 48 ef 9e 40 	vpxord 0x14f40(%rsi),%zmm11,%zmm11
  40be52:	4f 01 00 
  40be55:	62 71 7c 48 11 5c 24 	vmovups %zmm11,0xdc0(%rsp)
  40be5c:	37 
  40be5d:	62 71 7c 48 10 9e 40 	vmovups 0x14640(%rsi),%zmm11
  40be64:	46 01 00 
  40be67:	62 73 1d 48 25 df 96 	vpternlogd $0x96,%zmm7,%zmm12,%zmm11
  40be6e:	62 f1 7c 48 10 7c 24 	vmovups 0x7c0(%rsp),%zmm7
  40be75:	1f 
  40be76:	62 71 7c 48 10 64 24 	vmovups 0x180(%rsp),%zmm12
  40be7d:	06 
  40be7e:	62 f1 2d 48 ef ae 80 	vpxord 0x14b80(%rsi),%zmm10,%zmm5
  40be85:	4b 01 00 
  40be88:	62 71 7c 48 10 54 24 	vmovups 0x940(%rsp),%zmm10
  40be8f:	25 
  40be90:	62 f1 7c 48 11 6c 24 	vmovups %zmm5,0x1740(%rsp)
  40be97:	5d 
  40be98:	62 61 0d 40 ef be 80 	vpxord 0x14280(%rsi),%zmm30,%zmm31
  40be9f:	42 01 00 
  40bea2:	62 f1 7d 48 ef ef    	vpxord %zmm7,%zmm0,%zmm5
  40bea8:	62 41 45 48 ef f2    	vpxord %zmm10,%zmm7,%zmm30
  40beae:	62 f1 2d 48 ef fb    	vpxord %zmm3,%zmm10,%zmm7
  40beb4:	62 f3 1d 48 25 dd 36 	vpternlogd $0x36,%zmm5,%zmm12,%zmm3
  40bebb:	62 f3 1d 48 25 ef 6a 	vpternlogd $0x6a,%zmm7,%zmm12,%zmm5
  40bec2:	62 61 7c 48 11 7c 24 	vmovups %zmm31,0x1700(%rsp)
  40bec9:	5c 
  40beca:	62 f3 0d 40 25 fb 6c 	vpternlogd $0x6c,%zmm3,%zmm30,%zmm7
  40bed1:	62 63 55 48 25 f3 56 	vpternlogd $0x56,%zmm3,%zmm5,%zmm30
  40bed8:	62 71 55 48 ef a6 c0 	vpxord 0x142c0(%rsi),%zmm5,%zmm12
  40bedf:	42 01 00 
  40bee2:	62 f1 7c 48 10 ae 80 	vmovups 0x14680(%rsi),%zmm5
  40bee9:	46 01 00 
  40beec:	62 71 7c 48 11 64 24 	vmovups %zmm12,0x1780(%rsp)
  40bef3:	5e 
  40bef4:	62 f3 2d 48 25 eb 96 	vpternlogd $0x96,%zmm3,%zmm10,%zmm5
  40befb:	62 71 7c 48 10 54 24 	vmovups 0x6c0(%rsp),%zmm10
  40bf02:	1b 
  40bf03:	62 f1 7c 48 10 5c 24 	vmovups 0x540(%rsp),%zmm3
  40bf0a:	15 
  40bf0b:	62 f1 7c 48 11 6c 24 	vmovups %zmm5,0x1840(%rsp)
  40bf12:	61 
  40bf13:	62 d1 7d 48 ef ea    	vpxord %zmm10,%zmm0,%zmm5
  40bf19:	62 71 2d 48 ef e3    	vpxord %zmm3,%zmm10,%zmm12
  40bf1f:	62 71 7c 48 10 54 24 	vmovups 0x1c0(%rsp),%zmm10
  40bf26:	07 
  40bf27:	62 61 0d 40 ef be c0 	vpxord 0x14bc0(%rsi),%zmm30,%zmm31
  40bf2e:	4b 01 00 
  40bf31:	62 21 65 48 ef f6    	vpxord %zmm22,%zmm3,%zmm30
  40bf37:	62 e3 2d 48 25 f5 36 	vpternlogd $0x36,%zmm5,%zmm10,%zmm22
  40bf3e:	62 93 2d 48 25 ee 6a 	vpternlogd $0x6a,%zmm30,%zmm10,%zmm5
  40bf45:	62 71 7c 48 10 96 c0 	vmovups 0x146c0(%rsi),%zmm10
  40bf4c:	46 01 00 
  40bf4f:	62 61 7c 48 11 7c 24 	vmovups %zmm31,0x17c0(%rsp)
  40bf56:	5f 
  40bf57:	62 23 1d 48 25 f6 6c 	vpternlogd $0x6c,%zmm22,%zmm12,%zmm30
  40bf5e:	62 33 65 48 25 d6 96 	vpternlogd $0x96,%zmm22,%zmm3,%zmm10
  40bf65:	62 33 55 48 25 e6 56 	vpternlogd $0x56,%zmm22,%zmm5,%zmm12
  40bf6c:	62 e1 7c 48 10 74 24 	vmovups 0x580(%rsp),%zmm22
  40bf73:	16 
  40bf74:	62 71 7c 48 11 54 24 	vmovups %zmm10,0x1900(%rsp)
  40bf7b:	64 
  40bf7c:	62 71 7c 48 10 54 24 	vmovups 0x200(%rsp),%zmm10
  40bf83:	08 
  40bf84:	62 61 0d 40 ef be c0 	vpxord 0x14fc0(%rsi),%zmm30,%zmm31
  40bf8b:	4f 01 00 
  40bf8e:	62 61 7c 48 10 74 24 	vmovups 0x600(%rsp),%zmm30
  40bf95:	18 
  40bf96:	62 61 7c 48 11 7c 24 	vmovups %zmm31,0x18c0(%rsp)
  40bf9d:	63 
  40bf9e:	62 f1 45 48 ef be 80 	vpxord 0x14f80(%rsi),%zmm7,%zmm7
  40bfa5:	4f 01 00 
  40bfa8:	62 f1 7c 48 11 7c 24 	vmovups %zmm7,0x1800(%rsp)
  40bfaf:	60 
  40bfb0:	62 f1 55 48 ef be 00 	vpxord 0x14300(%rsi),%zmm5,%zmm7
  40bfb7:	43 01 00 
  40bfba:	62 b1 7d 48 ef ee    	vpxord %zmm22,%zmm0,%zmm5
  40bfc0:	62 21 0d 40 ef fd    	vpxord %zmm21,%zmm30,%zmm31
  40bfc6:	62 e3 2d 48 25 ed 36 	vpternlogd $0x36,%zmm5,%zmm10,%zmm21
  40bfcd:	62 93 2d 48 25 ef 6a 	vpternlogd $0x6a,%zmm31,%zmm10,%zmm5
  40bfd4:	62 71 7c 48 10 96 00 	vmovups 0x14700(%rsi),%zmm10
  40bfdb:	47 01 00 
  40bfde:	62 f1 7c 48 11 7c 24 	vmovups %zmm7,0x1880(%rsp)
  40bfe5:	62 
  40bfe6:	62 33 0d 40 25 d5 96 	vpternlogd $0x96,%zmm21,%zmm30,%zmm10
  40bfed:	62 71 7c 48 11 54 24 	vmovups %zmm10,0x1980(%rsp)
  40bff4:	66 
  40bff5:	62 f1 1d 48 ef be 00 	vpxord 0x14800(%rsi),%zmm12,%zmm7
  40bffc:	48 01 00 
  40bfff:	62 11 4d 40 ef e6    	vpxord %zmm30,%zmm22,%zmm12
  40c005:	62 23 1d 48 25 fd 6c 	vpternlogd $0x6c,%zmm21,%zmm12,%zmm31
  40c00c:	62 33 55 48 25 e5 56 	vpternlogd $0x56,%zmm21,%zmm5,%zmm12
  40c013:	62 e1 7c 48 10 6c 24 	vmovups 0x4c0(%rsp),%zmm21
  40c01a:	13 
  40c01b:	62 61 7c 48 10 74 24 	vmovups 0x240(%rsp),%zmm30
  40c022:	09 
  40c023:	62 f1 55 48 ef 9e 40 	vpxord 0x14340(%rsi),%zmm5,%zmm3
  40c02a:	43 01 00 
  40c02d:	62 f1 7c 48 11 5c 24 	vmovups %zmm3,0x1940(%rsp)
  40c034:	65 
  40c035:	62 f1 05 40 ef 9e 00 	vpxord 0x14c00(%rsi),%zmm31,%zmm3
  40c03c:	4c 01 00 
  40c03f:	62 61 7c 48 10 7c 24 	vmovups 0x900(%rsp),%zmm31
  40c046:	24 
  40c047:	62 e1 1d 48 ef b6 40 	vpxord 0x14840(%rsi),%zmm12,%zmm22
  40c04e:	48 01 00 
  40c051:	62 b1 7d 48 ef ed    	vpxord %zmm21,%zmm0,%zmm5
  40c057:	62 11 55 40 ef e7    	vpxord %zmm31,%zmm21,%zmm12
  40c05d:	62 a1 05 40 ef e9    	vpxord %zmm17,%zmm31,%zmm21
  40c063:	62 e3 0d 40 25 cd 36 	vpternlogd $0x36,%zmm5,%zmm30,%zmm17
  40c06a:	62 b3 0d 40 25 ed 6a 	vpternlogd $0x6a,%zmm21,%zmm30,%zmm5
  40c071:	62 a3 1d 48 25 e9 6c 	vpternlogd $0x6c,%zmm17,%zmm12,%zmm21
  40c078:	62 33 55 48 25 e1 56 	vpternlogd $0x56,%zmm17,%zmm5,%zmm12
  40c07f:	62 71 55 48 ef 96 80 	vpxord 0x14380(%rsi),%zmm5,%zmm10
  40c086:	43 01 00 
  40c089:	62 71 7c 48 11 54 24 	vmovups %zmm10,0xa80(%rsp)
  40c090:	2a 
  40c091:	62 71 7c 48 10 96 40 	vmovups 0x14740(%rsi),%zmm10
  40c098:	47 01 00 
  40c09b:	62 f1 7c 48 10 6c 24 	vmovups 0x8c0(%rsp),%zmm5
  40c0a2:	23 
  40c0a3:	62 33 05 40 25 d1 96 	vpternlogd $0x96,%zmm17,%zmm31,%zmm10
  40c0aa:	62 e1 7c 48 10 4c 24 	vmovups 0x40(%rsp),%zmm17
  40c0b1:	01 
  40c0b2:	62 61 7c 48 10 7c 24 	vmovups 0x80(%rsp),%zmm31
  40c0b9:	02 
  40c0ba:	62 71 7c 48 11 54 24 	vmovups %zmm10,0x19c0(%rsp)
  40c0c1:	67 
  40c0c2:	62 61 1d 48 ef b6 80 	vpxord 0x14880(%rsi),%zmm12,%zmm30
  40c0c9:	48 01 00 
  40c0cc:	62 31 7d 48 ef e1    	vpxord %zmm17,%zmm0,%zmm12
  40c0d2:	62 71 75 40 ef d5    	vpxord %zmm5,%zmm17,%zmm10
  40c0d8:	62 a1 55 48 ef c8    	vpxord %zmm16,%zmm5,%zmm17
  40c0de:	62 c3 05 40 25 c4 36 	vpternlogd $0x36,%zmm12,%zmm31,%zmm16
  40c0e5:	62 33 05 40 25 e1 6a 	vpternlogd $0x6a,%zmm17,%zmm31,%zmm12
  40c0ec:	62 a3 2d 48 25 c8 6c 	vpternlogd $0x6c,%zmm16,%zmm10,%zmm17
  40c0f3:	62 33 1d 48 25 d0 56 	vpternlogd $0x56,%zmm16,%zmm12,%zmm10
  40c0fa:	62 71 1d 48 ef a6 c0 	vpxord 0x143c0(%rsi),%zmm12,%zmm12
  40c101:	43 01 00 
  40c104:	62 71 7c 48 11 64 24 	vmovups %zmm12,0xa00(%rsp)
  40c10b:	28 
  40c10c:	62 71 2d 48 ef a6 c0 	vpxord 0x148c0(%rsi),%zmm10,%zmm12
  40c113:	48 01 00 
  40c116:	62 71 7c 48 10 96 80 	vmovups 0x14780(%rsi),%zmm10
  40c11d:	47 01 00 
  40c120:	62 33 55 48 25 d0 96 	vpternlogd $0x96,%zmm16,%zmm5,%zmm10
  40c127:	62 e1 7c 48 10 44 24 	vmovups 0x480(%rsp),%zmm16
  40c12e:	12 
  40c12f:	62 71 7c 48 11 54 24 	vmovups %zmm10,0xe40(%rsp)
  40c136:	39 
  40c137:	62 b1 7d 48 ef e8    	vpxord %zmm16,%zmm0,%zmm5
  40c13d:	62 71 7d 40 ef d7    	vpxord %zmm7,%zmm16,%zmm10
  40c143:	62 e1 7c 48 10 44 24 	vmovups 0xc0(%rsp),%zmm16
  40c14a:	03 
  40c14b:	62 61 45 48 ef fb    	vpxord %zmm3,%zmm7,%zmm31
  40c151:	62 f3 7d 40 25 dd 36 	vpternlogd $0x36,%zmm5,%zmm16,%zmm3
  40c158:	62 93 7d 40 25 ef 6a 	vpternlogd $0x6a,%zmm31,%zmm16,%zmm5
  40c15f:	62 63 2d 48 25 fb 6c 	vpternlogd $0x6c,%zmm3,%zmm10,%zmm31
  40c166:	62 73 55 48 25 d3 56 	vpternlogd $0x56,%zmm3,%zmm5,%zmm10
  40c16d:	62 f1 55 48 ef ae 00 	vpxord 0x15000(%rsi),%zmm5,%zmm5
  40c174:	50 01 00 
  40c177:	62 f1 7c 48 11 6c 24 	vmovups %zmm5,0xa40(%rsp)
  40c17e:	29 
  40c17f:	62 f1 2d 48 ef ae 00 	vpxord 0x15900(%rsi),%zmm10,%zmm5
  40c186:	59 01 00 
  40c189:	62 71 05 40 ef 96 c0 	vpxord 0x15cc0(%rsi),%zmm31,%zmm10
  40c190:	5c 01 00 
  40c193:	62 61 7c 48 10 be c0 	vmovups 0x157c0(%rsi),%zmm31
  40c19a:	57 01 00 
  40c19d:	62 63 45 48 25 fb 96 	vpternlogd $0x96,%zmm3,%zmm7,%zmm31
  40c1a4:	62 61 7c 48 11 7c 24 	vmovups %zmm31,0x9c0(%rsp)
  40c1ab:	27 
  40c1ac:	62 61 7c 48 10 be 00 	vmovups 0x15400(%rsi),%zmm31
  40c1b3:	54 01 00 
  40c1b6:	62 d1 7d 48 ef f8    	vpxord %zmm8,%zmm0,%zmm7
  40c1bc:	62 b1 3d 48 ef de    	vpxord %zmm22,%zmm8,%zmm3
  40c1c2:	62 71 7c 48 10 44 24 	vmovups 0x2c0(%rsp),%zmm8
  40c1c9:	0b 
  40c1ca:	62 e1 55 40 ef ae 40 	vpxord 0x14c40(%rsi),%zmm21,%zmm21
  40c1d1:	4c 01 00 
  40c1d4:	62 a1 4d 40 ef c5    	vpxord %zmm21,%zmm22,%zmm16
  40c1da:	62 e3 3d 48 25 ef 36 	vpternlogd $0x36,%zmm7,%zmm8,%zmm21
  40c1e1:	62 b3 3d 48 25 f8 6a 	vpternlogd $0x6a,%zmm16,%zmm8,%zmm7
  40c1e8:	62 23 4d 40 25 fd 96 	vpternlogd $0x96,%zmm21,%zmm22,%zmm31
  40c1ef:	62 a3 65 48 25 c5 6c 	vpternlogd $0x6c,%zmm21,%zmm3,%zmm16
  40c1f6:	62 b3 45 48 25 dd 56 	vpternlogd $0x56,%zmm21,%zmm7,%zmm3
  40c1fd:	62 61 7c 48 11 7c 24 	vmovups %zmm31,0xe00(%rsp)
  40c204:	38 
  40c205:	62 61 7c 48 10 be 40 	vmovups 0x15440(%rsi),%zmm31
  40c20c:	54 01 00 
  40c20f:	62 71 45 48 ef 86 40 	vpxord 0x15040(%rsi),%zmm7,%zmm8
  40c216:	50 01 00 
  40c219:	62 81 7d 48 ef ec    	vpxord %zmm28,%zmm0,%zmm21
  40c21f:	62 91 1d 40 ef fe    	vpxord %zmm30,%zmm28,%zmm7
  40c225:	62 61 7c 48 10 64 24 	vmovups 0x300(%rsp),%zmm28
  40c22c:	0c 
  40c22d:	62 71 7c 48 11 44 24 	vmovups %zmm8,0xac0(%rsp)
  40c234:	2b 
  40c235:	62 e1 75 40 ef 8e 80 	vpxord 0x14c80(%rsi),%zmm17,%zmm17
  40c23c:	4c 01 00 
  40c23f:	62 71 65 48 ef 86 40 	vpxord 0x15940(%rsi),%zmm3,%zmm8
  40c246:	59 01 00 
  40c249:	62 b1 0d 40 ef d9    	vpxord %zmm17,%zmm30,%zmm3
  40c24f:	62 a3 1d 40 25 cd 36 	vpternlogd $0x36,%zmm21,%zmm28,%zmm17
  40c256:	62 e3 1d 40 25 eb 6a 	vpternlogd $0x6a,%zmm3,%zmm28,%zmm21
  40c25d:	62 61 7c 48 10 64 24 	vmovups 0x13c0(%rsp),%zmm28
  40c264:	4f 
  40c265:	62 b3 45 48 25 d9 6c 	vpternlogd $0x6c,%zmm17,%zmm7,%zmm3
  40c26c:	62 b3 55 40 25 f9 56 	vpternlogd $0x56,%zmm17,%zmm21,%zmm7
  40c273:	62 23 0d 40 25 f9 96 	vpternlogd $0x96,%zmm17,%zmm30,%zmm31
  40c27a:	62 61 7c 48 10 b6 80 	vmovups 0x15580(%rsi),%zmm30
  40c281:	55 01 00 
  40c284:	62 61 7c 48 11 7c 24 	vmovups %zmm31,0xe80(%rsp)
  40c28b:	3a 
  40c28c:	62 e1 55 40 ef b6 80 	vpxord 0x15080(%rsi),%zmm21,%zmm22
  40c293:	50 01 00 
  40c296:	62 c1 7d 48 ef cd    	vpxord %zmm13,%zmm0,%zmm17
  40c29c:	62 81 1d 48 ef ea    	vpxord %zmm26,%zmm12,%zmm21
  40c2a2:	62 23 05 48 25 d1 36 	vpternlogd $0x36,%zmm17,%zmm15,%zmm26
  40c2a9:	62 a3 05 48 25 cd 6a 	vpternlogd $0x6a,%zmm21,%zmm15,%zmm17
  40c2b0:	62 e1 7c 48 11 74 24 	vmovups %zmm22,0xb00(%rsp)
  40c2b7:	2c 
  40c2b8:	62 e1 7c 48 10 b6 40 	vmovups 0x15540(%rsi),%zmm22
  40c2bf:	55 01 00 
  40c2c2:	62 51 15 48 ef ec    	vpxord %zmm12,%zmm13,%zmm13
  40c2c8:	62 71 75 40 ef be c0 	vpxord 0x150c0(%rsi),%zmm17,%zmm15
  40c2cf:	50 01 00 
  40c2d2:	62 83 15 48 25 ea 6c 	vpternlogd $0x6c,%zmm26,%zmm13,%zmm21
  40c2d9:	62 13 75 40 25 ea 56 	vpternlogd $0x56,%zmm26,%zmm17,%zmm13
  40c2e0:	62 e1 7c 48 10 8e 80 	vmovups 0x15480(%rsi),%zmm17
  40c2e7:	54 01 00 
  40c2ea:	62 71 7c 48 11 7c 24 	vmovups %zmm15,0xb40(%rsp)
  40c2f1:	2d 
  40c2f2:	62 83 1d 48 25 ca 96 	vpternlogd $0x96,%zmm26,%zmm12,%zmm17
  40c2f9:	62 e1 7c 48 11 4c 24 	vmovups %zmm17,0x1240(%rsp)
  40c300:	49 
  40c301:	62 e1 7c 48 10 4c 24 	vmovups 0x680(%rsp),%zmm17
  40c308:	1a 
  40c309:	62 71 0d 48 ef b6 00 	vpxord 0x14100(%rsi),%zmm14,%zmm14
  40c310:	41 01 00 
  40c313:	62 21 7d 48 ef d3    	vpxord %zmm19,%zmm0,%zmm26
  40c319:	62 31 65 40 ef e1    	vpxord %zmm17,%zmm19,%zmm12
  40c31f:	62 81 75 40 ef d9    	vpxord %zmm25,%zmm17,%zmm19
  40c325:	62 03 0d 48 25 ca 36 	vpternlogd $0x36,%zmm26,%zmm14,%zmm25
  40c32c:	62 23 0d 48 25 d3 6a 	vpternlogd $0x6a,%zmm19,%zmm14,%zmm26
  40c333:	62 71 7c 48 10 b6 c0 	vmovups 0x154c0(%rsi),%zmm14
  40c33a:	54 01 00 
  40c33d:	62 83 1d 48 25 d9 6c 	vpternlogd $0x6c,%zmm25,%zmm12,%zmm19
  40c344:	62 13 2d 40 25 e1 56 	vpternlogd $0x56,%zmm25,%zmm26,%zmm12
  40c34b:	62 13 75 40 25 f1 96 	vpternlogd $0x96,%zmm25,%zmm17,%zmm14
  40c352:	62 e1 7c 48 10 4c 24 	vmovups 0x5c0(%rsp),%zmm17
  40c359:	17 
  40c35a:	62 71 7c 48 11 74 24 	vmovups %zmm14,0xf80(%rsp)
  40c361:	3e 
  40c362:	62 71 15 48 ef be c0 	vpxord 0x159c0(%rsi),%zmm13,%zmm15
  40c369:	59 01 00 
  40c36c:	62 71 2d 40 ef ae 00 	vpxord 0x15100(%rsi),%zmm26,%zmm13
  40c373:	51 01 00 
  40c376:	62 71 7c 48 11 6c 24 	vmovups %zmm13,0xb80(%rsp)
  40c37d:	2e 
  40c37e:	62 71 7c 48 11 7c 24 	vmovups %zmm15,0x1340(%rsp)
  40c385:	4d 
  40c386:	62 71 65 40 ef ae c0 	vpxord 0x15dc0(%rsi),%zmm19,%zmm13
  40c38d:	5d 01 00 
  40c390:	62 e1 7c 48 10 9e 00 	vmovups 0x15500(%rsi),%zmm19
  40c397:	55 01 00 
  40c39a:	62 61 1d 48 ef 96 00 	vpxord 0x15a00(%rsi),%zmm12,%zmm26
  40c3a1:	5a 01 00 
  40c3a4:	62 61 3d 40 ef 86 40 	vpxord 0x14d40(%rsi),%zmm24,%zmm24
  40c3ab:	4d 01 00 
  40c3ae:	62 f1 6d 48 ef 96 40 	vpxord 0x14140(%rsi),%zmm2,%zmm2
  40c3b5:	41 01 00 
  40c3b8:	62 f1 75 48 ef 8e 80 	vpxord 0x14180(%rsi),%zmm1,%zmm1
  40c3bf:	41 01 00 
  40c3c2:	62 71 55 40 ef be 80 	vpxord 0x15d80(%rsi),%zmm21,%zmm15
  40c3c9:	5d 01 00 
  40c3cc:	62 61 7c 48 11 54 24 	vmovups %zmm26,0x1180(%rsp)
  40c3d3:	46 
  40c3d4:	62 21 7d 48 ef cc    	vpxord %zmm20,%zmm0,%zmm25
  40c3da:	62 21 5d 40 ef d1    	vpxord %zmm17,%zmm20,%zmm26
  40c3e0:	62 11 75 40 ef f0    	vpxord %zmm24,%zmm17,%zmm14
  40c3e6:	62 a1 7d 48 ef e2    	vpxord %zmm18,%zmm0,%zmm20
  40c3ec:	62 81 35 48 ef eb    	vpxord %zmm27,%zmm9,%zmm21
  40c3f2:	62 03 6d 48 25 c1 36 	vpternlogd $0x36,%zmm25,%zmm2,%zmm24
  40c3f9:	62 43 6d 48 25 ce 6a 	vpternlogd $0x6a,%zmm14,%zmm2,%zmm25
  40c400:	62 23 75 48 25 dc 36 	vpternlogd $0x36,%zmm20,%zmm1,%zmm27
  40c407:	62 a3 75 48 25 e5 6a 	vpternlogd $0x6a,%zmm21,%zmm1,%zmm20
  40c40e:	62 13 2d 40 25 f0 6c 	vpternlogd $0x6c,%zmm24,%zmm26,%zmm14
  40c415:	62 03 35 40 25 d0 56 	vpternlogd $0x56,%zmm24,%zmm25,%zmm26
  40c41c:	62 83 75 40 25 d8 96 	vpternlogd $0x96,%zmm24,%zmm17,%zmm19
  40c423:	62 83 35 48 25 f3 96 	vpternlogd $0x96,%zmm27,%zmm9,%zmm22
  40c42a:	62 e1 7c 48 10 8e 00 	vmovups 0x15600(%rsi),%zmm17
  40c431:	56 01 00 
  40c434:	62 e1 7c 48 11 5c 24 	vmovups %zmm19,0xf40(%rsp)
  40c43b:	3d 
  40c43c:	62 e1 7c 48 11 74 24 	vmovups %zmm22,0xfc0(%rsp)
  40c443:	3f 
  40c444:	62 c1 6d 40 ef d1    	vpxord %zmm9,%zmm18,%zmm18
  40c44a:	62 e1 45 40 ef be c0 	vpxord 0x141c0(%rsi),%zmm23,%zmm23
  40c451:	41 01 00 
  40c454:	62 83 6d 40 25 eb 6c 	vpternlogd $0x6c,%zmm27,%zmm18,%zmm21
  40c45b:	62 83 5d 40 25 d3 56 	vpternlogd $0x56,%zmm27,%zmm20,%zmm18
  40c462:	62 61 7d 48 ef de    	vpxord %zmm6,%zmm0,%zmm27
  40c468:	62 01 15 40 ef c4    	vpxord %zmm28,%zmm29,%zmm24
  40c46e:	62 03 45 40 25 e3 36 	vpternlogd $0x36,%zmm27,%zmm23,%zmm28
  40c475:	62 03 45 40 25 d8 6a 	vpternlogd $0x6a,%zmm24,%zmm23,%zmm27
  40c47c:	62 03 15 40 25 f4 96 	vpternlogd $0x96,%zmm28,%zmm29,%zmm30
  40c483:	62 61 7c 48 11 74 24 	vmovups %zmm30,0xf00(%rsp)
  40c48a:	3c 
  40c48b:	62 71 35 40 ef a6 40 	vpxord 0x15140(%rsi),%zmm25,%zmm12
  40c492:	51 01 00 
  40c495:	62 71 7c 48 11 64 24 	vmovups %zmm12,0xbc0(%rsp)
  40c49c:	2f 
  40c49d:	62 71 0d 48 ef a6 00 	vpxord 0x15e00(%rsi),%zmm14,%zmm12
  40c4a4:	5e 01 00 
  40c4a7:	62 91 4d 48 ef f5    	vpxord %zmm29,%zmm6,%zmm6
  40c4ad:	62 e1 25 40 ef be c0 	vpxord 0x151c0(%rsi),%zmm27,%zmm23
  40c4b4:	51 01 00 
  40c4b7:	62 03 4d 48 25 c4 6c 	vpternlogd $0x6c,%zmm28,%zmm6,%zmm24
  40c4be:	62 93 25 40 25 f4 56 	vpternlogd $0x56,%zmm28,%zmm27,%zmm6
  40c4c5:	62 61 7c 48 10 5c 24 	vmovups 0x1380(%rsp),%zmm27
  40c4cc:	4e 
  40c4cd:	62 71 7c 48 10 74 24 	vmovups 0x1440(%rsp),%zmm14
  40c4d4:	51 
  40c4d5:	62 61 7c 48 10 6c 24 	vmovups 0x1580(%rsp),%zmm29
  40c4dc:	56 
  40c4dd:	62 e1 7c 48 11 7c 24 	vmovups %zmm23,0xc40(%rsp)
  40c4e4:	31 
  40c4e5:	62 f1 2d 40 ef 96 40 	vpxord 0x15a40(%rsi),%zmm26,%zmm2
  40c4ec:	5a 01 00 
  40c4ef:	62 61 7d 48 ef fc    	vpxord %zmm4,%zmm0,%zmm31
  40c4f5:	62 41 25 40 ef d6    	vpxord %zmm14,%zmm27,%zmm26
  40c4fb:	62 13 15 40 25 f7 36 	vpternlogd $0x36,%zmm31,%zmm29,%zmm14
  40c502:	62 03 15 40 25 fa 6a 	vpternlogd $0x6a,%zmm26,%zmm29,%zmm31
  40c509:	62 f1 7c 48 11 54 24 	vmovups %zmm2,0x1140(%rsp)
  40c510:	45 
  40c511:	62 71 4d 48 ef 8e c0 	vpxord 0x15ac0(%rsi),%zmm6,%zmm9
  40c518:	5a 01 00 
  40c51b:	62 f1 7c 48 10 b6 c0 	vmovups 0x155c0(%rsi),%zmm6
  40c522:	55 01 00 
  40c525:	62 71 7c 48 11 4c 24 	vmovups %zmm9,0x1000(%rsp)
  40c52c:	40 
  40c52d:	62 d3 25 40 25 f6 96 	vpternlogd $0x96,%zmm14,%zmm27,%zmm6
  40c534:	62 f1 7c 48 11 74 24 	vmovups %zmm6,0x1280(%rsp)
  40c53b:	4a 
  40c53c:	62 f1 7c 48 10 74 24 	vmovups 0x14c0(%rsp),%zmm6
  40c543:	53 
  40c544:	62 61 6d 40 ef 8e 80 	vpxord 0x15a80(%rsi),%zmm18,%zmm25
  40c54b:	5a 01 00 
  40c54e:	62 61 7c 48 11 4c 24 	vmovups %zmm25,0x1040(%rsp)
  40c555:	41 
  40c556:	62 e1 7c 48 10 54 24 	vmovups 0x1700(%rsp),%zmm18
  40c55d:	5c 
  40c55e:	62 01 5d 48 ef cb    	vpxord %zmm27,%zmm4,%zmm25
  40c564:	62 f1 05 40 ef a6 00 	vpxord 0x15200(%rsi),%zmm31,%zmm4
  40c56b:	52 01 00 
  40c56e:	62 f1 7c 48 11 64 24 	vmovups %zmm4,0xc80(%rsp)
  40c575:	32 
  40c576:	62 f1 7c 48 10 64 24 	vmovups 0x1400(%rsp),%zmm4
  40c57d:	50 
  40c57e:	62 43 35 40 25 d6 6c 	vpternlogd $0x6c,%zmm14,%zmm25,%zmm26
  40c585:	62 43 05 40 25 ce 56 	vpternlogd $0x56,%zmm14,%zmm31,%zmm25
  40c58c:	62 61 35 40 ef ae 00 	vpxord 0x15b00(%rsi),%zmm25,%zmm29
  40c593:	5b 01 00 
  40c596:	62 61 7c 48 11 6c 24 	vmovups %zmm29,0x1200(%rsp)
  40c59d:	48 
  40c59e:	62 61 2d 40 ef ae c0 	vpxord 0x15ec0(%rsi),%zmm26,%zmm29
  40c5a5:	5e 01 00 
  40c5a8:	62 51 7d 48 ef cb    	vpxord %zmm11,%zmm0,%zmm9
  40c5ae:	62 61 25 48 ef d4    	vpxord %zmm4,%zmm11,%zmm26
  40c5b4:	62 71 7c 48 10 5c 24 	vmovups 0x1640(%rsp),%zmm11
  40c5bb:	59 
  40c5bc:	62 71 5d 48 ef f6    	vpxord %zmm6,%zmm4,%zmm14
  40c5c2:	62 d3 25 48 25 f1 36 	vpternlogd $0x36,%zmm9,%zmm11,%zmm6
  40c5c9:	62 53 25 48 25 ce 6a 	vpternlogd $0x6a,%zmm14,%zmm11,%zmm9
  40c5d0:	62 71 7c 48 10 5c 24 	vmovups 0x1840(%rsp),%zmm11
  40c5d7:	61 
  40c5d8:	62 73 2d 40 25 f6 6c 	vpternlogd $0x6c,%zmm6,%zmm26,%zmm14
  40c5df:	62 63 35 48 25 d6 56 	vpternlogd $0x56,%zmm6,%zmm9,%zmm26
  40c5e6:	62 e3 5d 48 25 ce 96 	vpternlogd $0x96,%zmm6,%zmm4,%zmm17
  40c5ed:	62 f1 7c 48 10 64 24 	vmovups 0x1900(%rsp),%zmm4
  40c5f4:	64 
  40c5f5:	62 f1 7c 48 10 74 24 	vmovups 0x1780(%rsp),%zmm6
  40c5fc:	5e 
  40c5fd:	62 e1 7c 48 11 4c 24 	vmovups %zmm17,0x12c0(%rsp)
  40c604:	4b 
  40c605:	62 f1 5d 40 ef 8e 80 	vpxord 0x15180(%rsi),%zmm20,%zmm1
  40c60c:	51 01 00 
  40c60f:	62 61 2d 40 ef 9e 40 	vpxord 0x15b40(%rsi),%zmm26,%zmm27
  40c616:	5b 01 00 
  40c619:	62 f1 7c 48 11 4c 24 	vmovups %zmm1,0xc00(%rsp)
  40c620:	30 
  40c621:	62 61 7c 48 11 5c 24 	vmovups %zmm27,0x11c0(%rsp)
  40c628:	47 
  40c629:	62 61 7c 48 10 5c 24 	vmovups 0x1540(%rsp),%zmm27
  40c630:	55 
  40c631:	62 f1 3d 40 ef 8e 80 	vpxord 0x15e80(%rsi),%zmm24,%zmm1
  40c638:	5e 01 00 
  40c63b:	62 61 7c 48 10 44 24 	vmovups 0x1480(%rsp),%zmm24
  40c642:	52 
  40c643:	62 c1 7d 48 ef db    	vpxord %zmm11,%zmm0,%zmm19
  40c649:	62 81 3d 40 ef fb    	vpxord %zmm27,%zmm24,%zmm23
  40c64f:	62 23 6d 40 25 db 36 	vpternlogd $0x36,%zmm19,%zmm18,%zmm27
  40c656:	62 a3 6d 40 25 df 6a 	vpternlogd $0x6a,%zmm23,%zmm18,%zmm19
  40c65d:	62 f1 55 40 ef 96 40 	vpxord 0x15e40(%rsi),%zmm21,%zmm2
  40c664:	5e 01 00 
  40c667:	62 81 25 48 ef e8    	vpxord %zmm24,%zmm11,%zmm21
  40c66d:	62 83 55 40 25 fb 6c 	vpternlogd $0x6c,%zmm27,%zmm21,%zmm23
  40c674:	62 83 65 40 25 eb 56 	vpternlogd $0x56,%zmm27,%zmm19,%zmm21
  40c67b:	62 e1 65 40 ef a6 80 	vpxord 0x15280(%rsi),%zmm19,%zmm20
  40c682:	52 01 00 
  40c685:	62 e1 7c 48 11 64 24 	vmovups %zmm20,0xd00(%rsp)
  40c68c:	34 
  40c68d:	62 e1 7c 48 10 64 24 	vmovups 0x1500(%rsp),%zmm20
  40c694:	54 
  40c695:	62 e1 55 40 ef b6 80 	vpxord 0x15b80(%rsi),%zmm21,%zmm22
  40c69c:	5b 01 00 
  40c69f:	62 e1 7c 48 10 6c 24 	vmovups 0x1600(%rsp),%zmm21
  40c6a6:	58 
  40c6a7:	62 e1 7c 48 11 74 24 	vmovups %zmm22,0x1080(%rsp)
  40c6ae:	42 
  40c6af:	62 e1 7c 48 10 b6 80 	vmovups 0x15680(%rsi),%zmm22
  40c6b6:	56 01 00 
  40c6b9:	62 61 35 48 ef 8e 40 	vpxord 0x15240(%rsi),%zmm9,%zmm25
  40c6c0:	52 01 00 
  40c6c3:	62 61 7c 48 11 4c 24 	vmovups %zmm25,0xcc0(%rsp)
  40c6ca:	33 
  40c6cb:	62 61 0d 48 ef 8e 00 	vpxord 0x15f00(%rsi),%zmm14,%zmm25
  40c6d2:	5f 01 00 
  40c6d5:	62 71 7c 48 10 b6 40 	vmovups 0x15640(%rsi),%zmm14
  40c6dc:	56 01 00 
  40c6df:	62 13 3d 40 25 f3 96 	vpternlogd $0x96,%zmm27,%zmm24,%zmm14
  40c6e6:	62 61 7c 48 10 44 24 	vmovups 0x1880(%rsp),%zmm24
  40c6ed:	62 
  40c6ee:	62 71 7c 48 11 74 24 	vmovups %zmm14,0xec0(%rsp)
  40c6f5:	3b 
  40c6f6:	62 71 7d 48 ef cc    	vpxord %zmm4,%zmm0,%zmm9
  40c6fc:	62 a1 5d 40 ef dd    	vpxord %zmm21,%zmm20,%zmm19
  40c702:	62 c3 4d 48 25 e9 36 	vpternlogd $0x36,%zmm9,%zmm6,%zmm21
  40c709:	62 33 4d 48 25 cb 6a 	vpternlogd $0x6a,%zmm19,%zmm6,%zmm9
  40c710:	62 f1 7c 48 10 74 24 	vmovups 0x15c0(%rsp),%zmm6
  40c717:	57 
  40c718:	62 a3 5d 40 25 f5 96 	vpternlogd $0x96,%zmm21,%zmm20,%zmm22
  40c71f:	62 e1 7c 48 11 74 24 	vmovups %zmm22,0x1100(%rsp)
  40c726:	44 
  40c727:	62 61 45 40 ef 96 40 	vpxord 0x15f40(%rsi),%zmm23,%zmm26
  40c72e:	5f 01 00 
  40c731:	62 a1 5d 48 ef cc    	vpxord %zmm20,%zmm4,%zmm17
  40c737:	62 71 35 48 ef 9e c0 	vpxord 0x152c0(%rsi),%zmm9,%zmm11
  40c73e:	52 01 00 
  40c741:	62 e1 7c 48 10 7c 24 	vmovups 0x1980(%rsp),%zmm23
  40c748:	66 
  40c749:	62 71 7c 48 11 5c 24 	vmovups %zmm11,0xd40(%rsp)
  40c750:	35 
  40c751:	62 71 7c 48 10 9e c0 	vmovups 0x156c0(%rsi),%zmm11
  40c758:	56 01 00 
  40c75b:	62 a3 75 40 25 dd 6c 	vpternlogd $0x6c,%zmm21,%zmm17,%zmm19
  40c762:	62 a3 35 48 25 cd 56 	vpternlogd $0x56,%zmm21,%zmm9,%zmm17
  40c769:	62 71 7c 48 10 4c 24 	vmovups 0x16c0(%rsp),%zmm9
  40c770:	5b 
  40c771:	62 21 7d 48 ef e7    	vpxord %zmm23,%zmm0,%zmm28
  40c777:	62 d1 4d 48 ef e1    	vpxord %zmm9,%zmm6,%zmm4
  40c77d:	62 13 3d 40 25 cc 36 	vpternlogd $0x36,%zmm28,%zmm24,%zmm9
  40c784:	62 63 3d 40 25 e4 6a 	vpternlogd $0x6a,%zmm4,%zmm24,%zmm28
  40c78b:	62 61 7c 48 10 44 24 	vmovups 0x1940(%rsp),%zmm24
  40c792:	65 
  40c793:	62 53 4d 48 25 d9 96 	vpternlogd $0x96,%zmm9,%zmm6,%zmm11
  40c79a:	62 71 7c 48 11 5c 24 	vmovups %zmm11,0x10c0(%rsp)
  40c7a1:	43 
  40c7a2:	62 71 7c 48 10 5c 24 	vmovups 0x18c0(%rsp),%zmm11
  40c7a9:	63 
  40c7aa:	62 61 45 40 ef fe    	vpxord %zmm6,%zmm23,%zmm31
  40c7b0:	62 d3 05 40 25 e1 6c 	vpternlogd $0x6c,%zmm9,%zmm31,%zmm4
  40c7b7:	62 43 1d 40 25 f9 56 	vpternlogd $0x56,%zmm9,%zmm28,%zmm31
  40c7be:	62 71 7c 48 10 4c 24 	vmovups 0x1740(%rsp),%zmm9
  40c7c5:	5d 
  40c7c6:	62 f1 7c 48 10 74 24 	vmovups 0x17c0(%rsp),%zmm6
  40c7cd:	5f 
  40c7ce:	62 e1 75 40 ef 96 c0 	vpxord 0x15bc0(%rsi),%zmm17,%zmm18
  40c7d5:	5b 01 00 
  40c7d8:	62 e1 7c 48 11 54 24 	vmovups %zmm18,0x1300(%rsp)
  40c7df:	4c 
  40c7e0:	62 e1 7c 48 10 4c 24 	vmovups 0x19c0(%rsp),%zmm17
  40c7e7:	67 
  40c7e8:	62 e1 5d 48 ef 96 c0 	vpxord 0x15fc0(%rsi),%zmm4,%zmm18
  40c7ef:	5f 01 00 
  40c7f2:	62 f1 7c 48 10 64 24 	vmovups 0x1680(%rsp),%zmm4
  40c7f9:	5a 
  40c7fa:	62 e1 5d 48 ef 7c 24 	vpxord 0xdc0(%rsp),%zmm4,%zmm23
  40c801:	37 
  40c802:	62 61 1d 40 ef b6 00 	vpxord 0x15300(%rsi),%zmm28,%zmm30
  40c809:	53 01 00 
  40c80c:	62 a1 7c 48 28 e7    	vmovaps %zmm23,%zmm20
  40c812:	62 61 7c 48 11 74 24 	vmovups %zmm30,0xd80(%rsp)
  40c819:	36 
  40c81a:	62 61 65 40 ef 9e 80 	vpxord 0x15f80(%rsi),%zmm19,%zmm27
  40c821:	5f 01 00 
  40c824:	62 a1 7d 48 ef d9    	vpxord %zmm17,%zmm0,%zmm19
  40c82a:	62 e1 7d 40 ef 86 00 	vpxord 0x15d00(%rsi),%zmm16,%zmm16
  40c831:	5d 01 00 
  40c834:	62 f1 65 48 ef 9e 40 	vpxord 0x15d40(%rsi),%zmm3,%zmm3
  40c83b:	5d 01 00 
  40c83e:	62 f1 45 48 ef be 80 	vpxord 0x15980(%rsi),%zmm7,%zmm7
  40c845:	59 01 00 
  40c848:	62 71 05 40 ef b6 00 	vpxord 0x15800(%rsi),%zmm31,%zmm14
  40c84f:	58 01 00 
  40c852:	62 e1 75 40 ef ec    	vpxord %zmm4,%zmm17,%zmm21
  40c858:	62 a3 3d 40 25 e3 78 	vpternlogd $0x78,%zmm19,%zmm24,%zmm20
  40c85f:	62 e1 7c 48 10 4c 24 	vmovups 0x1800(%rsp),%zmm17
  40c866:	60 
  40c867:	62 63 65 40 25 44 24 	vpternlogd $0x1e,0xdc0(%rsp),%zmm19,%zmm24
  40c86e:	37 1e 
  40c870:	62 e1 7c 48 11 54 24 	vmovups %zmm18,0x1480(%rsp)
  40c877:	52 
  40c878:	62 61 7c 48 10 74 24 	vmovups 0xa00(%rsp),%zmm30
  40c87f:	28 
  40c880:	62 83 55 40 25 f8 6c 	vpternlogd $0x6c,%zmm24,%zmm21,%zmm23
  40c887:	62 83 5d 40 25 e8 56 	vpternlogd $0x56,%zmm24,%zmm20,%zmm21
  40c88e:	62 61 55 40 ef be 40 	vpxord 0x15840(%rsi),%zmm21,%zmm31
  40c895:	58 01 00 
  40c898:	62 e1 45 40 ef ae 00 	vpxord 0x15c00(%rsi),%zmm23,%zmm21
  40c89f:	5c 01 00 
  40c8a2:	62 e1 7c 48 10 be 00 	vmovups 0x15700(%rsi),%zmm23
  40c8a9:	57 01 00 
  40c8ac:	62 83 5d 48 25 f8 96 	vpternlogd $0x96,%zmm24,%zmm4,%zmm23
  40c8b3:	62 61 7c 48 10 44 24 	vmovups 0xe40(%rsp),%zmm24
  40c8ba:	39 
  40c8bb:	62 f1 7c 48 10 64 24 	vmovups 0xa80(%rsp),%zmm4
  40c8c2:	2a 
  40c8c3:	62 01 7d 48 ef e0    	vpxord %zmm24,%zmm0,%zmm28
  40c8c9:	62 c1 3d 40 ef d9    	vpxord %zmm9,%zmm24,%zmm19
  40c8cf:	62 61 7c 48 10 86 40 	vmovups 0x15740(%rsi),%zmm24
  40c8d6:	57 01 00 
  40c8d9:	62 a1 35 48 ef d1    	vpxord %zmm17,%zmm9,%zmm18
  40c8df:	62 83 5d 48 25 cc 36 	vpternlogd $0x36,%zmm28,%zmm4,%zmm17
  40c8e6:	62 23 5d 48 25 e2 6a 	vpternlogd $0x6a,%zmm18,%zmm4,%zmm28
  40c8ed:	62 a3 65 40 25 d1 6c 	vpternlogd $0x6c,%zmm17,%zmm19,%zmm18
  40c8f4:	62 a3 1d 40 25 d9 56 	vpternlogd $0x56,%zmm17,%zmm28,%zmm19
  40c8fb:	62 23 35 48 25 c1 96 	vpternlogd $0x96,%zmm17,%zmm9,%zmm24
  40c902:	62 e1 7c 48 10 0c 24 	vmovups (%rsp),%zmm17
  40c909:	62 e1 5d 40 ef b6 40 	vpxord 0x15340(%rsi),%zmm20,%zmm22
  40c910:	53 01 00 
  40c913:	62 e1 1d 40 ef a6 80 	vpxord 0x15380(%rsi),%zmm28,%zmm20
  40c91a:	53 01 00 
  40c91d:	62 21 7d 48 ef e1    	vpxord %zmm17,%zmm0,%zmm28
  40c923:	62 51 4d 48 ef cb    	vpxord %zmm11,%zmm6,%zmm9
  40c929:	62 13 0d 40 25 dc 36 	vpternlogd $0x36,%zmm28,%zmm30,%zmm11
  40c930:	62 43 0d 40 25 e1 6a 	vpternlogd $0x6a,%zmm9,%zmm30,%zmm28
  40c937:	62 e1 75 40 ef ce    	vpxord %zmm6,%zmm17,%zmm17
  40c93d:	62 53 75 40 25 cb 6c 	vpternlogd $0x6c,%zmm11,%zmm17,%zmm9
  40c944:	62 c3 1d 40 25 cb 56 	vpternlogd $0x56,%zmm11,%zmm28,%zmm17
  40c94b:	62 f1 6d 40 ef a6 40 	vpxord 0x15c40(%rsi),%zmm18,%zmm4
  40c952:	5c 01 00 
  40c955:	62 e1 1d 40 ef 96 c0 	vpxord 0x153c0(%rsi),%zmm28,%zmm18
  40c95c:	53 01 00 
  40c95f:	62 e1 7c 48 11 54 24 	vmovups %zmm18,0x14c0(%rsp)
  40c966:	53 
  40c967:	62 e1 35 48 ef 96 80 	vpxord 0x15c80(%rsi),%zmm9,%zmm18
  40c96e:	5c 01 00 
  40c971:	62 71 7c 48 10 8e 80 	vmovups 0x15780(%rsi),%zmm9
  40c978:	57 01 00 
  40c97b:	62 53 4d 48 25 cb 96 	vpternlogd $0x96,%zmm11,%zmm6,%zmm9
  40c982:	62 f1 7c 48 10 74 24 	vmovups 0xe00(%rsp),%zmm6
  40c989:	38 
  40c98a:	62 61 75 40 ef b6 c0 	vpxord 0x158c0(%rsi),%zmm17,%zmm30
  40c991:	58 01 00 
  40c994:	62 e1 7d 48 ef ce    	vpxord %zmm6,%zmm0,%zmm17
  40c99a:	62 41 4d 48 ef e6    	vpxord %zmm14,%zmm6,%zmm28
  40c9a0:	62 f1 7c 48 10 74 24 	vmovups 0xa40(%rsp),%zmm6
  40c9a7:	29 
  40c9a8:	62 31 0d 48 ef dd    	vpxord %zmm21,%zmm14,%zmm11
  40c9ae:	62 a3 4d 48 25 e9 36 	vpternlogd $0x36,%zmm17,%zmm6,%zmm21
  40c9b5:	62 c3 4d 48 25 cb 6a 	vpternlogd $0x6a,%zmm11,%zmm6,%zmm17
  40c9bc:	62 33 1d 40 25 dd 6c 	vpternlogd $0x6c,%zmm21,%zmm28,%zmm11
  40c9c3:	62 23 75 40 25 e5 56 	vpternlogd $0x56,%zmm21,%zmm17,%zmm28
  40c9ca:	62 61 1d 40 ef a6 00 	vpxord 0x16900(%rsi),%zmm28,%zmm28
  40c9d1:	69 01 00 
  40c9d4:	62 61 7c 48 11 64 24 	vmovups %zmm28,0x1500(%rsp)
  40c9db:	54 
  40c9dc:	62 61 25 48 ef a6 c0 	vpxord 0x16cc0(%rsi),%zmm11,%zmm28
  40c9e3:	6c 01 00 
  40c9e6:	62 71 7c 48 10 9e c0 	vmovups 0x167c0(%rsi),%zmm11
  40c9ed:	67 01 00 
  40c9f0:	62 33 0d 48 25 dd 96 	vpternlogd $0x96,%zmm21,%zmm14,%zmm11
  40c9f7:	62 71 7c 48 10 74 24 	vmovups 0xe80(%rsp),%zmm14
  40c9fe:	3a 
  40c9ff:	62 71 7c 48 11 5c 24 	vmovups %zmm11,0x40(%rsp)
  40ca06:	01 
  40ca07:	62 51 7d 48 ef de    	vpxord %zmm14,%zmm0,%zmm11
  40ca0d:	62 91 0d 48 ef f7    	vpxord %zmm31,%zmm14,%zmm6
  40ca13:	62 71 7c 48 10 74 24 	vmovups 0xac0(%rsp),%zmm14
  40ca1a:	2b 
  40ca1b:	62 e1 05 40 ef ec    	vpxord %zmm4,%zmm31,%zmm21
  40ca21:	62 d3 0d 48 25 e3 36 	vpternlogd $0x36,%zmm11,%zmm14,%zmm4
  40ca28:	62 33 0d 48 25 dd 6a 	vpternlogd $0x6a,%zmm21,%zmm14,%zmm11
  40ca2f:	62 e3 4d 48 25 ec 6c 	vpternlogd $0x6c,%zmm4,%zmm6,%zmm21
  40ca36:	62 f3 25 48 25 f4 56 	vpternlogd $0x56,%zmm4,%zmm11,%zmm6
  40ca3d:	62 f1 4d 48 ef b6 40 	vpxord 0x16940(%rsi),%zmm6,%zmm6
  40ca44:	69 01 00 
  40ca47:	62 f1 7c 48 11 74 24 	vmovups %zmm6,0x1540(%rsp)
  40ca4e:	55 
  40ca4f:	62 f1 7c 48 10 b6 00 	vmovups 0x16400(%rsi),%zmm6
  40ca56:	64 01 00 
  40ca59:	62 f3 05 40 25 f4 96 	vpternlogd $0x96,%zmm4,%zmm31,%zmm6
  40ca60:	62 61 7c 48 10 7c 24 	vmovups 0x1240(%rsp),%zmm31
  40ca67:	49 
  40ca68:	62 e1 55 40 ef ae 00 	vpxord 0x16d00(%rsi),%zmm21,%zmm21
  40ca6f:	6d 01 00 
  40ca72:	62 e1 7c 48 11 6c 24 	vmovups %zmm21,0x1580(%rsp)
  40ca79:	56 
  40ca7a:	62 e1 7c 48 10 6c 24 	vmovups 0xb00(%rsp),%zmm21
  40ca81:	2c 
  40ca82:	62 e1 65 40 ef 9e 80 	vpxord 0x15880(%rsi),%zmm19,%zmm19
  40ca89:	58 01 00 
  40ca8c:	62 91 7d 48 ef e7    	vpxord %zmm31,%zmm0,%zmm4
  40ca92:	62 31 05 40 ef f3    	vpxord %zmm19,%zmm31,%zmm14
  40ca98:	62 21 65 40 ef fa    	vpxord %zmm18,%zmm19,%zmm31
  40ca9e:	62 e3 55 40 25 d4 36 	vpternlogd $0x36,%zmm4,%zmm21,%zmm18
  40caa5:	62 93 55 40 25 e7 6a 	vpternlogd $0x6a,%zmm31,%zmm21,%zmm4
  40caac:	62 23 0d 48 25 fa 6c 	vpternlogd $0x6c,%zmm18,%zmm14,%zmm31
  40cab3:	62 33 5d 48 25 f2 56 	vpternlogd $0x56,%zmm18,%zmm4,%zmm14
  40caba:	62 e1 5d 48 ef ae 80 	vpxord 0x16080(%rsi),%zmm4,%zmm21
  40cac1:	60 01 00 
  40cac4:	62 f1 0d 48 ef a6 80 	vpxord 0x16980(%rsi),%zmm14,%zmm4
  40cacb:	69 01 00 
  40cace:	62 71 7c 48 10 b6 40 	vmovups 0x16440(%rsi),%zmm14
  40cad5:	64 01 00 
  40cad8:	62 f1 7c 48 11 64 24 	vmovups %zmm4,0x15c0(%rsp)
  40cadf:	57 
  40cae0:	62 33 65 40 25 f2 96 	vpternlogd $0x96,%zmm18,%zmm19,%zmm14
  40cae7:	62 e1 7c 48 10 54 24 	vmovups 0xf80(%rsp),%zmm18
  40caee:	3e 
  40caef:	62 f1 05 40 ef a6 40 	vpxord 0x16d40(%rsi),%zmm31,%zmm4
  40caf6:	6d 01 00 
  40caf9:	62 f1 7c 48 11 64 24 	vmovups %zmm4,0x1600(%rsp)
  40cb00:	58 
  40cb01:	62 f1 7c 48 10 64 24 	vmovups 0xb40(%rsp),%zmm4
  40cb08:	2d 
  40cb09:	62 a1 7d 48 ef da    	vpxord %zmm18,%zmm0,%zmm19
  40cb0f:	62 41 0d 40 ef fa    	vpxord %zmm10,%zmm30,%zmm31
  40cb15:	62 33 5d 48 25 d3 36 	vpternlogd $0x36,%zmm19,%zmm4,%zmm10
  40cb1c:	62 83 5d 48 25 df 6a 	vpternlogd $0x6a,%zmm31,%zmm4,%zmm19
  40cb23:	62 81 6d 40 ef d6    	vpxord %zmm30,%zmm18,%zmm18
  40cb29:	62 43 6d 40 25 fa 6c 	vpternlogd $0x6c,%zmm10,%zmm18,%zmm31
  40cb30:	62 c3 65 40 25 d2 56 	vpternlogd $0x56,%zmm10,%zmm19,%zmm18
  40cb37:	62 e1 6d 40 ef 96 c0 	vpxord 0x169c0(%rsi),%zmm18,%zmm18
  40cb3e:	69 01 00 
  40cb41:	62 e1 7c 48 11 54 24 	vmovups %zmm18,0x1640(%rsp)
  40cb48:	59 
  40cb49:	62 e1 7c 48 10 96 80 	vmovups 0x16480(%rsi),%zmm18
  40cb50:	64 01 00 
  40cb53:	62 c3 0d 40 25 d2 96 	vpternlogd $0x96,%zmm10,%zmm30,%zmm18
  40cb5a:	62 71 7c 48 10 54 24 	vmovups 0xf40(%rsp),%zmm10
  40cb61:	3d 
  40cb62:	62 61 05 40 ef be 80 	vpxord 0x16d80(%rsi),%zmm31,%zmm31
  40cb69:	6d 01 00 
  40cb6c:	62 61 7c 48 11 7c 24 	vmovups %zmm31,0x1680(%rsp)
  40cb73:	5a 
  40cb74:	62 61 7c 48 10 7c 24 	vmovups 0xb80(%rsp),%zmm31
  40cb7b:	2e 
  40cb7c:	62 d1 7d 48 ef e2    	vpxord %zmm10,%zmm0,%zmm4
  40cb82:	62 21 55 48 ef f0    	vpxord %zmm16,%zmm5,%zmm30
  40cb88:	62 e3 05 40 25 c4 36 	vpternlogd $0x36,%zmm4,%zmm31,%zmm16
  40cb8f:	62 93 05 40 25 e6 6a 	vpternlogd $0x6a,%zmm30,%zmm31,%zmm4
  40cb96:	62 61 7c 48 10 7c 24 	vmovups 0xbc0(%rsp),%zmm31
  40cb9d:	2f 
  40cb9e:	62 71 2d 48 ef d5    	vpxord %zmm5,%zmm10,%zmm10
  40cba4:	62 23 2d 48 25 f0 6c 	vpternlogd $0x6c,%zmm16,%zmm10,%zmm30
  40cbab:	62 33 5d 48 25 d0 56 	vpternlogd $0x56,%zmm16,%zmm4,%zmm10
  40cbb2:	62 71 2d 48 ef 96 00 	vpxord 0x16a00(%rsi),%zmm10,%zmm10
  40cbb9:	6a 01 00 
  40cbbc:	62 71 7c 48 11 54 24 	vmovups %zmm10,0x13c0(%rsp)
  40cbc3:	4f 
  40cbc4:	62 71 7c 48 10 96 c0 	vmovups 0x164c0(%rsi),%zmm10
  40cbcb:	64 01 00 
  40cbce:	62 33 55 48 25 d0 96 	vpternlogd $0x96,%zmm16,%zmm5,%zmm10
  40cbd5:	62 e1 7c 48 10 44 24 	vmovups 0xfc0(%rsp),%zmm16
  40cbdc:	3f 
  40cbdd:	62 61 0d 40 ef b6 c0 	vpxord 0x16dc0(%rsi),%zmm30,%zmm30
  40cbe4:	6d 01 00 
  40cbe7:	62 61 7c 48 11 74 24 	vmovups %zmm30,0x16c0(%rsp)
  40cbee:	5b 
  40cbef:	62 b1 7d 48 ef e8    	vpxord %zmm16,%zmm0,%zmm5
  40cbf5:	62 61 3d 48 ef f3    	vpxord %zmm3,%zmm8,%zmm30
  40cbfb:	62 f3 05 40 25 dd 36 	vpternlogd $0x36,%zmm5,%zmm31,%zmm3
  40cc02:	62 93 05 40 25 ee 6a 	vpternlogd $0x6a,%zmm30,%zmm31,%zmm5
  40cc09:	62 61 7c 48 10 7c 24 	vmovups 0xc00(%rsp),%zmm31
  40cc10:	30 
  40cc11:	62 c1 7d 40 ef c0    	vpxord %zmm8,%zmm16,%zmm16
  40cc17:	62 63 7d 40 25 f3 6c 	vpternlogd $0x6c,%zmm3,%zmm16,%zmm30
  40cc1e:	62 e3 55 48 25 c3 56 	vpternlogd $0x56,%zmm3,%zmm5,%zmm16
  40cc25:	62 e1 7d 40 ef 86 40 	vpxord 0x16a40(%rsi),%zmm16,%zmm16
  40cc2c:	6a 01 00 
  40cc2f:	62 e1 7c 48 11 44 24 	vmovups %zmm16,0x640(%rsp)
  40cc36:	19 
  40cc37:	62 e1 7c 48 10 86 00 	vmovups 0x16500(%rsi),%zmm16
  40cc3e:	65 01 00 
  40cc41:	62 e3 3d 48 25 c3 96 	vpternlogd $0x96,%zmm3,%zmm8,%zmm16
  40cc48:	62 f1 7c 48 10 5c 24 	vmovups 0xf00(%rsp),%zmm3
  40cc4f:	3c 
  40cc50:	62 61 0d 40 ef b6 00 	vpxord 0x16e00(%rsi),%zmm30,%zmm30
  40cc57:	6e 01 00 
  40cc5a:	62 61 7c 48 11 74 24 	vmovups %zmm30,0x1700(%rsp)
  40cc61:	5c 
  40cc62:	62 61 7d 48 ef f3    	vpxord %zmm3,%zmm0,%zmm30
  40cc68:	62 51 45 48 ef c7    	vpxord %zmm15,%zmm7,%zmm8
  40cc6e:	62 13 05 40 25 fe 36 	vpternlogd $0x36,%zmm30,%zmm31,%zmm15
  40cc75:	62 43 05 40 25 f0 6a 	vpternlogd $0x6a,%zmm8,%zmm31,%zmm30
  40cc7c:	62 61 7c 48 10 7c 24 	vmovups 0xc40(%rsp),%zmm31
  40cc83:	31 
  40cc84:	62 f1 65 48 ef df    	vpxord %zmm7,%zmm3,%zmm3
  40cc8a:	62 53 65 48 25 c7 6c 	vpternlogd $0x6c,%zmm15,%zmm3,%zmm8
  40cc91:	62 d3 0d 40 25 df 56 	vpternlogd $0x56,%zmm15,%zmm30,%zmm3
  40cc98:	62 f1 65 48 ef 9e 80 	vpxord 0x16a80(%rsi),%zmm3,%zmm3
  40cc9f:	6a 01 00 
  40cca2:	62 f1 7c 48 11 5c 24 	vmovups %zmm3,0x1400(%rsp)
  40cca9:	50 
  40ccaa:	62 f1 7c 48 10 9e 40 	vmovups 0x16540(%rsi),%zmm3
  40ccb1:	65 01 00 
  40ccb4:	62 d3 45 48 25 df 96 	vpternlogd $0x96,%zmm15,%zmm7,%zmm3
  40ccbb:	62 71 7c 48 10 7c 24 	vmovups 0x1280(%rsp),%zmm15
  40ccc2:	4a 
  40ccc3:	62 61 0d 40 ef b6 80 	vpxord 0x16180(%rsi),%zmm30,%zmm30
  40ccca:	61 01 00 
  40cccd:	62 61 7c 48 11 74 24 	vmovups %zmm30,0x1740(%rsp)
  40ccd4:	5d 
  40ccd5:	62 61 7c 48 10 74 24 	vmovups 0x1340(%rsp),%zmm30
  40ccdc:	4d 
  40ccdd:	62 71 3d 48 ef 86 40 	vpxord 0x16e40(%rsi),%zmm8,%zmm8
  40cce4:	6e 01 00 
  40cce7:	62 71 7c 48 11 44 24 	vmovups %zmm8,0x1780(%rsp)
  40ccee:	5e 
  40ccef:	62 51 7d 48 ef c7    	vpxord %zmm15,%zmm0,%zmm8
  40ccf5:	62 d1 0d 40 ef fd    	vpxord %zmm13,%zmm30,%zmm7
  40ccfb:	62 53 05 40 25 e8 36 	vpternlogd $0x36,%zmm8,%zmm31,%zmm13
  40cd02:	62 73 05 40 25 c7 6a 	vpternlogd $0x6a,%zmm7,%zmm31,%zmm8
  40cd09:	62 61 7c 48 10 7c 24 	vmovups 0xc80(%rsp),%zmm31
  40cd10:	32 
  40cd11:	62 11 05 48 ef fe    	vpxord %zmm30,%zmm15,%zmm15
  40cd17:	62 d3 05 48 25 fd 6c 	vpternlogd $0x6c,%zmm13,%zmm15,%zmm7
  40cd1e:	62 53 3d 48 25 fd 56 	vpternlogd $0x56,%zmm13,%zmm8,%zmm15
  40cd25:	62 71 05 48 ef be c0 	vpxord 0x16ac0(%rsi),%zmm15,%zmm15
  40cd2c:	6a 01 00 
  40cd2f:	62 71 7c 48 11 7c 24 	vmovups %zmm15,0x1800(%rsp)
  40cd36:	60 
  40cd37:	62 71 7c 48 10 be 80 	vmovups 0x16580(%rsi),%zmm15
  40cd3e:	65 01 00 
  40cd41:	62 53 0d 40 25 fd 96 	vpternlogd $0x96,%zmm13,%zmm30,%zmm15
  40cd48:	62 71 7c 48 10 6c 24 	vmovups 0x12c0(%rsp),%zmm13
  40cd4f:	4b 
  40cd50:	62 71 3d 48 ef 86 c0 	vpxord 0x161c0(%rsi),%zmm8,%zmm8
  40cd57:	61 01 00 
  40cd5a:	62 71 7c 48 11 44 24 	vmovups %zmm8,0x17c0(%rsp)
  40cd61:	5f 
  40cd62:	62 71 7c 48 10 44 24 	vmovups 0x1180(%rsp),%zmm8
  40cd69:	46 
  40cd6a:	62 f1 45 48 ef be 80 	vpxord 0x16e80(%rsi),%zmm7,%zmm7
  40cd71:	6e 01 00 
  40cd74:	62 f1 7c 48 11 7c 24 	vmovups %zmm7,0x1840(%rsp)
  40cd7b:	61 
  40cd7c:	62 d1 7d 48 ef fd    	vpxord %zmm13,%zmm0,%zmm7
  40cd82:	62 41 3d 48 ef f4    	vpxord %zmm12,%zmm8,%zmm30
  40cd88:	62 73 05 40 25 e7 36 	vpternlogd $0x36,%zmm7,%zmm31,%zmm12
  40cd8f:	62 93 05 40 25 fe 6a 	vpternlogd $0x6a,%zmm30,%zmm31,%zmm7
  40cd96:	62 61 7c 48 10 7c 24 	vmovups 0x1140(%rsp),%zmm31
  40cd9d:	45 
  40cd9e:	62 51 15 48 ef e8    	vpxord %zmm8,%zmm13,%zmm13
  40cda4:	62 43 15 48 25 f4 6c 	vpternlogd $0x6c,%zmm12,%zmm13,%zmm30
  40cdab:	62 53 45 48 25 ec 56 	vpternlogd $0x56,%zmm12,%zmm7,%zmm13
  40cdb2:	62 71 15 48 ef ae 00 	vpxord 0x16b00(%rsi),%zmm13,%zmm13
  40cdb9:	6b 01 00 
  40cdbc:	62 71 7c 48 11 6c 24 	vmovups %zmm13,0x1880(%rsp)
  40cdc3:	62 
  40cdc4:	62 71 7c 48 10 ae c0 	vmovups 0x165c0(%rsi),%zmm13
  40cdcb:	65 01 00 
  40cdce:	62 53 3d 48 25 ec 96 	vpternlogd $0x96,%zmm12,%zmm8,%zmm13
  40cdd5:	62 71 7c 48 10 64 24 	vmovups 0xec0(%rsp),%zmm12
  40cddc:	3b 
  40cddd:	62 61 0d 40 ef b6 c0 	vpxord 0x16ec0(%rsi),%zmm30,%zmm30
  40cde4:	6e 01 00 
  40cde7:	62 61 7c 48 11 74 24 	vmovups %zmm30,0x18c0(%rsp)
  40cdee:	63 
  40cdef:	62 61 7c 48 10 74 24 	vmovups 0xcc0(%rsp),%zmm30
  40cdf6:	33 
  40cdf7:	62 f1 45 48 ef be 00 	vpxord 0x16200(%rsi),%zmm7,%zmm7
  40cdfe:	62 01 00 
  40ce01:	62 f1 7c 48 11 7c 24 	vmovups %zmm7,0x140(%rsp)
  40ce08:	05 
  40ce09:	62 51 7d 48 ef c4    	vpxord %zmm12,%zmm0,%zmm8
  40ce0f:	62 91 1d 48 ef ff    	vpxord %zmm31,%zmm12,%zmm7
  40ce15:	62 71 05 40 ef e2    	vpxord %zmm2,%zmm31,%zmm12
  40ce1b:	62 d3 0d 40 25 d0 36 	vpternlogd $0x36,%zmm8,%zmm30,%zmm2
  40ce22:	62 53 0d 40 25 c4 6a 	vpternlogd $0x6a,%zmm12,%zmm30,%zmm8
  40ce29:	62 61 7c 48 10 b6 00 	vmovups 0x16600(%rsi),%zmm30
  40ce30:	66 01 00 
  40ce33:	62 73 45 48 25 e2 6c 	vpternlogd $0x6c,%zmm2,%zmm7,%zmm12
  40ce3a:	62 f3 3d 48 25 fa 56 	vpternlogd $0x56,%zmm2,%zmm8,%zmm7
  40ce41:	62 63 05 40 25 f2 96 	vpternlogd $0x96,%zmm2,%zmm31,%zmm30
  40ce48:	62 f1 7c 48 10 54 24 	vmovups 0x1100(%rsp),%zmm2
  40ce4f:	44 
  40ce50:	62 61 7c 48 10 7c 24 	vmovups 0xd00(%rsp),%zmm31
  40ce57:	34 
  40ce58:	62 61 7c 48 11 74 24 	vmovups %zmm30,0x540(%rsp)
  40ce5f:	15 
  40ce60:	62 61 7c 48 10 74 24 	vmovups 0x1040(%rsp),%zmm30
  40ce67:	41 
  40ce68:	62 71 3d 48 ef 86 40 	vpxord 0x16240(%rsi),%zmm8,%zmm8
  40ce6f:	62 01 00 
  40ce72:	62 71 1d 48 ef a6 00 	vpxord 0x16f00(%rsi),%zmm12,%zmm12
  40ce79:	6f 01 00 
  40ce7c:	62 71 7c 48 11 44 24 	vmovups %zmm8,0x180(%rsp)
  40ce83:	06 
  40ce84:	62 71 7c 48 11 64 24 	vmovups %zmm12,0x1900(%rsp)
  40ce8b:	64 
  40ce8c:	62 71 7d 48 ef c2    	vpxord %zmm2,%zmm0,%zmm8
  40ce92:	62 71 0d 40 ef e1    	vpxord %zmm1,%zmm30,%zmm12
  40ce98:	62 d3 05 40 25 c8 36 	vpternlogd $0x36,%zmm8,%zmm31,%zmm1
  40ce9f:	62 53 05 40 25 c4 6a 	vpternlogd $0x6a,%zmm12,%zmm31,%zmm8
  40cea6:	62 61 7c 48 10 7c 24 	vmovups 0x1000(%rsp),%zmm31
  40cead:	40 
  40ceae:	62 91 6d 48 ef d6    	vpxord %zmm30,%zmm2,%zmm2
  40ceb4:	62 73 6d 48 25 e1 6c 	vpternlogd $0x6c,%zmm1,%zmm2,%zmm12
  40cebb:	62 f3 3d 48 25 d1 56 	vpternlogd $0x56,%zmm1,%zmm8,%zmm2
  40cec2:	62 f1 6d 48 ef 96 80 	vpxord 0x16b80(%rsi),%zmm2,%zmm2
  40cec9:	6b 01 00 
  40cecc:	62 f1 7c 48 11 54 24 	vmovups %zmm2,0x900(%rsp)
  40ced3:	24 
  40ced4:	62 f1 1d 48 ef 96 40 	vpxord 0x16f40(%rsi),%zmm12,%zmm2
  40cedb:	6f 01 00 
  40cede:	62 71 7c 48 10 a6 40 	vmovups 0x16640(%rsi),%zmm12
  40cee5:	66 01 00 
  40cee8:	62 73 0d 40 25 e1 96 	vpternlogd $0x96,%zmm1,%zmm30,%zmm12
  40ceef:	62 f1 7c 48 10 4c 24 	vmovups 0x10c0(%rsp),%zmm1
  40cef6:	43 
  40cef7:	62 61 7c 48 10 74 24 	vmovups 0xd40(%rsp),%zmm30
  40cefe:	35 
  40ceff:	62 71 7c 48 11 64 24 	vmovups %zmm12,0x500(%rsp)
  40cf06:	14 
  40cf07:	62 71 3d 48 ef 86 80 	vpxord 0x16280(%rsi),%zmm8,%zmm8
  40cf0e:	62 01 00 
  40cf11:	62 71 7c 48 11 44 24 	vmovups %zmm8,0x1c0(%rsp)
  40cf18:	07 
  40cf19:	62 71 7d 48 ef c1    	vpxord %zmm1,%zmm0,%zmm8
  40cf1f:	62 11 05 40 ef e5    	vpxord %zmm29,%zmm31,%zmm12
  40cf25:	62 43 0d 40 25 e8 36 	vpternlogd $0x36,%zmm8,%zmm30,%zmm29
  40cf2c:	62 53 0d 40 25 c4 6a 	vpternlogd $0x6a,%zmm12,%zmm30,%zmm8
  40cf33:	62 91 75 48 ef cf    	vpxord %zmm31,%zmm1,%zmm1
  40cf39:	62 13 75 48 25 e5 6c 	vpternlogd $0x6c,%zmm29,%zmm1,%zmm12
  40cf40:	62 93 3d 48 25 cd 56 	vpternlogd $0x56,%zmm29,%zmm8,%zmm1
  40cf47:	62 f1 75 48 ef 8e c0 	vpxord 0x16bc0(%rsi),%zmm1,%zmm1
  40cf4e:	6b 01 00 
  40cf51:	62 f1 7c 48 11 4c 24 	vmovups %zmm1,0x980(%rsp)
  40cf58:	26 
  40cf59:	62 f1 1d 48 ef 8e 80 	vpxord 0x16f80(%rsi),%zmm12,%zmm1
  40cf60:	6f 01 00 
  40cf63:	62 71 7c 48 10 a6 80 	vmovups 0x16680(%rsi),%zmm12
  40cf6a:	66 01 00 
  40cf6d:	62 13 05 40 25 e5 96 	vpternlogd $0x96,%zmm29,%zmm31,%zmm12
  40cf74:	62 61 7c 48 10 6c 24 	vmovups 0xd80(%rsp),%zmm29
  40cf7b:	36 
  40cf7c:	62 61 7c 48 10 be c0 	vmovups 0x166c0(%rsi),%zmm31
  40cf83:	66 01 00 
  40cf86:	62 71 7c 48 11 64 24 	vmovups %zmm12,0x600(%rsp)
  40cf8d:	18 
  40cf8e:	62 71 3d 48 ef 86 c0 	vpxord 0x162c0(%rsi),%zmm8,%zmm8
  40cf95:	62 01 00 
  40cf98:	62 71 7c 48 11 44 24 	vmovups %zmm8,0x200(%rsp)
  40cf9f:	08 
  40cfa0:	62 71 7c 48 10 44 24 	vmovups 0x1200(%rsp),%zmm8
  40cfa7:	48 
  40cfa8:	62 31 7d 48 ef e7    	vpxord %zmm23,%zmm0,%zmm12
  40cfae:	62 41 45 40 ef f0    	vpxord %zmm8,%zmm23,%zmm30
  40cfb4:	62 81 3d 48 ef f9    	vpxord %zmm25,%zmm8,%zmm23
  40cfba:	62 43 15 40 25 cc 36 	vpternlogd $0x36,%zmm12,%zmm29,%zmm25
  40cfc1:	62 33 15 40 25 e7 6a 	vpternlogd $0x6a,%zmm23,%zmm29,%zmm12
  40cfc8:	62 83 0d 40 25 f9 6c 	vpternlogd $0x6c,%zmm25,%zmm30,%zmm23
  40cfcf:	62 03 1d 48 25 f1 56 	vpternlogd $0x56,%zmm25,%zmm12,%zmm30
  40cfd6:	62 03 3d 48 25 f9 96 	vpternlogd $0x96,%zmm25,%zmm8,%zmm31
  40cfdd:	62 61 7c 48 11 7c 24 	vmovups %zmm31,0x580(%rsp)
  40cfe4:	16 
  40cfe5:	62 61 7c 48 10 be 00 	vmovups 0x16700(%rsi),%zmm31
  40cfec:	67 01 00 
  40cfef:	62 61 1d 48 ef ae 00 	vpxord 0x16300(%rsi),%zmm12,%zmm29
  40cff6:	63 01 00 
  40cff9:	62 61 7c 48 11 6c 24 	vmovups %zmm29,0x240(%rsp)
  40d000:	09 
  40d001:	62 61 0d 40 ef ae 00 	vpxord 0x16800(%rsi),%zmm30,%zmm29
  40d008:	68 01 00 
  40d00b:	62 61 7c 48 10 74 24 	vmovups 0x11c0(%rsp),%zmm30
  40d012:	47 
  40d013:	62 01 7d 48 ef c8    	vpxord %zmm24,%zmm0,%zmm25
  40d019:	62 11 3d 40 ef e6    	vpxord %zmm30,%zmm24,%zmm12
  40d01f:	62 01 0d 40 ef c2    	vpxord %zmm26,%zmm30,%zmm24
  40d025:	62 03 4d 40 25 d1 36 	vpternlogd $0x36,%zmm25,%zmm22,%zmm26
  40d02c:	62 03 4d 40 25 c8 6a 	vpternlogd $0x6a,%zmm24,%zmm22,%zmm25
  40d033:	62 03 1d 48 25 c2 6c 	vpternlogd $0x6c,%zmm26,%zmm12,%zmm24
  40d03a:	62 13 35 40 25 e2 56 	vpternlogd $0x56,%zmm26,%zmm25,%zmm12
  40d041:	62 03 0d 40 25 fa 96 	vpternlogd $0x96,%zmm26,%zmm30,%zmm31
  40d048:	62 61 7c 48 11 7c 24 	vmovups %zmm31,0x800(%rsp)
  40d04f:	20 
  40d050:	62 71 1d 48 ef 86 40 	vpxord 0x16840(%rsi),%zmm12,%zmm8
  40d057:	68 01 00 
  40d05a:	62 71 7c 48 10 64 24 	vmovups 0x1080(%rsp),%zmm12
  40d061:	42 
  40d062:	62 e1 35 40 ef b6 40 	vpxord 0x16340(%rsi),%zmm25,%zmm22
  40d069:	63 01 00 
  40d06c:	62 e1 7c 48 11 74 24 	vmovups %zmm22,0x2c0(%rsp)
  40d073:	0b 
  40d074:	62 41 7d 48 ef d1    	vpxord %zmm9,%zmm0,%zmm26
  40d07a:	62 81 1d 48 ef f3    	vpxord %zmm27,%zmm12,%zmm22
  40d080:	62 03 5d 40 25 da 36 	vpternlogd $0x36,%zmm26,%zmm20,%zmm27
  40d087:	62 23 5d 40 25 d6 6a 	vpternlogd $0x6a,%zmm22,%zmm20,%zmm26
  40d08e:	62 e1 7c 48 10 a6 40 	vmovups 0x16740(%rsi),%zmm20
  40d095:	67 01 00 
  40d098:	62 83 1d 48 25 e3 96 	vpternlogd $0x96,%zmm27,%zmm12,%zmm20
  40d09f:	62 e1 7c 48 11 64 24 	vmovups %zmm20,0x880(%rsp)
  40d0a6:	22 
  40d0a7:	62 e1 7c 48 10 64 24 	vmovups 0x1300(%rsp),%zmm20
  40d0ae:	4c 
  40d0af:	62 61 3d 40 ef 8e 00 	vpxord 0x16c00(%rsi),%zmm24,%zmm25
  40d0b6:	6c 01 00 
  40d0b9:	62 41 35 48 ef c4    	vpxord %zmm12,%zmm9,%zmm24
  40d0bf:	62 83 3d 40 25 f3 6c 	vpternlogd $0x6c,%zmm27,%zmm24,%zmm22
  40d0c6:	62 03 2d 40 25 c3 56 	vpternlogd $0x56,%zmm27,%zmm26,%zmm24
  40d0cd:	62 61 7c 48 10 5c 24 	vmovups 0x9c0(%rsp),%zmm27
  40d0d4:	27 
  40d0d5:	62 71 2d 40 ef 8e 80 	vpxord 0x16380(%rsi),%zmm26,%zmm9
  40d0dc:	63 01 00 
  40d0df:	62 71 7c 48 11 4c 24 	vmovups %zmm9,0x280(%rsp)
  40d0e6:	0a 
  40d0e7:	62 71 7c 48 10 4c 24 	vmovups 0x1480(%rsp),%zmm9
  40d0ee:	52 
  40d0ef:	62 61 4d 40 ef 96 40 	vpxord 0x16c40(%rsi),%zmm22,%zmm26
  40d0f6:	6c 01 00 
  40d0f9:	62 81 7d 48 ef f3    	vpxord %zmm27,%zmm0,%zmm22
  40d0ff:	62 21 25 40 ef fc    	vpxord %zmm20,%zmm27,%zmm31
  40d105:	62 61 7c 48 10 5c 24 	vmovups 0x14c0(%rsp),%zmm27
  40d10c:	53 
  40d10d:	62 51 5d 40 ef e1    	vpxord %zmm9,%zmm20,%zmm12
  40d113:	62 33 25 40 25 ce 36 	vpternlogd $0x36,%zmm22,%zmm27,%zmm9
  40d11a:	62 c3 25 40 25 f4 6a 	vpternlogd $0x6a,%zmm12,%zmm27,%zmm22
  40d121:	62 53 05 40 25 e1 6c 	vpternlogd $0x6c,%zmm9,%zmm31,%zmm12
  40d128:	62 43 4d 40 25 f9 56 	vpternlogd $0x56,%zmm9,%zmm22,%zmm31
  40d12f:	62 61 1d 48 ef 9e 80 	vpxord 0x16c80(%rsi),%zmm12,%zmm27
  40d136:	6c 01 00 
  40d139:	62 71 7c 48 10 a6 80 	vmovups 0x16780(%rsi),%zmm12
  40d140:	67 01 00 
  40d143:	62 53 5d 40 25 e1 96 	vpternlogd $0x96,%zmm9,%zmm20,%zmm12
  40d14a:	62 71 7c 48 11 64 24 	vmovups %zmm12,0x4c0(%rsp)
  40d151:	13 
  40d152:	62 e1 75 40 ef 8e 00 	vpxord 0x16000(%rsi),%zmm17,%zmm17
  40d159:	60 01 00 
  40d15c:	62 71 7d 48 ef ce    	vpxord %zmm6,%zmm0,%zmm9
  40d162:	62 81 15 40 ef e1    	vpxord %zmm25,%zmm29,%zmm20
  40d168:	62 43 75 40 25 c9 36 	vpternlogd $0x36,%zmm9,%zmm17,%zmm25
  40d16f:	62 33 75 40 25 cc 6a 	vpternlogd $0x6a,%zmm20,%zmm17,%zmm9
  40d176:	62 11 4d 48 ef e5    	vpxord %zmm29,%zmm6,%zmm12
  40d17c:	62 f1 35 48 ef b6 00 	vpxord 0x17000(%rsi),%zmm9,%zmm6
  40d183:	70 01 00 
  40d186:	62 83 1d 48 25 e1 6c 	vpternlogd $0x6c,%zmm25,%zmm12,%zmm20
  40d18d:	62 13 35 48 25 e1 56 	vpternlogd $0x56,%zmm25,%zmm9,%zmm12
  40d194:	62 71 7c 48 10 8e c0 	vmovups 0x177c0(%rsi),%zmm9
  40d19b:	77 01 00 
  40d19e:	62 f1 7c 48 11 74 24 	vmovups %zmm6,0x100(%rsp)
  40d1a5:	04 
  40d1a6:	62 13 15 40 25 c9 96 	vpternlogd $0x96,%zmm25,%zmm29,%zmm9
  40d1ad:	62 71 7c 48 11 4c 24 	vmovups %zmm9,0x80(%rsp)
  40d1b4:	02 
  40d1b5:	62 71 25 48 ef 9e 40 	vpxord 0x16040(%rsi),%zmm11,%zmm11
  40d1bc:	60 01 00 
  40d1bf:	62 d1 7d 48 ef f6    	vpxord %zmm14,%zmm0,%zmm6
  40d1c5:	62 11 3d 48 ef ca    	vpxord %zmm26,%zmm8,%zmm9
  40d1cb:	62 63 25 48 25 d6 36 	vpternlogd $0x36,%zmm6,%zmm11,%zmm26
  40d1d2:	62 d3 25 48 25 f1 6a 	vpternlogd $0x6a,%zmm9,%zmm11,%zmm6
  40d1d9:	62 51 0d 48 ef f0    	vpxord %zmm8,%zmm14,%zmm14
  40d1df:	62 71 4d 48 ef 9e 40 	vpxord 0x17040(%rsi),%zmm6,%zmm11
  40d1e6:	70 01 00 
  40d1e9:	62 13 0d 48 25 ca 6c 	vpternlogd $0x6c,%zmm26,%zmm14,%zmm9
  40d1f0:	62 13 4d 48 25 f2 56 	vpternlogd $0x56,%zmm26,%zmm6,%zmm14
  40d1f7:	62 f1 7c 48 10 b6 00 	vmovups 0x17400(%rsi),%zmm6
  40d1fe:	74 01 00 
  40d201:	62 71 7c 48 11 5c 24 	vmovups %zmm11,0x300(%rsp)
  40d208:	0c 
  40d209:	62 93 3d 48 25 f2 96 	vpternlogd $0x96,%zmm26,%zmm8,%zmm6
  40d210:	62 f1 7c 48 11 74 24 	vmovups %zmm6,0x5c0(%rsp)
  40d217:	17 
  40d218:	62 61 3d 40 ef 86 80 	vpxord 0x16880(%rsi),%zmm24,%zmm24
  40d21f:	68 01 00 
  40d222:	62 31 7d 48 ef c2    	vpxord %zmm18,%zmm0,%zmm8
  40d228:	62 01 3d 40 ef eb    	vpxord %zmm27,%zmm24,%zmm29
  40d22e:	62 43 55 40 25 d8 36 	vpternlogd $0x36,%zmm8,%zmm21,%zmm27
  40d235:	62 13 55 40 25 c5 6a 	vpternlogd $0x6a,%zmm29,%zmm21,%zmm8
  40d23c:	62 e1 7c 48 10 ae 40 	vmovups 0x17440(%rsi),%zmm21
  40d243:	74 01 00 
  40d246:	62 83 3d 40 25 eb 96 	vpternlogd $0x96,%zmm27,%zmm24,%zmm21
  40d24d:	62 e1 7c 48 11 6c 24 	vmovups %zmm21,0x8c0(%rsp)
  40d254:	23 
  40d255:	62 e1 7c 48 10 6c 24 	vmovups 0x1880(%rsp),%zmm21
  40d25c:	62 
  40d25d:	62 61 3d 48 ef 96 80 	vpxord 0x17080(%rsi),%zmm8,%zmm26
  40d264:	70 01 00 
  40d267:	62 61 4d 40 ef b6 c0 	vpxord 0x163c0(%rsi),%zmm22,%zmm30
  40d26e:	63 01 00 
  40d271:	62 e1 05 40 ef b6 c0 	vpxord 0x168c0(%rsi),%zmm31,%zmm22
  40d278:	68 01 00 
  40d27b:	62 81 6d 40 ef d0    	vpxord %zmm24,%zmm18,%zmm18
  40d281:	62 e1 65 40 ef 9e c0 	vpxord 0x160c0(%rsi),%zmm19,%zmm19
  40d288:	60 01 00 
  40d28b:	62 03 6d 40 25 eb 6c 	vpternlogd $0x6c,%zmm27,%zmm18,%zmm29
  40d292:	62 83 3d 48 25 d3 56 	vpternlogd $0x56,%zmm27,%zmm8,%zmm18
  40d299:	62 61 7c 48 11 54 24 	vmovups %zmm26,0x340(%rsp)
  40d2a0:	0d 
  40d2a1:	62 61 7c 48 10 96 80 	vmovups 0x17480(%rsi),%zmm26
  40d2a8:	74 01 00 
  40d2ab:	62 61 7c 48 11 74 24 	vmovups %zmm30,0xc0(%rsp)
  40d2b2:	03 
  40d2b3:	62 41 7d 48 ef c2    	vpxord %zmm10,%zmm0,%zmm24
  40d2b9:	62 01 4d 40 ef dc    	vpxord %zmm28,%zmm22,%zmm27
  40d2bf:	62 03 65 40 25 e0 36 	vpternlogd $0x36,%zmm24,%zmm19,%zmm28
  40d2c6:	62 03 65 40 25 c3 6a 	vpternlogd $0x6a,%zmm27,%zmm19,%zmm24
  40d2cd:	62 03 4d 40 25 d4 96 	vpternlogd $0x96,%zmm28,%zmm22,%zmm26
  40d2d4:	62 61 7c 48 11 54 24 	vmovups %zmm26,0x740(%rsp)
  40d2db:	1d 
  40d2dc:	62 61 0d 48 ef 8e 40 	vpxord 0x17940(%rsi),%zmm14,%zmm25
  40d2e3:	79 01 00 
  40d2e6:	62 61 7c 48 11 4c 24 	vmovups %zmm25,0x780(%rsp)
  40d2ed:	1e 
  40d2ee:	62 61 7c 48 10 4c 24 	vmovups 0x1580(%rsp),%zmm25
  40d2f5:	56 
  40d2f6:	62 71 7c 48 10 74 24 	vmovups 0x15c0(%rsp),%zmm14
  40d2fd:	57 
  40d2fe:	62 31 2d 48 ef d6    	vpxord %zmm22,%zmm10,%zmm10
  40d304:	62 e1 3d 40 ef 9e c0 	vpxord 0x170c0(%rsi),%zmm24,%zmm19
  40d30b:	70 01 00 
  40d30e:	62 03 2d 48 25 dc 6c 	vpternlogd $0x6c,%zmm28,%zmm10,%zmm27
  40d315:	62 13 3d 40 25 d4 56 	vpternlogd $0x56,%zmm28,%zmm24,%zmm10
  40d31c:	62 61 7c 48 10 44 24 	vmovups 0x1500(%rsp),%zmm24
  40d323:	54 
  40d324:	62 e1 7c 48 10 b6 c0 	vmovups 0x174c0(%rsi),%zmm22
  40d32b:	74 01 00 
  40d32e:	62 e1 7c 48 11 5c 24 	vmovups %zmm19,0x380(%rsp)
  40d335:	0e 
  40d336:	62 f1 5d 48 ef a6 00 	vpxord 0x16100(%rsi),%zmm4,%zmm4
  40d33d:	61 01 00 
  40d340:	62 21 7d 48 ef e0    	vpxord %zmm16,%zmm0,%zmm28
  40d346:	62 01 3d 40 ef d1    	vpxord %zmm25,%zmm24,%zmm26
  40d34c:	62 03 5d 48 25 cc 36 	vpternlogd $0x36,%zmm28,%zmm4,%zmm25
  40d353:	62 03 5d 48 25 e2 6a 	vpternlogd $0x6a,%zmm26,%zmm4,%zmm28
  40d35a:	62 83 3d 40 25 f1 96 	vpternlogd $0x96,%zmm25,%zmm24,%zmm22
  40d361:	62 e1 7c 48 11 74 24 	vmovups %zmm22,0x1380(%rsp)
  40d368:	4e 
  40d369:	62 e1 7c 48 10 74 24 	vmovups 0x1600(%rsp),%zmm22
  40d370:	58 
  40d371:	62 f1 2d 48 ef b6 c0 	vpxord 0x179c0(%rsi),%zmm10,%zmm6
  40d378:	79 01 00 
  40d37b:	62 71 7c 48 10 54 24 	vmovups 0x1540(%rsp),%zmm10
  40d382:	55 
  40d383:	62 f1 7c 48 11 74 24 	vmovups %zmm6,0x7c0(%rsp)
  40d38a:	1f 
  40d38b:	62 f1 1d 40 ef a6 00 	vpxord 0x17100(%rsi),%zmm28,%zmm4
  40d392:	71 01 00 
  40d395:	62 81 7d 40 ef c0    	vpxord %zmm24,%zmm16,%zmm16
  40d39b:	62 f1 55 48 ef ae 40 	vpxord 0x16140(%rsi),%zmm5,%zmm5
  40d3a2:	61 01 00 
  40d3a5:	62 03 7d 40 25 d1 6c 	vpternlogd $0x6c,%zmm25,%zmm16,%zmm26
  40d3ac:	62 83 1d 40 25 c1 56 	vpternlogd $0x56,%zmm25,%zmm28,%zmm16
  40d3b3:	62 f1 7c 48 11 64 24 	vmovups %zmm4,0x3c0(%rsp)
  40d3ba:	0f 
  40d3bb:	62 61 7c 48 10 64 24 	vmovups 0x1900(%rsp),%zmm28
  40d3c2:	64 
  40d3c3:	62 f1 7d 48 ef e3    	vpxord %zmm3,%zmm0,%zmm4
  40d3c9:	62 21 2d 48 ef ce    	vpxord %zmm22,%zmm10,%zmm25
  40d3cf:	62 e3 55 48 25 f4 36 	vpternlogd $0x36,%zmm4,%zmm5,%zmm22
  40d3d6:	62 93 55 48 25 e1 6a 	vpternlogd $0x6a,%zmm25,%zmm5,%zmm4
  40d3dd:	62 d1 65 48 ef da    	vpxord %zmm10,%zmm3,%zmm3
  40d3e3:	62 f1 5d 48 ef ae 40 	vpxord 0x17140(%rsi),%zmm4,%zmm5
  40d3ea:	71 01 00 
  40d3ed:	62 23 65 48 25 ce 6c 	vpternlogd $0x6c,%zmm22,%zmm3,%zmm25
  40d3f4:	62 b3 5d 48 25 de 56 	vpternlogd $0x56,%zmm22,%zmm4,%zmm3
  40d3fb:	62 f1 7c 48 10 a6 00 	vmovups 0x17500(%rsi),%zmm4
  40d402:	75 01 00 
  40d405:	62 f1 7c 48 11 6c 24 	vmovups %zmm5,0x440(%rsp)
  40d40c:	11 
  40d40d:	62 b3 2d 48 25 e6 96 	vpternlogd $0x96,%zmm22,%zmm10,%zmm4
  40d414:	62 71 7c 48 10 54 24 	vmovups 0x1680(%rsp),%zmm10
  40d41b:	5a 
  40d41c:	62 f1 7c 48 11 64 24 	vmovups %zmm4,0x700(%rsp)
  40d423:	1c 
  40d424:	62 61 65 48 ef 86 40 	vpxord 0x17a40(%rsi),%zmm3,%zmm24
  40d42b:	7a 01 00 
  40d42e:	62 d1 7d 48 ef ef    	vpxord %zmm15,%zmm0,%zmm5
  40d434:	62 d1 05 48 ef de    	vpxord %zmm14,%zmm15,%zmm3
  40d43a:	62 71 7c 48 10 7c 24 	vmovups 0x1740(%rsp),%zmm15
  40d441:	5d 
  40d442:	62 d1 0d 48 ef e2    	vpxord %zmm10,%zmm14,%zmm4
  40d448:	62 73 05 48 25 d5 36 	vpternlogd $0x36,%zmm5,%zmm15,%zmm10
  40d44f:	62 f3 05 48 25 ec 6a 	vpternlogd $0x6a,%zmm4,%zmm15,%zmm5
  40d456:	62 d3 65 48 25 e2 6c 	vpternlogd $0x6c,%zmm10,%zmm3,%zmm4
  40d45d:	62 d3 55 48 25 da 56 	vpternlogd $0x56,%zmm10,%zmm5,%zmm3
  40d464:	62 71 6d 40 ef 86 80 	vpxord 0x17980(%rsi),%zmm18,%zmm8
  40d46b:	79 01 00 
  40d46e:	62 e1 7c 48 10 54 24 	vmovups 0x1640(%rsp),%zmm18
  40d475:	59 
  40d476:	62 e1 1d 48 ef 8e 00 	vpxord 0x17900(%rsi),%zmm12,%zmm17
  40d47d:	79 01 00 
  40d480:	62 f1 25 40 ef b6 80 	vpxord 0x17d80(%rsi),%zmm27,%zmm6
  40d487:	7d 01 00 
  40d48a:	62 61 7d 40 ef 9e 00 	vpxord 0x17a00(%rsi),%zmm16,%zmm27
  40d491:	7a 01 00 
  40d494:	62 e1 7c 48 10 86 40 	vmovups 0x17540(%rsi),%zmm16
  40d49b:	75 01 00 
  40d49e:	62 e1 7c 48 11 4c 24 	vmovups %zmm17,0x940(%rsp)
  40d4a5:	25 
  40d4a6:	62 c3 0d 48 25 c2 96 	vpternlogd $0x96,%zmm10,%zmm14,%zmm16
  40d4ad:	62 71 7c 48 10 96 80 	vmovups 0x17580(%rsi),%zmm10
  40d4b4:	75 01 00 
  40d4b7:	62 e1 7c 48 11 44 24 	vmovups %zmm16,0x6c0(%rsp)
  40d4be:	1b 
  40d4bf:	62 e1 55 48 ef b6 80 	vpxord 0x17180(%rsi),%zmm5,%zmm22
  40d4c6:	71 01 00 
  40d4c9:	62 f1 7c 48 10 6c 24 	vmovups 0x16c0(%rsp),%zmm5
  40d4d0:	5b 
  40d4d1:	62 e1 7c 48 11 74 24 	vmovups %zmm22,0x480(%rsp)
  40d4d8:	12 
  40d4d9:	62 71 65 48 ef be 80 	vpxord 0x17a80(%rsi),%zmm3,%zmm15
  40d4e0:	7a 01 00 
  40d4e3:	62 c1 7d 48 ef cd    	vpxord %zmm13,%zmm0,%zmm17
  40d4e9:	62 b1 15 48 ef da    	vpxord %zmm18,%zmm13,%zmm3
  40d4ef:	62 71 7c 48 10 6c 24 	vmovups 0x17c0(%rsp),%zmm13
  40d4f6:	5f 
  40d4f7:	62 71 7c 48 11 7c 24 	vmovups %zmm15,0x680(%rsp)
  40d4fe:	1a 
  40d4ff:	62 71 7c 48 10 7c 24 	vmovups 0x1780(%rsp),%zmm15
  40d506:	5e 
  40d507:	62 71 6d 40 ef f5    	vpxord %zmm5,%zmm18,%zmm14
  40d50d:	62 b3 15 48 25 e9 36 	vpternlogd $0x36,%zmm17,%zmm13,%zmm5
  40d514:	62 c3 15 48 25 ce 6a 	vpternlogd $0x6a,%zmm14,%zmm13,%zmm17
  40d51b:	62 73 65 48 25 f5 6c 	vpternlogd $0x6c,%zmm5,%zmm3,%zmm14
  40d522:	62 f3 75 40 25 dd 56 	vpternlogd $0x56,%zmm5,%zmm17,%zmm3
  40d529:	62 73 6d 40 25 d5 96 	vpternlogd $0x96,%zmm5,%zmm18,%zmm10
  40d530:	62 71 7c 48 11 54 24 	vmovups %zmm10,0x840(%rsp)
  40d537:	21 
  40d538:	62 71 7c 48 10 54 24 	vmovups 0x1700(%rsp),%zmm10
  40d53f:	5c 
  40d540:	62 e1 5d 48 ef b6 40 	vpxord 0x17e40(%rsi),%zmm4,%zmm22
  40d547:	7e 01 00 
  40d54a:	62 71 75 40 ef ae c0 	vpxord 0x171c0(%rsi),%zmm17,%zmm13
  40d551:	71 01 00 
  40d554:	62 f1 65 48 ef a6 c0 	vpxord 0x17ac0(%rsi),%zmm3,%zmm4
  40d55b:	7a 01 00 
  40d55e:	62 71 5d 40 ef a6 c0 	vpxord 0x17cc0(%rsi),%zmm20,%zmm12
  40d565:	7c 01 00 
  40d568:	62 71 35 48 ef 9e 00 	vpxord 0x17d00(%rsi),%zmm9,%zmm11
  40d56f:	7d 01 00 
  40d572:	62 71 7c 48 11 6c 24 	vmovups %zmm13,0x400(%rsp)
  40d579:	10 
  40d57a:	62 f1 7c 48 11 64 24 	vmovups %zmm4,0x1440(%rsp)
  40d581:	51 
  40d582:	62 f1 7c 48 10 a6 80 	vmovups 0x17e80(%rsi),%zmm4
  40d589:	7e 01 00 
  40d58c:	62 f1 7c 48 10 5c 24 	vmovups 0x1840(%rsp),%zmm3
  40d593:	61 
  40d594:	62 e1 7c 48 10 64 24 	vmovups 0x1800(%rsp),%zmm20
  40d59b:	60 
  40d59c:	62 71 7c 48 10 6c 24 	vmovups 0x18c0(%rsp),%zmm13
  40d5a3:	63 
  40d5a4:	62 f1 45 48 ef be 40 	vpxord 0x16b40(%rsi),%zmm7,%zmm7
  40d5ab:	6b 01 00 
  40d5ae:	62 e1 45 40 ef be c0 	vpxord 0x16fc0(%rsi),%zmm23,%zmm23
  40d5b5:	6f 01 00 
  40d5b8:	62 71 15 40 ef 8e 40 	vpxord 0x17d40(%rsi),%zmm29,%zmm9
  40d5bf:	7d 01 00 
  40d5c2:	62 61 2d 40 ef 96 c0 	vpxord 0x17dc0(%rsi),%zmm26,%zmm26
  40d5c9:	7d 01 00 
  40d5cc:	62 61 35 40 ef 8e 00 	vpxord 0x17e00(%rsi),%zmm25,%zmm25
  40d5d3:	7e 01 00 
  40d5d6:	62 e1 7c 48 10 5c 24 	vmovups 0x540(%rsp),%zmm19
  40d5dd:	15 
  40d5de:	62 f1 7c 48 10 6c 24 	vmovups 0x13c0(%rsp),%zmm5
  40d5e5:	4f 
  40d5e6:	62 e1 0d 48 ef cc    	vpxord %zmm4,%zmm14,%zmm17
  40d5ec:	62 f1 7c 48 10 64 24 	vmovups 0x140(%rsp),%zmm4
  40d5f3:	05 
  40d5f4:	62 21 7d 48 ef eb    	vpxord %zmm19,%zmm0,%zmm29
  40d5fa:	62 51 55 48 ef f2    	vpxord %zmm10,%zmm5,%zmm14
  40d600:	62 13 5d 48 25 d5 36 	vpternlogd $0x36,%zmm29,%zmm4,%zmm10
  40d607:	62 43 5d 48 25 ee 6a 	vpternlogd $0x6a,%zmm14,%zmm4,%zmm29
  40d60e:	62 e1 65 40 ef c5    	vpxord %zmm5,%zmm19,%zmm16
  40d614:	62 53 7d 40 25 f2 6c 	vpternlogd $0x6c,%zmm10,%zmm16,%zmm14
  40d61b:	62 c3 15 40 25 c2 56 	vpternlogd $0x56,%zmm10,%zmm29,%zmm16
  40d622:	62 f1 7d 40 ef a6 00 	vpxord 0x17b00(%rsi),%zmm16,%zmm4
  40d629:	7b 01 00 
  40d62c:	62 f1 7c 48 11 64 24 	vmovups %zmm4,0x1140(%rsp)
  40d633:	45 
  40d634:	62 f1 7c 48 10 a6 c0 	vmovups 0x175c0(%rsi),%zmm4
  40d63b:	75 01 00 
  40d63e:	62 e1 7c 48 10 44 24 	vmovups 0x640(%rsp),%zmm16
  40d645:	19 
  40d646:	62 d3 55 48 25 e2 96 	vpternlogd $0x96,%zmm10,%zmm5,%zmm4
  40d64d:	62 71 7c 48 10 54 24 	vmovups 0x500(%rsp),%zmm10
  40d654:	14 
  40d655:	62 f1 7c 48 10 6c 24 	vmovups 0x180(%rsp),%zmm5
  40d65c:	06 
  40d65d:	62 41 7d 48 ef f2    	vpxord %zmm10,%zmm0,%zmm30
  40d663:	62 21 2d 48 ef f8    	vpxord %zmm16,%zmm10,%zmm31
  40d669:	62 51 7d 40 ef d7    	vpxord %zmm15,%zmm16,%zmm10
  40d66f:	62 13 55 48 25 fe 36 	vpternlogd $0x36,%zmm30,%zmm5,%zmm15
  40d676:	62 43 55 48 25 f2 6a 	vpternlogd $0x6a,%zmm10,%zmm5,%zmm30
  40d67d:	62 53 05 40 25 d7 6c 	vpternlogd $0x6c,%zmm15,%zmm31,%zmm10
  40d684:	62 43 0d 40 25 ff 56 	vpternlogd $0x56,%zmm15,%zmm30,%zmm31
  40d68b:	62 f1 2d 48 ef ae 00 	vpxord 0x17f00(%rsi),%zmm10,%zmm5
  40d692:	7f 01 00 
  40d695:	62 f1 7c 48 11 6c 24 	vmovups %zmm5,0x11c0(%rsp)
  40d69c:	47 
  40d69d:	62 f1 7c 48 10 ae 00 	vmovups 0x17600(%rsi),%zmm5
  40d6a4:	76 01 00 
  40d6a7:	62 d3 7d 40 25 ef 96 	vpternlogd $0x96,%zmm15,%zmm16,%zmm5
  40d6ae:	62 71 7c 48 10 7c 24 	vmovups 0x600(%rsp),%zmm15
  40d6b5:	18 
  40d6b6:	62 e1 7c 48 10 44 24 	vmovups 0x1c0(%rsp),%zmm16
  40d6bd:	07 
  40d6be:	62 e1 15 40 ef 9e 00 	vpxord 0x17200(%rsi),%zmm29,%zmm19
  40d6c5:	72 01 00 
  40d6c8:	62 61 05 40 ef ae 40 	vpxord 0x17b40(%rsi),%zmm31,%zmm29
  40d6cf:	7b 01 00 
  40d6d2:	62 61 7c 48 11 6c 24 	vmovups %zmm29,0x1180(%rsp)
  40d6d9:	46 
  40d6da:	62 61 7c 48 10 6c 24 	vmovups 0x1400(%rsp),%zmm29
  40d6e1:	50 
  40d6e2:	62 e1 0d 40 ef 96 40 	vpxord 0x17240(%rsi),%zmm30,%zmm18
  40d6e9:	72 01 00 
  40d6ec:	62 41 7d 48 ef f7    	vpxord %zmm15,%zmm0,%zmm30
  40d6f2:	62 71 15 40 ef d3    	vpxord %zmm3,%zmm29,%zmm10
  40d6f8:	62 93 7d 40 25 de 36 	vpternlogd $0x36,%zmm30,%zmm16,%zmm3
  40d6ff:	62 43 7d 40 25 f2 6a 	vpternlogd $0x6a,%zmm10,%zmm16,%zmm30
  40d706:	62 01 05 48 ef fd    	vpxord %zmm29,%zmm15,%zmm31
  40d70c:	62 73 05 40 25 d3 6c 	vpternlogd $0x6c,%zmm3,%zmm31,%zmm10
  40d713:	62 63 0d 40 25 fb 56 	vpternlogd $0x56,%zmm3,%zmm30,%zmm31
  40d71a:	62 71 2d 48 ef 96 40 	vpxord 0x17f40(%rsi),%zmm10,%zmm10
  40d721:	7f 01 00 
  40d724:	62 71 7c 48 11 54 24 	vmovups %zmm10,0x1240(%rsp)
  40d72b:	49 
  40d72c:	62 71 7c 48 10 96 40 	vmovups 0x17640(%rsi),%zmm10
  40d733:	76 01 00 
  40d736:	62 73 15 40 25 d3 96 	vpternlogd $0x96,%zmm3,%zmm29,%zmm10
  40d73d:	62 f1 7c 48 10 5c 24 	vmovups 0x580(%rsp),%zmm3
  40d744:	16 
  40d745:	62 61 7c 48 10 6c 24 	vmovups 0x200(%rsp),%zmm29
  40d74c:	08 
  40d74d:	62 71 05 40 ef be 80 	vpxord 0x17b80(%rsi),%zmm31,%zmm15
  40d754:	7b 01 00 
  40d757:	62 e1 0d 40 ef 86 80 	vpxord 0x17280(%rsi),%zmm30,%zmm16
  40d75e:	72 01 00 
  40d761:	62 61 7d 48 ef f3    	vpxord %zmm3,%zmm0,%zmm30
  40d767:	62 71 7c 48 11 7c 24 	vmovups %zmm15,0x1200(%rsp)
  40d76e:	48 
  40d76f:	62 51 5d 40 ef fd    	vpxord %zmm13,%zmm20,%zmm15
  40d775:	62 13 15 40 25 ee 36 	vpternlogd $0x36,%zmm30,%zmm29,%zmm13
  40d77c:	62 43 15 40 25 f7 6a 	vpternlogd $0x6a,%zmm15,%zmm29,%zmm30
  40d783:	62 21 65 48 ef fc    	vpxord %zmm20,%zmm3,%zmm31
  40d789:	62 53 05 40 25 fd 6c 	vpternlogd $0x6c,%zmm13,%zmm31,%zmm15
  40d790:	62 43 0d 40 25 fd 56 	vpternlogd $0x56,%zmm13,%zmm30,%zmm31
  40d797:	62 71 05 48 ef be 80 	vpxord 0x17f80(%rsi),%zmm15,%zmm15
  40d79e:	7f 01 00 
  40d7a1:	62 71 7c 48 11 7c 24 	vmovups %zmm15,0x1300(%rsp)
  40d7a8:	4c 
  40d7a9:	62 71 7c 48 10 be 80 	vmovups 0x17680(%rsi),%zmm15
  40d7b0:	76 01 00 
  40d7b3:	62 53 5d 40 25 fd 96 	vpternlogd $0x96,%zmm13,%zmm20,%zmm15
  40d7ba:	62 71 7c 48 10 6c 24 	vmovups 0x800(%rsp),%zmm13
  40d7c1:	20 
  40d7c2:	62 61 05 40 ef ae c0 	vpxord 0x17bc0(%rsi),%zmm31,%zmm29
  40d7c9:	7b 01 00 
  40d7cc:	62 61 7c 48 11 6c 24 	vmovups %zmm29,0x12c0(%rsp)
  40d7d3:	4b 
  40d7d4:	62 61 7c 48 10 6c 24 	vmovups 0x240(%rsp),%zmm29
  40d7db:	09 
  40d7dc:	62 f1 0d 40 ef 9e c0 	vpxord 0x172c0(%rsi),%zmm30,%zmm3
  40d7e3:	72 01 00 
  40d7e6:	62 f1 7c 48 11 5c 24 	vmovups %zmm3,0x1280(%rsp)
  40d7ed:	4a 
  40d7ee:	62 d1 7d 48 ef dd    	vpxord %zmm13,%zmm0,%zmm3
  40d7f4:	62 01 55 40 ef f4    	vpxord %zmm28,%zmm21,%zmm30
  40d7fa:	62 63 15 40 25 e3 36 	vpternlogd $0x36,%zmm3,%zmm29,%zmm28
  40d801:	62 93 15 40 25 de 6a 	vpternlogd $0x6a,%zmm30,%zmm29,%zmm3
  40d808:	62 a1 15 48 ef e5    	vpxord %zmm21,%zmm13,%zmm20
  40d80e:	62 71 65 48 ef ae 00 	vpxord 0x17300(%rsi),%zmm3,%zmm13
  40d815:	73 01 00 
  40d818:	62 71 7c 48 11 6c 24 	vmovups %zmm13,0x1340(%rsp)
  40d81f:	4d 
  40d820:	62 71 7c 48 10 ae c0 	vmovups 0x176c0(%rsi),%zmm13
  40d827:	76 01 00 
  40d82a:	62 03 5d 40 25 f4 6c 	vpternlogd $0x6c,%zmm28,%zmm20,%zmm30
  40d831:	62 83 65 48 25 e4 56 	vpternlogd $0x56,%zmm28,%zmm3,%zmm20
  40d838:	62 13 55 40 25 ec 96 	vpternlogd $0x96,%zmm28,%zmm21,%zmm13
  40d83f:	62 e1 7c 48 10 6c 24 	vmovups 0x880(%rsp),%zmm21
  40d846:	22 
  40d847:	62 61 7c 48 10 64 24 	vmovups 0x2c0(%rsp),%zmm28
  40d84e:	0b 
  40d84f:	62 61 0d 40 ef be c0 	vpxord 0x17fc0(%rsi),%zmm30,%zmm31
  40d856:	7f 01 00 
  40d859:	62 61 7c 48 11 7c 24 	vmovups %zmm31,0x1480(%rsp)
  40d860:	52 
  40d861:	62 61 7c 48 10 be 00 	vmovups 0x17700(%rsi),%zmm31
  40d868:	77 01 00 
  40d86b:	62 21 7d 48 ef ed    	vpxord %zmm21,%zmm0,%zmm29
  40d871:	62 61 45 48 ef f2    	vpxord %zmm2,%zmm7,%zmm30
  40d877:	62 93 1d 40 25 d5 36 	vpternlogd $0x36,%zmm29,%zmm28,%zmm2
  40d87e:	62 03 1d 40 25 ee 6a 	vpternlogd $0x6a,%zmm30,%zmm28,%zmm29
  40d885:	62 61 7c 48 10 64 24 	vmovups 0x280(%rsp),%zmm28
  40d88c:	0a 
  40d88d:	62 63 45 48 25 fa 96 	vpternlogd $0x96,%zmm2,%zmm7,%zmm31
  40d894:	62 61 7c 48 11 7c 24 	vmovups %zmm31,0x1500(%rsp)
  40d89b:	54 
  40d89c:	62 61 7c 48 10 7c 24 	vmovups 0xc0(%rsp),%zmm31
  40d8a3:	03 
  40d8a4:	62 e1 55 40 ef ef    	vpxord %zmm7,%zmm21,%zmm21
  40d8aa:	62 f1 7c 48 10 7c 24 	vmovups 0x900(%rsp),%zmm7
  40d8b1:	24 
  40d8b2:	62 63 55 40 25 f2 6c 	vpternlogd $0x6c,%zmm2,%zmm21,%zmm30
  40d8b9:	62 e3 15 40 25 ea 56 	vpternlogd $0x56,%zmm2,%zmm29,%zmm21
  40d8c0:	62 f1 7c 48 10 54 24 	vmovups 0x4c0(%rsp),%zmm2
  40d8c7:	13 
  40d8c8:	62 f1 15 40 ef 9e 40 	vpxord 0x17340(%rsi),%zmm29,%zmm3
  40d8cf:	73 01 00 
  40d8d2:	62 f1 7c 48 11 5c 24 	vmovups %zmm3,0x14c0(%rsp)
  40d8d9:	53 
  40d8da:	62 f1 55 40 ef 9e 40 	vpxord 0x17840(%rsi),%zmm21,%zmm3
  40d8e1:	78 01 00 
  40d8e4:	62 e1 0d 40 ef ae 00 	vpxord 0x17c00(%rsi),%zmm30,%zmm21
  40d8eb:	7c 01 00 
  40d8ee:	62 61 7d 48 ef ea    	vpxord %zmm2,%zmm0,%zmm29
  40d8f4:	62 61 6d 48 ef f7    	vpxord %zmm7,%zmm2,%zmm30
  40d8fa:	62 f1 45 48 ef d1    	vpxord %zmm1,%zmm7,%zmm2
  40d900:	62 93 1d 40 25 cd 36 	vpternlogd $0x36,%zmm29,%zmm28,%zmm1
  40d907:	62 63 1d 40 25 ea 6a 	vpternlogd $0x6a,%zmm2,%zmm28,%zmm29
  40d90e:	62 f3 0d 40 25 d1 6c 	vpternlogd $0x6c,%zmm1,%zmm30,%zmm2
  40d915:	62 63 15 40 25 f1 56 	vpternlogd $0x56,%zmm1,%zmm29,%zmm30
  40d91c:	62 61 15 40 ef a6 80 	vpxord 0x17380(%rsi),%zmm29,%zmm28
  40d923:	73 01 00 
  40d926:	62 61 7c 48 11 64 24 	vmovups %zmm28,0x1540(%rsp)
  40d92d:	55 
  40d92e:	62 61 7c 48 10 a6 40 	vmovups 0x17740(%rsi),%zmm28
  40d935:	77 01 00 
  40d938:	62 63 45 48 25 e1 96 	vpternlogd $0x96,%zmm1,%zmm7,%zmm28
  40d93f:	62 f1 7c 48 10 7c 24 	vmovups 0x40(%rsp),%zmm7
  40d946:	01 
  40d947:	62 f1 7c 48 10 4c 24 	vmovups 0x980(%rsp),%zmm1
  40d94e:	26 
  40d94f:	62 61 7c 48 11 64 24 	vmovups %zmm28,0x1580(%rsp)
  40d956:	56 
  40d957:	62 61 0d 40 ef ae 80 	vpxord 0x17880(%rsi),%zmm30,%zmm29
  40d95e:	78 01 00 
  40d961:	62 61 7d 48 ef e7    	vpxord %zmm7,%zmm0,%zmm28
  40d967:	62 21 75 48 ef f7    	vpxord %zmm23,%zmm1,%zmm30
  40d96d:	62 83 05 40 25 fc 36 	vpternlogd $0x36,%zmm28,%zmm31,%zmm23
  40d974:	62 03 05 40 25 e6 6a 	vpternlogd $0x6a,%zmm30,%zmm31,%zmm28
  40d97b:	62 61 7c 48 10 7c 24 	vmovups 0x100(%rsp),%zmm31
  40d982:	04 
  40d983:	62 f1 45 48 ef f9    	vpxord %zmm1,%zmm7,%zmm7
  40d989:	62 23 45 48 25 f7 6c 	vpternlogd $0x6c,%zmm23,%zmm7,%zmm30
  40d990:	62 b3 1d 40 25 ff 56 	vpternlogd $0x56,%zmm23,%zmm28,%zmm7
  40d997:	62 61 1d 40 ef a6 c0 	vpxord 0x173c0(%rsi),%zmm28,%zmm28
  40d99e:	73 01 00 
  40d9a1:	62 61 7c 48 11 64 24 	vmovups %zmm28,0x15c0(%rsp)
  40d9a8:	57 
  40d9a9:	62 61 45 48 ef a6 c0 	vpxord 0x178c0(%rsi),%zmm7,%zmm28
  40d9b0:	78 01 00 
  40d9b3:	62 f1 0d 40 ef be 80 	vpxord 0x17c80(%rsi),%zmm30,%zmm7
  40d9ba:	7c 01 00 
  40d9bd:	62 61 7c 48 10 b6 80 	vmovups 0x17780(%rsi),%zmm30
  40d9c4:	77 01 00 
  40d9c7:	62 23 75 48 25 f7 96 	vpternlogd $0x96,%zmm23,%zmm1,%zmm30
  40d9ce:	62 f1 7c 48 10 4c 24 	vmovups 0x5c0(%rsp),%zmm1
  40d9d5:	17 
  40d9d6:	62 61 7c 48 11 74 24 	vmovups %zmm30,0x1600(%rsp)
  40d9dd:	58 
  40d9de:	62 e1 5d 40 ef a6 00 	vpxord 0x17800(%rsi),%zmm20,%zmm20
  40d9e5:	78 01 00 
  40d9e8:	62 e1 7d 48 ef f9    	vpxord %zmm1,%zmm0,%zmm23
  40d9ee:	62 21 5d 40 ef f5    	vpxord %zmm21,%zmm20,%zmm30
  40d9f4:	62 a3 05 40 25 ef 36 	vpternlogd $0x36,%zmm23,%zmm31,%zmm21
  40d9fb:	62 83 05 40 25 fe 6a 	vpternlogd $0x6a,%zmm30,%zmm31,%zmm23
  40da02:	62 b1 75 48 ef cc    	vpxord %zmm20,%zmm1,%zmm1
  40da08:	62 23 75 48 25 f5 6c 	vpternlogd $0x6c,%zmm21,%zmm1,%zmm30
  40da0f:	62 b3 45 40 25 cd 56 	vpternlogd $0x56,%zmm21,%zmm23,%zmm1
  40da16:	62 f1 75 48 ef 8e 00 	vpxord 0x18900(%rsi),%zmm1,%zmm1
  40da1d:	89 01 00 
  40da20:	62 f1 7c 48 11 4c 24 	vmovups %zmm1,0xd00(%rsp)
  40da27:	34 
  40da28:	62 f1 0d 40 ef 8e c0 	vpxord 0x18cc0(%rsi),%zmm30,%zmm1
  40da2f:	8c 01 00 
  40da32:	62 61 7c 48 10 b6 c0 	vmovups 0x187c0(%rsi),%zmm30
  40da39:	87 01 00 
  40da3c:	62 23 5d 40 25 f5 96 	vpternlogd $0x96,%zmm21,%zmm20,%zmm30
  40da43:	62 e1 7c 48 10 6c 24 	vmovups 0x8c0(%rsp),%zmm21
  40da4a:	23 
  40da4b:	62 61 7c 48 11 34 24 	vmovups %zmm30,(%rsp)
  40da52:	62 61 7c 48 10 74 24 	vmovups 0x300(%rsp),%zmm30
  40da59:	0c 
  40da5a:	62 f1 6d 48 ef 96 40 	vpxord 0x17c40(%rsi),%zmm2,%zmm2
  40da61:	7c 01 00 
  40da64:	62 a1 7d 48 ef e5    	vpxord %zmm21,%zmm0,%zmm20
  40da6a:	62 61 65 48 ef fa    	vpxord %zmm2,%zmm3,%zmm31
  40da70:	62 b3 0d 40 25 d4 36 	vpternlogd $0x36,%zmm20,%zmm30,%zmm2
  40da77:	62 83 0d 40 25 e7 6a 	vpternlogd $0x6a,%zmm31,%zmm30,%zmm20
  40da7e:	62 e1 55 40 ef eb    	vpxord %zmm3,%zmm21,%zmm21
  40da84:	62 63 55 40 25 fa 6c 	vpternlogd $0x6c,%zmm2,%zmm21,%zmm31
  40da8b:	62 e3 5d 40 25 ea 56 	vpternlogd $0x56,%zmm2,%zmm20,%zmm21
  40da92:	62 61 05 40 ef be 00 	vpxord 0x18d00(%rsi),%zmm31,%zmm31
  40da99:	8d 01 00 
  40da9c:	62 61 7c 48 11 7c 24 	vmovups %zmm31,0x1640(%rsp)
  40daa3:	59 
  40daa4:	62 61 7c 48 10 be 00 	vmovups 0x18400(%rsi),%zmm31
  40daab:	84 01 00 
  40daae:	62 63 65 48 25 fa 96 	vpternlogd $0x96,%zmm2,%zmm3,%zmm31
  40dab5:	62 f1 7c 48 10 54 24 	vmovups 0x740(%rsp),%zmm2
  40dabc:	1d 
  40dabd:	62 e1 55 40 ef ae 40 	vpxord 0x18940(%rsi),%zmm21,%zmm21
  40dac4:	89 01 00 
  40dac7:	62 e1 7c 48 11 6c 24 	vmovups %zmm21,0xd80(%rsp)
  40dace:	36 
  40dacf:	62 e1 7c 48 10 6c 24 	vmovups 0x340(%rsp),%zmm21
  40dad6:	0d 
  40dad7:	62 f1 7d 48 ef da    	vpxord %zmm2,%zmm0,%zmm3
  40dadd:	62 61 15 40 ef f7    	vpxord %zmm7,%zmm29,%zmm30
  40dae3:	62 f3 55 40 25 fb 36 	vpternlogd $0x36,%zmm3,%zmm21,%zmm7
  40daea:	62 93 55 40 25 de 6a 	vpternlogd $0x6a,%zmm30,%zmm21,%zmm3
  40daf1:	62 91 6d 48 ef d5    	vpxord %zmm29,%zmm2,%zmm2
  40daf7:	62 63 6d 48 25 f7 6c 	vpternlogd $0x6c,%zmm7,%zmm2,%zmm30
  40dafe:	62 f3 65 48 25 d7 56 	vpternlogd $0x56,%zmm7,%zmm3,%zmm2
  40db05:	62 f1 6d 48 ef 96 80 	vpxord 0x18980(%rsi),%zmm2,%zmm2
  40db0c:	89 01 00 
  40db0f:	62 f1 7c 48 11 54 24 	vmovups %zmm2,0xdc0(%rsp)
  40db16:	37 
  40db17:	62 f1 0d 40 ef 96 40 	vpxord 0x18d40(%rsi),%zmm30,%zmm2
  40db1e:	8d 01 00 
  40db21:	62 61 7c 48 10 b6 40 	vmovups 0x18440(%rsi),%zmm30
  40db28:	84 01 00 
  40db2b:	62 63 15 40 25 f7 96 	vpternlogd $0x96,%zmm7,%zmm29,%zmm30
  40db32:	62 61 7c 48 10 6c 24 	vmovups 0x1380(%rsp),%zmm29
  40db39:	4e 
  40db3a:	62 f1 65 48 ef 9e 80 	vpxord 0x18080(%rsi),%zmm3,%zmm3
  40db41:	80 01 00 
  40db44:	62 f1 7c 48 11 5c 24 	vmovups %zmm3,0x9c0(%rsp)
  40db4b:	27 
  40db4c:	62 f1 7c 48 10 5c 24 	vmovups 0x380(%rsp),%zmm3
  40db53:	0e 
  40db54:	62 91 7d 48 ef fd    	vpxord %zmm29,%zmm0,%zmm7
  40db5a:	62 c1 1d 40 ef ec    	vpxord %zmm12,%zmm28,%zmm21
  40db60:	62 73 65 48 25 e7 36 	vpternlogd $0x36,%zmm7,%zmm3,%zmm12
  40db67:	62 b3 65 48 25 fd 6a 	vpternlogd $0x6a,%zmm21,%zmm3,%zmm7
  40db6e:	62 01 15 40 ef ec    	vpxord %zmm28,%zmm29,%zmm29
  40db74:	62 c3 15 40 25 ec 6c 	vpternlogd $0x6c,%zmm12,%zmm29,%zmm21
  40db7b:	62 43 45 48 25 ec 56 	vpternlogd $0x56,%zmm12,%zmm7,%zmm29
  40db82:	62 61 15 40 ef ae c0 	vpxord 0x189c0(%rsi),%zmm29,%zmm29
  40db89:	89 01 00 
  40db8c:	62 61 7c 48 11 6c 24 	vmovups %zmm29,0xe00(%rsp)
  40db93:	38 
  40db94:	62 61 7c 48 10 ae 80 	vmovups 0x18480(%rsi),%zmm29
  40db9b:	84 01 00 
  40db9e:	62 43 1d 40 25 ec 96 	vpternlogd $0x96,%zmm12,%zmm28,%zmm29
  40dba5:	62 71 7c 48 10 64 24 	vmovups 0x940(%rsp),%zmm12
  40dbac:	25 
  40dbad:	62 61 7c 48 11 6c 24 	vmovups %zmm29,0xf40(%rsp)
  40dbb4:	3d 
  40dbb5:	62 f1 45 48 ef be c0 	vpxord 0x180c0(%rsi),%zmm7,%zmm7
  40dbbc:	80 01 00 
  40dbbf:	62 f1 7c 48 11 7c 24 	vmovups %zmm7,0xa00(%rsp)
  40dbc6:	28 
  40dbc7:	62 f1 55 40 ef be 80 	vpxord 0x18d80(%rsi),%zmm21,%zmm7
  40dbce:	8d 01 00 
  40dbd1:	62 e1 7c 48 10 6c 24 	vmovups 0x700(%rsp),%zmm21
  40dbd8:	1c 
  40dbd9:	62 f1 7c 48 11 7c 24 	vmovups %zmm7,0x1680(%rsp)
  40dbe0:	5a 
  40dbe1:	62 b1 7d 48 ef dd    	vpxord %zmm21,%zmm0,%zmm3
  40dbe7:	62 d1 55 40 ef fc    	vpxord %zmm12,%zmm21,%zmm7
  40dbed:	62 e1 7c 48 10 6c 24 	vmovups 0x3c0(%rsp),%zmm21
  40dbf4:	0f 
  40dbf5:	62 41 1d 48 ef e3    	vpxord %zmm11,%zmm12,%zmm28
  40dbfb:	62 73 55 40 25 db 36 	vpternlogd $0x36,%zmm3,%zmm21,%zmm11
  40dc02:	62 93 55 40 25 dc 6a 	vpternlogd $0x6a,%zmm28,%zmm21,%zmm3
  40dc09:	62 43 45 48 25 e3 6c 	vpternlogd $0x6c,%zmm11,%zmm7,%zmm28
  40dc10:	62 d3 65 48 25 fb 56 	vpternlogd $0x56,%zmm11,%zmm3,%zmm7
  40dc17:	62 f1 45 48 ef be 00 	vpxord 0x18a00(%rsi),%zmm7,%zmm7
  40dc1e:	8a 01 00 
  40dc21:	62 f1 7c 48 11 7c 24 	vmovups %zmm7,0x1000(%rsp)
  40dc28:	40 
  40dc29:	62 f1 1d 40 ef be c0 	vpxord 0x18dc0(%rsi),%zmm28,%zmm7
  40dc30:	8d 01 00 
  40dc33:	62 61 7c 48 10 a6 c0 	vmovups 0x184c0(%rsi),%zmm28
  40dc3a:	84 01 00 
  40dc3d:	62 43 1d 48 25 e3 96 	vpternlogd $0x96,%zmm11,%zmm12,%zmm28
  40dc44:	62 71 7c 48 10 64 24 	vmovups 0x6c0(%rsp),%zmm12
  40dc4b:	1b 
  40dc4c:	62 71 7c 48 10 5c 24 	vmovups 0x780(%rsp),%zmm11
  40dc53:	1e 
  40dc54:	62 61 7c 48 11 64 24 	vmovups %zmm28,0xb80(%rsp)
  40dc5b:	2e 
  40dc5c:	62 61 7c 48 10 64 24 	vmovups 0x440(%rsp),%zmm28
  40dc63:	11 
  40dc64:	62 f1 65 48 ef 9e 00 	vpxord 0x18100(%rsi),%zmm3,%zmm3
  40dc6b:	81 01 00 
  40dc6e:	62 f1 7c 48 11 5c 24 	vmovups %zmm3,0xa40(%rsp)
  40dc75:	29 
  40dc76:	62 c1 7d 48 ef ec    	vpxord %zmm12,%zmm0,%zmm21
  40dc7c:	62 d1 1d 48 ef db    	vpxord %zmm11,%zmm12,%zmm3
  40dc82:	62 51 25 48 ef e1    	vpxord %zmm9,%zmm11,%zmm12
  40dc88:	62 33 1d 40 25 cd 36 	vpternlogd $0x36,%zmm21,%zmm28,%zmm9
  40dc8f:	62 c3 1d 40 25 ec 6a 	vpternlogd $0x6a,%zmm12,%zmm28,%zmm21
  40dc96:	62 53 65 48 25 e1 6c 	vpternlogd $0x6c,%zmm9,%zmm3,%zmm12
  40dc9d:	62 d3 55 40 25 d9 56 	vpternlogd $0x56,%zmm9,%zmm21,%zmm3
  40dca4:	62 f1 65 48 ef 9e 40 	vpxord 0x18a40(%rsi),%zmm3,%zmm3
  40dcab:	8a 01 00 
  40dcae:	62 f1 7c 48 11 5c 24 	vmovups %zmm3,0x1040(%rsp)
  40dcb5:	41 
  40dcb6:	62 f1 1d 48 ef 9e 00 	vpxord 0x18e00(%rsi),%zmm12,%zmm3
  40dcbd:	8e 01 00 
  40dcc0:	62 71 7c 48 10 a6 00 	vmovups 0x18500(%rsi),%zmm12
  40dcc7:	85 01 00 
  40dcca:	62 53 25 48 25 e1 96 	vpternlogd $0x96,%zmm9,%zmm11,%zmm12
  40dcd1:	62 71 7c 48 10 4c 24 	vmovups 0x840(%rsp),%zmm9
  40dcd8:	21 
  40dcd9:	62 71 7c 48 11 64 24 	vmovups %zmm12,0xc40(%rsp)
  40dce0:	31 
  40dce1:	62 71 7c 48 10 64 24 	vmovups 0x480(%rsp),%zmm12
  40dce8:	12 
  40dce9:	62 e1 55 40 ef ae 40 	vpxord 0x18140(%rsi),%zmm21,%zmm21
  40dcf0:	81 01 00 
  40dcf3:	62 e1 7c 48 11 6c 24 	vmovups %zmm21,0xa80(%rsp)
  40dcfa:	2a 
  40dcfb:	62 c1 7d 48 ef e9    	vpxord %zmm9,%zmm0,%zmm21
  40dd01:	62 71 3d 48 ef de    	vpxord %zmm6,%zmm8,%zmm11
  40dd07:	62 b3 1d 48 25 f5 36 	vpternlogd $0x36,%zmm21,%zmm12,%zmm6
  40dd0e:	62 c3 1d 48 25 eb 6a 	vpternlogd $0x6a,%zmm11,%zmm12,%zmm21
  40dd15:	62 41 35 48 ef e0    	vpxord %zmm8,%zmm9,%zmm28
  40dd1b:	62 73 1d 40 25 de 6c 	vpternlogd $0x6c,%zmm6,%zmm28,%zmm11
  40dd22:	62 63 55 40 25 e6 56 	vpternlogd $0x56,%zmm6,%zmm21,%zmm28
  40dd29:	62 71 1d 40 ef a6 80 	vpxord 0x18a80(%rsi),%zmm28,%zmm12
  40dd30:	8a 01 00 
  40dd33:	62 71 7c 48 11 64 24 	vmovups %zmm12,0x1080(%rsp)
  40dd3a:	42 
  40dd3b:	62 71 7c 48 10 a6 40 	vmovups 0x18540(%rsi),%zmm12
  40dd42:	85 01 00 
  40dd45:	62 73 3d 48 25 e6 96 	vpternlogd $0x96,%zmm6,%zmm8,%zmm12
  40dd4c:	62 71 7c 48 10 44 24 	vmovups 0x400(%rsp),%zmm8
  40dd53:	10 
  40dd54:	62 71 7c 48 11 64 24 	vmovups %zmm12,0xc00(%rsp)
  40dd5b:	30 
  40dd5c:	62 71 7c 48 10 64 24 	vmovups 0x7c0(%rsp),%zmm12
  40dd63:	1f 
  40dd64:	62 71 55 40 ef 8e 80 	vpxord 0x18180(%rsi),%zmm21,%zmm9
  40dd6b:	81 01 00 
  40dd6e:	62 e1 7c 48 10 ae 80 	vmovups 0x18580(%rsi),%zmm21
  40dd75:	85 01 00 
  40dd78:	62 71 7c 48 11 4c 24 	vmovups %zmm9,0xac0(%rsp)
  40dd7f:	2b 
  40dd80:	62 f1 7d 48 ef f4    	vpxord %zmm4,%zmm0,%zmm6
  40dd86:	62 51 5d 48 ef cc    	vpxord %zmm12,%zmm4,%zmm9
  40dd8c:	62 91 1d 48 ef e2    	vpxord %zmm26,%zmm12,%zmm4
  40dd92:	62 63 3d 48 25 d6 36 	vpternlogd $0x36,%zmm6,%zmm8,%zmm26
  40dd99:	62 f3 3d 48 25 f4 6a 	vpternlogd $0x6a,%zmm4,%zmm8,%zmm6
  40dda0:	62 83 1d 48 25 ea 96 	vpternlogd $0x96,%zmm26,%zmm12,%zmm21
  40dda7:	62 93 35 48 25 e2 6c 	vpternlogd $0x6c,%zmm26,%zmm9,%zmm4
  40ddae:	62 13 4d 48 25 ca 56 	vpternlogd $0x56,%zmm26,%zmm6,%zmm9
  40ddb5:	62 e1 7c 48 11 6c 24 	vmovups %zmm21,0xc80(%rsp)
  40ddbc:	32 
  40ddbd:	62 e1 7c 48 10 6c 24 	vmovups 0x1340(%rsp),%zmm21
  40ddc4:	4d 
  40ddc5:	62 71 7d 48 ef e5    	vpxord %zmm5,%zmm0,%zmm12
  40ddcb:	62 01 25 40 ef e1    	vpxord %zmm25,%zmm27,%zmm28
  40ddd1:	62 43 65 40 25 cc 36 	vpternlogd $0x36,%zmm12,%zmm19,%zmm25
  40ddd8:	62 13 65 40 25 e4 6a 	vpternlogd $0x6a,%zmm28,%zmm19,%zmm12
  40dddf:	62 91 55 48 ef eb    	vpxord %zmm27,%zmm5,%zmm5
  40dde5:	62 e1 1d 48 ef 9e 00 	vpxord 0x18200(%rsi),%zmm12,%zmm19
  40ddec:	82 01 00 
  40ddef:	62 03 55 48 25 e1 6c 	vpternlogd $0x6c,%zmm25,%zmm5,%zmm28
  40ddf6:	62 93 1d 48 25 e9 56 	vpternlogd $0x56,%zmm25,%zmm12,%zmm5
  40ddfd:	62 71 7c 48 10 a6 c0 	vmovups 0x185c0(%rsi),%zmm12
  40de04:	85 01 00 
  40de07:	62 e1 7c 48 11 5c 24 	vmovups %zmm19,0xb40(%rsp)
  40de0e:	2d 
  40de0f:	62 13 25 40 25 e1 96 	vpternlogd $0x96,%zmm25,%zmm27,%zmm12
  40de16:	62 71 7c 48 11 64 24 	vmovups %zmm12,0xcc0(%rsp)
  40de1d:	33 
  40de1e:	62 41 7d 48 ef ca    	vpxord %zmm10,%zmm0,%zmm25
  40de24:	62 21 3d 40 ef de    	vpxord %zmm22,%zmm24,%zmm27
  40de2a:	62 83 6d 40 25 f1 36 	vpternlogd $0x36,%zmm25,%zmm18,%zmm22
  40de31:	62 03 6d 40 25 cb 6a 	vpternlogd $0x6a,%zmm27,%zmm18,%zmm25
  40de38:	62 11 2d 48 ef d0    	vpxord %zmm24,%zmm10,%zmm10
  40de3e:	62 23 2d 48 25 de 6c 	vpternlogd $0x6c,%zmm22,%zmm10,%zmm27
  40de45:	62 33 35 40 25 d6 56 	vpternlogd $0x56,%zmm22,%zmm25,%zmm10
  40de4c:	62 71 25 48 ef 9e 40 	vpxord 0x18e40(%rsi),%zmm11,%zmm11
  40de53:	8e 01 00 
  40de56:	62 71 7c 48 11 5c 24 	vmovups %zmm11,0xbc0(%rsp)
  40de5d:	2f 
  40de5e:	62 71 4d 48 ef 9e c0 	vpxord 0x181c0(%rsi),%zmm6,%zmm11
  40de65:	81 01 00 
  40de68:	62 f1 5d 48 ef b6 80 	vpxord 0x18e80(%rsi),%zmm4,%zmm6
  40de6f:	8e 01 00 
  40de72:	62 71 7c 48 11 5c 24 	vmovups %zmm11,0xb00(%rsp)
  40de79:	2c 
  40de7a:	62 f1 7c 48 11 74 24 	vmovups %zmm6,0xec0(%rsp)
  40de81:	3b 
  40de82:	62 f1 7c 48 10 74 24 	vmovups 0x680(%rsp),%zmm6
  40de89:	1a 
  40de8a:	62 71 2d 48 ef 9e 40 	vpxord 0x18b40(%rsi),%zmm10,%zmm11
  40de91:	8b 01 00 
  40de94:	62 71 7c 48 10 96 00 	vmovups 0x18600(%rsi),%zmm10
  40de9b:	86 01 00 
  40de9e:	62 33 3d 40 25 d6 96 	vpternlogd $0x96,%zmm22,%zmm24,%zmm10
  40dea5:	62 71 7c 48 11 54 24 	vmovups %zmm10,0xd40(%rsp)
  40deac:	35 
  40dead:	62 41 7d 48 ef c7    	vpxord %zmm15,%zmm0,%zmm24
  40deb3:	62 a1 4d 48 ef f1    	vpxord %zmm17,%zmm6,%zmm22
  40deb9:	62 83 7d 40 25 c8 36 	vpternlogd $0x36,%zmm24,%zmm16,%zmm17
  40dec0:	62 23 7d 40 25 c6 6a 	vpternlogd $0x6a,%zmm22,%zmm16,%zmm24
  40dec7:	62 e1 7c 48 10 86 40 	vmovups 0x18640(%rsi),%zmm16
  40dece:	86 01 00 
  40ded1:	62 a3 4d 48 25 c1 96 	vpternlogd $0x96,%zmm17,%zmm6,%zmm16
  40ded8:	62 e1 7c 48 11 44 24 	vmovups %zmm16,0xe40(%rsp)
  40dedf:	39 
  40dee0:	62 e1 7c 48 10 44 24 	vmovups 0x1440(%rsp),%zmm16
  40dee7:	51 
  40dee8:	62 71 05 48 ef fe    	vpxord %zmm6,%zmm15,%zmm15
  40deee:	62 a3 05 48 25 f1 6c 	vpternlogd $0x6c,%zmm17,%zmm15,%zmm22
  40def5:	62 33 3d 40 25 f9 56 	vpternlogd $0x56,%zmm17,%zmm24,%zmm15
  40defc:	62 e1 7c 48 10 4c 24 	vmovups 0x1280(%rsp),%zmm17
  40df03:	4a 
  40df04:	62 71 0d 48 ef b6 c0 	vpxord 0x17ec0(%rsi),%zmm14,%zmm14
  40df0b:	7e 01 00 
  40df0e:	62 71 35 48 ef 86 c0 	vpxord 0x18ac0(%rsi),%zmm9,%zmm8
  40df15:	8a 01 00 
  40df18:	62 71 05 48 ef 8e 80 	vpxord 0x18b80(%rsi),%zmm15,%zmm9
  40df1f:	8b 01 00 
  40df22:	62 d1 7d 48 ef f5    	vpxord %zmm13,%zmm0,%zmm6
  40df28:	62 d1 7d 40 ef e6    	vpxord %zmm14,%zmm16,%zmm4
  40df2e:	62 71 35 40 ef a6 40 	vpxord 0x18240(%rsi),%zmm25,%zmm12
  40df35:	82 01 00 
  40df38:	62 e1 25 40 ef 96 00 	vpxord 0x18f00(%rsi),%zmm27,%zmm18
  40df3f:	8f 01 00 
  40df42:	62 73 75 40 25 f6 36 	vpternlogd $0x36,%zmm6,%zmm17,%zmm14
  40df49:	62 f3 75 40 25 f4 6a 	vpternlogd $0x6a,%zmm4,%zmm17,%zmm6
  40df50:	62 71 7c 48 10 be 80 	vmovups 0x18680(%rsi),%zmm15
  40df57:	86 01 00 
  40df5a:	62 e1 7c 48 10 4c 24 	vmovups 0x1500(%rsp),%zmm17
  40df61:	54 
  40df62:	62 61 7c 48 10 4c 24 	vmovups 0x1140(%rsp),%zmm25
  40df69:	45 
  40df6a:	62 61 7c 48 10 5c 24 	vmovups 0x11c0(%rsp),%zmm27
  40df71:	47 
  40df72:	62 e1 7c 48 11 54 24 	vmovups %zmm18,0x10c0(%rsp)
  40df79:	43 
  40df7a:	62 71 7c 48 11 44 24 	vmovups %zmm8,0x1100(%rsp)
  40df81:	44 
  40df82:	62 53 7d 40 25 fe 96 	vpternlogd $0x96,%zmm14,%zmm16,%zmm15
  40df89:	62 71 7c 48 11 7c 24 	vmovups %zmm15,0xe80(%rsp)
  40df90:	3a 
  40df91:	62 71 7c 48 10 7c 24 	vmovups 0x14c0(%rsp),%zmm15
  40df98:	53 
  40df99:	62 e1 55 48 ef 9e 00 	vpxord 0x18b00(%rsi),%zmm5,%zmm19
  40dfa0:	8b 01 00 
  40dfa3:	62 b1 15 48 ef e8    	vpxord %zmm16,%zmm13,%zmm5
  40dfa9:	62 d3 55 48 25 e6 6c 	vpternlogd $0x6c,%zmm14,%zmm5,%zmm4
  40dfb0:	62 d3 4d 48 25 ee 56 	vpternlogd $0x56,%zmm14,%zmm6,%zmm5
  40dfb7:	62 31 7d 48 ef f1    	vpxord %zmm17,%zmm0,%zmm14
  40dfbd:	62 61 1d 40 ef 96 c0 	vpxord 0x18ec0(%rsi),%zmm28,%zmm26
  40dfc4:	8e 01 00 
  40dfc7:	62 01 35 40 ef e3    	vpxord %zmm27,%zmm25,%zmm28
  40dfcd:	62 43 55 40 25 de 36 	vpternlogd $0x36,%zmm14,%zmm21,%zmm27
  40dfd4:	62 13 55 40 25 f4 6a 	vpternlogd $0x6a,%zmm28,%zmm21,%zmm14
  40dfdb:	62 61 7c 48 11 54 24 	vmovups %zmm26,0xf80(%rsp)
  40dfe2:	3e 
  40dfe3:	62 61 7c 48 10 96 c0 	vmovups 0x186c0(%rsi),%zmm26
  40dfea:	86 01 00 
  40dfed:	62 03 35 40 25 d3 96 	vpternlogd $0x96,%zmm27,%zmm25,%zmm26
  40dff4:	62 61 7c 48 11 54 24 	vmovups %zmm26,0xf00(%rsp)
  40dffb:	3c 
  40dffc:	62 11 75 40 ef e9    	vpxord %zmm25,%zmm17,%zmm13
  40e002:	62 03 15 48 25 e3 6c 	vpternlogd $0x6c,%zmm27,%zmm13,%zmm28
  40e009:	62 13 0d 48 25 eb 56 	vpternlogd $0x56,%zmm27,%zmm14,%zmm13
  40e010:	62 61 7c 48 10 5c 24 	vmovups 0x1180(%rsp),%zmm27
  40e017:	46 
  40e018:	62 71 3d 40 ef 96 80 	vpxord 0x18280(%rsi),%zmm24,%zmm10
  40e01f:	82 01 00 
  40e022:	62 e1 1d 40 ef 86 c0 	vpxord 0x18fc0(%rsi),%zmm28,%zmm16
  40e029:	8f 01 00 
  40e02c:	62 61 7c 48 10 44 24 	vmovups 0x1580(%rsp),%zmm24
  40e033:	56 
  40e034:	62 61 7c 48 10 64 24 	vmovups 0x1240(%rsp),%zmm28
  40e03b:	49 
  40e03c:	62 e1 15 48 ef 96 00 	vpxord 0x18800(%rsi),%zmm13,%zmm18
  40e043:	88 01 00 
  40e046:	62 81 7d 48 ef e8    	vpxord %zmm24,%zmm0,%zmm21
  40e04c:	62 11 25 40 ef ec    	vpxord %zmm28,%zmm27,%zmm13
  40e052:	62 23 05 48 25 e5 36 	vpternlogd $0x36,%zmm21,%zmm15,%zmm28
  40e059:	62 c3 05 48 25 ed 6a 	vpternlogd $0x6a,%zmm13,%zmm15,%zmm21
  40e060:	62 e1 0d 48 ef 8e 00 	vpxord 0x18300(%rsi),%zmm14,%zmm17
  40e067:	83 01 00 
  40e06a:	62 11 3d 40 ef f3    	vpxord %zmm27,%zmm24,%zmm14
  40e070:	62 71 4d 40 ef 86 40 	vpxord 0x18f40(%rsi),%zmm22,%zmm8
  40e077:	8f 01 00 
  40e07a:	62 13 0d 48 25 ec 6c 	vpternlogd $0x6c,%zmm28,%zmm14,%zmm13
  40e081:	62 13 55 40 25 f4 56 	vpternlogd $0x56,%zmm28,%zmm21,%zmm14
  40e088:	62 e1 7c 48 10 b6 00 	vmovups 0x18700(%rsi),%zmm22
  40e08f:	87 01 00 
  40e092:	62 83 25 40 25 f4 96 	vpternlogd $0x96,%zmm28,%zmm27,%zmm22
  40e099:	62 e1 7c 48 11 74 24 	vmovups %zmm22,0xfc0(%rsp)
  40e0a0:	3f 
  40e0a1:	62 71 55 40 ef be 40 	vpxord 0x18340(%rsi),%zmm21,%zmm15
  40e0a8:	83 01 00 
  40e0ab:	62 61 0d 48 ef 8e 40 	vpxord 0x18840(%rsi),%zmm14,%zmm25
  40e0b2:	88 01 00 
  40e0b5:	62 e1 7c 48 10 6c 24 	vmovups 0x1600(%rsp),%zmm21
  40e0bc:	58 
  40e0bd:	62 71 7c 48 10 74 24 	vmovups 0x1200(%rsp),%zmm14
  40e0c4:	48 
  40e0c5:	62 61 15 48 ef 86 00 	vpxord 0x18c00(%rsi),%zmm13,%zmm24
  40e0cc:	8c 01 00 
  40e0cf:	62 21 7d 48 ef dd    	vpxord %zmm21,%zmm0,%zmm27
  40e0d5:	62 c1 55 40 ef f6    	vpxord %zmm14,%zmm21,%zmm22
  40e0db:	62 e1 7c 48 10 6c 24 	vmovups 0x1300(%rsp),%zmm21
  40e0e2:	4c 
  40e0e3:	62 71 7c 48 10 6c 24 	vmovups 0x1540(%rsp),%zmm13
  40e0ea:	55 
  40e0eb:	62 21 0d 48 ef e5    	vpxord %zmm21,%zmm14,%zmm28
  40e0f1:	62 83 15 48 25 eb 36 	vpternlogd $0x36,%zmm27,%zmm13,%zmm21
  40e0f8:	62 03 15 48 25 dc 6a 	vpternlogd $0x6a,%zmm28,%zmm13,%zmm27
  40e0ff:	62 23 4d 40 25 e5 6c 	vpternlogd $0x6c,%zmm21,%zmm22,%zmm28
  40e106:	62 a3 25 40 25 f5 56 	vpternlogd $0x56,%zmm21,%zmm27,%zmm22
  40e10d:	62 61 25 40 ef 96 80 	vpxord 0x18380(%rsi),%zmm27,%zmm26
  40e114:	83 01 00 
  40e117:	62 61 1d 40 ef 9e 40 	vpxord 0x18c40(%rsi),%zmm28,%zmm27
  40e11e:	8c 01 00 
  40e121:	62 61 7c 48 10 a6 40 	vmovups 0x18740(%rsi),%zmm28
  40e128:	87 01 00 
  40e12b:	62 61 7c 48 11 54 24 	vmovups %zmm26,0x16c0(%rsp)
  40e132:	5b 
  40e133:	62 61 7c 48 10 54 24 	vmovups 0x12c0(%rsp),%zmm26
  40e13a:	4b 
  40e13b:	62 23 0d 48 25 e5 96 	vpternlogd $0x96,%zmm21,%zmm14,%zmm28
  40e142:	62 71 7c 48 10 74 24 	vmovups 0x80(%rsp),%zmm14
  40e149:	02 
  40e14a:	62 61 7c 48 11 64 24 	vmovups %zmm28,0x1740(%rsp)
  40e151:	5d 
  40e152:	62 61 7c 48 10 64 24 	vmovups 0x15c0(%rsp),%zmm28
  40e159:	57 
  40e15a:	62 71 4d 40 ef ae 80 	vpxord 0x18880(%rsi),%zmm22,%zmm13
  40e161:	88 01 00 
  40e164:	62 e1 7c 48 10 74 24 	vmovups 0x1480(%rsp),%zmm22
  40e16b:	52 
  40e16c:	62 71 7c 48 11 6c 24 	vmovups %zmm13,0x1700(%rsp)
  40e173:	5c 
  40e174:	62 c1 7d 48 ef ee    	vpxord %zmm14,%zmm0,%zmm21
  40e17a:	62 11 0d 48 ef ea    	vpxord %zmm26,%zmm14,%zmm13
  40e180:	62 31 2d 40 ef f6    	vpxord %zmm22,%zmm26,%zmm14
  40e186:	62 a3 1d 40 25 f5 36 	vpternlogd $0x36,%zmm21,%zmm28,%zmm22
  40e18d:	62 c3 1d 40 25 ee 6a 	vpternlogd $0x6a,%zmm14,%zmm28,%zmm21
  40e194:	62 33 15 48 25 f6 6c 	vpternlogd $0x6c,%zmm22,%zmm13,%zmm14
  40e19b:	62 33 55 40 25 ee 56 	vpternlogd $0x56,%zmm22,%zmm21,%zmm13
  40e1a2:	62 61 15 48 ef a6 c0 	vpxord 0x188c0(%rsi),%zmm13,%zmm28
  40e1a9:	88 01 00 
  40e1ac:	62 71 0d 48 ef ae 80 	vpxord 0x18c80(%rsi),%zmm14,%zmm13
  40e1b3:	8c 01 00 
  40e1b6:	62 71 7c 48 10 b6 80 	vmovups 0x18780(%rsi),%zmm14
  40e1bd:	87 01 00 
  40e1c0:	62 33 2d 40 25 f6 96 	vpternlogd $0x96,%zmm22,%zmm26,%zmm14
  40e1c7:	62 e1 45 40 ef be 00 	vpxord 0x18000(%rsi),%zmm23,%zmm23
  40e1ce:	80 01 00 
  40e1d1:	62 81 7d 48 ef f7    	vpxord %zmm31,%zmm0,%zmm22
  40e1d7:	62 01 6d 40 ef d0    	vpxord %zmm24,%zmm18,%zmm26
  40e1dd:	62 23 45 40 25 c6 36 	vpternlogd $0x36,%zmm22,%zmm23,%zmm24
  40e1e4:	62 83 45 40 25 f2 6a 	vpternlogd $0x6a,%zmm26,%zmm23,%zmm22
  40e1eb:	62 e1 4d 40 ef be 00 	vpxord 0x19000(%rsi),%zmm22,%zmm23
  40e1f2:	90 01 00 
  40e1f5:	62 e1 5d 40 ef a6 40 	vpxord 0x18040(%rsi),%zmm20,%zmm20
  40e1fc:	80 01 00 
  40e1ff:	62 f1 4d 48 ef b6 c0 	vpxord 0x182c0(%rsi),%zmm6,%zmm6
  40e206:	82 01 00 
  40e209:	62 f1 55 48 ef ae c0 	vpxord 0x18bc0(%rsi),%zmm5,%zmm5
  40e210:	8b 01 00 
  40e213:	62 f1 5d 48 ef a6 80 	vpxord 0x18f80(%rsi),%zmm4,%zmm4
  40e21a:	8f 01 00 
  40e21d:	62 e1 55 40 ef ae c0 	vpxord 0x183c0(%rsi),%zmm21,%zmm21
  40e224:	83 01 00 
  40e227:	62 e1 7c 48 11 3a    	vmovups %zmm23,(%rdx)
  40e22d:	62 21 05 40 ef fa    	vpxord %zmm18,%zmm31,%zmm31
  40e233:	62 03 05 40 25 d0 6c 	vpternlogd $0x6c,%zmm24,%zmm31,%zmm26
  40e23a:	62 03 4d 40 25 f8 56 	vpternlogd $0x56,%zmm24,%zmm22,%zmm31
  40e241:	62 e1 7c 48 10 b6 c0 	vmovups 0x197c0(%rsi),%zmm22
  40e248:	97 01 00 
  40e24b:	62 83 6d 40 25 f0 96 	vpternlogd $0x96,%zmm24,%zmm18,%zmm22
  40e252:	62 61 7c 48 10 44 24 	vmovups 0x16c0(%rsp),%zmm24
  40e259:	5b 
  40e25a:	62 e1 7c 48 11 72 1f 	vmovups %zmm22,0x7c0(%rdx)
  40e261:	62 e1 05 40 ef 96 00 	vpxord 0x19900(%rsi),%zmm31,%zmm18
  40e268:	99 01 00 
  40e26b:	62 e1 7c 48 11 52 24 	vmovups %zmm18,0x900(%rdx)
  40e272:	62 61 2d 40 ef be c0 	vpxord 0x19cc0(%rsi),%zmm26,%zmm31
  40e279:	9c 01 00 
  40e27c:	62 61 7c 48 11 7a 33 	vmovups %zmm31,0xcc0(%rdx)
  40e283:	62 81 7d 48 ef d6    	vpxord %zmm30,%zmm0,%zmm18
  40e289:	62 81 35 40 ef fb    	vpxord %zmm27,%zmm25,%zmm23
  40e28f:	62 23 5d 40 25 da 36 	vpternlogd $0x36,%zmm18,%zmm20,%zmm27
  40e296:	62 a3 5d 40 25 d7 6a 	vpternlogd $0x6a,%zmm23,%zmm20,%zmm18
  40e29d:	62 e1 6d 40 ef a6 40 	vpxord 0x19040(%rsi),%zmm18,%zmm20
  40e2a4:	90 01 00 
  40e2a7:	62 e1 7c 48 11 62 01 	vmovups %zmm20,0x40(%rdx)
  40e2ae:	62 81 0d 40 ef f1    	vpxord %zmm25,%zmm30,%zmm22
  40e2b4:	62 61 7c 48 10 b6 00 	vmovups 0x19400(%rsi),%zmm30
  40e2bb:	94 01 00 
  40e2be:	62 83 4d 40 25 fb 6c 	vpternlogd $0x6c,%zmm27,%zmm22,%zmm23
  40e2c5:	62 83 6d 40 25 f3 56 	vpternlogd $0x56,%zmm27,%zmm18,%zmm22
  40e2cc:	62 03 35 40 25 f3 96 	vpternlogd $0x96,%zmm27,%zmm25,%zmm30
  40e2d3:	62 61 7c 48 10 5c 24 	vmovups 0x1700(%rsp),%zmm27
  40e2da:	5c 
  40e2db:	62 61 7c 48 11 72 10 	vmovups %zmm30,0x400(%rdx)
  40e2e2:	62 e1 4d 40 ef 96 40 	vpxord 0x19940(%rsi),%zmm22,%zmm18
  40e2e9:	99 01 00 
  40e2ec:	62 e1 7c 48 11 52 25 	vmovups %zmm18,0x940(%rdx)
  40e2f3:	62 e1 7c 48 10 74 24 	vmovups 0x1680(%rsp),%zmm22
  40e2fa:	5a 
  40e2fb:	62 e1 45 40 ef a6 00 	vpxord 0x19d00(%rsi),%zmm23,%zmm20
  40e302:	9d 01 00 
  40e305:	62 e1 7c 48 11 62 34 	vmovups %zmm20,0xd00(%rdx)
  40e30c:	62 e1 7c 48 10 64 24 	vmovups 0x1640(%rsp),%zmm20
  40e313:	59 
  40e314:	62 e1 7c 48 10 7c 24 	vmovups 0x1740(%rsp),%zmm23
  40e31b:	5d 
  40e31c:	62 01 7d 48 ef d5    	vpxord %zmm29,%zmm0,%zmm26
  40e322:	62 61 7c 48 10 4c 24 	vmovups 0x9c0(%rsp),%zmm25
  40e329:	27 
  40e32a:	62 61 7c 48 10 7c 24 	vmovups 0xb80(%rsp),%zmm31
  40e331:	2e 
  40e332:	62 c1 25 40 ef d5    	vpxord %zmm13,%zmm27,%zmm18
  40e338:	62 13 35 40 25 ea 36 	vpternlogd $0x36,%zmm26,%zmm25,%zmm13
  40e33f:	62 23 35 40 25 d2 6a 	vpternlogd $0x6a,%zmm18,%zmm25,%zmm26
  40e346:	62 61 25 40 ef 74 24 	vpxord 0xf40(%rsp),%zmm27,%zmm30
  40e34d:	3d 
  40e34e:	62 c3 0d 40 25 d5 6c 	vpternlogd $0x6c,%zmm13,%zmm30,%zmm18
  40e355:	62 43 2d 40 25 f5 56 	vpternlogd $0x56,%zmm13,%zmm26,%zmm30
  40e35c:	62 61 2d 40 ef 96 80 	vpxord 0x19080(%rsi),%zmm26,%zmm26
  40e363:	90 01 00 
  40e366:	62 61 7c 48 11 52 02 	vmovups %zmm26,0x80(%rdx)
  40e36d:	62 61 7c 48 10 ae 40 	vmovups 0x19440(%rsi),%zmm29
  40e374:	94 01 00 
  40e377:	62 43 25 40 25 ed 96 	vpternlogd $0x96,%zmm13,%zmm27,%zmm29
  40e37e:	62 61 7c 48 11 6a 11 	vmovups %zmm29,0x440(%rdx)
  40e385:	62 71 0d 40 ef ae 80 	vpxord 0x19980(%rsi),%zmm30,%zmm13
  40e38c:	99 01 00 
  40e38f:	62 71 7c 48 11 6a 26 	vmovups %zmm13,0x980(%rdx)
  40e396:	62 11 7d 48 ef ef    	vpxord %zmm31,%zmm0,%zmm13
  40e39c:	62 01 05 40 ef d4    	vpxord %zmm28,%zmm31,%zmm26
  40e3a2:	62 61 7c 48 10 7c 24 	vmovups 0xa00(%rsp),%zmm31
  40e3a9:	28 
  40e3aa:	62 61 6d 40 ef 9e 40 	vpxord 0x19d40(%rsi),%zmm18,%zmm27
  40e3b1:	9d 01 00 
  40e3b4:	62 61 7c 48 11 5a 35 	vmovups %zmm27,0xd40(%rdx)
  40e3bb:	62 61 1d 40 ef d9    	vpxord %zmm1,%zmm28,%zmm27
  40e3c1:	62 d3 05 40 25 cd 36 	vpternlogd $0x36,%zmm13,%zmm31,%zmm1
  40e3c8:	62 13 05 40 25 eb 6a 	vpternlogd $0x6a,%zmm27,%zmm31,%zmm13
  40e3cf:	62 63 2d 40 25 d9 6c 	vpternlogd $0x6c,%zmm1,%zmm26,%zmm27
  40e3d6:	62 63 15 48 25 d1 56 	vpternlogd $0x56,%zmm1,%zmm13,%zmm26
  40e3dd:	62 e1 15 48 ef 96 c0 	vpxord 0x190c0(%rsi),%zmm13,%zmm18
  40e3e4:	90 01 00 
  40e3e7:	62 e1 7c 48 11 52 03 	vmovups %zmm18,0xc0(%rdx)
  40e3ee:	62 71 7c 48 10 6c 24 	vmovups 0xa40(%rsp),%zmm13
  40e3f5:	29 
  40e3f6:	62 61 7c 48 10 8e 80 	vmovups 0x19480(%rsi),%zmm25
  40e3fd:	94 01 00 
  40e400:	62 63 1d 40 25 c9 96 	vpternlogd $0x96,%zmm1,%zmm28,%zmm25
  40e407:	62 61 7c 48 11 4a 12 	vmovups %zmm25,0x480(%rdx)
  40e40e:	62 f1 2d 40 ef 8e c0 	vpxord 0x199c0(%rsi),%zmm26,%zmm1
  40e415:	99 01 00 
  40e418:	62 f1 7c 48 11 4a 27 	vmovups %zmm1,0x9c0(%rdx)
  40e41f:	62 f1 7c 48 10 4c 24 	vmovups 0xc40(%rsp),%zmm1
  40e426:	31 
  40e427:	62 61 7c 48 10 54 24 	vmovups 0xd00(%rsp),%zmm26
  40e42e:	34 
  40e42f:	62 61 25 40 ef a6 80 	vpxord 0x19d80(%rsi),%zmm27,%zmm28
  40e436:	9d 01 00 
  40e439:	62 61 7c 48 11 62 36 	vmovups %zmm28,0xd80(%rdx)
  40e440:	62 e1 7d 48 ef d1    	vpxord %zmm1,%zmm0,%zmm18
  40e446:	62 21 2d 40 ef f4    	vpxord %zmm20,%zmm26,%zmm30
  40e44c:	62 a3 15 48 25 e2 36 	vpternlogd $0x36,%zmm18,%zmm13,%zmm20
  40e453:	62 83 15 48 25 d6 6a 	vpternlogd $0x6a,%zmm30,%zmm13,%zmm18
  40e45a:	62 71 7c 48 10 6c 24 	vmovups 0xc00(%rsp),%zmm13
  40e461:	30 
  40e462:	62 61 6d 40 ef 8e 00 	vpxord 0x19100(%rsi),%zmm18,%zmm25
  40e469:	91 01 00 
  40e46c:	62 61 7c 48 11 4a 04 	vmovups %zmm25,0x100(%rdx)
  40e473:	62 61 7c 48 10 9e c0 	vmovups 0x194c0(%rsi),%zmm27
  40e47a:	94 01 00 
  40e47d:	62 23 2d 40 25 dc 96 	vpternlogd $0x96,%zmm20,%zmm26,%zmm27
  40e484:	62 61 7c 48 11 5a 13 	vmovups %zmm27,0x4c0(%rdx)
  40e48b:	62 01 75 48 ef ea    	vpxord %zmm26,%zmm1,%zmm29
  40e491:	62 23 15 40 25 f4 6c 	vpternlogd $0x6c,%zmm20,%zmm29,%zmm30
  40e498:	62 23 6d 40 25 ec 56 	vpternlogd $0x56,%zmm20,%zmm18,%zmm29
  40e49f:	62 61 7c 48 10 54 24 	vmovups 0xd80(%rsp),%zmm26
  40e4a6:	36 
  40e4a7:	62 e1 7c 48 10 54 24 	vmovups 0xa80(%rsp),%zmm18
  40e4ae:	2a 
  40e4af:	62 e1 15 40 ef a6 00 	vpxord 0x19a00(%rsi),%zmm29,%zmm20
  40e4b6:	9a 01 00 
  40e4b9:	62 e1 7c 48 11 62 28 	vmovups %zmm20,0xa00(%rdx)
  40e4c0:	62 f1 0d 40 ef 8e c0 	vpxord 0x19dc0(%rsi),%zmm30,%zmm1
  40e4c7:	9d 01 00 
  40e4ca:	62 f1 7c 48 11 4a 37 	vmovups %zmm1,0xdc0(%rdx)
  40e4d1:	62 41 7d 48 ef cd    	vpxord %zmm13,%zmm0,%zmm25
  40e4d7:	62 61 2d 40 ef ea    	vpxord %zmm2,%zmm26,%zmm29
  40e4dd:	62 93 6d 40 25 d1 36 	vpternlogd $0x36,%zmm25,%zmm18,%zmm2
  40e4e4:	62 03 6d 40 25 cd 6a 	vpternlogd $0x6a,%zmm29,%zmm18,%zmm25
  40e4eb:	62 e1 35 40 ef a6 40 	vpxord 0x19140(%rsi),%zmm25,%zmm20
  40e4f2:	91 01 00 
  40e4f5:	62 e1 7c 48 11 62 05 	vmovups %zmm20,0x140(%rdx)
  40e4fc:	62 61 7c 48 10 9e 00 	vmovups 0x19500(%rsi),%zmm27
  40e503:	95 01 00 
  40e506:	62 63 2d 40 25 da 96 	vpternlogd $0x96,%zmm2,%zmm26,%zmm27
  40e50d:	62 61 7c 48 11 5a 14 	vmovups %zmm27,0x500(%rdx)
  40e514:	62 01 15 48 ef e2    	vpxord %zmm26,%zmm13,%zmm28
  40e51a:	62 63 1d 40 25 ea 6c 	vpternlogd $0x6c,%zmm2,%zmm28,%zmm29
  40e521:	62 63 35 40 25 e2 56 	vpternlogd $0x56,%zmm2,%zmm25,%zmm28
  40e528:	62 61 7c 48 10 4c 24 	vmovups 0xdc0(%rsp),%zmm25
  40e52f:	37 
  40e530:	62 71 7c 48 10 6c 24 	vmovups 0xac0(%rsp),%zmm13
  40e537:	2b 
  40e538:	62 f1 1d 40 ef 96 40 	vpxord 0x19a40(%rsi),%zmm28,%zmm2
  40e53f:	9a 01 00 
  40e542:	62 f1 7c 48 11 52 29 	vmovups %zmm2,0xa40(%rdx)
  40e549:	62 f1 7c 48 10 54 24 	vmovups 0xc80(%rsp),%zmm2
  40e550:	32 
  40e551:	62 f1 15 40 ef 8e 00 	vpxord 0x19e00(%rsi),%zmm29,%zmm1
  40e558:	9e 01 00 
  40e55b:	62 f1 7c 48 11 4a 38 	vmovups %zmm1,0xe00(%rdx)
  40e562:	62 e1 7d 48 ef d2    	vpxord %zmm2,%zmm0,%zmm18
  40e568:	62 21 35 40 ef e6    	vpxord %zmm22,%zmm25,%zmm28
  40e56e:	62 a3 15 48 25 f2 36 	vpternlogd $0x36,%zmm18,%zmm13,%zmm22
  40e575:	62 83 15 48 25 d4 6a 	vpternlogd $0x6a,%zmm28,%zmm13,%zmm18
  40e57c:	62 71 7c 48 10 6c 24 	vmovups 0xb00(%rsp),%zmm13
  40e583:	2c 
  40e584:	62 e1 6d 40 ef a6 80 	vpxord 0x19180(%rsi),%zmm18,%zmm20
  40e58b:	91 01 00 
  40e58e:	62 e1 7c 48 11 62 06 	vmovups %zmm20,0x180(%rdx)
  40e595:	62 61 7c 48 10 96 40 	vmovups 0x19540(%rsi),%zmm26
  40e59c:	95 01 00 
  40e59f:	62 23 35 40 25 d6 96 	vpternlogd $0x96,%zmm22,%zmm25,%zmm26
  40e5a6:	62 61 7c 48 11 52 15 	vmovups %zmm26,0x540(%rdx)
  40e5ad:	62 01 6d 48 ef d9    	vpxord %zmm25,%zmm2,%zmm27
  40e5b3:	62 23 25 40 25 e6 6c 	vpternlogd $0x6c,%zmm22,%zmm27,%zmm28
  40e5ba:	62 23 6d 40 25 de 56 	vpternlogd $0x56,%zmm22,%zmm18,%zmm27
  40e5c1:	62 f1 7c 48 10 54 24 	vmovups 0xcc0(%rsp),%zmm2
  40e5c8:	33 
  40e5c9:	62 e1 25 40 ef b6 80 	vpxord 0x19a80(%rsi),%zmm27,%zmm22
  40e5d0:	9a 01 00 
  40e5d3:	62 e1 7c 48 11 72 2a 	vmovups %zmm22,0xa80(%rdx)
  40e5da:	62 e1 7c 48 10 74 24 	vmovups 0xe00(%rsp),%zmm22
  40e5e1:	38 
  40e5e2:	62 f1 1d 40 ef 8e 40 	vpxord 0x19e40(%rsi),%zmm28,%zmm1
  40e5e9:	9e 01 00 
  40e5ec:	62 f1 7c 48 11 4a 39 	vmovups %zmm1,0xe40(%rdx)
  40e5f3:	62 e1 7d 48 ef d2    	vpxord %zmm2,%zmm0,%zmm18
  40e5f9:	62 61 4d 40 ef df    	vpxord %zmm7,%zmm22,%zmm27
  40e5ff:	62 b3 15 48 25 fa 36 	vpternlogd $0x36,%zmm18,%zmm13,%zmm7
  40e606:	62 83 15 48 25 d3 6a 	vpternlogd $0x6a,%zmm27,%zmm13,%zmm18
  40e60d:	62 e1 6d 40 ef a6 c0 	vpxord 0x191c0(%rsi),%zmm18,%zmm20
  40e614:	91 01 00 
  40e617:	62 e1 7c 48 11 62 07 	vmovups %zmm20,0x1c0(%rdx)
  40e61e:	62 e1 7c 48 10 64 24 	vmovups 0x1000(%rsp),%zmm20
  40e625:	40 
  40e626:	62 61 7c 48 10 8e 80 	vmovups 0x19580(%rsi),%zmm25
  40e62d:	95 01 00 
  40e630:	62 63 4d 40 25 cf 96 	vpternlogd $0x96,%zmm7,%zmm22,%zmm25
  40e637:	62 61 7c 48 11 4a 16 	vmovups %zmm25,0x580(%rdx)
  40e63e:	62 21 6d 48 ef d6    	vpxord %zmm22,%zmm2,%zmm26
  40e644:	62 63 2d 40 25 df 6c 	vpternlogd $0x6c,%zmm7,%zmm26,%zmm27
  40e64b:	62 63 6d 40 25 d7 56 	vpternlogd $0x56,%zmm7,%zmm18,%zmm26
  40e652:	62 f1 7c 48 10 54 24 	vmovups 0xd40(%rsp),%zmm2
  40e659:	35 
  40e65a:	62 f1 2d 40 ef be c0 	vpxord 0x19ac0(%rsi),%zmm26,%zmm7
  40e661:	9a 01 00 
  40e664:	62 f1 7c 48 11 7a 2b 	vmovups %zmm7,0xac0(%rdx)
  40e66b:	62 f1 7c 48 10 7c 24 	vmovups 0xb40(%rsp),%zmm7
  40e672:	2d 
  40e673:	62 f1 25 40 ef 8e 80 	vpxord 0x19e80(%rsi),%zmm27,%zmm1
  40e67a:	9e 01 00 
  40e67d:	62 f1 7c 48 11 4a 3a 	vmovups %zmm1,0xe80(%rdx)
  40e684:	62 71 7d 48 ef ea    	vpxord %zmm2,%zmm0,%zmm13
  40e68a:	62 61 5d 40 ef d3    	vpxord %zmm3,%zmm20,%zmm26
  40e690:	62 d3 45 48 25 dd 36 	vpternlogd $0x36,%zmm13,%zmm7,%zmm3
  40e697:	62 13 45 48 25 ea 6a 	vpternlogd $0x6a,%zmm26,%zmm7,%zmm13
  40e69e:	62 e1 15 48 ef 96 00 	vpxord 0x19200(%rsi),%zmm13,%zmm18
  40e6a5:	92 01 00 
  40e6a8:	62 e1 7c 48 11 52 08 	vmovups %zmm18,0x200(%rdx)
  40e6af:	62 e1 7c 48 10 b6 c0 	vmovups 0x195c0(%rsi),%zmm22
  40e6b6:	95 01 00 
  40e6b9:	62 e3 5d 40 25 f3 96 	vpternlogd $0x96,%zmm3,%zmm20,%zmm22
  40e6c0:	62 e1 7c 48 11 72 17 	vmovups %zmm22,0x5c0(%rdx)
  40e6c7:	62 e1 7c 48 10 74 24 	vmovups 0x1040(%rsp),%zmm22
  40e6ce:	41 
  40e6cf:	62 c1 7c 48 28 d4    	vmovaps %zmm12,%zmm18
  40e6d5:	62 21 6d 48 ef cc    	vpxord %zmm20,%zmm2,%zmm25
  40e6db:	62 63 35 40 25 d3 6c 	vpternlogd $0x6c,%zmm3,%zmm25,%zmm26
  40e6e2:	62 63 15 48 25 cb 56 	vpternlogd $0x56,%zmm3,%zmm13,%zmm25
  40e6e9:	62 f1 7c 48 10 54 24 	vmovups 0xe40(%rsp),%zmm2
  40e6f0:	39 
  40e6f1:	62 f1 35 40 ef 9e 00 	vpxord 0x19b00(%rsi),%zmm25,%zmm3
  40e6f8:	9b 01 00 
  40e6fb:	62 f1 7c 48 11 5a 2c 	vmovups %zmm3,0xb00(%rdx)
  40e702:	62 f1 7c 48 10 5c 24 	vmovups 0xbc0(%rsp),%zmm3
  40e709:	2f 
  40e70a:	62 f1 2d 40 ef 8e c0 	vpxord 0x19ec0(%rsi),%zmm26,%zmm1
  40e711:	9e 01 00 
  40e714:	62 f1 7c 48 11 4a 3b 	vmovups %zmm1,0xec0(%rdx)
  40e71b:	62 f1 7d 48 ef fa    	vpxord %zmm2,%zmm0,%zmm7
  40e721:	62 71 4d 40 ef eb    	vpxord %zmm3,%zmm22,%zmm13
  40e727:	62 e3 15 48 25 d7 6c 	vpternlogd $0x6c,%zmm7,%zmm13,%zmm18
  40e72e:	62 73 65 48 25 e7 1e 	vpternlogd $0x1e,%zmm7,%zmm3,%zmm12
  40e735:	62 f1 7c 48 10 5c 24 	vmovups 0xec0(%rsp),%zmm3
  40e73c:	3b 
  40e73d:	62 41 7c 48 28 dc    	vmovaps %zmm12,%zmm27
  40e743:	62 e1 6d 40 ef a6 40 	vpxord 0x19240(%rsi),%zmm18,%zmm20
  40e74a:	92 01 00 
  40e74d:	62 e1 7c 48 11 62 09 	vmovups %zmm20,0x240(%rdx)
  40e754:	62 e1 7c 48 10 64 24 	vmovups 0x1080(%rsp),%zmm20
  40e75b:	42 
  40e75c:	62 61 7c 48 10 8e 00 	vmovups 0x19600(%rsi),%zmm25
  40e763:	96 01 00 
  40e766:	62 43 4d 40 25 cc 96 	vpternlogd $0x96,%zmm12,%zmm22,%zmm25
  40e76d:	62 61 7c 48 11 4a 18 	vmovups %zmm25,0x600(%rdx)
  40e774:	62 21 6d 48 ef e6    	vpxord %zmm22,%zmm2,%zmm28
  40e77a:	62 03 6d 40 25 dc 1e 	vpternlogd $0x1e,%zmm28,%zmm18,%zmm27
  40e781:	62 43 15 48 25 e4 78 	vpternlogd $0x78,%zmm12,%zmm13,%zmm28
  40e788:	62 f1 7c 48 10 54 24 	vmovups 0xe80(%rsp),%zmm2
  40e78f:	3a 
  40e790:	62 51 7c 48 28 ea    	vmovaps %zmm10,%zmm13
  40e796:	62 71 25 40 ef a6 40 	vpxord 0x19b40(%rsi),%zmm27,%zmm12
  40e79d:	9b 01 00 
  40e7a0:	62 71 7c 48 11 62 2d 	vmovups %zmm12,0xb40(%rdx)
  40e7a7:	62 f1 1d 40 ef 8e 00 	vpxord 0x19f00(%rsi),%zmm28,%zmm1
  40e7ae:	9f 01 00 
  40e7b1:	62 f1 7c 48 11 4a 3c 	vmovups %zmm1,0xf00(%rdx)
  40e7b8:	62 f1 7d 48 ef fa    	vpxord %zmm2,%zmm0,%zmm7
  40e7be:	62 71 5d 40 ef e3    	vpxord %zmm3,%zmm20,%zmm12
  40e7c4:	62 73 1d 48 25 ef 6c 	vpternlogd $0x6c,%zmm7,%zmm12,%zmm13
  40e7cb:	62 73 65 48 25 d7 1e 	vpternlogd $0x1e,%zmm7,%zmm3,%zmm10
  40e7d2:	62 f1 7c 48 10 5c 24 	vmovups 0xf80(%rsp),%zmm3
  40e7d9:	3e 
  40e7da:	62 41 7c 48 28 ca    	vmovaps %zmm10,%zmm25
  40e7e0:	62 e1 15 48 ef 96 80 	vpxord 0x19280(%rsi),%zmm13,%zmm18
  40e7e7:	92 01 00 
  40e7ea:	62 e1 7c 48 11 52 0a 	vmovups %zmm18,0x280(%rdx)
  40e7f1:	62 e1 7c 48 10 54 24 	vmovups 0x1100(%rsp),%zmm18
  40e7f8:	44 
  40e7f9:	62 e1 7c 48 10 b6 40 	vmovups 0x19640(%rsi),%zmm22
  40e800:	96 01 00 
  40e803:	62 c3 5d 40 25 f2 96 	vpternlogd $0x96,%zmm10,%zmm20,%zmm22
  40e80a:	62 e1 7c 48 11 72 19 	vmovups %zmm22,0x640(%rdx)
  40e811:	62 21 6d 48 ef d4    	vpxord %zmm20,%zmm2,%zmm26
  40e817:	62 03 15 48 25 ca 1e 	vpternlogd $0x1e,%zmm26,%zmm13,%zmm25
  40e81e:	62 43 1d 48 25 d2 78 	vpternlogd $0x78,%zmm10,%zmm12,%zmm26
  40e825:	62 f1 7c 48 10 54 24 	vmovups 0xf00(%rsp),%zmm2
  40e82c:	3c 
  40e82d:	62 71 7c 48 28 e6    	vmovaps %zmm6,%zmm12
  40e833:	62 71 35 40 ef 96 80 	vpxord 0x19b80(%rsi),%zmm25,%zmm10
  40e83a:	9b 01 00 
  40e83d:	62 71 7c 48 11 52 2e 	vmovups %zmm10,0xb80(%rdx)
  40e844:	62 f1 2d 40 ef 8e 40 	vpxord 0x19f40(%rsi),%zmm26,%zmm1
  40e84b:	9f 01 00 
  40e84e:	62 f1 7c 48 11 4a 3d 	vmovups %zmm1,0xf40(%rdx)
  40e855:	62 f1 7d 48 ef fa    	vpxord %zmm2,%zmm0,%zmm7
  40e85b:	62 71 6d 40 ef d3    	vpxord %zmm3,%zmm18,%zmm10
  40e861:	62 73 2d 48 25 e7 6c 	vpternlogd $0x6c,%zmm7,%zmm10,%zmm12
  40e868:	62 f3 65 48 25 f7 1e 	vpternlogd $0x1e,%zmm7,%zmm3,%zmm6
  40e86f:	62 f1 7c 48 10 5c 24 	vmovups 0x10c0(%rsp),%zmm3
  40e876:	43 
  40e877:	62 e1 7c 48 28 f6    	vmovaps %zmm6,%zmm22
  40e87d:	62 71 1d 48 ef ae c0 	vpxord 0x192c0(%rsi),%zmm12,%zmm13
  40e884:	92 01 00 
  40e887:	62 71 7c 48 11 6a 0b 	vmovups %zmm13,0x2c0(%rdx)
  40e88e:	62 e1 7c 48 10 a6 80 	vmovups 0x19680(%rsi),%zmm20
  40e895:	96 01 00 
  40e898:	62 e3 6d 40 25 e6 96 	vpternlogd $0x96,%zmm6,%zmm18,%zmm20
  40e89f:	62 e1 7c 48 11 62 1a 	vmovups %zmm20,0x680(%rdx)
  40e8a6:	62 21 6d 48 ef ca    	vpxord %zmm18,%zmm2,%zmm25
  40e8ac:	62 83 1d 48 25 f1 1e 	vpternlogd $0x1e,%zmm25,%zmm12,%zmm22
  40e8b3:	62 63 2d 48 25 ce 78 	vpternlogd $0x78,%zmm6,%zmm10,%zmm25
  40e8ba:	62 f1 7c 48 10 54 24 	vmovups 0xfc0(%rsp),%zmm2
  40e8c1:	3f 
  40e8c2:	62 31 7c 48 28 d1    	vmovaps %zmm17,%zmm10
  40e8c8:	62 f1 4d 40 ef b6 c0 	vpxord 0x19bc0(%rsi),%zmm22,%zmm6
  40e8cf:	9b 01 00 
  40e8d2:	62 f1 7c 48 11 72 2f 	vmovups %zmm6,0xbc0(%rdx)
  40e8d9:	62 f1 35 40 ef 8e 80 	vpxord 0x19f80(%rsi),%zmm25,%zmm1
  40e8e0:	9f 01 00 
  40e8e3:	62 f1 7c 48 11 4a 3e 	vmovups %zmm1,0xf80(%rdx)
  40e8ea:	62 f1 7d 48 ef f2    	vpxord %zmm2,%zmm0,%zmm6
  40e8f0:	62 f1 65 40 ef fb    	vpxord %zmm3,%zmm19,%zmm7
  40e8f6:	62 73 45 48 25 d6 6c 	vpternlogd $0x6c,%zmm6,%zmm7,%zmm10
  40e8fd:	62 e3 65 48 25 ce 1e 	vpternlogd $0x1e,%zmm6,%zmm3,%zmm17
  40e904:	62 a1 7c 48 28 d1    	vmovaps %zmm17,%zmm18
  40e90a:	62 71 2d 48 ef a6 00 	vpxord 0x19300(%rsi),%zmm10,%zmm12
  40e911:	93 01 00 
  40e914:	62 71 7c 48 11 62 0c 	vmovups %zmm12,0x300(%rdx)
  40e91b:	62 71 7c 48 10 ae c0 	vmovups 0x196c0(%rsi),%zmm13
  40e922:	96 01 00 
  40e925:	62 33 65 40 25 e9 96 	vpternlogd $0x96,%zmm17,%zmm19,%zmm13
  40e92c:	62 71 7c 48 11 6a 1b 	vmovups %zmm13,0x6c0(%rdx)
  40e933:	62 a1 6d 48 ef e3    	vpxord %zmm19,%zmm2,%zmm20
  40e939:	62 a3 2d 48 25 d4 1e 	vpternlogd $0x1e,%zmm20,%zmm10,%zmm18
  40e940:	62 a3 45 48 25 e1 78 	vpternlogd $0x78,%zmm17,%zmm7,%zmm20
  40e947:	62 e1 6d 40 ef 8e 00 	vpxord 0x19800(%rsi),%zmm18,%zmm17
  40e94e:	98 01 00 
  40e951:	62 e1 7c 48 11 4a 20 	vmovups %zmm17,0x800(%rdx)
  40e958:	62 e1 5d 40 ef 9e c0 	vpxord 0x19fc0(%rsi),%zmm20,%zmm19
  40e95f:	9f 01 00 
  40e962:	62 e1 7c 48 11 5a 3f 	vmovups %zmm19,0xfc0(%rdx)
  40e969:	62 b1 7d 48 ef cf    	vpxord %zmm23,%zmm0,%zmm1
  40e96f:	62 d1 45 40 ef db    	vpxord %zmm11,%zmm23,%zmm3
  40e975:	62 c1 7c 48 28 ff    	vmovaps %zmm15,%zmm23
  40e97b:	62 73 3d 48 25 f9 1e 	vpternlogd $0x1e,%zmm1,%zmm8,%zmm15
  40e982:	62 d1 25 48 ef d0    	vpxord %zmm8,%zmm11,%zmm2
  40e988:	62 e3 6d 48 25 f9 6c 	vpternlogd $0x6c,%zmm1,%zmm2,%zmm23
  40e98f:	62 d1 7c 48 28 cf    	vmovaps %zmm15,%zmm1
  40e995:	62 f3 45 40 25 cb 1e 	vpternlogd $0x1e,%zmm3,%zmm23,%zmm1
  40e99c:	62 d3 6d 48 25 df 78 	vpternlogd $0x78,%zmm15,%zmm2,%zmm3
  40e9a3:	62 71 45 40 ef 86 40 	vpxord 0x19340(%rsi),%zmm23,%zmm8
  40e9aa:	93 01 00 
  40e9ad:	62 71 7c 48 11 42 0d 	vmovups %zmm8,0x340(%rdx)
  40e9b4:	62 f1 7c 48 10 96 00 	vmovups 0x19700(%rsi),%zmm2
  40e9bb:	97 01 00 
  40e9be:	62 d3 25 48 25 d7 96 	vpternlogd $0x96,%zmm15,%zmm11,%zmm2
  40e9c5:	62 f1 7c 48 11 52 1c 	vmovups %zmm2,0x700(%rdx)
  40e9cc:	62 71 75 48 ef 9e 40 	vpxord 0x19840(%rsi),%zmm1,%zmm11
  40e9d3:	98 01 00 
  40e9d6:	62 71 7c 48 11 5a 21 	vmovups %zmm11,0x840(%rdx)
  40e9dd:	62 71 65 48 ef be 00 	vpxord 0x19c00(%rsi),%zmm3,%zmm15
  40e9e4:	9c 01 00 
  40e9e7:	62 71 7c 48 11 7a 30 	vmovups %zmm15,0xc00(%rdx)
  40e9ee:	62 d1 7d 48 ef ce    	vpxord %zmm14,%zmm0,%zmm1
  40e9f4:	62 d1 0d 48 ef d9    	vpxord %zmm9,%zmm14,%zmm3
  40e9fa:	62 11 7c 48 28 f0    	vmovaps %zmm24,%zmm14
  40ea00:	62 63 5d 48 25 c1 1e 	vpternlogd $0x1e,%zmm1,%zmm4,%zmm24
  40ea07:	62 f1 35 48 ef d4    	vpxord %zmm4,%zmm9,%zmm2
  40ea0d:	62 73 6d 48 25 f1 6c 	vpternlogd $0x6c,%zmm1,%zmm2,%zmm14
  40ea14:	62 91 7c 48 28 c8    	vmovaps %zmm24,%zmm1
  40ea1a:	62 f3 0d 48 25 cb 1e 	vpternlogd $0x1e,%zmm3,%zmm14,%zmm1
  40ea21:	62 93 6d 48 25 d8 78 	vpternlogd $0x78,%zmm24,%zmm2,%zmm3
  40ea28:	62 f1 0d 48 ef a6 80 	vpxord 0x19380(%rsi),%zmm14,%zmm4
  40ea2f:	93 01 00 
  40ea32:	62 f1 7c 48 11 62 0e 	vmovups %zmm4,0x380(%rdx)
  40ea39:	62 f1 7c 48 10 96 40 	vmovups 0x19740(%rsi),%zmm2
  40ea40:	97 01 00 
  40ea43:	62 93 35 48 25 d0 96 	vpternlogd $0x96,%zmm24,%zmm9,%zmm2
  40ea4a:	62 f1 7c 48 11 52 1d 	vmovups %zmm2,0x740(%rdx)
  40ea51:	62 71 75 48 ef 8e 80 	vpxord 0x19880(%rsi),%zmm1,%zmm9
  40ea58:	98 01 00 
  40ea5b:	62 71 7c 48 11 4a 22 	vmovups %zmm9,0x880(%rdx)
  40ea62:	62 f1 7c 48 10 0c 24 	vmovups (%rsp),%zmm1
  40ea69:	62 61 65 48 ef 86 40 	vpxord 0x19c40(%rsi),%zmm3,%zmm24
  40ea70:	9c 01 00 
  40ea73:	62 61 7c 48 11 42 31 	vmovups %zmm24,0xc40(%rdx)
  40ea7a:	62 f1 7d 48 ef c1    	vpxord %zmm1,%zmm0,%zmm0
  40ea80:	62 f1 75 48 ef dd    	vpxord %zmm5,%zmm1,%zmm3
  40ea86:	62 b1 7c 48 28 cd    	vmovaps %zmm21,%zmm1
  40ea8c:	62 e3 7d 40 25 e8 1e 	vpternlogd $0x1e,%zmm0,%zmm16,%zmm21
  40ea93:	62 b1 55 48 ef d0    	vpxord %zmm16,%zmm5,%zmm2
  40ea99:	62 f3 6d 48 25 c8 6c 	vpternlogd $0x6c,%zmm0,%zmm2,%zmm1
  40eaa0:	62 b1 7c 48 28 c5    	vmovaps %zmm21,%zmm0
  40eaa6:	62 f3 75 48 25 c3 1e 	vpternlogd $0x1e,%zmm3,%zmm1,%zmm0
  40eaad:	62 b3 6d 48 25 dd 78 	vpternlogd $0x78,%zmm21,%zmm2,%zmm3
  40eab4:	62 e1 75 48 ef 86 c0 	vpxord 0x193c0(%rsi),%zmm1,%zmm16
  40eabb:	93 01 00 
  40eabe:	62 e1 7c 48 11 42 0f 	vmovups %zmm16,0x3c0(%rdx)
  40eac5:	62 f1 7c 48 10 8e 80 	vmovups 0x19780(%rsi),%zmm1
  40eacc:	97 01 00 
  40eacf:	62 b3 55 48 25 cd 96 	vpternlogd $0x96,%zmm21,%zmm5,%zmm1
  40ead6:	62 f1 7c 48 11 4a 1e 	vmovups %zmm1,0x780(%rdx)
  40eadd:	62 f1 7d 48 ef ae c0 	vpxord 0x198c0(%rsi),%zmm0,%zmm5
  40eae4:	98 01 00 
  40eae7:	62 f1 7c 48 11 6a 23 	vmovups %zmm5,0x8c0(%rdx)
  40eaee:	62 e1 65 48 ef ae 80 	vpxord 0x19c80(%rsi),%zmm3,%zmm21
  40eaf5:	9c 01 00 
  40eaf8:	62 e1 7c 48 11 6a 32 	vmovups %zmm21,0xc80(%rdx)
  40eaff:	c5 f8 77             	vzeroupper 
  40eb02:	48 89 ec             	mov    %rbp,%rsp
  40eb05:	5d                   	pop    %rbp
  40eb06:	c3                   	retq   
  40eb07:	66 0f 1f 84 00 00 00 	nopw   0x0(%rax,%rax,1)
  40eb0e:	00 00 

000000000040eb10 <__intel_new_feature_proc_init>:
  40eb10:	41 54                	push   %r12
  40eb12:	41 55                	push   %r13
  40eb14:	41 56                	push   %r14
  40eb16:	41 57                	push   %r15
  40eb18:	48 81 ec 38 04 00 00 	sub    $0x438,%rsp
  40eb1f:	49 89 f6             	mov    %rsi,%r14
  40eb22:	4c 8d 3d 97 3a 20 00 	lea    0x203a97(%rip),%r15        # 6125c0 <__intel_cpu_feature_indicator>
  40eb29:	41 89 fd             	mov    %edi,%r13d
  40eb2c:	64 48 8b 04 25 28 00 	mov    %fs:0x28,%rax
  40eb33:	00 00 
  40eb35:	48 33 c4             	xor    %rsp,%rax
  40eb38:	4d 8b 27             	mov    (%r15),%r12
  40eb3b:	48 89 84 24 28 04 00 	mov    %rax,0x428(%rsp)
  40eb42:	00 
  40eb43:	4d 85 e4             	test   %r12,%r12
  40eb46:	0f 84 f8 02 00 00    	je     40ee44 <__intel_new_feature_proc_init+0x334>
  40eb4c:	4c 89 e0             	mov    %r12,%rax
  40eb4f:	49 23 c6             	and    %r14,%rax
  40eb52:	49 3b c6             	cmp    %r14,%rax
  40eb55:	0f 84 4c 02 00 00    	je     40eda7 <__intel_new_feature_proc_init+0x297>
  40eb5b:	49 f7 c6 01 00 00 00 	test   $0x1,%r14
  40eb62:	0f 85 b3 02 00 00    	jne    40ee1b <__intel_new_feature_proc_init+0x30b>
  40eb68:	45 33 ff             	xor    %r15d,%r15d
  40eb6b:	49 f7 d4             	not    %r12
  40eb6e:	bf 39 00 00 00       	mov    $0x39,%edi
  40eb73:	33 f6                	xor    %esi,%esi
  40eb75:	33 c0                	xor    %eax,%eax
  40eb77:	4d 23 e6             	and    %r14,%r12
  40eb7a:	45 33 f6             	xor    %r14d,%r14d
  40eb7d:	e8 fe 02 00 00       	callq  40ee80 <__libirc_get_msg>
  40eb82:	c6 44 24 28 00       	movb   $0x0,0x28(%rsp)
  40eb87:	4c 89 f2             	mov    %r14,%rdx
  40eb8a:	48 89 44 24 20       	mov    %rax,0x20(%rsp)
  40eb8f:	41 bd 01 00 00 00    	mov    $0x1,%r13d
  40eb95:	48 89 5c 24 18       	mov    %rbx,0x18(%rsp)
  40eb9a:	48 89 6c 24 10       	mov    %rbp,0x10(%rsp)
  40eb9f:	4c 89 f5             	mov    %r14,%rbp
  40eba2:	b8 01 00 00 00       	mov    $0x1,%eax
  40eba7:	41 8d 4d 3f          	lea    0x3f(%r13),%ecx
  40ebab:	48 d3 e0             	shl    %cl,%rax
  40ebae:	41 83 fd 2b          	cmp    $0x2b,%r13d
  40ebb2:	48 0f 47 c5          	cmova  %rbp,%rax
  40ebb6:	4c 85 e0             	test   %r12,%rax
  40ebb9:	0f 84 ff 00 00 00    	je     40ecbe <__intel_new_feature_proc_init+0x1ae>
  40ebbf:	48 8d 05 7a 2c 20 00 	lea    0x202c7a(%rip),%rax        # 611840 <c_feature_names>
  40ebc6:	4a 8b 1c e8          	mov    (%rax,%r13,8),%rbx
  40ebca:	48 85 db             	test   %rbx,%rbx
  40ebcd:	0f 84 39 02 00 00    	je     40ee0c <__intel_new_feature_proc_init+0x2fc>
  40ebd3:	80 3b 00             	cmpb   $0x0,(%rbx)
  40ebd6:	0f 84 30 02 00 00    	je     40ee0c <__intel_new_feature_proc_init+0x2fc>
  40ebdc:	80 7c 24 28 00       	cmpb   $0x0,0x28(%rsp)
  40ebe1:	0f 84 ab 00 00 00    	je     40ec92 <__intel_new_feature_proc_init+0x182>
  40ebe7:	4d 85 ff             	test   %r15,%r15
  40ebea:	0f 84 9d 00 00 00    	je     40ec8d <__intel_new_feature_proc_init+0x17d>
  40ebf0:	4c 89 ff             	mov    %r15,%rdi
  40ebf3:	e8 28 1d ff ff       	callq  400920 <strlen@plt>
  40ebf8:	48 8b 7c 24 20       	mov    0x20(%rsp),%rdi
  40ebfd:	48 89 44 24 08       	mov    %rax,0x8(%rsp)
  40ec02:	e8 19 1d ff ff       	callq  400920 <strlen@plt>
  40ec07:	48 89 df             	mov    %rbx,%rdi
  40ec0a:	48 89 04 24          	mov    %rax,(%rsp)
  40ec0e:	e8 0d 1d ff ff       	callq  400920 <strlen@plt>
  40ec13:	48 89 c1             	mov    %rax,%rcx
  40ec16:	48 8b 44 24 08       	mov    0x8(%rsp),%rax
  40ec1b:	49 03 c6             	add    %r14,%rax
  40ec1e:	48 03 04 24          	add    (%rsp),%rax
  40ec22:	4c 8d 44 08 02       	lea    0x2(%rax,%rcx,1),%r8
  40ec27:	49 81 f8 00 04 00 00 	cmp    $0x400,%r8
  40ec2e:	0f 83 a6 01 00 00    	jae    40edda <__intel_new_feature_proc_init+0x2ca>
  40ec34:	49 f7 de             	neg    %r14
  40ec37:	48 8d 7c 24 28       	lea    0x28(%rsp),%rdi
  40ec3c:	49 81 c6 ff 03 00 00 	add    $0x3ff,%r14
  40ec43:	48 8d 35 46 0f 00 00 	lea    0xf46(%rip),%rsi        # 40fb90 <key.425.0.0.1+0x1c0>
  40ec4a:	4c 89 f2             	mov    %r14,%rdx
  40ec4d:	b9 00 04 00 00       	mov    $0x400,%ecx
  40ec52:	e8 89 1d ff ff       	callq  4009e0 <__strncat_chk@plt>
  40ec57:	48 8d 7c 24 28       	lea    0x28(%rsp),%rdi
  40ec5c:	e8 bf 1c ff ff       	callq  400920 <strlen@plt>
  40ec61:	48 63 d0             	movslq %eax,%rdx
  40ec64:	48 8d 7c 24 28       	lea    0x28(%rsp),%rdi
  40ec69:	48 f7 da             	neg    %rdx
  40ec6c:	4c 89 fe             	mov    %r15,%rsi
  40ec6f:	48 81 c2 ff 03 00 00 	add    $0x3ff,%rdx
  40ec76:	b9 00 04 00 00       	mov    $0x400,%ecx
  40ec7b:	e8 60 1d ff ff       	callq  4009e0 <__strncat_chk@plt>
  40ec80:	48 8d 7c 24 28       	lea    0x28(%rsp),%rdi
  40ec85:	e8 96 1c ff ff       	callq  400920 <strlen@plt>
  40ec8a:	4c 63 f0             	movslq %eax,%r14
  40ec8d:	49 89 df             	mov    %rbx,%r15
  40ec90:	eb 2c                	jmp    40ecbe <__intel_new_feature_proc_init+0x1ae>
  40ec92:	49 f7 de             	neg    %r14
  40ec95:	48 8d 7c 24 28       	lea    0x28(%rsp),%rdi
  40ec9a:	49 81 c6 ff 03 00 00 	add    $0x3ff,%r14
  40eca1:	48 89 de             	mov    %rbx,%rsi
  40eca4:	4c 89 f2             	mov    %r14,%rdx
  40eca7:	b9 00 04 00 00       	mov    $0x400,%ecx
  40ecac:	e8 2f 1d ff ff       	callq  4009e0 <__strncat_chk@plt>
  40ecb1:	48 8d 7c 24 28       	lea    0x28(%rsp),%rdi
  40ecb6:	e8 65 1c ff ff       	callq  400920 <strlen@plt>
  40ecbb:	4c 63 f0             	movslq %eax,%r14
  40ecbe:	41 ff c5             	inc    %r13d
  40ecc1:	41 83 fd 2b          	cmp    $0x2b,%r13d
  40ecc5:	0f 8e d7 fe ff ff    	jle    40eba2 <__intel_new_feature_proc_init+0x92>
  40eccb:	48 8b 44 24 20       	mov    0x20(%rsp),%rax
  40ecd0:	4c 89 f2             	mov    %r14,%rdx
  40ecd3:	48 8b 5c 24 18       	mov    0x18(%rsp),%rbx
  40ecd8:	48 8b 6c 24 10       	mov    0x10(%rsp),%rbp
  40ecdd:	4d 85 ff             	test   %r15,%r15
  40ece0:	74 45                	je     40ed27 <__intel_new_feature_proc_init+0x217>
  40ece2:	48 f7 da             	neg    %rdx
  40ece5:	48 8d 7c 24 28       	lea    0x28(%rsp),%rdi
  40ecea:	48 81 c2 ff 03 00 00 	add    $0x3ff,%rdx
  40ecf1:	48 89 c6             	mov    %rax,%rsi
  40ecf4:	b9 00 04 00 00       	mov    $0x400,%ecx
  40ecf9:	e8 e2 1c ff ff       	callq  4009e0 <__strncat_chk@plt>
  40ecfe:	48 8d 7c 24 28       	lea    0x28(%rsp),%rdi
  40ed03:	e8 18 1c ff ff       	callq  400920 <strlen@plt>
  40ed08:	48 63 d0             	movslq %eax,%rdx
  40ed0b:	48 8d 7c 24 28       	lea    0x28(%rsp),%rdi
  40ed10:	48 f7 da             	neg    %rdx
  40ed13:	4c 89 fe             	mov    %r15,%rsi
  40ed16:	48 81 c2 ff 03 00 00 	add    $0x3ff,%rdx
  40ed1d:	b9 00 04 00 00       	mov    $0x400,%ecx
  40ed22:	e8 b9 1c ff ff       	callq  4009e0 <__strncat_chk@plt>
  40ed27:	80 7c 24 28 00       	cmpb   $0x0,0x28(%rsp)
  40ed2c:	75 3d                	jne    40ed6b <__intel_new_feature_proc_init+0x25b>
  40ed2e:	33 f6                	xor    %esi,%esi
  40ed30:	bf 01 00 00 00       	mov    $0x1,%edi
  40ed35:	33 d2                	xor    %edx,%edx
  40ed37:	33 c0                	xor    %eax,%eax
  40ed39:	e8 c2 03 00 00       	callq  40f100 <__libirc_print>
  40ed3e:	bf 01 00 00 00       	mov    $0x1,%edi
  40ed43:	be 3a 00 00 00       	mov    $0x3a,%esi
  40ed48:	33 d2                	xor    %edx,%edx
  40ed4a:	33 c0                	xor    %eax,%eax
  40ed4c:	e8 af 03 00 00       	callq  40f100 <__libirc_print>
  40ed51:	33 f6                	xor    %esi,%esi
  40ed53:	bf 01 00 00 00       	mov    $0x1,%edi
  40ed58:	33 d2                	xor    %edx,%edx
  40ed5a:	33 c0                	xor    %eax,%eax
  40ed5c:	e8 9f 03 00 00       	callq  40f100 <__libirc_print>
  40ed61:	bf 01 00 00 00       	mov    $0x1,%edi
  40ed66:	e8 45 1c ff ff       	callq  4009b0 <exit@plt>
  40ed6b:	33 f6                	xor    %esi,%esi
  40ed6d:	bf 01 00 00 00       	mov    $0x1,%edi
  40ed72:	33 d2                	xor    %edx,%edx
  40ed74:	33 c0                	xor    %eax,%eax
  40ed76:	e8 85 03 00 00       	callq  40f100 <__libirc_print>
  40ed7b:	bf 01 00 00 00       	mov    $0x1,%edi
  40ed80:	be 38 00 00 00       	mov    $0x38,%esi
  40ed85:	89 fa                	mov    %edi,%edx
  40ed87:	48 8d 4c 24 28       	lea    0x28(%rsp),%rcx
  40ed8c:	33 c0                	xor    %eax,%eax
  40ed8e:	e8 6d 03 00 00       	callq  40f100 <__libirc_print>
  40ed93:	eb bc                	jmp    40ed51 <__intel_new_feature_proc_init+0x241>
  40ed95:	33 f6                	xor    %esi,%esi
  40ed97:	bf 01 00 00 00       	mov    $0x1,%edi
  40ed9c:	33 d2                	xor    %edx,%edx
  40ed9e:	33 c0                	xor    %eax,%eax
  40eda0:	e8 5b 03 00 00       	callq  40f100 <__libirc_print>
  40eda5:	eb 97                	jmp    40ed3e <__intel_new_feature_proc_init+0x22e>
  40eda7:	49 f7 c4 20 00 00 00 	test   $0x20,%r12
  40edae:	0f 85 81 00 00 00    	jne    40ee35 <__intel_new_feature_proc_init+0x325>
  40edb4:	48 8b 84 24 28 04 00 	mov    0x428(%rsp),%rax
  40edbb:	00 
  40edbc:	48 33 c4             	xor    %rsp,%rax
  40edbf:	64 48 3b 04 25 28 00 	cmp    %fs:0x28,%rax
  40edc6:	00 00 
  40edc8:	75 66                	jne    40ee30 <__intel_new_feature_proc_init+0x320>
  40edca:	48 81 c4 38 04 00 00 	add    $0x438,%rsp
  40edd1:	41 5f                	pop    %r15
  40edd3:	41 5e                	pop    %r14
  40edd5:	41 5d                	pop    %r13
  40edd7:	41 5c                	pop    %r12
  40edd9:	c3                   	retq   
  40edda:	4c 89 f2             	mov    %r14,%rdx
  40eddd:	48 8d 7c 24 28       	lea    0x28(%rsp),%rdi
  40ede2:	48 f7 da             	neg    %rdx
  40ede5:	b9 00 04 00 00       	mov    $0x400,%ecx
  40edea:	48 8b 47 f8          	mov    -0x8(%rdi),%rax
  40edee:	48 81 c2 ff 03 00 00 	add    $0x3ff,%rdx
  40edf5:	48 89 c6             	mov    %rax,%rsi
  40edf8:	48 8b 5c 24 18       	mov    0x18(%rsp),%rbx
  40edfd:	48 8b 6c 24 10       	mov    0x10(%rsp),%rbp
  40ee02:	e8 d9 1b ff ff       	callq  4009e0 <__strncat_chk@plt>
  40ee07:	e9 f2 fe ff ff       	jmpq   40ecfe <__intel_new_feature_proc_init+0x1ee>
  40ee0c:	48 8b 5c 24 18       	mov    0x18(%rsp),%rbx
  40ee11:	48 8b 6c 24 10       	mov    0x10(%rsp),%rbp
  40ee16:	e9 7a ff ff ff       	jmpq   40ed95 <__intel_new_feature_proc_init+0x285>
  40ee1b:	33 f6                	xor    %esi,%esi
  40ee1d:	bf 01 00 00 00       	mov    $0x1,%edi
  40ee22:	33 d2                	xor    %edx,%edx
  40ee24:	33 c0                	xor    %eax,%eax
  40ee26:	e8 d5 02 00 00       	callq  40f100 <__libirc_print>
  40ee2b:	e9 0e ff ff ff       	jmpq   40ed3e <__intel_new_feature_proc_init+0x22e>
  40ee30:	e8 fb 1a ff ff       	callq  400930 <__stack_chk_fail@plt>
  40ee35:	33 ff                	xor    %edi,%edi
  40ee37:	44 89 ee             	mov    %r13d,%esi
  40ee3a:	e8 01 0a 00 00       	callq  40f840 <__intel_proc_init_ftzdazule>
  40ee3f:	e9 70 ff ff ff       	jmpq   40edb4 <__intel_new_feature_proc_init+0x2a4>
  40ee44:	33 c0                	xor    %eax,%eax
  40ee46:	e8 c5 05 00 00       	callq  40f410 <__intel_cpu_features_init>
  40ee4b:	4d 8b 27             	mov    (%r15),%r12
  40ee4e:	4d 85 e4             	test   %r12,%r12
  40ee51:	0f 85 f5 fc ff ff    	jne    40eb4c <__intel_new_feature_proc_init+0x3c>
  40ee57:	33 f6                	xor    %esi,%esi
  40ee59:	bf 01 00 00 00       	mov    $0x1,%edi
  40ee5e:	33 d2                	xor    %edx,%edx
  40ee60:	33 c0                	xor    %eax,%eax
  40ee62:	e8 99 02 00 00       	callq  40f100 <__libirc_print>
  40ee67:	bf 01 00 00 00       	mov    $0x1,%edi
  40ee6c:	be 3b 00 00 00       	mov    $0x3b,%esi
  40ee71:	33 d2                	xor    %edx,%edx
  40ee73:	33 c0                	xor    %eax,%eax
  40ee75:	e8 86 02 00 00       	callq  40f100 <__libirc_print>
  40ee7a:	e9 d2 fe ff ff       	jmpq   40ed51 <__intel_new_feature_proc_init+0x241>
  40ee7f:	90                   	nop

000000000040ee80 <__libirc_get_msg>:
  40ee80:	41 54                	push   %r12
  40ee82:	41 55                	push   %r13
  40ee84:	41 56                	push   %r14
  40ee86:	48 81 ec 50 01 00 00 	sub    $0x150,%rsp
  40ee8d:	48 89 54 24 10       	mov    %rdx,0x10(%rsp)
  40ee92:	48 89 4c 24 18       	mov    %rcx,0x18(%rsp)
  40ee97:	4c 89 44 24 20       	mov    %r8,0x20(%rsp)
  40ee9c:	4c 89 4c 24 28       	mov    %r9,0x28(%rsp)
  40eea1:	44 0f b6 d8          	movzbl %al,%r11d
  40eea5:	4a 8d 04 9d 00 00 00 	lea    0x0(,%r11,4),%rax
  40eeac:	00 
  40eead:	4c 8d 1d 2e 00 00 00 	lea    0x2e(%rip),%r11        # 40eee2 <__libirc_get_msg+0x62>
  40eeb4:	4c 2b d8             	sub    %rax,%r11
  40eeb7:	48 8d 84 24 af 00 00 	lea    0xaf(%rsp),%rax
  40eebe:	00 
  40eebf:	41 ff e3             	jmpq   *%r11
  40eec2:	0f 29 78 f1          	movaps %xmm7,-0xf(%rax)
  40eec6:	0f 29 70 e1          	movaps %xmm6,-0x1f(%rax)
  40eeca:	0f 29 68 d1          	movaps %xmm5,-0x2f(%rax)
  40eece:	0f 29 60 c1          	movaps %xmm4,-0x3f(%rax)
  40eed2:	0f 29 58 b1          	movaps %xmm3,-0x4f(%rax)
  40eed6:	0f 29 50 a1          	movaps %xmm2,-0x5f(%rax)
  40eeda:	0f 29 48 91          	movaps %xmm1,-0x6f(%rax)
  40eede:	0f 29 40 81          	movaps %xmm0,-0x7f(%rax)
  40eee2:	41 89 fd             	mov    %edi,%r13d
  40eee5:	64 48 8b 04 25 28 00 	mov    %fs:0x28,%rax
  40eeec:	00 00 
  40eeee:	41 89 f6             	mov    %esi,%r14d
  40eef1:	48 33 c4             	xor    %rsp,%rax
  40eef4:	48 89 84 24 48 01 00 	mov    %rax,0x148(%rsp)
  40eefb:	00 
  40eefc:	45 85 ed             	test   %r13d,%r13d
  40eeff:	0f 84 87 00 00 00    	je     40ef8c <__libirc_get_msg+0x10c>
  40ef05:	83 3d 54 32 20 00 00 	cmpl   $0x0,0x203254(%rip)        # 612160 <first_msg>
  40ef0c:	74 5b                	je     40ef69 <__libirc_get_msg+0xe9>
  40ef0e:	48 8d 3d 7f 0c 00 00 	lea    0xc7f(%rip),%rdi        # 40fb94 <key.425.0.0.1+0x1c4>
  40ef15:	33 f6                	xor    %esi,%esi
  40ef17:	c7 05 3f 32 20 00 00 	movl   $0x0,0x20323f(%rip)        # 612160 <first_msg>
  40ef1e:	00 00 00 
  40ef21:	e8 4a 1a ff ff       	callq  400970 <catopen@plt>
  40ef26:	48 89 05 73 36 20 00 	mov    %rax,0x203673(%rip)        # 6125a0 <message_catalog>
  40ef2d:	48 83 f8 ff          	cmp    $0xffffffffffffffff,%rax
  40ef31:	0f 84 0d 01 00 00    	je     40f044 <__libirc_get_msg+0x1c4>
  40ef37:	48 8b 3d 62 36 20 00 	mov    0x203662(%rip),%rdi        # 6125a0 <message_catalog>
  40ef3e:	c7 05 1c 32 20 00 00 	movl   $0x0,0x20321c(%rip)        # 612164 <use_internal_msg>
  40ef45:	00 00 00 
  40ef48:	49 63 c5             	movslq %r13d,%rax
  40ef4b:	4c 8d 05 b6 2a 20 00 	lea    0x202ab6(%rip),%r8        # 611a08 <irc_msgtab+0x8>
  40ef52:	48 c1 e0 04          	shl    $0x4,%rax
  40ef56:	be 01 00 00 00       	mov    $0x1,%esi
  40ef5b:	44 89 ea             	mov    %r13d,%edx
  40ef5e:	4a 8b 0c 00          	mov    (%rax,%r8,1),%rcx
  40ef62:	e8 39 1a ff ff       	callq  4009a0 <catgets@plt>
  40ef67:	eb 2a                	jmp    40ef93 <__libirc_get_msg+0x113>
  40ef69:	8b 05 f5 31 20 00    	mov    0x2031f5(%rip),%eax        # 612164 <use_internal_msg>
  40ef6f:	85 c0                	test   %eax,%eax
  40ef71:	0f 84 7d 01 00 00    	je     40f0f4 <__libirc_get_msg+0x274>
  40ef77:	4d 63 ed             	movslq %r13d,%r13
  40ef7a:	48 8d 05 87 2a 20 00 	lea    0x202a87(%rip),%rax        # 611a08 <irc_msgtab+0x8>
  40ef81:	49 c1 e5 04          	shl    $0x4,%r13
  40ef85:	49 8b 44 05 00       	mov    0x0(%r13,%rax,1),%rax
  40ef8a:	eb 07                	jmp    40ef93 <__libirc_get_msg+0x113>
  40ef8c:	48 8d 05 6d 0a 00 00 	lea    0xa6d(%rip),%rax        # 40fa00 <key.425.0.0.1+0x30>
  40ef93:	45 85 f6             	test   %r14d,%r14d
  40ef96:	0f 8e 80 00 00 00    	jle    40f01c <__libirc_get_msg+0x19c>
  40ef9c:	c7 84 24 b0 00 00 00 	movl   $0x10,0xb0(%rsp)
  40efa3:	10 00 00 00 
  40efa7:	48 8d 94 24 70 01 00 	lea    0x170(%rsp),%rdx
  40efae:	00 
  40efaf:	c7 84 24 b4 00 00 00 	movl   $0x30,0xb4(%rsp)
  40efb6:	30 00 00 00 
  40efba:	48 8d 34 24          	lea    (%rsp),%rsi
  40efbe:	48 89 96 b8 00 00 00 	mov    %rdx,0xb8(%rsi)
  40efc5:	48 89 b6 c0 00 00 00 	mov    %rsi,0xc0(%rsi)
  40efcc:	48 8d 3d cd 31 20 00 	lea    0x2031cd(%rip),%rdi        # 6121a0 <get_msg_buf>
  40efd3:	be 01 00 00 00       	mov    $0x1,%esi
  40efd8:	ba 00 02 00 00       	mov    $0x200,%edx
  40efdd:	48 89 c1             	mov    %rax,%rcx
  40efe0:	4c 8d 84 24 b0 00 00 	lea    0xb0(%rsp),%r8
  40efe7:	00 
  40efe8:	e8 13 1a ff ff       	callq  400a00 <__vsprintf_chk@plt>
  40efed:	48 8b 84 24 48 01 00 	mov    0x148(%rsp),%rax
  40eff4:	00 
  40eff5:	48 33 c4             	xor    %rsp,%rax
  40eff8:	64 48 3b 04 25 28 00 	cmp    %fs:0x28,%rax
  40efff:	00 00 
  40f001:	0f 85 e8 00 00 00    	jne    40f0ef <__libirc_get_msg+0x26f>
  40f007:	48 8d 05 92 31 20 00 	lea    0x203192(%rip),%rax        # 6121a0 <get_msg_buf>
  40f00e:	48 81 c4 50 01 00 00 	add    $0x150,%rsp
  40f015:	41 5e                	pop    %r14
  40f017:	41 5d                	pop    %r13
  40f019:	41 5c                	pop    %r12
  40f01b:	c3                   	retq   
  40f01c:	48 8b 94 24 48 01 00 	mov    0x148(%rsp),%rdx
  40f023:	00 
  40f024:	48 33 d4             	xor    %rsp,%rdx
  40f027:	64 48 3b 14 25 28 00 	cmp    %fs:0x28,%rdx
  40f02e:	00 00 
  40f030:	0f 85 b9 00 00 00    	jne    40f0ef <__libirc_get_msg+0x26f>
  40f036:	48 81 c4 50 01 00 00 	add    $0x150,%rsp
  40f03d:	41 5e                	pop    %r14
  40f03f:	41 5d                	pop    %r13
  40f041:	41 5c                	pop    %r12
  40f043:	c3                   	retq   
  40f044:	48 8d 3d ed 10 00 00 	lea    0x10ed(%rip),%rdi        # 410138 <key.425.0.0.1+0x768>
  40f04b:	e8 a0 18 ff ff       	callq  4008f0 <getenv@plt>
  40f050:	48 85 c0             	test   %rax,%rax
  40f053:	0f 84 80 00 00 00    	je     40f0d9 <__libirc_get_msg+0x259>
  40f059:	48 89 c6             	mov    %rax,%rsi
  40f05c:	48 8d bc 24 c8 00 00 	lea    0xc8(%rsp),%rdi
  40f063:	00 
  40f064:	ba 80 00 00 00       	mov    $0x80,%edx
  40f069:	e8 92 18 ff ff       	callq  400900 <strncpy@plt>
  40f06e:	be 2e 00 00 00       	mov    $0x2e,%esi
  40f073:	48 8d bc 24 c8 00 00 	lea    0xc8(%rsp),%rdi
  40f07a:	00 
  40f07b:	e8 c0 18 ff ff       	callq  400940 <strchr@plt>
  40f080:	49 89 c4             	mov    %rax,%r12
  40f083:	4d 85 e4             	test   %r12,%r12
  40f086:	74 51                	je     40f0d9 <__libirc_get_msg+0x259>
  40f088:	48 8d 3d a9 10 00 00 	lea    0x10a9(%rip),%rdi        # 410138 <key.425.0.0.1+0x768>
  40f08f:	48 8d b4 24 c8 00 00 	lea    0xc8(%rsp),%rsi
  40f096:	00 
  40f097:	ba 01 00 00 00       	mov    $0x1,%edx
  40f09c:	41 c6 04 24 00       	movb   $0x0,(%r12)
  40f0a1:	e8 6a 18 ff ff       	callq  400910 <setenv@plt>
  40f0a6:	48 8d 3d e7 0a 00 00 	lea    0xae7(%rip),%rdi        # 40fb94 <key.425.0.0.1+0x1c4>
  40f0ad:	33 f6                	xor    %esi,%esi
  40f0af:	e8 bc 18 ff ff       	callq  400970 <catopen@plt>
  40f0b4:	48 8d 3d 7d 10 00 00 	lea    0x107d(%rip),%rdi        # 410138 <key.425.0.0.1+0x768>
  40f0bb:	48 8d b4 24 c8 00 00 	lea    0xc8(%rsp),%rsi
  40f0c2:	00 
  40f0c3:	ba 01 00 00 00       	mov    $0x1,%edx
  40f0c8:	48 89 05 d1 34 20 00 	mov    %rax,0x2034d1(%rip)        # 6125a0 <message_catalog>
  40f0cf:	41 c6 04 24 2e       	movb   $0x2e,(%r12)
  40f0d4:	e8 37 18 ff ff       	callq  400910 <setenv@plt>
  40f0d9:	48 8b 3d c0 34 20 00 	mov    0x2034c0(%rip),%rdi        # 6125a0 <message_catalog>
  40f0e0:	48 83 ff ff          	cmp    $0xffffffffffffffff,%rdi
  40f0e4:	0f 85 54 fe ff ff    	jne    40ef3e <__libirc_get_msg+0xbe>
  40f0ea:	e9 7a fe ff ff       	jmpq   40ef69 <__libirc_get_msg+0xe9>
  40f0ef:	e8 3c 18 ff ff       	callq  400930 <__stack_chk_fail@plt>
  40f0f4:	48 8b 3d a5 34 20 00 	mov    0x2034a5(%rip),%rdi        # 6125a0 <message_catalog>
  40f0fb:	e9 48 fe ff ff       	jmpq   40ef48 <__libirc_get_msg+0xc8>

000000000040f100 <__libirc_print>:
  40f100:	41 56                	push   %r14
  40f102:	41 57                	push   %r15
  40f104:	53                   	push   %rbx
  40f105:	55                   	push   %rbp
  40f106:	48 81 ec 58 01 00 00 	sub    $0x158,%rsp
  40f10d:	48 89 4c 24 18       	mov    %rcx,0x18(%rsp)
  40f112:	4c 89 44 24 20       	mov    %r8,0x20(%rsp)
  40f117:	4c 89 4c 24 28       	mov    %r9,0x28(%rsp)
  40f11c:	44 0f b6 d8          	movzbl %al,%r11d
  40f120:	4a 8d 04 9d 00 00 00 	lea    0x0(,%r11,4),%rax
  40f127:	00 
  40f128:	4c 8d 1d 2e 00 00 00 	lea    0x2e(%rip),%r11        # 40f15d <__libirc_print+0x5d>
  40f12f:	4c 2b d8             	sub    %rax,%r11
  40f132:	48 8d 84 24 af 00 00 	lea    0xaf(%rsp),%rax
  40f139:	00 
  40f13a:	41 ff e3             	jmpq   *%r11
  40f13d:	0f 29 78 f1          	movaps %xmm7,-0xf(%rax)
  40f141:	0f 29 70 e1          	movaps %xmm6,-0x1f(%rax)
  40f145:	0f 29 68 d1          	movaps %xmm5,-0x2f(%rax)
  40f149:	0f 29 60 c1          	movaps %xmm4,-0x3f(%rax)
  40f14d:	0f 29 58 b1          	movaps %xmm3,-0x4f(%rax)
  40f151:	0f 29 50 a1          	movaps %xmm2,-0x5f(%rax)
  40f155:	0f 29 48 91          	movaps %xmm1,-0x6f(%rax)
  40f159:	0f 29 40 81          	movaps %xmm0,-0x7f(%rax)
  40f15d:	41 89 f6             	mov    %esi,%r14d
  40f160:	64 48 8b 04 25 28 00 	mov    %fs:0x28,%rax
  40f167:	00 00 
  40f169:	41 89 d7             	mov    %edx,%r15d
  40f16c:	48 33 c4             	xor    %rsp,%rax
  40f16f:	89 fd                	mov    %edi,%ebp
  40f171:	48 89 84 24 48 01 00 	mov    %rax,0x148(%rsp)
  40f178:	00 
  40f179:	45 85 f6             	test   %r14d,%r14d
  40f17c:	75 44                	jne    40f1c2 <__libirc_print+0xc2>
  40f17e:	83 fd 01             	cmp    $0x1,%ebp
  40f181:	0f 84 72 01 00 00    	je     40f2f9 <__libirc_print+0x1f9>
  40f187:	bf 01 00 00 00       	mov    $0x1,%edi
  40f18c:	48 8d 35 0d 0a 00 00 	lea    0xa0d(%rip),%rsi        # 40fba0 <key.425.0.0.1+0x1d0>
  40f193:	33 c0                	xor    %eax,%eax
  40f195:	e8 e6 17 ff ff       	callq  400980 <__printf_chk@plt>
  40f19a:	48 8b 84 24 48 01 00 	mov    0x148(%rsp),%rax
  40f1a1:	00 
  40f1a2:	48 33 c4             	xor    %rsp,%rax
  40f1a5:	64 48 3b 04 25 28 00 	cmp    %fs:0x28,%rax
  40f1ac:	00 00 
  40f1ae:	0f 85 40 01 00 00    	jne    40f2f4 <__libirc_print+0x1f4>
  40f1b4:	48 81 c4 58 01 00 00 	add    $0x158,%rsp
  40f1bb:	5d                   	pop    %rbp
  40f1bc:	5b                   	pop    %rbx
  40f1bd:	41 5f                	pop    %r15
  40f1bf:	41 5e                	pop    %r14
  40f1c1:	c3                   	retq   
  40f1c2:	83 3d 97 2f 20 00 00 	cmpl   $0x0,0x202f97(%rip)        # 612160 <first_msg>
  40f1c9:	74 3c                	je     40f207 <__libirc_print+0x107>
  40f1cb:	48 8d 3d c2 09 00 00 	lea    0x9c2(%rip),%rdi        # 40fb94 <key.425.0.0.1+0x1c4>
  40f1d2:	33 f6                	xor    %esi,%esi
  40f1d4:	c7 05 82 2f 20 00 00 	movl   $0x0,0x202f82(%rip)        # 612160 <first_msg>
  40f1db:	00 00 00 
  40f1de:	e8 8d 17 ff ff       	callq  400970 <catopen@plt>
  40f1e3:	48 89 05 b6 33 20 00 	mov    %rax,0x2033b6(%rip)        # 6125a0 <message_catalog>
  40f1ea:	48 83 f8 ff          	cmp    $0xffffffffffffffff,%rax
  40f1ee:	0f 84 27 01 00 00    	je     40f31b <__libirc_print+0x21b>
  40f1f4:	48 8b 3d a5 33 20 00 	mov    0x2033a5(%rip),%rdi        # 6125a0 <message_catalog>
  40f1fb:	c7 05 5f 2f 20 00 00 	movl   $0x0,0x202f5f(%rip)        # 612164 <use_internal_msg>
  40f202:	00 00 00 
  40f205:	eb 22                	jmp    40f229 <__libirc_print+0x129>
  40f207:	8b 05 57 2f 20 00    	mov    0x202f57(%rip),%eax        # 612164 <use_internal_msg>
  40f20d:	85 c0                	test   %eax,%eax
  40f20f:	0f 84 dd 01 00 00    	je     40f3f2 <__libirc_print+0x2f2>
  40f215:	4d 63 f6             	movslq %r14d,%r14
  40f218:	48 8d 05 e9 27 20 00 	lea    0x2027e9(%rip),%rax        # 611a08 <irc_msgtab+0x8>
  40f21f:	49 c1 e6 04          	shl    $0x4,%r14
  40f223:	49 8b 0c 06          	mov    (%r14,%rax,1),%rcx
  40f227:	eb 22                	jmp    40f24b <__libirc_print+0x14b>
  40f229:	49 63 c6             	movslq %r14d,%rax
  40f22c:	48 8d 1d d5 27 20 00 	lea    0x2027d5(%rip),%rbx        # 611a08 <irc_msgtab+0x8>
  40f233:	48 c1 e0 04          	shl    $0x4,%rax
  40f237:	be 01 00 00 00       	mov    $0x1,%esi
  40f23c:	44 89 f2             	mov    %r14d,%edx
  40f23f:	48 8b 0c 18          	mov    (%rax,%rbx,1),%rcx
  40f243:	e8 58 17 ff ff       	callq  4009a0 <catgets@plt>
  40f248:	48 89 c1             	mov    %rax,%rcx
  40f24b:	45 85 ff             	test   %r15d,%r15d
  40f24e:	7e 55                	jle    40f2a5 <__libirc_print+0x1a5>
  40f250:	c7 84 24 b0 00 00 00 	movl   $0x18,0xb0(%rsp)
  40f257:	18 00 00 00 
  40f25b:	48 8d 84 24 80 01 00 	lea    0x180(%rsp),%rax
  40f262:	00 
  40f263:	c7 84 24 b4 00 00 00 	movl   $0x30,0xb4(%rsp)
  40f26a:	30 00 00 00 
  40f26e:	48 8d 1c 24          	lea    (%rsp),%rbx
  40f272:	48 89 83 b8 00 00 00 	mov    %rax,0xb8(%rbx)
  40f279:	48 89 9b c0 00 00 00 	mov    %rbx,0xc0(%rbx)
  40f280:	48 8d 3d 19 31 20 00 	lea    0x203119(%rip),%rdi        # 6123a0 <print_buf>
  40f287:	be 01 00 00 00       	mov    $0x1,%esi
  40f28c:	ba 00 02 00 00       	mov    $0x200,%edx
  40f291:	4c 8d 84 24 b0 00 00 	lea    0xb0(%rsp),%r8
  40f298:	00 
  40f299:	e8 62 17 ff ff       	callq  400a00 <__vsprintf_chk@plt>
  40f29e:	48 8d 0d fb 30 20 00 	lea    0x2030fb(%rip),%rcx        # 6123a0 <print_buf>
  40f2a5:	83 fd 01             	cmp    $0x1,%ebp
  40f2a8:	0f 84 10 01 00 00    	je     40f3be <__libirc_print+0x2be>
  40f2ae:	bf 01 00 00 00       	mov    $0x1,%edi
  40f2b3:	48 89 ce             	mov    %rcx,%rsi
  40f2b6:	33 c0                	xor    %eax,%eax
  40f2b8:	e8 c3 16 ff ff       	callq  400980 <__printf_chk@plt>
  40f2bd:	bf 01 00 00 00       	mov    $0x1,%edi
  40f2c2:	48 8d 35 d7 08 00 00 	lea    0x8d7(%rip),%rsi        # 40fba0 <key.425.0.0.1+0x1d0>
  40f2c9:	33 c0                	xor    %eax,%eax
  40f2cb:	e8 b0 16 ff ff       	callq  400980 <__printf_chk@plt>
  40f2d0:	48 8b 84 24 48 01 00 	mov    0x148(%rsp),%rax
  40f2d7:	00 
  40f2d8:	48 33 c4             	xor    %rsp,%rax
  40f2db:	64 48 3b 04 25 28 00 	cmp    %fs:0x28,%rax
  40f2e2:	00 00 
  40f2e4:	75 0e                	jne    40f2f4 <__libirc_print+0x1f4>
  40f2e6:	48 81 c4 58 01 00 00 	add    $0x158,%rsp
  40f2ed:	5d                   	pop    %rbp
  40f2ee:	5b                   	pop    %rbx
  40f2ef:	41 5f                	pop    %r15
  40f2f1:	41 5e                	pop    %r14
  40f2f3:	c3                   	retq   
  40f2f4:	e8 37 16 ff ff       	callq  400930 <__stack_chk_fail@plt>
  40f2f9:	48 8b 05 e8 2c 20 00 	mov    0x202ce8(%rip),%rax        # 611fe8 <_DYNAMIC+0x208>
  40f300:	be 01 00 00 00       	mov    $0x1,%esi
  40f305:	48 8d 15 94 08 00 00 	lea    0x894(%rip),%rdx        # 40fba0 <key.425.0.0.1+0x1d0>
  40f30c:	48 8b 38             	mov    (%rax),%rdi
  40f30f:	33 c0                	xor    %eax,%eax
  40f311:	e8 ba 16 ff ff       	callq  4009d0 <__fprintf_chk@plt>
  40f316:	e9 7f fe ff ff       	jmpq   40f19a <__libirc_print+0x9a>
  40f31b:	48 8d 3d 16 0e 00 00 	lea    0xe16(%rip),%rdi        # 410138 <key.425.0.0.1+0x768>
  40f322:	e8 c9 15 ff ff       	callq  4008f0 <getenv@plt>
  40f327:	48 85 c0             	test   %rax,%rax
  40f32a:	74 7c                	je     40f3a8 <__libirc_print+0x2a8>
  40f32c:	48 89 c6             	mov    %rax,%rsi
  40f32f:	48 8d bc 24 c8 00 00 	lea    0xc8(%rsp),%rdi
  40f336:	00 
  40f337:	ba 80 00 00 00       	mov    $0x80,%edx
  40f33c:	e8 bf 15 ff ff       	callq  400900 <strncpy@plt>
  40f341:	be 2e 00 00 00       	mov    $0x2e,%esi
  40f346:	48 8d bc 24 c8 00 00 	lea    0xc8(%rsp),%rdi
  40f34d:	00 
  40f34e:	e8 ed 15 ff ff       	callq  400940 <strchr@plt>
  40f353:	48 89 c3             	mov    %rax,%rbx
  40f356:	48 85 db             	test   %rbx,%rbx
  40f359:	74 4d                	je     40f3a8 <__libirc_print+0x2a8>
  40f35b:	48 8d 3d d6 0d 00 00 	lea    0xdd6(%rip),%rdi        # 410138 <key.425.0.0.1+0x768>
  40f362:	48 8d b4 24 c8 00 00 	lea    0xc8(%rsp),%rsi
  40f369:	00 
  40f36a:	ba 01 00 00 00       	mov    $0x1,%edx
  40f36f:	c6 03 00             	movb   $0x0,(%rbx)
  40f372:	e8 99 15 ff ff       	callq  400910 <setenv@plt>
  40f377:	48 8d 3d 16 08 00 00 	lea    0x816(%rip),%rdi        # 40fb94 <key.425.0.0.1+0x1c4>
  40f37e:	33 f6                	xor    %esi,%esi
  40f380:	e8 eb 15 ff ff       	callq  400970 <catopen@plt>
  40f385:	48 8d 3d ac 0d 00 00 	lea    0xdac(%rip),%rdi        # 410138 <key.425.0.0.1+0x768>
  40f38c:	48 8d b4 24 c8 00 00 	lea    0xc8(%rsp),%rsi
  40f393:	00 
  40f394:	ba 01 00 00 00       	mov    $0x1,%edx
  40f399:	48 89 05 00 32 20 00 	mov    %rax,0x203200(%rip)        # 6125a0 <message_catalog>
  40f3a0:	c6 03 2e             	movb   $0x2e,(%rbx)
  40f3a3:	e8 68 15 ff ff       	callq  400910 <setenv@plt>
  40f3a8:	48 8b 3d f1 31 20 00 	mov    0x2031f1(%rip),%rdi        # 6125a0 <message_catalog>
  40f3af:	48 83 ff ff          	cmp    $0xffffffffffffffff,%rdi
  40f3b3:	0f 85 42 fe ff ff    	jne    40f1fb <__libirc_print+0xfb>
  40f3b9:	e9 49 fe ff ff       	jmpq   40f207 <__libirc_print+0x107>
  40f3be:	48 8b 1d 23 2c 20 00 	mov    0x202c23(%rip),%rbx        # 611fe8 <_DYNAMIC+0x208>
  40f3c5:	be 01 00 00 00       	mov    $0x1,%esi
  40f3ca:	48 89 ca             	mov    %rcx,%rdx
  40f3cd:	33 c0                	xor    %eax,%eax
  40f3cf:	48 8b 3b             	mov    (%rbx),%rdi
  40f3d2:	e8 f9 15 ff ff       	callq  4009d0 <__fprintf_chk@plt>
  40f3d7:	be 01 00 00 00       	mov    $0x1,%esi
  40f3dc:	48 8d 15 bd 07 00 00 	lea    0x7bd(%rip),%rdx        # 40fba0 <key.425.0.0.1+0x1d0>
  40f3e3:	33 c0                	xor    %eax,%eax
  40f3e5:	48 8b 3b             	mov    (%rbx),%rdi
  40f3e8:	e8 e3 15 ff ff       	callq  4009d0 <__fprintf_chk@plt>
  40f3ed:	e9 de fe ff ff       	jmpq   40f2d0 <__libirc_print+0x1d0>
  40f3f2:	48 8b 3d a7 31 20 00 	mov    0x2031a7(%rip),%rdi        # 6125a0 <message_catalog>
  40f3f9:	e9 2b fe ff ff       	jmpq   40f229 <__libirc_print+0x129>
  40f3fe:	66 90                	xchg   %ax,%ax

000000000040f400 <__intel_cpu_features_init_x>:
  40f400:	50                   	push   %rax
  40f401:	33 c0                	xor    %eax,%eax
  40f403:	e8 18 00 00 00       	callq  40f420 <__intel_cpu_features_init_body>
  40f408:	58                   	pop    %rax
  40f409:	c3                   	retq   
  40f40a:	66 0f 1f 44 00 00    	nopw   0x0(%rax,%rax,1)

000000000040f410 <__intel_cpu_features_init>:
  40f410:	50                   	push   %rax
  40f411:	b8 01 00 00 00       	mov    $0x1,%eax
  40f416:	e8 05 00 00 00       	callq  40f420 <__intel_cpu_features_init_body>
  40f41b:	58                   	pop    %rax
  40f41c:	c3                   	retq   
  40f41d:	0f 1f 00             	nopl   (%rax)

000000000040f420 <__intel_cpu_features_init_body>:
  40f420:	52                   	push   %rdx
  40f421:	51                   	push   %rcx
  40f422:	53                   	push   %rbx
  40f423:	56                   	push   %rsi
  40f424:	57                   	push   %rdi
  40f425:	41 50                	push   %r8
  40f427:	41 56                	push   %r14
  40f429:	41 57                	push   %r15
  40f42b:	55                   	push   %rbp
  40f42c:	41 89 c7             	mov    %eax,%r15d
  40f42f:	33 c0                	xor    %eax,%eax
  40f431:	0f a2                	cpuid  
  40f433:	89 44 24 f0          	mov    %eax,-0x10(%rsp)
  40f437:	89 5c 24 f4          	mov    %ebx,-0xc(%rsp)
  40f43b:	89 4c 24 f8          	mov    %ecx,-0x8(%rsp)
  40f43f:	89 54 24 fc          	mov    %edx,-0x4(%rsp)
  40f443:	83 7c 24 f0 00       	cmpl   $0x0,-0x10(%rsp)
  40f448:	0f 84 b2 03 00 00    	je     40f800 <__intel_cpu_features_init_body+0x3e0>
  40f44e:	41 83 ff 01          	cmp    $0x1,%r15d
  40f452:	0f 84 c0 03 00 00    	je     40f818 <__intel_cpu_features_init_body+0x3f8>
  40f458:	b8 01 00 00 00       	mov    $0x1,%eax
  40f45d:	0f a2                	cpuid  
  40f45f:	89 d5                	mov    %edx,%ebp
  40f461:	89 d7                	mov    %edx,%edi
  40f463:	81 e5 00 80 00 00    	and    $0x8000,%ebp
  40f469:	83 e7 01             	and    $0x1,%edi
  40f46c:	89 ce                	mov    %ecx,%esi
  40f46e:	41 89 c6             	mov    %eax,%r14d
  40f471:	48 c1 ed 0d          	shr    $0xd,%rbp
  40f475:	f7 c2 00 00 80 00    	test   $0x800000,%edx
  40f47b:	48 8d 7c 7d 01       	lea    0x1(%rbp,%rdi,2),%rdi
  40f480:	4c 8d 47 08          	lea    0x8(%rdi),%r8
  40f484:	49 0f 45 f8          	cmovne %r8,%rdi
  40f488:	f7 c2 00 00 00 01    	test   $0x1000000,%edx
  40f48e:	75 28                	jne    40f4b8 <__intel_cpu_features_init_body+0x98>
  40f490:	41 89 f0             	mov    %esi,%r8d
  40f493:	41 81 e0 00 00 00 40 	and    $0x40000000,%r8d
  40f49a:	b8 07 00 00 00       	mov    $0x7,%eax
  40f49f:	33 c9                	xor    %ecx,%ecx
  40f4a1:	0f a2                	cpuid  
  40f4a3:	49 c1 e8 0d          	shr    $0xd,%r8
  40f4a7:	41 89 d3             	mov    %edx,%r11d
  40f4aa:	49 03 f8             	add    %r8,%rdi
  40f4ad:	41 89 ca             	mov    %ecx,%r10d
  40f4b0:	41 89 d8             	mov    %ebx,%r8d
  40f4b3:	e9 e6 00 00 00       	jmpq   40f59e <__intel_cpu_features_init_body+0x17e>
  40f4b8:	41 89 f2             	mov    %esi,%r10d
  40f4bb:	48 8d 6f 10          	lea    0x10(%rdi),%rbp
  40f4bf:	48 83 c7 30          	add    $0x30,%rdi
  40f4c3:	f7 c2 00 00 00 02    	test   $0x2000000,%edx
  40f4c9:	89 f0                	mov    %esi,%eax
  40f4cb:	48 0f 45 ef          	cmovne %rdi,%rbp
  40f4cf:	81 e2 00 00 00 04    	and    $0x4000000,%edx
  40f4d5:	41 81 e2 00 02 00 00 	and    $0x200,%r10d
  40f4dc:	89 f7                	mov    %esi,%edi
  40f4de:	48 c1 ea 14          	shr    $0x14,%rdx
  40f4e2:	81 e7 00 00 08 00    	and    $0x80000,%edi
  40f4e8:	48 0b ea             	or     %rdx,%rbp
  40f4eb:	25 00 00 00 02       	and    $0x2000000,%eax
  40f4f0:	49 89 e8             	mov    %rbp,%r8
  40f4f3:	49 81 c8 80 00 00 00 	or     $0x80,%r8
  40f4fa:	f7 c6 01 00 00 00    	test   $0x1,%esi
  40f500:	49 0f 45 e8          	cmovne %r8,%rbp
  40f504:	49 d1 ea             	shr    %r10
  40f507:	49 0b ea             	or     %r10,%rbp
  40f50a:	41 89 f2             	mov    %esi,%r10d
  40f50d:	49 89 eb             	mov    %rbp,%r11
  40f510:	41 81 e2 00 00 80 00 	and    $0x800000,%r10d
  40f517:	49 81 cb 00 08 00 00 	or     $0x800,%r11
  40f51e:	f7 c6 00 00 40 00    	test   $0x400000,%esi
  40f524:	49 0f 45 eb          	cmovne %r11,%rbp
  40f528:	48 c1 ef 0a          	shr    $0xa,%rdi
  40f52c:	48 0b ef             	or     %rdi,%rbp
  40f52f:	89 f7                	mov    %esi,%edi
  40f531:	49 89 e8             	mov    %rbp,%r8
  40f534:	81 e7 00 00 00 40    	and    $0x40000000,%edi
  40f53a:	49 81 c8 00 04 00 00 	or     $0x400,%r8
  40f541:	f7 c6 00 00 10 00    	test   $0x100000,%esi
  40f547:	49 0f 45 e8          	cmovne %r8,%rbp
  40f54b:	49 c1 ea 0b          	shr    $0xb,%r10
  40f54f:	49 0b ea             	or     %r10,%rbp
  40f552:	49 89 eb             	mov    %rbp,%r11
  40f555:	49 81 cb 00 20 00 00 	or     $0x2000,%r11
  40f55c:	f7 c6 02 00 00 00    	test   $0x2,%esi
  40f562:	49 0f 45 eb          	cmovne %r11,%rbp
  40f566:	48 c1 e8 0b          	shr    $0xb,%rax
  40f56a:	48 0b e8             	or     %rax,%rbp
  40f56d:	b8 07 00 00 00       	mov    $0x7,%eax
  40f572:	33 c9                	xor    %ecx,%ecx
  40f574:	0f a2                	cpuid  
  40f576:	41 89 d3             	mov    %edx,%r11d
  40f579:	41 89 d8             	mov    %ebx,%r8d
  40f57c:	48 ba 00 00 00 00 08 	movabs $0x800000000,%rdx
  40f583:	00 00 00 
  40f586:	41 89 ca             	mov    %ecx,%r10d
  40f589:	48 0b d5             	or     %rbp,%rdx
  40f58c:	41 f7 c0 00 00 00 20 	test   $0x20000000,%r8d
  40f593:	48 0f 45 ea          	cmovne %rdx,%rbp
  40f597:	48 c1 ef 0d          	shr    $0xd,%rdi
  40f59b:	48 0b fd             	or     %rbp,%rdi
  40f59e:	44 89 c5             	mov    %r8d,%ebp
  40f5a1:	48 89 f8             	mov    %rdi,%rax
  40f5a4:	81 e5 08 01 00 00    	and    $0x108,%ebp
  40f5aa:	48 0d 00 00 08 00    	or     $0x80000,%rax
  40f5b0:	81 fd 08 01 00 00    	cmp    $0x108,%ebp
  40f5b6:	44 89 c5             	mov    %r8d,%ebp
  40f5b9:	48 0f 44 f8          	cmove  %rax,%rdi
  40f5bd:	81 e5 00 00 04 00    	and    $0x40000,%ebp
  40f5c3:	b8 01 00 00 80       	mov    $0x80000001,%eax
  40f5c8:	0f a2                	cpuid  
  40f5ca:	48 c1 e5 0b          	shl    $0xb,%rbp
  40f5ce:	83 e1 20             	and    $0x20,%ecx
  40f5d1:	44 89 c2             	mov    %r8d,%edx
  40f5d4:	81 e2 00 08 00 00    	and    $0x800,%edx
  40f5da:	48 c1 e1 0f          	shl    $0xf,%rcx
  40f5de:	48 0b f9             	or     %rcx,%rdi
  40f5e1:	48 89 f8             	mov    %rdi,%rax
  40f5e4:	48 0d 00 00 20 00    	or     $0x200000,%rax
  40f5ea:	41 f7 c0 10 00 00 00 	test   $0x10,%r8d
  40f5f1:	48 0f 45 f8          	cmovne %rax,%rdi
  40f5f5:	48 c1 e2 0b          	shl    $0xb,%rdx
  40f5f9:	48 0b fa             	or     %rdx,%rdi
  40f5fc:	48 89 fb             	mov    %rdi,%rbx
  40f5ff:	48 81 cb 00 00 00 10 	or     $0x10000000,%rbx
  40f606:	41 f7 c0 00 00 08 00 	test   $0x80000,%r8d
  40f60d:	48 0f 45 fb          	cmovne %rbx,%rdi
  40f611:	48 0b fd             	or     %rbp,%rdi
  40f614:	f7 c6 00 00 00 08    	test   $0x8000000,%esi
  40f61a:	0f 84 81 01 00 00    	je     40f7a1 <__intel_cpu_features_init_body+0x381>
  40f620:	33 c9                	xor    %ecx,%ecx
  40f622:	0f 01 d0             	xgetbv 
  40f625:	48 83 cf 01          	or     $0x1,%rdi
  40f629:	89 c2                	mov    %eax,%edx
  40f62b:	83 e2 06             	and    $0x6,%edx
  40f62e:	83 fa 06             	cmp    $0x6,%edx
  40f631:	0f 85 6a 01 00 00    	jne    40f7a1 <__intel_cpu_features_init_body+0x381>
  40f637:	48 89 fa             	mov    %rdi,%rdx
  40f63a:	89 f1                	mov    %esi,%ecx
  40f63c:	48 81 ca 00 00 01 00 	or     $0x10000,%rdx
  40f643:	f7 c6 00 00 00 10    	test   $0x10000000,%esi
  40f649:	89 c5                	mov    %eax,%ebp
  40f64b:	48 0f 45 fa          	cmovne %rdx,%rdi
  40f64f:	81 e1 00 00 00 20    	and    $0x20000000,%ecx
  40f655:	81 e6 00 10 00 00    	and    $0x1000,%esi
  40f65b:	83 e5 18             	and    $0x18,%ebp
  40f65e:	48 c1 e9 0e          	shr    $0xe,%rcx
  40f662:	48 0b f9             	or     %rcx,%rdi
  40f665:	48 89 fb             	mov    %rdi,%rbx
  40f668:	48 81 cb 00 00 80 00 	or     $0x800000,%rbx
  40f66f:	41 f7 c0 20 00 00 00 	test   $0x20,%r8d
  40f676:	48 0f 45 fb          	cmovne %rbx,%rdi
  40f67a:	48 c1 e6 06          	shl    $0x6,%rsi
  40f67e:	48 0b fe             	or     %rsi,%rdi
  40f681:	83 fd 18             	cmp    $0x18,%ebp
  40f684:	75 1c                	jne    40f6a2 <__intel_cpu_features_init_body+0x282>
  40f686:	48 83 cf 01          	or     $0x1,%rdi
  40f68a:	48 ba 00 00 00 00 10 	movabs $0x1000000000,%rdx
  40f691:	00 00 00 
  40f694:	48 0b d7             	or     %rdi,%rdx
  40f697:	41 f7 c0 00 40 00 00 	test   $0x4000,%r8d
  40f69e:	48 0f 45 fa          	cmovne %rdx,%rdi
  40f6a2:	25 e0 00 00 00       	and    $0xe0,%eax
  40f6a7:	3d e0 00 00 00       	cmp    $0xe0,%eax
  40f6ac:	0f 85 ef 00 00 00    	jne    40f7a1 <__intel_cpu_features_init_body+0x381>
  40f6b2:	48 83 cf 01          	or     $0x1,%rdi
  40f6b6:	44 89 c2             	mov    %r8d,%edx
  40f6b9:	48 89 f8             	mov    %rdi,%rax
  40f6bc:	81 e2 00 00 00 10    	and    $0x10000000,%edx
  40f6c2:	48 0d 00 00 00 08    	or     $0x8000000,%rax
  40f6c8:	41 f7 c0 00 00 01 00 	test   $0x10000,%r8d
  40f6cf:	44 89 c1             	mov    %r8d,%ecx
  40f6d2:	44 89 c5             	mov    %r8d,%ebp
  40f6d5:	48 0f 45 f8          	cmovne %rax,%rdi
  40f6d9:	81 e1 00 00 00 04    	and    $0x4000000,%ecx
  40f6df:	48 c1 e2 06          	shl    $0x6,%rdx
  40f6e3:	81 e5 00 00 00 40    	and    $0x40000000,%ebp
  40f6e9:	48 0b d7             	or     %rdi,%rdx
  40f6ec:	48 bf 00 00 00 00 01 	movabs $0x100000000,%rdi
  40f6f3:	00 00 00 
  40f6f6:	48 0b fa             	or     %rdx,%rdi
  40f6f9:	41 f7 c0 00 00 00 08 	test   $0x8000000,%r8d
  40f700:	44 89 c6             	mov    %r8d,%esi
  40f703:	48 0f 45 d7          	cmovne %rdi,%rdx
  40f707:	48 bf 00 00 00 00 40 	movabs $0x4000000000,%rdi
  40f70e:	00 00 00 
  40f711:	48 c1 e1 07          	shl    $0x7,%rcx
  40f715:	81 e6 00 00 00 80    	and    $0x80000000,%esi
  40f71b:	48 0b ca             	or     %rdx,%rcx
  40f71e:	48 89 cb             	mov    %rcx,%rbx
  40f721:	48 81 cb 00 00 00 01 	or     $0x1000000,%rbx
  40f728:	41 f7 c0 00 00 02 00 	test   $0x20000,%r8d
  40f72f:	48 0f 45 cb          	cmovne %rbx,%rcx
  40f733:	41 81 e0 00 00 20 00 	and    $0x200000,%r8d
  40f73a:	48 c1 e5 07          	shl    $0x7,%rbp
  40f73e:	48 0b e9             	or     %rcx,%rbp
  40f741:	48 0b fd             	or     %rbp,%rdi
  40f744:	81 fe 00 00 00 80    	cmp    $0x80000000,%esi
  40f74a:	48 0f 44 ef          	cmove  %rdi,%rbp
  40f74e:	48 bf 00 00 00 00 80 	movabs $0x8000000000,%rdi
  40f755:	00 00 00 
  40f758:	49 c1 e0 09          	shl    $0x9,%r8
  40f75c:	49 0b e8             	or     %r8,%rbp
  40f75f:	48 0b fd             	or     %rbp,%rdi
  40f762:	41 f7 c2 02 00 00 00 	test   $0x2,%r10d
  40f769:	48 0f 45 ef          	cmovne %rdi,%rbp
  40f76d:	41 81 e2 00 40 00 00 	and    $0x4000,%r10d
  40f774:	49 c1 e2 1c          	shl    $0x1c,%r10
  40f778:	4c 0b d5             	or     %rbp,%r10
  40f77b:	48 bd 00 00 00 00 00 	movabs $0x20000000000,%rbp
  40f782:	02 00 00 
  40f785:	49 0b ea             	or     %r10,%rbp
  40f788:	41 f7 c3 04 00 00 00 	test   $0x4,%r11d
  40f78f:	4c 0f 45 d5          	cmovne %rbp,%r10
  40f793:	41 83 e3 08          	and    $0x8,%r11d
  40f797:	44 89 df             	mov    %r11d,%edi
  40f79a:	48 c1 e7 25          	shl    $0x25,%rdi
  40f79e:	49 0b fa             	or     %r10,%rdi
  40f7a1:	44 89 f0             	mov    %r14d,%eax
  40f7a4:	c1 e8 0c             	shr    $0xc,%eax
  40f7a7:	41 c1 ee 04          	shr    $0x4,%r14d
  40f7ab:	25 f0 00 00 00       	and    $0xf0,%eax
  40f7b0:	41 83 e6 0f          	and    $0xf,%r14d
  40f7b4:	41 03 c6             	add    %r14d,%eax
  40f7b7:	83 f8 1c             	cmp    $0x1c,%eax
  40f7ba:	74 0a                	je     40f7c6 <__intel_cpu_features_init_body+0x3a6>
  40f7bc:	83 f8 26             	cmp    $0x26,%eax
  40f7bf:	74 05                	je     40f7c6 <__intel_cpu_features_init_body+0x3a6>
  40f7c1:	83 f8 27             	cmp    $0x27,%eax
  40f7c4:	75 05                	jne    40f7cb <__intel_cpu_features_init_body+0x3ab>
  40f7c6:	48 0f ba ef 1f       	bts    $0x1f,%rdi
  40f7cb:	41 83 ff 01          	cmp    $0x1,%r15d
  40f7cf:	74 14                	je     40f7e5 <__intel_cpu_features_init_body+0x3c5>
  40f7d1:	48 89 3d f0 2d 20 00 	mov    %rdi,0x202df0(%rip)        # 6125c8 <__intel_cpu_feature_indicator_x>
  40f7d8:	5d                   	pop    %rbp
  40f7d9:	41 5f                	pop    %r15
  40f7db:	41 5e                	pop    %r14
  40f7dd:	41 58                	pop    %r8
  40f7df:	5f                   	pop    %rdi
  40f7e0:	5e                   	pop    %rsi
  40f7e1:	5b                   	pop    %rbx
  40f7e2:	59                   	pop    %rcx
  40f7e3:	5a                   	pop    %rdx
  40f7e4:	c3                   	retq   
  40f7e5:	48 89 3d d4 2d 20 00 	mov    %rdi,0x202dd4(%rip)        # 6125c0 <__intel_cpu_feature_indicator>
  40f7ec:	48 89 3d d5 2d 20 00 	mov    %rdi,0x202dd5(%rip)        # 6125c8 <__intel_cpu_feature_indicator_x>
  40f7f3:	5d                   	pop    %rbp
  40f7f4:	41 5f                	pop    %r15
  40f7f6:	41 5e                	pop    %r14
  40f7f8:	41 58                	pop    %r8
  40f7fa:	5f                   	pop    %rdi
  40f7fb:	5e                   	pop    %rsi
  40f7fc:	5b                   	pop    %rbx
  40f7fd:	59                   	pop    %rcx
  40f7fe:	5a                   	pop    %rdx
  40f7ff:	c3                   	retq   
  40f800:	48 c7 05 b5 2d 20 00 	movq   $0x1,0x202db5(%rip)        # 6125c0 <__intel_cpu_feature_indicator>
  40f807:	01 00 00 00 
  40f80b:	5d                   	pop    %rbp
  40f80c:	41 5f                	pop    %r15
  40f80e:	41 5e                	pop    %r14
  40f810:	41 58                	pop    %r8
  40f812:	5f                   	pop    %rdi
  40f813:	5e                   	pop    %rsi
  40f814:	5b                   	pop    %rbx
  40f815:	59                   	pop    %rcx
  40f816:	5a                   	pop    %rdx
  40f817:	c3                   	retq   
  40f818:	81 7c 24 f4 47 65 6e 	cmpl   $0x756e6547,-0xc(%rsp)
  40f81f:	75 
  40f820:	75 de                	jne    40f800 <__intel_cpu_features_init_body+0x3e0>
  40f822:	81 7c 24 fc 69 6e 65 	cmpl   $0x49656e69,-0x4(%rsp)
  40f829:	49 
  40f82a:	75 d4                	jne    40f800 <__intel_cpu_features_init_body+0x3e0>
  40f82c:	81 7c 24 f8 6e 74 65 	cmpl   $0x6c65746e,-0x8(%rsp)
  40f833:	6c 
  40f834:	75 ca                	jne    40f800 <__intel_cpu_features_init_body+0x3e0>
  40f836:	e9 1d fc ff ff       	jmpq   40f458 <__intel_cpu_features_init_body+0x38>
  40f83b:	0f 1f 44 00 00       	nopl   0x0(%rax,%rax,1)

000000000040f840 <__intel_proc_init_ftzdazule>:
  40f840:	48 81 ec 08 02 00 00 	sub    $0x208,%rsp
  40f847:	89 f2                	mov    %esi,%edx
  40f849:	89 f1                	mov    %esi,%ecx
  40f84b:	83 e2 04             	and    $0x4,%edx
  40f84e:	83 e1 02             	and    $0x2,%ecx
  40f851:	74 22                	je     40f875 <__intel_proc_init_ftzdazule+0x35>
  40f853:	f7 c7 02 00 00 00    	test   $0x2,%edi
  40f859:	74 38                	je     40f893 <__intel_proc_init_ftzdazule+0x53>
  40f85b:	85 d2                	test   %edx,%edx
  40f85d:	74 08                	je     40f867 <__intel_proc_init_ftzdazule+0x27>
  40f85f:	f7 c7 04 00 00 00    	test   $0x4,%edi
  40f865:	74 2c                	je     40f893 <__intel_proc_init_ftzdazule+0x53>
  40f867:	f7 c6 01 00 00 00    	test   $0x1,%esi
  40f86d:	0f 85 a6 00 00 00    	jne    40f919 <__intel_proc_init_ftzdazule+0xd9>
  40f873:	eb 64                	jmp    40f8d9 <__intel_proc_init_ftzdazule+0x99>
  40f875:	85 d2                	test   %edx,%edx
  40f877:	0f 84 8c 00 00 00    	je     40f909 <__intel_proc_init_ftzdazule+0xc9>
  40f87d:	f7 c7 04 00 00 00    	test   $0x4,%edi
  40f883:	74 0e                	je     40f893 <__intel_proc_init_ftzdazule+0x53>
  40f885:	f7 c6 01 00 00 00    	test   $0x1,%esi
  40f88b:	0f 85 88 00 00 00    	jne    40f919 <__intel_proc_init_ftzdazule+0xd9>
  40f891:	eb 5b                	jmp    40f8ee <__intel_proc_init_ftzdazule+0xae>
  40f893:	b8 00 02 00 00       	mov    $0x200,%eax
  40f898:	66 0f ef c0          	pxor   %xmm0,%xmm0
  40f89c:	0f 11 44 04 f0       	movups %xmm0,-0x10(%rsp,%rax,1)
  40f8a1:	0f 11 44 04 e0       	movups %xmm0,-0x20(%rsp,%rax,1)
  40f8a6:	0f 11 44 04 d0       	movups %xmm0,-0x30(%rsp,%rax,1)
  40f8ab:	0f 11 44 04 c0       	movups %xmm0,-0x40(%rsp,%rax,1)
  40f8b0:	48 83 e8 40          	sub    $0x40,%rax
  40f8b4:	75 e6                	jne    40f89c <__intel_proc_init_ftzdazule+0x5c>
  40f8b6:	0f ae 04 24          	fxsave (%rsp)
  40f8ba:	33 ff                	xor    %edi,%edi
  40f8bc:	8b 44 24 1c          	mov    0x1c(%rsp),%eax
  40f8c0:	a8 40                	test   $0x40,%al
  40f8c2:	0f 44 cf             	cmove  %edi,%ecx
  40f8c5:	a9 00 00 02 00       	test   $0x20000,%eax
  40f8ca:	0f 44 d7             	cmove  %edi,%edx
  40f8cd:	f7 c6 01 00 00 00    	test   $0x1,%esi
  40f8d3:	75 44                	jne    40f919 <__intel_proc_init_ftzdazule+0xd9>
  40f8d5:	85 c9                	test   %ecx,%ecx
  40f8d7:	74 11                	je     40f8ea <__intel_proc_init_ftzdazule+0xaa>
  40f8d9:	0f ae 1c 24          	stmxcsr (%rsp)
  40f8dd:	8b 04 24             	mov    (%rsp),%eax
  40f8e0:	83 c8 40             	or     $0x40,%eax
  40f8e3:	89 04 24             	mov    %eax,(%rsp)
  40f8e6:	0f ae 14 24          	ldmxcsr (%rsp)
  40f8ea:	85 d2                	test   %edx,%edx
  40f8ec:	74 23                	je     40f911 <__intel_proc_init_ftzdazule+0xd1>
  40f8ee:	0f ae 1c 24          	stmxcsr (%rsp)
  40f8f2:	8b 04 24             	mov    (%rsp),%eax
  40f8f5:	0d 00 00 02 00       	or     $0x20000,%eax
  40f8fa:	89 04 24             	mov    %eax,(%rsp)
  40f8fd:	0f ae 14 24          	ldmxcsr (%rsp)
  40f901:	48 81 c4 08 02 00 00 	add    $0x208,%rsp
  40f908:	c3                   	retq   
  40f909:	f7 c6 01 00 00 00    	test   $0x1,%esi
  40f90f:	75 08                	jne    40f919 <__intel_proc_init_ftzdazule+0xd9>
  40f911:	48 81 c4 08 02 00 00 	add    $0x208,%rsp
  40f918:	c3                   	retq   
  40f919:	0f ae 1c 24          	stmxcsr (%rsp)
  40f91d:	8b 04 24             	mov    (%rsp),%eax
  40f920:	0d 00 80 00 00       	or     $0x8000,%eax
  40f925:	89 04 24             	mov    %eax,(%rsp)
  40f928:	0f ae 14 24          	ldmxcsr (%rsp)
  40f92c:	eb a7                	jmp    40f8d5 <__intel_proc_init_ftzdazule+0x95>
  40f92e:	66 90                	xchg   %ax,%ax

000000000040f930 <__libc_csu_init>:
  40f930:	41 57                	push   %r15
  40f932:	41 89 ff             	mov    %edi,%r15d
  40f935:	41 56                	push   %r14
  40f937:	49 89 f6             	mov    %rsi,%r14
  40f93a:	41 55                	push   %r13
  40f93c:	49 89 d5             	mov    %rdx,%r13
  40f93f:	41 54                	push   %r12
  40f941:	4c 8d 25 e0 1e 20 00 	lea    0x201ee0(%rip),%r12        # 611828 <__frame_dummy_init_array_entry>
  40f948:	55                   	push   %rbp
  40f949:	48 8d 2d e0 1e 20 00 	lea    0x201ee0(%rip),%rbp        # 611830 <__init_array_end>
  40f950:	53                   	push   %rbx
  40f951:	4c 29 e5             	sub    %r12,%rbp
  40f954:	31 db                	xor    %ebx,%ebx
  40f956:	48 c1 fd 03          	sar    $0x3,%rbp
  40f95a:	48 83 ec 08          	sub    $0x8,%rsp
  40f95e:	e8 55 0f ff ff       	callq  4008b8 <_init>
  40f963:	48 85 ed             	test   %rbp,%rbp
  40f966:	74 1e                	je     40f986 <__libc_csu_init+0x56>
  40f968:	0f 1f 84 00 00 00 00 	nopl   0x0(%rax,%rax,1)
  40f96f:	00 
  40f970:	4c 89 ea             	mov    %r13,%rdx
  40f973:	4c 89 f6             	mov    %r14,%rsi
  40f976:	44 89 ff             	mov    %r15d,%edi
  40f979:	41 ff 14 dc          	callq  *(%r12,%rbx,8)
  40f97d:	48 83 c3 01          	add    $0x1,%rbx
  40f981:	48 39 eb             	cmp    %rbp,%rbx
  40f984:	75 ea                	jne    40f970 <__libc_csu_init+0x40>
  40f986:	48 83 c4 08          	add    $0x8,%rsp
  40f98a:	5b                   	pop    %rbx
  40f98b:	5d                   	pop    %rbp
  40f98c:	41 5c                	pop    %r12
  40f98e:	41 5d                	pop    %r13
  40f990:	41 5e                	pop    %r14
  40f992:	41 5f                	pop    %r15
  40f994:	c3                   	retq   
  40f995:	90                   	nop
  40f996:	66 2e 0f 1f 84 00 00 	nopw   %cs:0x0(%rax,%rax,1)
  40f99d:	00 00 00 

000000000040f9a0 <__libc_csu_fini>:
  40f9a0:	f3 c3                	repz retq 

Disassembly of section .fini:

000000000040f9a4 <_fini>:
  40f9a4:	48 83 ec 08          	sub    $0x8,%rsp
  40f9a8:	48 83 c4 08          	add    $0x8,%rsp
  40f9ac:	c3                   	retq   
