
bin/bitslice-avx2:     file format elf64-x86-64


Disassembly of section .init:

00000000004008b8 <_init>:
  4008b8:	48 83 ec 08          	sub    $0x8,%rsp
  4008bc:	48 8b 05 1d 27 21 00 	mov    0x21271d(%rip),%rax        # 612fe0 <_DYNAMIC+0x200>
  4008c3:	48 85 c0             	test   %rax,%rax
  4008c6:	74 05                	je     4008cd <_init+0x15>
  4008c8:	e8 43 01 00 00       	callq  400a10 <__vsprintf_chk@plt+0x10>
  4008cd:	48 83 c4 08          	add    $0x8,%rsp
  4008d1:	c3                   	retq   

Disassembly of section .plt:

00000000004008e0 <getenv@plt-0x10>:
  4008e0:	ff 35 22 27 21 00    	pushq  0x212722(%rip)        # 613008 <_GLOBAL_OFFSET_TABLE_+0x8>
  4008e6:	ff 25 24 27 21 00    	jmpq   *0x212724(%rip)        # 613010 <_GLOBAL_OFFSET_TABLE_+0x10>
  4008ec:	0f 1f 40 00          	nopl   0x0(%rax)

00000000004008f0 <getenv@plt>:
  4008f0:	ff 25 22 27 21 00    	jmpq   *0x212722(%rip)        # 613018 <_GLOBAL_OFFSET_TABLE_+0x18>
  4008f6:	68 00 00 00 00       	pushq  $0x0
  4008fb:	e9 e0 ff ff ff       	jmpq   4008e0 <_init+0x28>

0000000000400900 <strncpy@plt>:
  400900:	ff 25 1a 27 21 00    	jmpq   *0x21271a(%rip)        # 613020 <_GLOBAL_OFFSET_TABLE_+0x20>
  400906:	68 01 00 00 00       	pushq  $0x1
  40090b:	e9 d0 ff ff ff       	jmpq   4008e0 <_init+0x28>

0000000000400910 <setenv@plt>:
  400910:	ff 25 12 27 21 00    	jmpq   *0x212712(%rip)        # 613028 <_GLOBAL_OFFSET_TABLE_+0x28>
  400916:	68 02 00 00 00       	pushq  $0x2
  40091b:	e9 c0 ff ff ff       	jmpq   4008e0 <_init+0x28>

0000000000400920 <strlen@plt>:
  400920:	ff 25 0a 27 21 00    	jmpq   *0x21270a(%rip)        # 613030 <_GLOBAL_OFFSET_TABLE_+0x30>
  400926:	68 03 00 00 00       	pushq  $0x3
  40092b:	e9 b0 ff ff ff       	jmpq   4008e0 <_init+0x28>

0000000000400930 <__stack_chk_fail@plt>:
  400930:	ff 25 02 27 21 00    	jmpq   *0x212702(%rip)        # 613038 <_GLOBAL_OFFSET_TABLE_+0x38>
  400936:	68 04 00 00 00       	pushq  $0x4
  40093b:	e9 a0 ff ff ff       	jmpq   4008e0 <_init+0x28>

0000000000400940 <strchr@plt>:
  400940:	ff 25 fa 26 21 00    	jmpq   *0x2126fa(%rip)        # 613040 <_GLOBAL_OFFSET_TABLE_+0x40>
  400946:	68 05 00 00 00       	pushq  $0x5
  40094b:	e9 90 ff ff ff       	jmpq   4008e0 <_init+0x28>

0000000000400950 <printf@plt>:
  400950:	ff 25 f2 26 21 00    	jmpq   *0x2126f2(%rip)        # 613048 <_GLOBAL_OFFSET_TABLE_+0x48>
  400956:	68 06 00 00 00       	pushq  $0x6
  40095b:	e9 80 ff ff ff       	jmpq   4008e0 <_init+0x28>

0000000000400960 <__libc_start_main@plt>:
  400960:	ff 25 ea 26 21 00    	jmpq   *0x2126ea(%rip)        # 613050 <_GLOBAL_OFFSET_TABLE_+0x50>
  400966:	68 07 00 00 00       	pushq  $0x7
  40096b:	e9 70 ff ff ff       	jmpq   4008e0 <_init+0x28>

0000000000400970 <catopen@plt>:
  400970:	ff 25 e2 26 21 00    	jmpq   *0x2126e2(%rip)        # 613058 <_GLOBAL_OFFSET_TABLE_+0x58>
  400976:	68 08 00 00 00       	pushq  $0x8
  40097b:	e9 60 ff ff ff       	jmpq   4008e0 <_init+0x28>

0000000000400980 <__printf_chk@plt>:
  400980:	ff 25 da 26 21 00    	jmpq   *0x2126da(%rip)        # 613060 <_GLOBAL_OFFSET_TABLE_+0x60>
  400986:	68 09 00 00 00       	pushq  $0x9
  40098b:	e9 50 ff ff ff       	jmpq   4008e0 <_init+0x28>

0000000000400990 <fopen@plt>:
  400990:	ff 25 d2 26 21 00    	jmpq   *0x2126d2(%rip)        # 613068 <_GLOBAL_OFFSET_TABLE_+0x68>
  400996:	68 0a 00 00 00       	pushq  $0xa
  40099b:	e9 40 ff ff ff       	jmpq   4008e0 <_init+0x28>

00000000004009a0 <catgets@plt>:
  4009a0:	ff 25 ca 26 21 00    	jmpq   *0x2126ca(%rip)        # 613070 <_GLOBAL_OFFSET_TABLE_+0x70>
  4009a6:	68 0b 00 00 00       	pushq  $0xb
  4009ab:	e9 30 ff ff ff       	jmpq   4008e0 <_init+0x28>

00000000004009b0 <exit@plt>:
  4009b0:	ff 25 c2 26 21 00    	jmpq   *0x2126c2(%rip)        # 613078 <_GLOBAL_OFFSET_TABLE_+0x78>
  4009b6:	68 0c 00 00 00       	pushq  $0xc
  4009bb:	e9 20 ff ff ff       	jmpq   4008e0 <_init+0x28>

00000000004009c0 <fwrite@plt>:
  4009c0:	ff 25 ba 26 21 00    	jmpq   *0x2126ba(%rip)        # 613080 <_GLOBAL_OFFSET_TABLE_+0x80>
  4009c6:	68 0d 00 00 00       	pushq  $0xd
  4009cb:	e9 10 ff ff ff       	jmpq   4008e0 <_init+0x28>

00000000004009d0 <__fprintf_chk@plt>:
  4009d0:	ff 25 b2 26 21 00    	jmpq   *0x2126b2(%rip)        # 613088 <_GLOBAL_OFFSET_TABLE_+0x88>
  4009d6:	68 0e 00 00 00       	pushq  $0xe
  4009db:	e9 00 ff ff ff       	jmpq   4008e0 <_init+0x28>

00000000004009e0 <__strncat_chk@plt>:
  4009e0:	ff 25 aa 26 21 00    	jmpq   *0x2126aa(%rip)        # 613090 <_GLOBAL_OFFSET_TABLE_+0x90>
  4009e6:	68 0f 00 00 00       	pushq  $0xf
  4009eb:	e9 f0 fe ff ff       	jmpq   4008e0 <_init+0x28>

00000000004009f0 <aligned_alloc@plt>:
  4009f0:	ff 25 a2 26 21 00    	jmpq   *0x2126a2(%rip)        # 613098 <_GLOBAL_OFFSET_TABLE_+0x98>
  4009f6:	68 10 00 00 00       	pushq  $0x10
  4009fb:	e9 e0 fe ff ff       	jmpq   4008e0 <_init+0x28>

0000000000400a00 <__vsprintf_chk@plt>:
  400a00:	ff 25 9a 26 21 00    	jmpq   *0x21269a(%rip)        # 6130a0 <_GLOBAL_OFFSET_TABLE_+0xa0>
  400a06:	68 11 00 00 00       	pushq  $0x11
  400a0b:	e9 d0 fe ff ff       	jmpq   4008e0 <_init+0x28>

Disassembly of section .plt.got:

0000000000400a10 <.plt.got>:
  400a10:	ff 25 ca 25 21 00    	jmpq   *0x2125ca(%rip)        # 612fe0 <_DYNAMIC+0x200>
  400a16:	66 90                	xchg   %ax,%ax

Disassembly of section .text:

0000000000400a20 <_start>:
  400a20:	31 ed                	xor    %ebp,%ebp
  400a22:	49 89 d1             	mov    %rdx,%r9
  400a25:	5e                   	pop    %rsi
  400a26:	48 89 e2             	mov    %rsp,%rdx
  400a29:	48 83 e4 f0          	and    $0xfffffffffffffff0,%rsp
  400a2d:	50                   	push   %rax
  400a2e:	54                   	push   %rsp
  400a2f:	49 c7 c0 40 11 41 00 	mov    $0x411140,%r8
  400a36:	48 c7 c1 d0 10 41 00 	mov    $0x4110d0,%rcx
  400a3d:	48 c7 c7 10 0b 40 00 	mov    $0x400b10,%rdi
  400a44:	e8 17 ff ff ff       	callq  400960 <__libc_start_main@plt>
  400a49:	f4                   	hlt    
  400a4a:	66 0f 1f 44 00 00    	nopw   0x0(%rax,%rax,1)

0000000000400a50 <deregister_tm_clones>:
  400a50:	b8 6f 31 61 00       	mov    $0x61316f,%eax
  400a55:	55                   	push   %rbp
  400a56:	48 2d 68 31 61 00    	sub    $0x613168,%rax
  400a5c:	48 83 f8 0e          	cmp    $0xe,%rax
  400a60:	48 89 e5             	mov    %rsp,%rbp
  400a63:	77 02                	ja     400a67 <deregister_tm_clones+0x17>
  400a65:	5d                   	pop    %rbp
  400a66:	c3                   	retq   
  400a67:	b8 00 00 00 00       	mov    $0x0,%eax
  400a6c:	48 85 c0             	test   %rax,%rax
  400a6f:	74 f4                	je     400a65 <deregister_tm_clones+0x15>
  400a71:	5d                   	pop    %rbp
  400a72:	bf 68 31 61 00       	mov    $0x613168,%edi
  400a77:	ff e0                	jmpq   *%rax
  400a79:	0f 1f 80 00 00 00 00 	nopl   0x0(%rax)

0000000000400a80 <register_tm_clones>:
  400a80:	b8 68 31 61 00       	mov    $0x613168,%eax
  400a85:	55                   	push   %rbp
  400a86:	48 2d 68 31 61 00    	sub    $0x613168,%rax
  400a8c:	48 c1 f8 03          	sar    $0x3,%rax
  400a90:	48 89 e5             	mov    %rsp,%rbp
  400a93:	48 89 c2             	mov    %rax,%rdx
  400a96:	48 c1 ea 3f          	shr    $0x3f,%rdx
  400a9a:	48 01 d0             	add    %rdx,%rax
  400a9d:	48 d1 f8             	sar    %rax
  400aa0:	75 02                	jne    400aa4 <register_tm_clones+0x24>
  400aa2:	5d                   	pop    %rbp
  400aa3:	c3                   	retq   
  400aa4:	ba 00 00 00 00       	mov    $0x0,%edx
  400aa9:	48 85 d2             	test   %rdx,%rdx
  400aac:	74 f4                	je     400aa2 <register_tm_clones+0x22>
  400aae:	5d                   	pop    %rbp
  400aaf:	48 89 c6             	mov    %rax,%rsi
  400ab2:	bf 68 31 61 00       	mov    $0x613168,%edi
  400ab7:	ff e2                	jmpq   *%rdx
  400ab9:	0f 1f 80 00 00 00 00 	nopl   0x0(%rax)

0000000000400ac0 <__do_global_dtors_aux>:
  400ac0:	80 3d b9 26 21 00 00 	cmpb   $0x0,0x2126b9(%rip)        # 613180 <completed.6355>
  400ac7:	75 11                	jne    400ada <__do_global_dtors_aux+0x1a>
  400ac9:	55                   	push   %rbp
  400aca:	48 89 e5             	mov    %rsp,%rbp
  400acd:	e8 7e ff ff ff       	callq  400a50 <deregister_tm_clones>
  400ad2:	5d                   	pop    %rbp
  400ad3:	c6 05 a6 26 21 00 01 	movb   $0x1,0x2126a6(%rip)        # 613180 <completed.6355>
  400ada:	f3 c3                	repz retq 
  400adc:	0f 1f 40 00          	nopl   0x0(%rax)

0000000000400ae0 <frame_dummy>:
  400ae0:	48 83 3d 50 1d 21 00 	cmpq   $0x0,0x211d50(%rip)        # 612838 <__JCR_END__>
  400ae7:	00 
  400ae8:	74 1e                	je     400b08 <frame_dummy+0x28>
  400aea:	b8 00 00 00 00       	mov    $0x0,%eax
  400aef:	48 85 c0             	test   %rax,%rax
  400af2:	74 14                	je     400b08 <frame_dummy+0x28>
  400af4:	55                   	push   %rbp
  400af5:	bf 38 28 61 00       	mov    $0x612838,%edi
  400afa:	48 89 e5             	mov    %rsp,%rbp
  400afd:	ff d0                	callq  *%rax
  400aff:	5d                   	pop    %rbp
  400b00:	e9 7b ff ff ff       	jmpq   400a80 <register_tm_clones>
  400b05:	0f 1f 00             	nopl   (%rax)
  400b08:	e9 73 ff ff ff       	jmpq   400a80 <register_tm_clones>
  400b0d:	0f 1f 00             	nopl   (%rax)

0000000000400b10 <main>:
  400b10:	55                   	push   %rbp
  400b11:	48 89 e5             	mov    %rsp,%rbp
  400b14:	48 83 e4 80          	and    $0xffffffffffffff80,%rsp
  400b18:	41 56                	push   %r14
  400b1a:	41 57                	push   %r15
  400b1c:	53                   	push   %rbx
  400b1d:	48 83 ec 68          	sub    $0x68,%rsp
  400b21:	be fe 9f 9d 00       	mov    $0x9d9ffe,%esi
  400b26:	bf 03 00 00 00       	mov    $0x3,%edi
  400b2b:	e8 80 f7 00 00       	callq  4102b0 <__intel_new_feature_proc_init>
  400b30:	c5 f8 ae 1c 24       	vstmxcsr (%rsp)
  400b35:	81 0c 24 40 80 00 00 	orl    $0x8040,(%rsp)
  400b3c:	c5 f8 ae 14 24       	vldmxcsr (%rsp)
  400b41:	c5 f8 10 05 27 06 01 	vmovups 0x10627(%rip),%xmm0        # 411170 <key.425.0.0.1>
  400b48:	00 
  400b49:	c5 f8 11 44 24 10    	vmovups %xmm0,0x10(%rsp)
  400b4f:	bf 40 00 00 00       	mov    $0x40,%edi
  400b54:	be 00 80 00 00       	mov    $0x8000,%esi
  400b59:	e8 92 fe ff ff       	callq  4009f0 <aligned_alloc@plt>
  400b5e:	48 89 c3             	mov    %rax,%rbx
  400b61:	33 c0                	xor    %eax,%eax
  400b63:	41 89 c7             	mov    %eax,%r15d
  400b66:	48 89 df             	mov    %rbx,%rdi
  400b69:	48 89 de             	mov    %rbx,%rsi
  400b6c:	ba 00 80 00 00       	mov    $0x8000,%edx
  400b71:	48 8d 4c 24 10       	lea    0x10(%rsp),%rcx
  400b76:	e8 35 10 00 00       	callq  401bb0 <crypto_stream_ecb>
  400b7b:	41 ff c7             	inc    %r15d
  400b7e:	41 81 ff 88 13 00 00 	cmp    $0x1388,%r15d
  400b85:	7c df                	jl     400b66 <main+0x56>
  400b87:	0f 31                	rdtsc  
  400b89:	48 c1 e2 20          	shl    $0x20,%rdx
  400b8d:	48 0b c2             	or     %rdx,%rax
  400b90:	48 89 c1             	mov    %rax,%rcx
  400b93:	33 c0                	xor    %eax,%eax
  400b95:	49 89 df             	mov    %rbx,%r15
  400b98:	89 c3                	mov    %eax,%ebx
  400b9a:	49 89 ce             	mov    %rcx,%r14
  400b9d:	4c 89 ff             	mov    %r15,%rdi
  400ba0:	4c 89 fe             	mov    %r15,%rsi
  400ba3:	ba 00 80 00 00       	mov    $0x8000,%edx
  400ba8:	48 8d 4c 24 10       	lea    0x10(%rsp),%rcx
  400bad:	e8 fe 0f 00 00       	callq  401bb0 <crypto_stream_ecb>
  400bb2:	ff c3                	inc    %ebx
  400bb4:	81 fb a8 61 00 00    	cmp    $0x61a8,%ebx
  400bba:	7c e1                	jl     400b9d <main+0x8d>
  400bbc:	4c 89 f1             	mov    %r14,%rcx
  400bbf:	4c 89 fb             	mov    %r15,%rbx
  400bc2:	0f 31                	rdtsc  
  400bc4:	48 c1 e2 20          	shl    $0x20,%rdx
  400bc8:	48 0b c2             	or     %rdx,%rax
  400bcb:	c5 f9 57 c0          	vxorpd %xmm0,%xmm0,%xmm0
  400bcf:	48 2b c1             	sub    %rcx,%rax
  400bd2:	c4 e1 fb 2a c0       	vcvtsi2sd %rax,%xmm0,%xmm0
  400bd7:	79 1a                	jns    400bf3 <main+0xe3>
  400bd9:	48 89 c2             	mov    %rax,%rdx
  400bdc:	c5 f9 57 c0          	vxorpd %xmm0,%xmm0,%xmm0
  400be0:	48 d1 e8             	shr    %rax
  400be3:	48 83 e2 01          	and    $0x1,%rdx
  400be7:	48 0b d0             	or     %rax,%rdx
  400bea:	c4 e1 fb 2a c2       	vcvtsi2sd %rdx,%xmm0,%xmm0
  400bef:	c5 fb 58 c0          	vaddsd %xmm0,%xmm0,%xmm0
  400bf3:	c5 fb 5e 05 8d 05 01 	vdivsd 0x1058d(%rip),%xmm0,%xmm0        # 411188 <key.425.0.0.1+0x18>
  400bfa:	00 
  400bfb:	c5 fb 59 05 7d 05 01 	vmulsd 0x1057d(%rip),%xmm0,%xmm0        # 411180 <key.425.0.0.1+0x10>
  400c02:	00 
  400c03:	bf 90 11 41 00       	mov    $0x411190,%edi
  400c08:	b8 01 00 00 00       	mov    $0x1,%eax
  400c0d:	e8 3e fd ff ff       	callq  400950 <printf@plt>
  400c12:	bf a4 11 41 00       	mov    $0x4111a4,%edi
  400c17:	be b0 11 41 00       	mov    $0x4111b0,%esi
  400c1c:	e8 6f fd ff ff       	callq  400990 <fopen@plt>
  400c21:	48 89 df             	mov    %rbx,%rdi
  400c24:	be 00 80 00 00       	mov    $0x8000,%esi
  400c29:	ba 01 00 00 00       	mov    $0x1,%edx
  400c2e:	48 89 c1             	mov    %rax,%rcx
  400c31:	e8 8a fd ff ff       	callq  4009c0 <fwrite@plt>
  400c36:	33 c0                	xor    %eax,%eax
  400c38:	48 83 c4 68          	add    $0x68,%rsp
  400c3c:	5b                   	pop    %rbx
  400c3d:	41 5f                	pop    %r15
  400c3f:	41 5e                	pop    %r14
  400c41:	48 89 ec             	mov    %rbp,%rsp
  400c44:	5d                   	pop    %rbp
  400c45:	c3                   	retq   
  400c46:	0f 1f 00             	nopl   (%rax)
  400c49:	0f 1f 80 00 00 00 00 	nopl   0x0(%rax)

0000000000400c50 <Key_Schedule>:
  400c50:	e9 0b 00 00 00       	jmpq   400c60 <key80>
  400c55:	0f 1f 40 00          	nopl   0x0(%rax)
  400c59:	0f 1f 80 00 00 00 00 	nopl   0x0(%rax)

0000000000400c60 <key80>:
  400c60:	41 55                	push   %r13
  400c62:	41 56                	push   %r14
  400c64:	48 89 f8             	mov    %rdi,%rax
  400c67:	49 89 f0             	mov    %rsi,%r8
  400c6a:	0f b7 50 02          	movzwl 0x2(%rax),%edx
  400c6e:	41 89 d5             	mov    %edx,%r13d
  400c71:	41 f7 d5             	not    %r13d
  400c74:	41 89 d2             	mov    %edx,%r10d
  400c77:	0f b7 48 04          	movzwl 0x4(%rax),%ecx
  400c7b:	41 89 ce             	mov    %ecx,%r14d
  400c7e:	0f b7 70 06          	movzwl 0x6(%rax),%esi
  400c82:	44 0b ee             	or     %esi,%r13d
  400c85:	0f b7 38             	movzwl (%rax),%edi
  400c88:	44 33 f6             	xor    %esi,%r14d
  400c8b:	c4 62 68 f2 df       	andn   %edi,%edx,%r11d
  400c90:	44 33 ef             	xor    %edi,%r13d
  400c93:	45 33 de             	xor    %r14d,%r11d
  400c96:	45 23 f5             	and    %r13d,%r14d
  400c99:	44 33 d1             	xor    %ecx,%r10d
  400c9c:	41 89 c9             	mov    %ecx,%r9d
  400c9f:	45 33 f2             	xor    %r10d,%r14d
  400ca2:	45 33 cd             	xor    %r13d,%r9d
  400ca5:	0f b7 40 08          	movzwl 0x8(%rax),%eax
  400ca9:	45 0b d3             	or     %r11d,%r10d
  400cac:	66 41 89 38          	mov    %di,(%r8)
  400cb0:	81 e7 f0 ff 00 00    	and    $0xfff0,%edi
  400cb6:	66 41 89 70 06       	mov    %si,0x6(%r8)
  400cbb:	81 e6 f0 ff 00 00    	and    $0xfff0,%esi
  400cc1:	41 83 e3 0f          	and    $0xf,%r11d
  400cc5:	41 83 e6 0f          	and    $0xf,%r14d
  400cc9:	66 41 89 50 02       	mov    %dx,0x2(%r8)
  400cce:	41 83 e1 0f          	and    $0xf,%r9d
  400cd2:	45 33 ea             	xor    %r10d,%r13d
  400cd5:	41 0b fb             	or     %r11d,%edi
  400cd8:	41 0b f6             	or     %r14d,%esi
  400cdb:	81 e2 f0 ff 00 00    	and    $0xfff0,%edx
  400ce1:	66 41 89 48 04       	mov    %cx,0x4(%r8)
  400ce6:	83 e1 f0             	and    $0xfffffff0,%ecx
  400ce9:	41 83 e5 0f          	and    $0xf,%r13d
  400ced:	41 89 f2             	mov    %esi,%r10d
  400cf0:	41 0b d1             	or     %r9d,%edx
  400cf3:	41 89 f9             	mov    %edi,%r9d
  400cf6:	66 41 c1 c2 0c       	rol    $0xc,%r10w
  400cfb:	41 0b cd             	or     %r13d,%ecx
  400cfe:	66 41 c1 c1 08       	rol    $0x8,%r9w
  400d03:	41 89 ce             	mov    %ecx,%r14d
  400d06:	45 0f b7 da          	movzwl %r10w,%r11d
  400d0a:	41 f7 d6             	not    %r14d
  400d0d:	45 0f b7 c9          	movzwl %r9w,%r9d
  400d11:	41 33 c3             	xor    %r11d,%eax
  400d14:	41 33 d1             	xor    %r9d,%edx
  400d17:	41 89 f1             	mov    %esi,%r9d
  400d1a:	33 15 c0 23 21 00    	xor    0x2123c0(%rip),%edx        # 6130e0 <RC>
  400d20:	44 0b f0             	or     %eax,%r14d
  400d23:	c4 62 70 f2 da       	andn   %edx,%ecx,%r11d
  400d28:	44 33 c8             	xor    %eax,%r9d
  400d2b:	44 33 f2             	xor    %edx,%r14d
  400d2e:	41 89 ca             	mov    %ecx,%r10d
  400d31:	45 33 d9             	xor    %r9d,%r11d
  400d34:	45 23 ce             	and    %r14d,%r9d
  400d37:	41 89 f5             	mov    %esi,%r13d
  400d3a:	44 33 d6             	xor    %esi,%r10d
  400d3d:	66 41 89 50 08       	mov    %dx,0x8(%r8)
  400d42:	83 e2 f0             	and    $0xfffffff0,%edx
  400d45:	45 33 ee             	xor    %r14d,%r13d
  400d48:	45 33 ca             	xor    %r10d,%r9d
  400d4b:	45 0b d3             	or     %r11d,%r10d
  400d4e:	41 83 e3 0f          	and    $0xf,%r11d
  400d52:	66 41 89 48 0a       	mov    %cx,0xa(%r8)
  400d57:	41 83 e5 0f          	and    $0xf,%r13d
  400d5b:	66 41 89 40 0e       	mov    %ax,0xe(%r8)
  400d60:	25 f0 ff 00 00       	and    $0xfff0,%eax
  400d65:	41 0b d3             	or     %r11d,%edx
  400d68:	41 83 e1 0f          	and    $0xf,%r9d
  400d6c:	81 e1 f0 ff 00 00    	and    $0xfff0,%ecx
  400d72:	45 33 f2             	xor    %r10d,%r14d
  400d75:	41 0b c1             	or     %r9d,%eax
  400d78:	41 0b cd             	or     %r13d,%ecx
  400d7b:	41 89 d5             	mov    %edx,%r13d
  400d7e:	41 83 e6 0f          	and    $0xf,%r14d
  400d82:	66 41 89 70 0c       	mov    %si,0xc(%r8)
  400d87:	83 e6 f0             	and    $0xfffffff0,%esi
  400d8a:	66 41 c1 c5 08       	rol    $0x8,%r13w
  400d8f:	41 89 c2             	mov    %eax,%r10d
  400d92:	66 41 c1 c2 0c       	rol    $0xc,%r10w
  400d97:	41 0b f6             	or     %r14d,%esi
  400d9a:	45 0f b7 cd          	movzwl %r13w,%r9d
  400d9e:	45 0f b7 da          	movzwl %r10w,%r11d
  400da2:	41 33 c9             	xor    %r9d,%ecx
  400da5:	41 89 f1             	mov    %esi,%r9d
  400da8:	41 33 fb             	xor    %r11d,%edi
  400dab:	41 f7 d1             	not    %r9d
  400dae:	41 89 fd             	mov    %edi,%r13d
  400db1:	33 0d 2d 23 21 00    	xor    0x21232d(%rip),%ecx        # 6130e4 <RC+0x4>
  400db7:	44 0b cf             	or     %edi,%r9d
  400dba:	c4 62 48 f2 f1       	andn   %ecx,%esi,%r14d
  400dbf:	44 33 e8             	xor    %eax,%r13d
  400dc2:	44 33 c9             	xor    %ecx,%r9d
  400dc5:	41 89 f2             	mov    %esi,%r10d
  400dc8:	45 33 f5             	xor    %r13d,%r14d
  400dcb:	45 23 e9             	and    %r9d,%r13d
  400dce:	44 33 d0             	xor    %eax,%r10d
  400dd1:	41 89 c3             	mov    %eax,%r11d
  400dd4:	45 33 ea             	xor    %r10d,%r13d
  400dd7:	45 33 d9             	xor    %r9d,%r11d
  400dda:	66 41 89 78 16       	mov    %di,0x16(%r8)
  400ddf:	83 e7 f0             	and    $0xfffffff0,%edi
  400de2:	41 83 e5 0f          	and    $0xf,%r13d
  400de6:	45 0b d6             	or     %r14d,%r10d
  400de9:	66 41 89 48 10       	mov    %cx,0x10(%r8)
  400dee:	83 e1 f0             	and    $0xfffffff0,%ecx
  400df1:	41 83 e6 0f          	and    $0xf,%r14d
  400df5:	41 0b fd             	or     %r13d,%edi
  400df8:	66 41 89 70 12       	mov    %si,0x12(%r8)
  400dfd:	41 83 e3 0f          	and    $0xf,%r11d
  400e01:	45 33 ca             	xor    %r10d,%r9d
  400e04:	41 0b ce             	or     %r14d,%ecx
  400e07:	41 89 fa             	mov    %edi,%r10d
  400e0a:	83 e6 f0             	and    $0xfffffff0,%esi
  400e0d:	66 41 89 40 14       	mov    %ax,0x14(%r8)
  400e12:	83 e0 f0             	and    $0xfffffff0,%eax
  400e15:	66 41 c1 c2 0c       	rol    $0xc,%r10w
  400e1a:	41 83 e1 0f          	and    $0xf,%r9d
  400e1e:	41 0b f3             	or     %r11d,%esi
  400e21:	41 89 cb             	mov    %ecx,%r11d
  400e24:	66 41 c1 c3 08       	rol    $0x8,%r11w
  400e29:	41 0b c1             	or     %r9d,%eax
  400e2c:	45 0f b7 ca          	movzwl %r10w,%r9d
  400e30:	41 89 fd             	mov    %edi,%r13d
  400e33:	41 33 d1             	xor    %r9d,%edx
  400e36:	44 33 e8             	xor    %eax,%r13d
  400e39:	45 0f b7 cb          	movzwl %r11w,%r9d
  400e3d:	41 89 fb             	mov    %edi,%r11d
  400e40:	41 33 f1             	xor    %r9d,%esi
  400e43:	41 89 c1             	mov    %eax,%r9d
  400e46:	41 f7 d1             	not    %r9d
  400e49:	44 33 da             	xor    %edx,%r11d
  400e4c:	33 35 96 22 21 00    	xor    0x212296(%rip),%esi        # 6130e8 <RC+0x8>
  400e52:	44 0b ca             	or     %edx,%r9d
  400e55:	c4 62 78 f2 f6       	andn   %esi,%eax,%r14d
  400e5a:	44 33 ce             	xor    %esi,%r9d
  400e5d:	45 33 f3             	xor    %r11d,%r14d
  400e60:	45 23 d9             	and    %r9d,%r11d
  400e63:	45 33 dd             	xor    %r13d,%r11d
  400e66:	41 89 fa             	mov    %edi,%r10d
  400e69:	66 41 89 50 1e       	mov    %dx,0x1e(%r8)
  400e6e:	81 e2 f0 ff 00 00    	and    $0xfff0,%edx
  400e74:	41 83 e3 0f          	and    $0xf,%r11d
  400e78:	45 33 d1             	xor    %r9d,%r10d
  400e7b:	66 41 89 70 18       	mov    %si,0x18(%r8)
  400e80:	81 e6 f0 ff 00 00    	and    $0xfff0,%esi
  400e86:	45 0b ee             	or     %r14d,%r13d
  400e89:	41 83 e6 0f          	and    $0xf,%r14d
  400e8d:	41 0b d3             	or     %r11d,%edx
  400e90:	41 83 e2 0f          	and    $0xf,%r10d
  400e94:	66 41 89 40 1a       	mov    %ax,0x1a(%r8)
  400e99:	45 33 cd             	xor    %r13d,%r9d
  400e9c:	41 0b f6             	or     %r14d,%esi
  400e9f:	41 89 d5             	mov    %edx,%r13d
  400ea2:	83 e0 f0             	and    $0xfffffff0,%eax
  400ea5:	41 83 e1 0f          	and    $0xf,%r9d
  400ea9:	66 41 89 78 1c       	mov    %di,0x1c(%r8)
  400eae:	83 e7 f0             	and    $0xfffffff0,%edi
  400eb1:	66 41 c1 c5 0c       	rol    $0xc,%r13w
  400eb6:	41 0b c2             	or     %r10d,%eax
  400eb9:	41 89 f2             	mov    %esi,%r10d
  400ebc:	41 0b f9             	or     %r9d,%edi
  400ebf:	45 0f b7 cd          	movzwl %r13w,%r9d
  400ec3:	41 89 fe             	mov    %edi,%r14d
  400ec6:	66 41 c1 c2 08       	rol    $0x8,%r10w
  400ecb:	41 33 c9             	xor    %r9d,%ecx
  400ece:	45 0f b7 ca          	movzwl %r10w,%r9d
  400ed2:	41 f7 d6             	not    %r14d
  400ed5:	41 33 c1             	xor    %r9d,%eax
  400ed8:	41 89 d2             	mov    %edx,%r10d
  400edb:	33 05 0b 22 21 00    	xor    0x21220b(%rip),%eax        # 6130ec <RC+0xc>
  400ee1:	44 0b f1             	or     %ecx,%r14d
  400ee4:	c4 62 40 f2 e8       	andn   %eax,%edi,%r13d
  400ee9:	44 33 d1             	xor    %ecx,%r10d
  400eec:	44 33 f0             	xor    %eax,%r14d
  400eef:	41 89 fb             	mov    %edi,%r11d
  400ef2:	45 33 ea             	xor    %r10d,%r13d
  400ef5:	45 23 d6             	and    %r14d,%r10d
  400ef8:	44 33 da             	xor    %edx,%r11d
  400efb:	41 89 d1             	mov    %edx,%r9d
  400efe:	45 33 d3             	xor    %r11d,%r10d
  400f01:	45 33 ce             	xor    %r14d,%r9d
  400f04:	66 41 89 40 20       	mov    %ax,0x20(%r8)
  400f09:	25 f0 ff 00 00       	and    $0xfff0,%eax
  400f0e:	66 41 89 48 26       	mov    %cx,0x26(%r8)
  400f13:	81 e1 f0 ff 00 00    	and    $0xfff0,%ecx
  400f19:	45 0b dd             	or     %r13d,%r11d
  400f1c:	41 83 e5 0f          	and    $0xf,%r13d
  400f20:	41 83 e2 0f          	and    $0xf,%r10d
  400f24:	41 83 e1 0f          	and    $0xf,%r9d
  400f28:	66 41 89 78 22       	mov    %di,0x22(%r8)
  400f2d:	45 33 f3             	xor    %r11d,%r14d
  400f30:	41 0b c5             	or     %r13d,%eax
  400f33:	41 0b ca             	or     %r10d,%ecx
  400f36:	81 e7 f0 ff 00 00    	and    $0xfff0,%edi
  400f3c:	41 83 e6 0f          	and    $0xf,%r14d
  400f40:	66 41 89 50 24       	mov    %dx,0x24(%r8)
  400f45:	83 e2 f0             	and    $0xfffffff0,%edx
  400f48:	41 89 cb             	mov    %ecx,%r11d
  400f4b:	41 0b f9             	or     %r9d,%edi
  400f4e:	41 89 c1             	mov    %eax,%r9d
  400f51:	41 0b d6             	or     %r14d,%edx
  400f54:	66 41 c1 c3 0c       	rol    $0xc,%r11w
  400f59:	41 89 ce             	mov    %ecx,%r14d
  400f5c:	66 41 c1 c1 08       	rol    $0x8,%r9w
  400f61:	45 0f b7 d3          	movzwl %r11w,%r10d
  400f65:	45 0f b7 e9          	movzwl %r9w,%r13d
  400f69:	41 89 d1             	mov    %edx,%r9d
  400f6c:	41 33 f2             	xor    %r10d,%esi
  400f6f:	41 33 fd             	xor    %r13d,%edi
  400f72:	41 f7 d1             	not    %r9d
  400f75:	41 89 cd             	mov    %ecx,%r13d
  400f78:	33 3d 72 21 21 00    	xor    0x212172(%rip),%edi        # 6130f0 <RC+0x10>
  400f7e:	44 0b ce             	or     %esi,%r9d
  400f81:	c4 62 68 f2 df       	andn   %edi,%edx,%r11d
  400f86:	44 33 ee             	xor    %esi,%r13d
  400f89:	44 33 cf             	xor    %edi,%r9d
  400f8c:	41 89 d2             	mov    %edx,%r10d
  400f8f:	45 33 dd             	xor    %r13d,%r11d
  400f92:	45 23 e9             	and    %r9d,%r13d
  400f95:	44 33 d1             	xor    %ecx,%r10d
  400f98:	45 33 f1             	xor    %r9d,%r14d
  400f9b:	45 33 ea             	xor    %r10d,%r13d
  400f9e:	45 0b d3             	or     %r11d,%r10d
  400fa1:	66 41 89 70 2e       	mov    %si,0x2e(%r8)
  400fa6:	83 e6 f0             	and    $0xfffffff0,%esi
  400fa9:	41 83 e5 0f          	and    $0xf,%r13d
  400fad:	41 83 e3 0f          	and    $0xf,%r11d
  400fb1:	66 41 89 78 28       	mov    %di,0x28(%r8)
  400fb6:	83 e7 f0             	and    $0xfffffff0,%edi
  400fb9:	41 0b f5             	or     %r13d,%esi
  400fbc:	41 83 e6 0f          	and    $0xf,%r14d
  400fc0:	66 41 89 50 2a       	mov    %dx,0x2a(%r8)
  400fc5:	45 33 ca             	xor    %r10d,%r9d
  400fc8:	41 0b fb             	or     %r11d,%edi
  400fcb:	41 89 f2             	mov    %esi,%r10d
  400fce:	83 e2 f0             	and    $0xfffffff0,%edx
  400fd1:	41 83 e1 0f          	and    $0xf,%r9d
  400fd5:	66 41 89 48 2c       	mov    %cx,0x2c(%r8)
  400fda:	83 e1 f0             	and    $0xfffffff0,%ecx
  400fdd:	66 41 c1 c2 0c       	rol    $0xc,%r10w
  400fe2:	41 0b d6             	or     %r14d,%edx
  400fe5:	41 89 fe             	mov    %edi,%r14d
  400fe8:	41 0b c9             	or     %r9d,%ecx
  400feb:	45 0f b7 ca          	movzwl %r10w,%r9d
  400fef:	41 89 ca             	mov    %ecx,%r10d
  400ff2:	66 41 c1 c6 08       	rol    $0x8,%r14w
  400ff7:	41 33 c1             	xor    %r9d,%eax
  400ffa:	45 0f b7 ce          	movzwl %r14w,%r9d
  400ffe:	41 89 f6             	mov    %esi,%r14d
  401001:	41 33 d1             	xor    %r9d,%edx
  401004:	41 89 c9             	mov    %ecx,%r9d
  401007:	41 f7 d1             	not    %r9d
  40100a:	44 33 f0             	xor    %eax,%r14d
  40100d:	33 15 e1 20 21 00    	xor    0x2120e1(%rip),%edx        # 6130f4 <RC+0x14>
  401013:	44 0b c8             	or     %eax,%r9d
  401016:	c4 62 70 f2 da       	andn   %edx,%ecx,%r11d
  40101b:	44 33 ca             	xor    %edx,%r9d
  40101e:	45 33 de             	xor    %r14d,%r11d
  401021:	45 23 f1             	and    %r9d,%r14d
  401024:	44 33 d6             	xor    %esi,%r10d
  401027:	41 89 f5             	mov    %esi,%r13d
  40102a:	45 33 f2             	xor    %r10d,%r14d
  40102d:	45 33 e9             	xor    %r9d,%r13d
  401030:	66 41 89 40 36       	mov    %ax,0x36(%r8)
  401035:	83 e0 f0             	and    $0xfffffff0,%eax
  401038:	41 83 e6 0f          	and    $0xf,%r14d
  40103c:	45 0b d3             	or     %r11d,%r10d
  40103f:	66 41 89 50 30       	mov    %dx,0x30(%r8)
  401044:	81 e2 f0 ff 00 00    	and    $0xfff0,%edx
  40104a:	41 83 e3 0f          	and    $0xf,%r11d
  40104e:	41 0b c6             	or     %r14d,%eax
  401051:	66 41 89 48 32       	mov    %cx,0x32(%r8)
  401056:	41 83 e5 0f          	and    $0xf,%r13d
  40105a:	45 33 ca             	xor    %r10d,%r9d
  40105d:	41 0b d3             	or     %r11d,%edx
  401060:	41 89 c2             	mov    %eax,%r10d
  401063:	83 e1 f0             	and    $0xfffffff0,%ecx
  401066:	66 41 89 70 34       	mov    %si,0x34(%r8)
  40106b:	83 e6 f0             	and    $0xfffffff0,%esi
  40106e:	66 41 c1 c2 0c       	rol    $0xc,%r10w
  401073:	41 83 e1 0f          	and    $0xf,%r9d
  401077:	41 0b cd             	or     %r13d,%ecx
  40107a:	41 89 d5             	mov    %edx,%r13d
  40107d:	66 41 c1 c5 08       	rol    $0x8,%r13w
  401082:	41 0b f1             	or     %r9d,%esi
  401085:	45 0f b7 ca          	movzwl %r10w,%r9d
  401089:	41 89 f2             	mov    %esi,%r10d
  40108c:	41 33 f9             	xor    %r9d,%edi
  40108f:	44 33 d0             	xor    %eax,%r10d
  401092:	45 0f b7 cd          	movzwl %r13w,%r9d
  401096:	41 89 c5             	mov    %eax,%r13d
  401099:	41 33 c9             	xor    %r9d,%ecx
  40109c:	41 89 f1             	mov    %esi,%r9d
  40109f:	41 f7 d1             	not    %r9d
  4010a2:	44 33 ef             	xor    %edi,%r13d
  4010a5:	33 0d 4d 20 21 00    	xor    0x21204d(%rip),%ecx        # 6130f8 <RC+0x18>
  4010ab:	44 0b cf             	or     %edi,%r9d
  4010ae:	c4 62 48 f2 f1       	andn   %ecx,%esi,%r14d
  4010b3:	44 33 c9             	xor    %ecx,%r9d
  4010b6:	45 33 f5             	xor    %r13d,%r14d
  4010b9:	45 23 e9             	and    %r9d,%r13d
  4010bc:	45 33 ea             	xor    %r10d,%r13d
  4010bf:	41 89 c3             	mov    %eax,%r11d
  4010c2:	66 41 89 78 3e       	mov    %di,0x3e(%r8)
  4010c7:	81 e7 f0 ff 00 00    	and    $0xfff0,%edi
  4010cd:	41 83 e5 0f          	and    $0xf,%r13d
  4010d1:	45 33 d9             	xor    %r9d,%r11d
  4010d4:	66 41 89 48 38       	mov    %cx,0x38(%r8)
  4010d9:	81 e1 f0 ff 00 00    	and    $0xfff0,%ecx
  4010df:	45 0b d6             	or     %r14d,%r10d
  4010e2:	41 83 e6 0f          	and    $0xf,%r14d
  4010e6:	41 0b fd             	or     %r13d,%edi
  4010e9:	41 83 e3 0f          	and    $0xf,%r11d
  4010ed:	66 41 89 70 3a       	mov    %si,0x3a(%r8)
  4010f2:	45 33 ca             	xor    %r10d,%r9d
  4010f5:	41 0b ce             	or     %r14d,%ecx
  4010f8:	41 89 fa             	mov    %edi,%r10d
  4010fb:	81 e6 f0 ff 00 00    	and    $0xfff0,%esi
  401101:	41 83 e1 0f          	and    $0xf,%r9d
  401105:	66 41 89 40 3c       	mov    %ax,0x3c(%r8)
  40110a:	83 e0 f0             	and    $0xfffffff0,%eax
  40110d:	66 41 c1 c2 0c       	rol    $0xc,%r10w
  401112:	41 0b f3             	or     %r11d,%esi
  401115:	41 89 cb             	mov    %ecx,%r11d
  401118:	41 0b c1             	or     %r9d,%eax
  40111b:	45 0f b7 ca          	movzwl %r10w,%r9d
  40111f:	41 89 c5             	mov    %eax,%r13d
  401122:	66 41 c1 c3 08       	rol    $0x8,%r11w
  401127:	41 33 d1             	xor    %r9d,%edx
  40112a:	45 0f b7 cb          	movzwl %r11w,%r9d
  40112e:	41 89 fb             	mov    %edi,%r11d
  401131:	41 33 f1             	xor    %r9d,%esi
  401134:	41 89 c1             	mov    %eax,%r9d
  401137:	41 f7 d1             	not    %r9d
  40113a:	44 33 da             	xor    %edx,%r11d
  40113d:	33 35 b9 1f 21 00    	xor    0x211fb9(%rip),%esi        # 6130fc <RC+0x1c>
  401143:	44 0b ca             	or     %edx,%r9d
  401146:	c4 62 78 f2 f6       	andn   %esi,%eax,%r14d
  40114b:	44 33 ce             	xor    %esi,%r9d
  40114e:	45 33 f3             	xor    %r11d,%r14d
  401151:	45 23 d9             	and    %r9d,%r11d
  401154:	44 33 ef             	xor    %edi,%r13d
  401157:	41 89 fa             	mov    %edi,%r10d
  40115a:	45 33 dd             	xor    %r13d,%r11d
  40115d:	45 33 d1             	xor    %r9d,%r10d
  401160:	66 41 89 50 46       	mov    %dx,0x46(%r8)
  401165:	83 e2 f0             	and    $0xfffffff0,%edx
  401168:	41 83 e3 0f          	and    $0xf,%r11d
  40116c:	45 0b ee             	or     %r14d,%r13d
  40116f:	66 41 89 70 40       	mov    %si,0x40(%r8)
  401174:	83 e6 f0             	and    $0xfffffff0,%esi
  401177:	41 83 e6 0f          	and    $0xf,%r14d
  40117b:	41 0b d3             	or     %r11d,%edx
  40117e:	66 41 89 40 42       	mov    %ax,0x42(%r8)
  401183:	41 83 e2 0f          	and    $0xf,%r10d
  401187:	45 33 cd             	xor    %r13d,%r9d
  40118a:	41 0b f6             	or     %r14d,%esi
  40118d:	41 89 d5             	mov    %edx,%r13d
  401190:	25 f0 ff 00 00       	and    $0xfff0,%eax
  401195:	66 41 89 78 44       	mov    %di,0x44(%r8)
  40119a:	83 e7 f0             	and    $0xfffffff0,%edi
  40119d:	66 41 c1 c5 0c       	rol    $0xc,%r13w
  4011a2:	41 83 e1 0f          	and    $0xf,%r9d
  4011a6:	41 0b c2             	or     %r10d,%eax
  4011a9:	41 89 f2             	mov    %esi,%r10d
  4011ac:	66 41 c1 c2 08       	rol    $0x8,%r10w
  4011b1:	41 0b f9             	or     %r9d,%edi
  4011b4:	45 0f b7 cd          	movzwl %r13w,%r9d
  4011b8:	41 89 fe             	mov    %edi,%r14d
  4011bb:	41 33 c9             	xor    %r9d,%ecx
  4011be:	41 f7 d6             	not    %r14d
  4011c1:	45 0f b7 ca          	movzwl %r10w,%r9d
  4011c5:	41 89 d2             	mov    %edx,%r10d
  4011c8:	41 33 c1             	xor    %r9d,%eax
  4011cb:	44 0b f1             	or     %ecx,%r14d
  4011ce:	33 05 2c 1f 21 00    	xor    0x211f2c(%rip),%eax        # 613100 <RC+0x20>
  4011d4:	44 33 d1             	xor    %ecx,%r10d
  4011d7:	c4 62 40 f2 e8       	andn   %eax,%edi,%r13d
  4011dc:	44 33 f0             	xor    %eax,%r14d
  4011df:	41 89 fb             	mov    %edi,%r11d
  4011e2:	45 33 ea             	xor    %r10d,%r13d
  4011e5:	45 23 d6             	and    %r14d,%r10d
  4011e8:	44 33 da             	xor    %edx,%r11d
  4011eb:	41 89 d1             	mov    %edx,%r9d
  4011ee:	45 33 d3             	xor    %r11d,%r10d
  4011f1:	66 41 89 40 48       	mov    %ax,0x48(%r8)
  4011f6:	83 e0 f0             	and    $0xfffffff0,%eax
  4011f9:	66 41 89 48 4e       	mov    %cx,0x4e(%r8)
  4011fe:	83 e1 f0             	and    $0xfffffff0,%ecx
  401201:	45 33 ce             	xor    %r14d,%r9d
  401204:	45 0b dd             	or     %r13d,%r11d
  401207:	41 83 e5 0f          	and    $0xf,%r13d
  40120b:	41 83 e2 0f          	and    $0xf,%r10d
  40120f:	66 41 89 78 4a       	mov    %di,0x4a(%r8)
  401214:	41 83 e1 0f          	and    $0xf,%r9d
  401218:	45 33 f3             	xor    %r11d,%r14d
  40121b:	41 0b c5             	or     %r13d,%eax
  40121e:	41 0b ca             	or     %r10d,%ecx
  401221:	83 e7 f0             	and    $0xfffffff0,%edi
  401224:	66 41 89 50 4c       	mov    %dx,0x4c(%r8)
  401229:	83 e2 f0             	and    $0xfffffff0,%edx
  40122c:	41 83 e6 0f          	and    $0xf,%r14d
  401230:	41 89 cb             	mov    %ecx,%r11d
  401233:	41 0b f9             	or     %r9d,%edi
  401236:	41 89 c1             	mov    %eax,%r9d
  401239:	66 41 c1 c3 0c       	rol    $0xc,%r11w
  40123e:	41 0b d6             	or     %r14d,%edx
  401241:	66 41 c1 c1 08       	rol    $0x8,%r9w
  401246:	41 89 d6             	mov    %edx,%r14d
  401249:	45 0f b7 d3          	movzwl %r11w,%r10d
  40124d:	41 f7 d6             	not    %r14d
  401250:	45 0f b7 e9          	movzwl %r9w,%r13d
  401254:	41 33 f2             	xor    %r10d,%esi
  401257:	41 33 fd             	xor    %r13d,%edi
  40125a:	41 89 cd             	mov    %ecx,%r13d
  40125d:	33 3d a1 1e 21 00    	xor    0x211ea1(%rip),%edi        # 613104 <RC+0x24>
  401263:	44 0b f6             	or     %esi,%r14d
  401266:	c4 62 68 f2 df       	andn   %edi,%edx,%r11d
  40126b:	44 33 ee             	xor    %esi,%r13d
  40126e:	44 33 f7             	xor    %edi,%r14d
  401271:	41 89 d2             	mov    %edx,%r10d
  401274:	45 33 dd             	xor    %r13d,%r11d
  401277:	45 23 ee             	and    %r14d,%r13d
  40127a:	44 33 d1             	xor    %ecx,%r10d
  40127d:	41 89 c9             	mov    %ecx,%r9d
  401280:	45 33 ea             	xor    %r10d,%r13d
  401283:	45 0b d3             	or     %r11d,%r10d
  401286:	66 41 89 70 56       	mov    %si,0x56(%r8)
  40128b:	81 e6 f0 ff 00 00    	and    $0xfff0,%esi
  401291:	41 83 e5 0f          	and    $0xf,%r13d
  401295:	45 33 ce             	xor    %r14d,%r9d
  401298:	41 0b f5             	or     %r13d,%esi
  40129b:	45 33 f2             	xor    %r10d,%r14d
  40129e:	41 89 f2             	mov    %esi,%r10d
  4012a1:	41 83 e3 0f          	and    $0xf,%r11d
  4012a5:	66 41 89 78 50       	mov    %di,0x50(%r8)
  4012aa:	81 e7 f0 ff 00 00    	and    $0xfff0,%edi
  4012b0:	66 41 c1 c2 0c       	rol    $0xc,%r10w
  4012b5:	41 0b fb             	or     %r11d,%edi
  4012b8:	66 41 89 48 54       	mov    %cx,0x54(%r8)
  4012bd:	83 e1 f0             	and    $0xfffffff0,%ecx
  4012c0:	45 0f b7 da          	movzwl %r10w,%r11d
  4012c4:	41 83 e6 0f          	and    $0xf,%r14d
  4012c8:	66 41 89 50 52       	mov    %dx,0x52(%r8)
  4012cd:	41 0b ce             	or     %r14d,%ecx
  4012d0:	41 33 c3             	xor    %r11d,%eax
  4012d3:	41 89 fb             	mov    %edi,%r11d
  4012d6:	81 e2 f0 ff 00 00    	and    $0xfff0,%edx
  4012dc:	66 41 c1 c3 08       	rol    $0x8,%r11w
  4012e1:	41 83 e1 0f          	and    $0xf,%r9d
  4012e5:	45 0f b7 f3          	movzwl %r11w,%r14d
  4012e9:	41 0b d1             	or     %r9d,%edx
  4012ec:	41 89 cd             	mov    %ecx,%r13d
  4012ef:	41 33 d6             	xor    %r14d,%edx
  4012f2:	41 f7 d5             	not    %r13d
  4012f5:	41 89 f6             	mov    %esi,%r14d
  4012f8:	33 15 0a 1e 21 00    	xor    0x211e0a(%rip),%edx        # 613108 <RC+0x28>
  4012fe:	44 0b e8             	or     %eax,%r13d
  401301:	c4 62 70 f2 da       	andn   %edx,%ecx,%r11d
  401306:	44 33 f0             	xor    %eax,%r14d
  401309:	44 33 ea             	xor    %edx,%r13d
  40130c:	41 89 c9             	mov    %ecx,%r9d
  40130f:	45 33 de             	xor    %r14d,%r11d
  401312:	45 23 f5             	and    %r13d,%r14d
  401315:	44 33 ce             	xor    %esi,%r9d
  401318:	41 89 f2             	mov    %esi,%r10d
  40131b:	45 33 f1             	xor    %r9d,%r14d
  40131e:	45 33 d5             	xor    %r13d,%r10d
  401321:	66 41 89 50 58       	mov    %dx,0x58(%r8)
  401326:	83 e2 f0             	and    $0xfffffff0,%edx
  401329:	66 41 89 40 5e       	mov    %ax,0x5e(%r8)
  40132e:	25 f0 ff 00 00       	and    $0xfff0,%eax
  401333:	45 0b cb             	or     %r11d,%r9d
  401336:	41 83 e3 0f          	and    $0xf,%r11d
  40133a:	41 83 e6 0f          	and    $0xf,%r14d
  40133e:	41 83 e2 0f          	and    $0xf,%r10d
  401342:	66 41 89 48 5a       	mov    %cx,0x5a(%r8)
  401347:	45 33 e9             	xor    %r9d,%r13d
  40134a:	41 0b d3             	or     %r11d,%edx
  40134d:	41 0b c6             	or     %r14d,%eax
  401350:	81 e1 f0 ff 00 00    	and    $0xfff0,%ecx
  401356:	41 83 e5 0f          	and    $0xf,%r13d
  40135a:	66 41 89 70 5c       	mov    %si,0x5c(%r8)
  40135f:	83 e6 f0             	and    $0xfffffff0,%esi
  401362:	41 89 c1             	mov    %eax,%r9d
  401365:	41 0b ca             	or     %r10d,%ecx
  401368:	41 89 d2             	mov    %edx,%r10d
  40136b:	41 0b f5             	or     %r13d,%esi
  40136e:	66 41 c1 c1 0c       	rol    $0xc,%r9w
  401373:	41 89 f6             	mov    %esi,%r14d
  401376:	66 41 c1 c2 08       	rol    $0x8,%r10w
  40137b:	41 f7 d6             	not    %r14d
  40137e:	45 0f b7 d9          	movzwl %r9w,%r11d
  401382:	45 0f b7 ca          	movzwl %r10w,%r9d
  401386:	41 33 fb             	xor    %r11d,%edi
  401389:	41 33 c9             	xor    %r9d,%ecx
  40138c:	41 89 c2             	mov    %eax,%r10d
  40138f:	33 0d 77 1d 21 00    	xor    0x211d77(%rip),%ecx        # 61310c <RC+0x2c>
  401395:	44 0b f7             	or     %edi,%r14d
  401398:	c4 62 48 f2 e9       	andn   %ecx,%esi,%r13d
  40139d:	44 33 d7             	xor    %edi,%r10d
  4013a0:	44 33 f1             	xor    %ecx,%r14d
  4013a3:	41 89 f3             	mov    %esi,%r11d
  4013a6:	45 33 ea             	xor    %r10d,%r13d
  4013a9:	45 23 d6             	and    %r14d,%r10d
  4013ac:	44 33 d8             	xor    %eax,%r11d
  4013af:	41 89 c1             	mov    %eax,%r9d
  4013b2:	45 33 d3             	xor    %r11d,%r10d
  4013b5:	45 33 ce             	xor    %r14d,%r9d
  4013b8:	66 41 89 48 60       	mov    %cx,0x60(%r8)
  4013bd:	83 e1 f0             	and    $0xfffffff0,%ecx
  4013c0:	66 41 89 78 66       	mov    %di,0x66(%r8)
  4013c5:	83 e7 f0             	and    $0xfffffff0,%edi
  4013c8:	45 0b dd             	or     %r13d,%r11d
  4013cb:	41 83 e5 0f          	and    $0xf,%r13d
  4013cf:	41 83 e2 0f          	and    $0xf,%r10d
  4013d3:	41 83 e1 0f          	and    $0xf,%r9d
  4013d7:	66 41 89 70 62       	mov    %si,0x62(%r8)
  4013dc:	45 33 f3             	xor    %r11d,%r14d
  4013df:	41 0b cd             	or     %r13d,%ecx
  4013e2:	41 0b fa             	or     %r10d,%edi
  4013e5:	83 e6 f0             	and    $0xfffffff0,%esi
  4013e8:	41 83 e6 0f          	and    $0xf,%r14d
  4013ec:	66 41 89 40 64       	mov    %ax,0x64(%r8)
  4013f1:	83 e0 f0             	and    $0xfffffff0,%eax
  4013f4:	41 89 fb             	mov    %edi,%r11d
  4013f7:	41 0b f1             	or     %r9d,%esi
  4013fa:	41 89 c9             	mov    %ecx,%r9d
  4013fd:	41 0b c6             	or     %r14d,%eax
  401400:	66 41 c1 c3 0c       	rol    $0xc,%r11w
  401405:	41 89 c6             	mov    %eax,%r14d
  401408:	66 41 c1 c1 08       	rol    $0x8,%r9w
  40140d:	41 f7 d6             	not    %r14d
  401410:	45 0f b7 d3          	movzwl %r11w,%r10d
  401414:	45 0f b7 e9          	movzwl %r9w,%r13d
  401418:	41 33 d2             	xor    %r10d,%edx
  40141b:	41 33 f5             	xor    %r13d,%esi
  40141e:	41 89 f9             	mov    %edi,%r9d
  401421:	33 35 e9 1c 21 00    	xor    0x211ce9(%rip),%esi        # 613110 <RC+0x30>
  401427:	44 0b f2             	or     %edx,%r14d
  40142a:	c4 62 78 f2 de       	andn   %esi,%eax,%r11d
  40142f:	44 33 ca             	xor    %edx,%r9d
  401432:	44 33 f6             	xor    %esi,%r14d
  401435:	41 89 c2             	mov    %eax,%r10d
  401438:	45 33 d9             	xor    %r9d,%r11d
  40143b:	45 23 ce             	and    %r14d,%r9d
  40143e:	44 33 d7             	xor    %edi,%r10d
  401441:	41 89 fd             	mov    %edi,%r13d
  401444:	45 33 ca             	xor    %r10d,%r9d
  401447:	45 33 ee             	xor    %r14d,%r13d
  40144a:	66 41 89 70 68       	mov    %si,0x68(%r8)
  40144f:	81 e6 f0 ff 00 00    	and    $0xfff0,%esi
  401455:	66 41 89 50 6e       	mov    %dx,0x6e(%r8)
  40145a:	81 e2 f0 ff 00 00    	and    $0xfff0,%edx
  401460:	45 0b d3             	or     %r11d,%r10d
  401463:	41 83 e3 0f          	and    $0xf,%r11d
  401467:	41 83 e1 0f          	and    $0xf,%r9d
  40146b:	41 83 e5 0f          	and    $0xf,%r13d
  40146f:	66 41 89 40 6a       	mov    %ax,0x6a(%r8)
  401474:	45 33 f2             	xor    %r10d,%r14d
  401477:	41 0b f3             	or     %r11d,%esi
  40147a:	41 0b d1             	or     %r9d,%edx
  40147d:	83 e0 f0             	and    $0xfffffff0,%eax
  401480:	41 83 e6 0f          	and    $0xf,%r14d
  401484:	66 41 89 78 6c       	mov    %di,0x6c(%r8)
  401489:	83 e7 f0             	and    $0xfffffff0,%edi
  40148c:	41 89 d2             	mov    %edx,%r10d
  40148f:	41 0b c5             	or     %r13d,%eax
  401492:	41 89 f5             	mov    %esi,%r13d
  401495:	41 0b fe             	or     %r14d,%edi
  401498:	66 41 c1 c2 0c       	rol    $0xc,%r10w
  40149d:	41 89 f9             	mov    %edi,%r9d
  4014a0:	66 41 c1 c5 08       	rol    $0x8,%r13w
  4014a5:	44 33 ca             	xor    %edx,%r9d
  4014a8:	45 0f b7 da          	movzwl %r10w,%r11d
  4014ac:	45 0f b7 f5          	movzwl %r13w,%r14d
  4014b0:	41 89 fd             	mov    %edi,%r13d
  4014b3:	41 33 cb             	xor    %r11d,%ecx
  4014b6:	41 33 c6             	xor    %r14d,%eax
  4014b9:	41 f7 d5             	not    %r13d
  4014bc:	41 89 d6             	mov    %edx,%r14d
  4014bf:	33 05 4f 1c 21 00    	xor    0x211c4f(%rip),%eax        # 613114 <RC+0x34>
  4014c5:	44 0b e9             	or     %ecx,%r13d
  4014c8:	c4 62 40 f2 d0       	andn   %eax,%edi,%r10d
  4014cd:	44 33 f1             	xor    %ecx,%r14d
  4014d0:	44 33 e8             	xor    %eax,%r13d
  4014d3:	45 33 d6             	xor    %r14d,%r10d
  4014d6:	45 23 f5             	and    %r13d,%r14d
  4014d9:	41 89 d3             	mov    %edx,%r11d
  4014dc:	45 33 f1             	xor    %r9d,%r14d
  4014df:	45 33 dd             	xor    %r13d,%r11d
  4014e2:	66 41 89 40 70       	mov    %ax,0x70(%r8)
  4014e7:	25 f0 ff 00 00       	and    $0xfff0,%eax
  4014ec:	66 41 89 48 76       	mov    %cx,0x76(%r8)
  4014f1:	81 e1 f0 ff 00 00    	and    $0xfff0,%ecx
  4014f7:	45 0b ca             	or     %r10d,%r9d
  4014fa:	41 83 e2 0f          	and    $0xf,%r10d
  4014fe:	41 83 e6 0f          	and    $0xf,%r14d
  401502:	41 83 e3 0f          	and    $0xf,%r11d
  401506:	66 41 89 78 72       	mov    %di,0x72(%r8)
  40150b:	41 0b c2             	or     %r10d,%eax
  40150e:	41 0b ce             	or     %r14d,%ecx
  401511:	81 e7 f0 ff 00 00    	and    $0xfff0,%edi
  401517:	45 33 e9             	xor    %r9d,%r13d
  40151a:	41 89 c9             	mov    %ecx,%r9d
  40151d:	41 0b fb             	or     %r11d,%edi
  401520:	41 89 c3             	mov    %eax,%r11d
  401523:	66 41 89 50 74       	mov    %dx,0x74(%r8)
  401528:	83 e2 f0             	and    $0xfffffff0,%edx
  40152b:	66 41 c1 c1 0c       	rol    $0xc,%r9w
  401530:	41 83 e5 0f          	and    $0xf,%r13d
  401534:	66 41 c1 c3 08       	rol    $0x8,%r11w
  401539:	41 0b d5             	or     %r13d,%edx
  40153c:	45 0f b7 d1          	movzwl %r9w,%r10d
  401540:	41 89 d5             	mov    %edx,%r13d
  401543:	45 0f b7 cb          	movzwl %r11w,%r9d
  401547:	41 33 f2             	xor    %r10d,%esi
  40154a:	41 33 f9             	xor    %r9d,%edi
  40154d:	41 89 d1             	mov    %edx,%r9d
  401550:	41 f7 d1             	not    %r9d
  401553:	41 89 cb             	mov    %ecx,%r11d
  401556:	33 3d bc 1b 21 00    	xor    0x211bbc(%rip),%edi        # 613118 <RC+0x38>
  40155c:	44 0b ce             	or     %esi,%r9d
  40155f:	c4 62 68 f2 f7       	andn   %edi,%edx,%r14d
  401564:	44 33 de             	xor    %esi,%r11d
  401567:	44 33 cf             	xor    %edi,%r9d
  40156a:	45 33 f3             	xor    %r11d,%r14d
  40156d:	45 23 d9             	and    %r9d,%r11d
  401570:	44 33 e9             	xor    %ecx,%r13d
  401573:	45 33 dd             	xor    %r13d,%r11d
  401576:	41 89 ca             	mov    %ecx,%r10d
  401579:	66 41 89 70 7e       	mov    %si,0x7e(%r8)
  40157e:	83 e6 f0             	and    $0xfffffff0,%esi
  401581:	41 83 e3 0f          	and    $0xf,%r11d
  401585:	45 33 d1             	xor    %r9d,%r10d
  401588:	66 41 89 78 78       	mov    %di,0x78(%r8)
  40158d:	83 e7 f0             	and    $0xfffffff0,%edi
  401590:	45 0b ee             	or     %r14d,%r13d
  401593:	41 83 e6 0f          	and    $0xf,%r14d
  401597:	41 0b f3             	or     %r11d,%esi
  40159a:	41 83 e2 0f          	and    $0xf,%r10d
  40159e:	66 41 89 50 7a       	mov    %dx,0x7a(%r8)
  4015a3:	45 33 cd             	xor    %r13d,%r9d
  4015a6:	41 0b fe             	or     %r14d,%edi
  4015a9:	41 89 f5             	mov    %esi,%r13d
  4015ac:	83 e2 f0             	and    $0xfffffff0,%edx
  4015af:	41 83 e1 0f          	and    $0xf,%r9d
  4015b3:	66 41 89 48 7c       	mov    %cx,0x7c(%r8)
  4015b8:	83 e1 f0             	and    $0xfffffff0,%ecx
  4015bb:	66 41 c1 c5 0c       	rol    $0xc,%r13w
  4015c0:	41 0b d2             	or     %r10d,%edx
  4015c3:	41 89 fa             	mov    %edi,%r10d
  4015c6:	41 0b c9             	or     %r9d,%ecx
  4015c9:	45 0f b7 cd          	movzwl %r13w,%r9d
  4015cd:	41 89 ce             	mov    %ecx,%r14d
  4015d0:	66 41 c1 c2 08       	rol    $0x8,%r10w
  4015d5:	41 33 c1             	xor    %r9d,%eax
  4015d8:	45 0f b7 ca          	movzwl %r10w,%r9d
  4015dc:	41 f7 d6             	not    %r14d
  4015df:	41 33 d1             	xor    %r9d,%edx
  4015e2:	41 89 f2             	mov    %esi,%r10d
  4015e5:	33 15 31 1b 21 00    	xor    0x211b31(%rip),%edx        # 61311c <RC+0x3c>
  4015eb:	44 0b f0             	or     %eax,%r14d
  4015ee:	c4 62 70 f2 ea       	andn   %edx,%ecx,%r13d
  4015f3:	44 33 d0             	xor    %eax,%r10d
  4015f6:	44 33 f2             	xor    %edx,%r14d
  4015f9:	41 89 cb             	mov    %ecx,%r11d
  4015fc:	45 33 ea             	xor    %r10d,%r13d
  4015ff:	45 23 d6             	and    %r14d,%r10d
  401602:	44 33 de             	xor    %esi,%r11d
  401605:	41 89 f1             	mov    %esi,%r9d
  401608:	45 33 d3             	xor    %r11d,%r10d
  40160b:	45 33 ce             	xor    %r14d,%r9d
  40160e:	66 41 89 90 80 00 00 	mov    %dx,0x80(%r8)
  401615:	00 
  401616:	81 e2 f0 ff 00 00    	and    $0xfff0,%edx
  40161c:	66 41 89 80 86 00 00 	mov    %ax,0x86(%r8)
  401623:	00 
  401624:	83 e0 f0             	and    $0xfffffff0,%eax
  401627:	45 0b dd             	or     %r13d,%r11d
  40162a:	41 83 e5 0f          	and    $0xf,%r13d
  40162e:	41 83 e2 0f          	and    $0xf,%r10d
  401632:	41 83 e1 0f          	and    $0xf,%r9d
  401636:	66 41 89 88 82 00 00 	mov    %cx,0x82(%r8)
  40163d:	00 
  40163e:	45 33 f3             	xor    %r11d,%r14d
  401641:	41 0b d5             	or     %r13d,%edx
  401644:	41 0b c2             	or     %r10d,%eax
  401647:	83 e1 f0             	and    $0xfffffff0,%ecx
  40164a:	41 83 e6 0f          	and    $0xf,%r14d
  40164e:	66 41 89 b0 84 00 00 	mov    %si,0x84(%r8)
  401655:	00 
  401656:	83 e6 f0             	and    $0xfffffff0,%esi
  401659:	41 89 c3             	mov    %eax,%r11d
  40165c:	41 0b c9             	or     %r9d,%ecx
  40165f:	41 89 d1             	mov    %edx,%r9d
  401662:	41 0b f6             	or     %r14d,%esi
  401665:	66 41 c1 c3 0c       	rol    $0xc,%r11w
  40166a:	41 89 c6             	mov    %eax,%r14d
  40166d:	66 41 c1 c1 08       	rol    $0x8,%r9w
  401672:	45 0f b7 d3          	movzwl %r11w,%r10d
  401676:	45 0f b7 e9          	movzwl %r9w,%r13d
  40167a:	41 89 f1             	mov    %esi,%r9d
  40167d:	41 33 fa             	xor    %r10d,%edi
  401680:	41 33 cd             	xor    %r13d,%ecx
  401683:	41 f7 d1             	not    %r9d
  401686:	41 89 c5             	mov    %eax,%r13d
  401689:	33 0d 91 1a 21 00    	xor    0x211a91(%rip),%ecx        # 613120 <RC+0x40>
  40168f:	44 0b cf             	or     %edi,%r9d
  401692:	c4 62 48 f2 d9       	andn   %ecx,%esi,%r11d
  401697:	44 33 ef             	xor    %edi,%r13d
  40169a:	44 33 c9             	xor    %ecx,%r9d
  40169d:	41 89 f2             	mov    %esi,%r10d
  4016a0:	45 33 dd             	xor    %r13d,%r11d
  4016a3:	45 23 e9             	and    %r9d,%r13d
  4016a6:	44 33 d0             	xor    %eax,%r10d
  4016a9:	45 33 f1             	xor    %r9d,%r14d
  4016ac:	45 33 ea             	xor    %r10d,%r13d
  4016af:	45 0b d3             	or     %r11d,%r10d
  4016b2:	66 41 89 b8 8e 00 00 	mov    %di,0x8e(%r8)
  4016b9:	00 
  4016ba:	81 e7 f0 ff 00 00    	and    $0xfff0,%edi
  4016c0:	41 83 e5 0f          	and    $0xf,%r13d
  4016c4:	41 83 e3 0f          	and    $0xf,%r11d
  4016c8:	66 41 89 88 88 00 00 	mov    %cx,0x88(%r8)
  4016cf:	00 
  4016d0:	81 e1 f0 ff 00 00    	and    $0xfff0,%ecx
  4016d6:	41 0b fd             	or     %r13d,%edi
  4016d9:	41 83 e6 0f          	and    $0xf,%r14d
  4016dd:	66 41 89 b0 8a 00 00 	mov    %si,0x8a(%r8)
  4016e4:	00 
  4016e5:	45 33 ca             	xor    %r10d,%r9d
  4016e8:	41 0b cb             	or     %r11d,%ecx
  4016eb:	41 89 fa             	mov    %edi,%r10d
  4016ee:	81 e6 f0 ff 00 00    	and    $0xfff0,%esi
  4016f4:	41 83 e1 0f          	and    $0xf,%r9d
  4016f8:	66 41 89 80 8c 00 00 	mov    %ax,0x8c(%r8)
  4016ff:	00 
  401700:	83 e0 f0             	and    $0xfffffff0,%eax
  401703:	66 41 c1 c2 0c       	rol    $0xc,%r10w
  401708:	41 0b f6             	or     %r14d,%esi
  40170b:	41 89 ce             	mov    %ecx,%r14d
  40170e:	41 0b c1             	or     %r9d,%eax
  401711:	45 0f b7 ca          	movzwl %r10w,%r9d
  401715:	41 89 c2             	mov    %eax,%r10d
  401718:	66 41 c1 c6 08       	rol    $0x8,%r14w
  40171d:	41 33 d1             	xor    %r9d,%edx
  401720:	45 0f b7 ce          	movzwl %r14w,%r9d
  401724:	41 89 fe             	mov    %edi,%r14d
  401727:	41 33 f1             	xor    %r9d,%esi
  40172a:	41 89 c1             	mov    %eax,%r9d
  40172d:	41 f7 d1             	not    %r9d
  401730:	44 33 f2             	xor    %edx,%r14d
  401733:	33 35 eb 19 21 00    	xor    0x2119eb(%rip),%esi        # 613124 <RC+0x44>
  401739:	44 0b ca             	or     %edx,%r9d
  40173c:	c4 62 78 f2 de       	andn   %esi,%eax,%r11d
  401741:	44 33 ce             	xor    %esi,%r9d
  401744:	45 33 de             	xor    %r14d,%r11d
  401747:	45 23 f1             	and    %r9d,%r14d
  40174a:	44 33 d7             	xor    %edi,%r10d
  40174d:	41 89 fd             	mov    %edi,%r13d
  401750:	45 33 f2             	xor    %r10d,%r14d
  401753:	45 33 e9             	xor    %r9d,%r13d
  401756:	66 41 89 90 96 00 00 	mov    %dx,0x96(%r8)
  40175d:	00 
  40175e:	83 e2 f0             	and    $0xfffffff0,%edx
  401761:	41 83 e6 0f          	and    $0xf,%r14d
  401765:	45 0b d3             	or     %r11d,%r10d
  401768:	66 41 89 b0 90 00 00 	mov    %si,0x90(%r8)
  40176f:	00 
  401770:	83 e6 f0             	and    $0xfffffff0,%esi
  401773:	41 83 e3 0f          	and    $0xf,%r11d
  401777:	41 0b d6             	or     %r14d,%edx
  40177a:	66 41 89 80 92 00 00 	mov    %ax,0x92(%r8)
  401781:	00 
  401782:	41 83 e5 0f          	and    $0xf,%r13d
  401786:	45 33 ca             	xor    %r10d,%r9d
  401789:	41 0b f3             	or     %r11d,%esi
  40178c:	41 89 d2             	mov    %edx,%r10d
  40178f:	25 f0 ff 00 00       	and    $0xfff0,%eax
  401794:	66 41 89 b8 94 00 00 	mov    %di,0x94(%r8)
  40179b:	00 
  40179c:	83 e7 f0             	and    $0xfffffff0,%edi
  40179f:	66 41 c1 c2 0c       	rol    $0xc,%r10w
  4017a4:	41 83 e1 0f          	and    $0xf,%r9d
  4017a8:	41 0b c5             	or     %r13d,%eax
  4017ab:	41 89 f5             	mov    %esi,%r13d
  4017ae:	66 41 c1 c5 08       	rol    $0x8,%r13w
  4017b3:	41 0b f9             	or     %r9d,%edi
  4017b6:	45 0f b7 ca          	movzwl %r10w,%r9d
  4017ba:	41 89 fa             	mov    %edi,%r10d
  4017bd:	41 33 c9             	xor    %r9d,%ecx
  4017c0:	44 33 d2             	xor    %edx,%r10d
  4017c3:	45 0f b7 cd          	movzwl %r13w,%r9d
  4017c7:	41 89 d5             	mov    %edx,%r13d
  4017ca:	41 33 c1             	xor    %r9d,%eax
  4017cd:	41 89 f9             	mov    %edi,%r9d
  4017d0:	41 f7 d1             	not    %r9d
  4017d3:	44 33 e9             	xor    %ecx,%r13d
  4017d6:	33 05 4c 19 21 00    	xor    0x21194c(%rip),%eax        # 613128 <RC+0x48>
  4017dc:	44 0b c9             	or     %ecx,%r9d
  4017df:	c4 62 40 f2 f0       	andn   %eax,%edi,%r14d
  4017e4:	44 33 c8             	xor    %eax,%r9d
  4017e7:	45 33 f5             	xor    %r13d,%r14d
  4017ea:	45 23 e9             	and    %r9d,%r13d
  4017ed:	45 33 ea             	xor    %r10d,%r13d
  4017f0:	41 89 d3             	mov    %edx,%r11d
  4017f3:	66 41 89 88 9e 00 00 	mov    %cx,0x9e(%r8)
  4017fa:	00 
  4017fb:	83 e1 f0             	and    $0xfffffff0,%ecx
  4017fe:	41 83 e5 0f          	and    $0xf,%r13d
  401802:	45 33 d9             	xor    %r9d,%r11d
  401805:	66 41 89 80 98 00 00 	mov    %ax,0x98(%r8)
  40180c:	00 
  40180d:	83 e0 f0             	and    $0xfffffff0,%eax
  401810:	45 0b d6             	or     %r14d,%r10d
  401813:	41 83 e6 0f          	and    $0xf,%r14d
  401817:	41 0b cd             	or     %r13d,%ecx
  40181a:	41 83 e3 0f          	and    $0xf,%r11d
  40181e:	66 41 89 b8 9a 00 00 	mov    %di,0x9a(%r8)
  401825:	00 
  401826:	45 33 ca             	xor    %r10d,%r9d
  401829:	41 0b c6             	or     %r14d,%eax
  40182c:	41 89 ca             	mov    %ecx,%r10d
  40182f:	83 e7 f0             	and    $0xfffffff0,%edi
  401832:	41 83 e1 0f          	and    $0xf,%r9d
  401836:	66 41 89 90 9c 00 00 	mov    %dx,0x9c(%r8)
  40183d:	00 
  40183e:	83 e2 f0             	and    $0xfffffff0,%edx
  401841:	66 41 c1 c2 0c       	rol    $0xc,%r10w
  401846:	41 0b fb             	or     %r11d,%edi
  401849:	41 89 c3             	mov    %eax,%r11d
  40184c:	41 0b d1             	or     %r9d,%edx
  40184f:	45 0f b7 ca          	movzwl %r10w,%r9d
  401853:	41 89 d5             	mov    %edx,%r13d
  401856:	66 41 c1 c3 08       	rol    $0x8,%r11w
  40185b:	41 33 f1             	xor    %r9d,%esi
  40185e:	45 0f b7 cb          	movzwl %r11w,%r9d
  401862:	41 89 cb             	mov    %ecx,%r11d
  401865:	41 33 f9             	xor    %r9d,%edi
  401868:	41 89 d1             	mov    %edx,%r9d
  40186b:	41 f7 d1             	not    %r9d
  40186e:	44 33 de             	xor    %esi,%r11d
  401871:	33 3d b5 18 21 00    	xor    0x2118b5(%rip),%edi        # 61312c <RC+0x4c>
  401877:	44 0b ce             	or     %esi,%r9d
  40187a:	c4 62 68 f2 f7       	andn   %edi,%edx,%r14d
  40187f:	44 33 cf             	xor    %edi,%r9d
  401882:	45 33 f3             	xor    %r11d,%r14d
  401885:	45 23 d9             	and    %r9d,%r11d
  401888:	44 33 e9             	xor    %ecx,%r13d
  40188b:	41 89 ca             	mov    %ecx,%r10d
  40188e:	45 33 dd             	xor    %r13d,%r11d
  401891:	45 33 d1             	xor    %r9d,%r10d
  401894:	66 41 89 b0 a6 00 00 	mov    %si,0xa6(%r8)
  40189b:	00 
  40189c:	81 e6 f0 ff 00 00    	and    $0xfff0,%esi
  4018a2:	41 83 e3 0f          	and    $0xf,%r11d
  4018a6:	45 0b ee             	or     %r14d,%r13d
  4018a9:	66 41 89 b8 a0 00 00 	mov    %di,0xa0(%r8)
  4018b0:	00 
  4018b1:	81 e7 f0 ff 00 00    	and    $0xfff0,%edi
  4018b7:	41 83 e6 0f          	and    $0xf,%r14d
  4018bb:	41 0b f3             	or     %r11d,%esi
  4018be:	66 41 89 90 a2 00 00 	mov    %dx,0xa2(%r8)
  4018c5:	00 
  4018c6:	41 83 e2 0f          	and    $0xf,%r10d
  4018ca:	45 33 cd             	xor    %r13d,%r9d
  4018cd:	41 0b fe             	or     %r14d,%edi
  4018d0:	41 89 f5             	mov    %esi,%r13d
  4018d3:	81 e2 f0 ff 00 00    	and    $0xfff0,%edx
  4018d9:	66 41 89 88 a4 00 00 	mov    %cx,0xa4(%r8)
  4018e0:	00 
  4018e1:	83 e1 f0             	and    $0xfffffff0,%ecx
  4018e4:	66 41 c1 c5 0c       	rol    $0xc,%r13w
  4018e9:	41 83 e1 0f          	and    $0xf,%r9d
  4018ed:	41 0b d2             	or     %r10d,%edx
  4018f0:	41 89 fa             	mov    %edi,%r10d
  4018f3:	66 41 c1 c2 08       	rol    $0x8,%r10w
  4018f8:	41 0b c9             	or     %r9d,%ecx
  4018fb:	45 0f b7 cd          	movzwl %r13w,%r9d
  4018ff:	41 89 ce             	mov    %ecx,%r14d
  401902:	41 33 c1             	xor    %r9d,%eax
  401905:	41 f7 d6             	not    %r14d
  401908:	45 0f b7 ca          	movzwl %r10w,%r9d
  40190c:	41 89 f2             	mov    %esi,%r10d
  40190f:	41 33 d1             	xor    %r9d,%edx
  401912:	44 0b f0             	or     %eax,%r14d
  401915:	33 15 15 18 21 00    	xor    0x211815(%rip),%edx        # 613130 <RC+0x50>
  40191b:	44 33 d0             	xor    %eax,%r10d
  40191e:	c4 62 70 f2 ea       	andn   %edx,%ecx,%r13d
  401923:	44 33 f2             	xor    %edx,%r14d
  401926:	41 89 cb             	mov    %ecx,%r11d
  401929:	45 33 ea             	xor    %r10d,%r13d
  40192c:	45 23 d6             	and    %r14d,%r10d
  40192f:	44 33 de             	xor    %esi,%r11d
  401932:	45 33 d3             	xor    %r11d,%r10d
  401935:	41 89 f1             	mov    %esi,%r9d
  401938:	66 41 89 80 ae 00 00 	mov    %ax,0xae(%r8)
  40193f:	00 
  401940:	25 f0 ff 00 00       	and    $0xfff0,%eax
  401945:	41 83 e2 0f          	and    $0xf,%r10d
  401949:	45 0b dd             	or     %r13d,%r11d
  40194c:	41 0b c2             	or     %r10d,%eax
  40194f:	45 33 ce             	xor    %r14d,%r9d
  401952:	66 41 89 90 a8 00 00 	mov    %dx,0xa8(%r8)
  401959:	00 
  40195a:	83 e2 f0             	and    $0xfffffff0,%edx
  40195d:	45 33 f3             	xor    %r11d,%r14d
  401960:	41 83 e5 0f          	and    $0xf,%r13d
  401964:	41 89 c3             	mov    %eax,%r11d
  401967:	41 83 e1 0f          	and    $0xf,%r9d
  40196b:	66 41 89 88 aa 00 00 	mov    %cx,0xaa(%r8)
  401972:	00 
  401973:	41 0b d5             	or     %r13d,%edx
  401976:	66 41 c1 c3 0c       	rol    $0xc,%r11w
  40197b:	81 e1 f0 ff 00 00    	and    $0xfff0,%ecx
  401981:	66 41 89 b0 ac 00 00 	mov    %si,0xac(%r8)
  401988:	00 
  401989:	83 e6 f0             	and    $0xfffffff0,%esi
  40198c:	45 0f b7 d3          	movzwl %r11w,%r10d
  401990:	41 83 e6 0f          	and    $0xf,%r14d
  401994:	41 0b c9             	or     %r9d,%ecx
  401997:	41 89 d1             	mov    %edx,%r9d
  40199a:	66 41 c1 c1 08       	rol    $0x8,%r9w
  40199f:	41 0b f6             	or     %r14d,%esi
  4019a2:	41 33 fa             	xor    %r10d,%edi
  4019a5:	45 0f b7 e9          	movzwl %r9w,%r13d
  4019a9:	41 89 f2             	mov    %esi,%r10d
  4019ac:	41 33 cd             	xor    %r13d,%ecx
  4019af:	41 f7 d2             	not    %r10d
  4019b2:	33 0d 7c 17 21 00    	xor    0x21177c(%rip),%ecx        # 613134 <RC+0x54>
  4019b8:	41 89 c5             	mov    %eax,%r13d
  4019bb:	44 0b d7             	or     %edi,%r10d
  4019be:	44 33 ef             	xor    %edi,%r13d
  4019c1:	c4 62 48 f2 c9       	andn   %ecx,%esi,%r9d
  4019c6:	44 33 d1             	xor    %ecx,%r10d
  4019c9:	41 89 f6             	mov    %esi,%r14d
  4019cc:	45 33 cd             	xor    %r13d,%r9d
  4019cf:	45 23 ea             	and    %r10d,%r13d
  4019d2:	44 33 f0             	xor    %eax,%r14d
  4019d5:	41 89 c3             	mov    %eax,%r11d
  4019d8:	45 33 ee             	xor    %r14d,%r13d
  4019db:	66 41 89 88 b0 00 00 	mov    %cx,0xb0(%r8)
  4019e2:	00 
  4019e3:	83 e1 f0             	and    $0xfffffff0,%ecx
  4019e6:	66 41 89 b8 b6 00 00 	mov    %di,0xb6(%r8)
  4019ed:	00 
  4019ee:	83 e7 f0             	and    $0xfffffff0,%edi
  4019f1:	45 33 da             	xor    %r10d,%r11d
  4019f4:	45 0b f1             	or     %r9d,%r14d
  4019f7:	41 83 e1 0f          	and    $0xf,%r9d
  4019fb:	41 83 e5 0f          	and    $0xf,%r13d
  4019ff:	66 41 89 b0 b2 00 00 	mov    %si,0xb2(%r8)
  401a06:	00 
  401a07:	41 83 e3 0f          	and    $0xf,%r11d
  401a0b:	41 0b c9             	or     %r9d,%ecx
  401a0e:	41 0b fd             	or     %r13d,%edi
  401a11:	83 e6 f0             	and    $0xfffffff0,%esi
  401a14:	45 33 d6             	xor    %r14d,%r10d
  401a17:	41 89 f9             	mov    %edi,%r9d
  401a1a:	41 0b f3             	or     %r11d,%esi
  401a1d:	41 89 cb             	mov    %ecx,%r11d
  401a20:	41 83 e2 0f          	and    $0xf,%r10d
  401a24:	66 41 89 80 b4 00 00 	mov    %ax,0xb4(%r8)
  401a2b:	00 
  401a2c:	83 e0 f0             	and    $0xfffffff0,%eax
  401a2f:	66 41 c1 c1 0c       	rol    $0xc,%r9w
  401a34:	41 0b c2             	or     %r10d,%eax
  401a37:	66 41 c1 c3 08       	rol    $0x8,%r11w
  401a3c:	41 89 c5             	mov    %eax,%r13d
  401a3f:	45 0f b7 f1          	movzwl %r9w,%r14d
  401a43:	44 33 ef             	xor    %edi,%r13d
  401a46:	45 0f b7 cb          	movzwl %r11w,%r9d
  401a4a:	41 33 d6             	xor    %r14d,%edx
  401a4d:	41 33 f1             	xor    %r9d,%esi
  401a50:	41 89 c1             	mov    %eax,%r9d
  401a53:	41 f7 d1             	not    %r9d
  401a56:	41 89 fb             	mov    %edi,%r11d
  401a59:	33 35 d9 16 21 00    	xor    0x2116d9(%rip),%esi        # 613138 <RC+0x58>
  401a5f:	44 0b ca             	or     %edx,%r9d
  401a62:	c4 62 78 f2 f6       	andn   %esi,%eax,%r14d
  401a67:	44 33 da             	xor    %edx,%r11d
  401a6a:	44 33 ce             	xor    %esi,%r9d
  401a6d:	45 33 f3             	xor    %r11d,%r14d
  401a70:	45 23 d9             	and    %r9d,%r11d
  401a73:	41 89 fa             	mov    %edi,%r10d
  401a76:	45 33 dd             	xor    %r13d,%r11d
  401a79:	45 33 d1             	xor    %r9d,%r10d
  401a7c:	66 41 89 90 be 00 00 	mov    %dx,0xbe(%r8)
  401a83:	00 
  401a84:	83 e2 f0             	and    $0xfffffff0,%edx
  401a87:	41 83 e3 0f          	and    $0xf,%r11d
  401a8b:	45 0b ee             	or     %r14d,%r13d
  401a8e:	66 41 89 b0 b8 00 00 	mov    %si,0xb8(%r8)
  401a95:	00 
  401a96:	83 e6 f0             	and    $0xfffffff0,%esi
  401a99:	41 83 e6 0f          	and    $0xf,%r14d
  401a9d:	41 0b d3             	or     %r11d,%edx
  401aa0:	66 41 89 80 ba 00 00 	mov    %ax,0xba(%r8)
  401aa7:	00 
  401aa8:	41 83 e2 0f          	and    $0xf,%r10d
  401aac:	45 33 cd             	xor    %r13d,%r9d
  401aaf:	41 0b f6             	or     %r14d,%esi
  401ab2:	41 89 d5             	mov    %edx,%r13d
  401ab5:	83 e0 f0             	and    $0xfffffff0,%eax
  401ab8:	66 41 89 b8 bc 00 00 	mov    %di,0xbc(%r8)
  401abf:	00 
  401ac0:	83 e7 f0             	and    $0xfffffff0,%edi
  401ac3:	66 41 c1 c5 0c       	rol    $0xc,%r13w
  401ac8:	41 83 e1 0f          	and    $0xf,%r9d
  401acc:	41 0b c2             	or     %r10d,%eax
  401acf:	41 89 f2             	mov    %esi,%r10d
  401ad2:	66 41 c1 c2 08       	rol    $0x8,%r10w
  401ad7:	41 0b f9             	or     %r9d,%edi
  401ada:	45 0f b7 cd          	movzwl %r13w,%r9d
  401ade:	41 89 d3             	mov    %edx,%r11d
  401ae1:	41 33 c9             	xor    %r9d,%ecx
  401ae4:	41 89 fe             	mov    %edi,%r14d
  401ae7:	45 0f b7 ca          	movzwl %r10w,%r9d
  401aeb:	44 33 d9             	xor    %ecx,%r11d
  401aee:	41 33 c1             	xor    %r9d,%eax
  401af1:	41 89 f9             	mov    %edi,%r9d
  401af4:	41 f7 d1             	not    %r9d
  401af7:	44 33 f2             	xor    %edx,%r14d
  401afa:	33 05 3c 16 21 00    	xor    0x21163c(%rip),%eax        # 61313c <RC+0x5c>
  401b00:	44 0b c9             	or     %ecx,%r9d
  401b03:	c4 62 40 f2 e8       	andn   %eax,%edi,%r13d
  401b08:	44 33 c8             	xor    %eax,%r9d
  401b0b:	45 33 eb             	xor    %r11d,%r13d
  401b0e:	45 23 d9             	and    %r9d,%r11d
  401b11:	66 41 89 80 c0 00 00 	mov    %ax,0xc0(%r8)
  401b18:	00 
  401b19:	83 e0 f0             	and    $0xfffffff0,%eax
  401b1c:	45 33 de             	xor    %r14d,%r11d
  401b1f:	45 0b f5             	or     %r13d,%r14d
  401b22:	41 83 e5 0f          	and    $0xf,%r13d
  401b26:	41 89 d2             	mov    %edx,%r10d
  401b29:	41 0b c5             	or     %r13d,%eax
  401b2c:	45 33 d1             	xor    %r9d,%r10d
  401b2f:	66 41 89 b8 c2 00 00 	mov    %di,0xc2(%r8)
  401b36:	00 
  401b37:	83 e7 f0             	and    $0xfffffff0,%edi
  401b3a:	66 c1 c0 08          	rol    $0x8,%ax
  401b3e:	41 83 e2 0f          	and    $0xf,%r10d
  401b42:	0f b7 c0             	movzwl %ax,%eax
  401b45:	41 0b fa             	or     %r10d,%edi
  401b48:	66 41 89 88 c6 00 00 	mov    %cx,0xc6(%r8)
  401b4f:	00 
  401b50:	83 e1 f0             	and    $0xfffffff0,%ecx
  401b53:	41 83 e3 0f          	and    $0xf,%r11d
  401b57:	45 33 ce             	xor    %r14d,%r9d
  401b5a:	66 41 89 90 c4 00 00 	mov    %dx,0xc4(%r8)
  401b61:	00 
  401b62:	33 f8                	xor    %eax,%edi
  401b64:	41 0b cb             	or     %r11d,%ecx
  401b67:	83 e2 f0             	and    $0xfffffff0,%edx
  401b6a:	33 3d d0 15 21 00    	xor    0x2115d0(%rip),%edi        # 613140 <RC+0x60>
  401b70:	41 83 e1 0f          	and    $0xf,%r9d
  401b74:	66 41 89 88 cc 00 00 	mov    %cx,0xcc(%r8)
  401b7b:	00 
  401b7c:	41 0b d1             	or     %r9d,%edx
  401b7f:	66 c1 c1 0c          	rol    $0xc,%cx
  401b83:	66 41 89 90 ca 00 00 	mov    %dx,0xca(%r8)
  401b8a:	00 
  401b8b:	0f b7 d1             	movzwl %cx,%edx
  401b8e:	33 f2                	xor    %edx,%esi
  401b90:	66 41 89 b8 c8 00 00 	mov    %di,0xc8(%r8)
  401b97:	00 
  401b98:	66 41 89 b0 ce 00 00 	mov    %si,0xce(%r8)
  401b9f:	00 
  401ba0:	41 5e                	pop    %r14
  401ba2:	41 5d                	pop    %r13
  401ba4:	c3                   	retq   
  401ba5:	0f 1f 40 00          	nopl   0x0(%rax)
  401ba9:	0f 1f 80 00 00 00 00 	nopl   0x0(%rax)

0000000000401bb0 <crypto_stream_ecb>:
  401bb0:	55                   	push   %rbp
  401bb1:	48 89 e5             	mov    %rsp,%rbp
  401bb4:	48 83 e4 e0          	and    $0xffffffffffffffe0,%rsp
  401bb8:	48 81 ec 20 d0 00 00 	sub    $0xd020,%rsp
  401bbf:	48 85 d2             	test   %rdx,%rdx
  401bc2:	76 5f                	jbe    401c23 <crypto_stream_ecb+0x73>
  401bc4:	4c 89 a4 24 10 d0 00 	mov    %r12,0xd010(%rsp)
  401bcb:	00 
  401bcc:	49 89 fc             	mov    %rdi,%r12
  401bcf:	4c 89 ac 24 08 d0 00 	mov    %r13,0xd008(%rsp)
  401bd6:	00 
  401bd7:	49 89 f5             	mov    %rsi,%r13
  401bda:	4c 89 b4 24 00 d0 00 	mov    %r14,0xd000(%rsp)
  401be1:	00 
  401be2:	49 89 d6             	mov    %rdx,%r14
  401be5:	4c 89 ef             	mov    %r13,%rdi
  401be8:	48 8d 34 24          	lea    (%rsp),%rsi
  401bec:	4c 89 e2             	mov    %r12,%rdx
  401bef:	e8 8c 00 00 00       	callq  401c80 <Rectangle__>
  401bf4:	49 81 c4 00 08 00 00 	add    $0x800,%r12
  401bfb:	49 81 c5 00 08 00 00 	add    $0x800,%r13
  401c02:	49 81 c6 00 f8 ff ff 	add    $0xfffffffffffff800,%r14
  401c09:	75 da                	jne    401be5 <crypto_stream_ecb+0x35>
  401c0b:	4c 8b a4 24 10 d0 00 	mov    0xd010(%rsp),%r12
  401c12:	00 
  401c13:	4c 8b ac 24 08 d0 00 	mov    0xd008(%rsp),%r13
  401c1a:	00 
  401c1b:	4c 8b b4 24 00 d0 00 	mov    0xd000(%rsp),%r14
  401c22:	00 
  401c23:	33 c0                	xor    %eax,%eax
  401c25:	48 89 ec             	mov    %rbp,%rsp
  401c28:	5d                   	pop    %rbp
  401c29:	c3                   	retq   
  401c2a:	66 0f 1f 44 00 00    	nopw   0x0(%rax,%rax,1)

0000000000401c30 <SubColumn_single__>:
  401c30:	c5 dd 76 e4          	vpcmpeqd %ymm4,%ymm4,%ymm4
  401c34:	c5 dd ef f1          	vpxor  %ymm1,%ymm4,%ymm6
  401c38:	c5 6d ef e3          	vpxor  %ymm3,%ymm2,%ymm12
  401c3c:	c5 75 ef f2          	vpxor  %ymm2,%ymm1,%ymm14
  401c40:	c5 fd db ee          	vpand  %ymm6,%ymm0,%ymm5
  401c44:	c5 e5 eb fe          	vpor   %ymm6,%ymm3,%ymm7
  401c48:	c4 41 55 ef cc       	vpxor  %ymm12,%ymm5,%ymm9
  401c4d:	c5 7d ef ef          	vpxor  %ymm7,%ymm0,%ymm13
  401c51:	c4 41 35 eb d6       	vpor   %ymm14,%ymm9,%ymm10
  401c56:	c4 41 1d db fd       	vpand  %ymm13,%ymm12,%ymm15
  401c5b:	c4 41 6d ef c5       	vpxor  %ymm13,%ymm2,%ymm8
  401c60:	c5 7e 7f 0f          	vmovdqu %ymm9,(%rdi)
  401c64:	c4 41 15 ef da       	vpxor  %ymm10,%ymm13,%ymm11
  401c69:	c4 c1 0d ef c7       	vpxor  %ymm15,%ymm14,%ymm0
  401c6e:	c5 7e 7f 06          	vmovdqu %ymm8,(%rsi)
  401c72:	c5 7e 7f 1a          	vmovdqu %ymm11,(%rdx)
  401c76:	c5 fe 7f 01          	vmovdqu %ymm0,(%rcx)
  401c7a:	c5 f8 77             	vzeroupper 
  401c7d:	c3                   	retq   
  401c7e:	66 90                	xchg   %ax,%ax

0000000000401c80 <Rectangle__>:
  401c80:	55                   	push   %rbp
  401c81:	48 89 e5             	mov    %rsp,%rbp
  401c84:	48 83 e4 e0          	and    $0xffffffffffffffe0,%rsp
  401c88:	48 81 ec 80 0f 00 00 	sub    $0xf80,%rsp
  401c8f:	c5 fe 6f 07          	vmovdqu (%rdi),%ymm0
  401c93:	c5 7e 6f b7 00 02 00 	vmovdqu 0x200(%rdi),%ymm14
  401c9a:	00 
  401c9b:	c5 7d ef 06          	vpxor  (%rsi),%ymm0,%ymm8
  401c9f:	c5 8d ef b6 00 02 00 	vpxor  0x200(%rsi),%ymm14,%ymm6
  401ca6:	00 
  401ca7:	c5 fe 6f 87 00 04 00 	vmovdqu 0x400(%rdi),%ymm0
  401cae:	00 
  401caf:	c5 7e 6f b7 00 06 00 	vmovdqu 0x600(%rdi),%ymm14
  401cb6:	00 
  401cb7:	c5 fd ef be 00 04 00 	vpxor  0x400(%rsi),%ymm0,%ymm7
  401cbe:	00 
  401cbf:	c5 8d ef a6 00 06 00 	vpxor  0x600(%rsi),%ymm14,%ymm4
  401cc6:	00 
  401cc7:	c5 fd 76 c0          	vpcmpeqd %ymm0,%ymm0,%ymm0
  401ccb:	c5 fd ef ce          	vpxor  %ymm6,%ymm0,%ymm1
  401ccf:	c5 c5 ef d4          	vpxor  %ymm4,%ymm7,%ymm2
  401cd3:	c5 cd ef f7          	vpxor  %ymm7,%ymm6,%ymm6
  401cd7:	c5 bd db d9          	vpand  %ymm1,%ymm8,%ymm3
  401cdb:	c5 dd eb e9          	vpor   %ymm1,%ymm4,%ymm5
  401cdf:	c5 fe 6f a7 20 02 00 	vmovdqu 0x220(%rdi),%ymm4
  401ce6:	00 
  401ce7:	c5 fe 6f 8f 20 04 00 	vmovdqu 0x420(%rdi),%ymm1
  401cee:	00 
  401cef:	c5 65 ef e2          	vpxor  %ymm2,%ymm3,%ymm12
  401cf3:	c5 bd ef dd          	vpxor  %ymm5,%ymm8,%ymm3
  401cf7:	c5 dd ef ae 20 02 00 	vpxor  0x220(%rsi),%ymm4,%ymm5
  401cfe:	00 
  401cff:	c5 7e 6f 87 20 06 00 	vmovdqu 0x620(%rdi),%ymm8
  401d06:	00 
  401d07:	c5 1d eb ee          	vpor   %ymm6,%ymm12,%ymm13
  401d0b:	c5 45 ef d3          	vpxor  %ymm3,%ymm7,%ymm10
  401d0f:	c5 ed db d3          	vpand  %ymm3,%ymm2,%ymm2
  401d13:	c5 1d ef 8e 00 08 00 	vpxor  0x800(%rsi),%ymm12,%ymm9
  401d1a:	00 
  401d1b:	c4 41 65 ef fd       	vpxor  %ymm13,%ymm3,%ymm15
  401d20:	c5 2d ef 9e e0 0b 00 	vpxor  0xbe0(%rsi),%ymm10,%ymm11
  401d27:	00 
  401d28:	c5 cd ef f2          	vpxor  %ymm2,%ymm6,%ymm6
  401d2c:	c5 bd ef be 20 06 00 	vpxor  0x620(%rsi),%ymm8,%ymm7
  401d33:	00 
  401d34:	c5 05 ef b6 80 0c 00 	vpxor  0xc80(%rsi),%ymm15,%ymm14
  401d3b:	00 
  401d3c:	c5 75 ef be 20 04 00 	vpxor  0x420(%rsi),%ymm1,%ymm15
  401d43:	00 
  401d44:	c5 7d ef d5          	vpxor  %ymm5,%ymm0,%ymm10
  401d48:	c5 cd ef 96 60 0e 00 	vpxor  0xe60(%rsi),%ymm6,%ymm2
  401d4f:	00 
  401d50:	c5 fe 6f 5f 20       	vmovdqu 0x20(%rdi),%ymm3
  401d55:	c5 7e 7f 5c 24 40    	vmovdqu %ymm11,0x40(%rsp)
  401d5b:	c5 7e 7f 8c 24 c0 04 	vmovdqu %ymm9,0x4c0(%rsp)
  401d62:	00 00 
  401d64:	c5 fe 7f 94 24 c0 01 	vmovdqu %ymm2,0x1c0(%rsp)
  401d6b:	00 00 
  401d6d:	c5 65 ef 5e 20       	vpxor  0x20(%rsi),%ymm3,%ymm11
  401d72:	c5 85 ef cf          	vpxor  %ymm7,%ymm15,%ymm1
  401d76:	c4 41 45 eb e2       	vpor   %ymm10,%ymm7,%ymm12
  401d7b:	c4 c1 55 ef df       	vpxor  %ymm15,%ymm5,%ymm3
  401d80:	c4 41 25 db ca       	vpand  %ymm10,%ymm11,%ymm9
  401d85:	c5 7e 6f 97 40 02 00 	vmovdqu 0x240(%rdi),%ymm10
  401d8c:	00 
  401d8d:	c5 fe 6f 7f 40       	vmovdqu 0x40(%rdi),%ymm7
  401d92:	c5 b5 ef d1          	vpxor  %ymm1,%ymm9,%ymm2
  401d96:	c4 c1 25 ef ec       	vpxor  %ymm12,%ymm11,%ymm5
  401d9b:	c5 7e 6f a7 40 06 00 	vmovdqu 0x640(%rdi),%ymm12
  401da2:	00 
  401da3:	c5 7e 6f 9f 40 04 00 	vmovdqu 0x440(%rdi),%ymm11
  401daa:	00 
  401dab:	c5 6d ef ae 20 08 00 	vpxor  0x820(%rsi),%ymm2,%ymm13
  401db2:	00 
  401db3:	c5 f5 db cd          	vpand  %ymm5,%ymm1,%ymm1
  401db7:	c5 ed eb e3          	vpor   %ymm3,%ymm2,%ymm4
  401dbb:	c5 85 ef f5          	vpxor  %ymm5,%ymm15,%ymm6
  401dbf:	c5 1d ef be 40 06 00 	vpxor  0x640(%rsi),%ymm12,%ymm15
  401dc6:	00 
  401dc7:	c5 e5 ef d9          	vpxor  %ymm1,%ymm3,%ymm3
  401dcb:	c5 55 ef c4          	vpxor  %ymm4,%ymm5,%ymm8
  401dcf:	c5 c5 ef 66 40       	vpxor  0x40(%rsi),%ymm7,%ymm4
  401dd4:	c5 cd ef b6 00 0a 00 	vpxor  0xa00(%rsi),%ymm6,%ymm6
  401ddb:	00 
  401ddc:	c5 65 ef 8e 80 0e 00 	vpxor  0xe80(%rsi),%ymm3,%ymm9
  401de3:	00 
  401de4:	c5 a5 ef 9e 40 04 00 	vpxor  0x440(%rsi),%ymm11,%ymm3
  401deb:	00 
  401dec:	c5 bd ef 96 a0 0c 00 	vpxor  0xca0(%rsi),%ymm8,%ymm2
  401df3:	00 
  401df4:	c5 7e 7f ac 24 80 04 	vmovdqu %ymm13,0x480(%rsp)
  401dfb:	00 00 
  401dfd:	c5 7e 7f 8c 24 00 01 	vmovdqu %ymm9,0x100(%rsp)
  401e04:	00 00 
  401e06:	c5 2d ef ae 40 02 00 	vpxor  0x240(%rsi),%ymm10,%ymm13
  401e0d:	00 
  401e0e:	c4 c1 65 ef ff       	vpxor  %ymm15,%ymm3,%ymm7
  401e13:	c4 c1 7d ef cd       	vpxor  %ymm13,%ymm0,%ymm1
  401e18:	c5 15 ef cb          	vpxor  %ymm3,%ymm13,%ymm9
  401e1c:	c5 85 eb e9          	vpor   %ymm1,%ymm15,%ymm5
  401e20:	c5 5d db c1          	vpand  %ymm1,%ymm4,%ymm8
  401e24:	c5 fe 6f 4f 60       	vmovdqu 0x60(%rdi),%ymm1
  401e29:	c5 5d ef fd          	vpxor  %ymm5,%ymm4,%ymm15
  401e2d:	c5 3d ef df          	vpxor  %ymm7,%ymm8,%ymm11
  401e31:	c5 7e 6f 87 60 02 00 	vmovdqu 0x260(%rdi),%ymm8
  401e38:	00 
  401e39:	c4 c1 65 ef df       	vpxor  %ymm15,%ymm3,%ymm3
  401e3e:	c4 c1 45 db ff       	vpand  %ymm15,%ymm7,%ymm7
  401e43:	c5 a5 ef a6 40 08 00 	vpxor  0x840(%rsi),%ymm11,%ymm4
  401e4a:	00 
  401e4b:	c4 41 25 eb e1       	vpor   %ymm9,%ymm11,%ymm12
  401e50:	c5 65 ef 96 20 0a 00 	vpxor  0xa20(%rsi),%ymm3,%ymm10
  401e57:	00 
  401e58:	c5 35 ef cf          	vpxor  %ymm7,%ymm9,%ymm9
  401e5c:	c5 f5 ef 6e 60       	vpxor  0x60(%rsi),%ymm1,%ymm5
  401e61:	c4 41 05 ef ec       	vpxor  %ymm12,%ymm15,%ymm13
  401e66:	c5 fe 6f bf 60 06 00 	vmovdqu 0x660(%rdi),%ymm7
  401e6d:	00 
  401e6e:	c5 7e 7f 94 24 a0 04 	vmovdqu %ymm10,0x4a0(%rsp)
  401e75:	00 00 
  401e77:	c5 fe 7f a4 24 40 03 	vmovdqu %ymm4,0x340(%rsp)
  401e7e:	00 00 
  401e80:	c5 3d ef 96 60 02 00 	vpxor  0x260(%rsi),%ymm8,%ymm10
  401e87:	00 
  401e88:	c5 b5 ef a6 a0 0e 00 	vpxor  0xea0(%rsi),%ymm9,%ymm4
  401e8f:	00 
  401e90:	c5 45 ef 9e 60 06 00 	vpxor  0x660(%rsi),%ymm7,%ymm11
  401e97:	00 
  401e98:	c5 95 ef 9e c0 0c 00 	vpxor  0xcc0(%rsi),%ymm13,%ymm3
  401e9f:	00 
  401ea0:	c4 41 7d ef e2       	vpxor  %ymm10,%ymm0,%ymm12
  401ea5:	c5 7e 6f 8f 60 04 00 	vmovdqu 0x460(%rdi),%ymm9
  401eac:	00 
  401ead:	c5 fe 7f 24 24       	vmovdqu %ymm4,(%rsp)
  401eb2:	c4 41 25 eb ec       	vpor   %ymm12,%ymm11,%ymm13
  401eb7:	c4 41 55 db fc       	vpand  %ymm12,%ymm5,%ymm15
  401ebc:	c5 b5 ef a6 60 04 00 	vpxor  0x460(%rsi),%ymm9,%ymm4
  401ec3:	00 
  401ec4:	c4 41 55 ef cd       	vpxor  %ymm13,%ymm5,%ymm9
  401ec9:	c5 7e 6f af 80 00 00 	vmovdqu 0x80(%rdi),%ymm13
  401ed0:	00 
  401ed1:	c4 c1 5d ef cb       	vpxor  %ymm11,%ymm4,%ymm1
  401ed6:	c4 c1 5d ef e9       	vpxor  %ymm9,%ymm4,%ymm5
  401edb:	c5 2d ef c4          	vpxor  %ymm4,%ymm10,%ymm8
  401edf:	c5 85 ef f9          	vpxor  %ymm1,%ymm15,%ymm7
  401ee3:	c4 c1 75 db c9       	vpand  %ymm9,%ymm1,%ymm1
  401ee8:	c5 d5 ef a6 40 0a 00 	vpxor  0xa40(%rsi),%ymm5,%ymm4
  401eef:	00 
  401ef0:	c5 7e 6f bf 80 02 00 	vmovdqu 0x280(%rdi),%ymm15
  401ef7:	00 
  401ef8:	c5 c5 ef ae 60 08 00 	vpxor  0x860(%rsi),%ymm7,%ymm5
  401eff:	00 
  401f00:	c5 3d ef d9          	vpxor  %ymm1,%ymm8,%ymm11
  401f04:	c4 41 45 eb c0       	vpor   %ymm8,%ymm7,%ymm8
  401f09:	c5 95 ef 8e 80 00 00 	vpxor  0x80(%rsi),%ymm13,%ymm1
  401f10:	00 
  401f11:	c5 fe 7f ac 24 80 01 	vmovdqu %ymm5,0x180(%rsp)
  401f18:	00 00 
  401f1a:	c5 fe 6f af 80 06 00 	vmovdqu 0x680(%rdi),%ymm5
  401f21:	00 
  401f22:	c5 fe 7f a4 24 60 04 	vmovdqu %ymm4,0x460(%rsp)
  401f29:	00 00 
  401f2b:	c4 41 35 ef d0       	vpxor  %ymm8,%ymm9,%ymm10
  401f30:	c5 05 ef 8e 80 02 00 	vpxor  0x280(%rsi),%ymm15,%ymm9
  401f37:	00 
  401f38:	c5 25 ef a6 c0 0e 00 	vpxor  0xec0(%rsi),%ymm11,%ymm12
  401f3f:	00 
  401f40:	c5 7e 6f 87 80 04 00 	vmovdqu 0x480(%rdi),%ymm8
  401f47:	00 
  401f48:	c5 ad ef a6 e0 0c 00 	vpxor  0xce0(%rsi),%ymm10,%ymm4
  401f4f:	00 
  401f50:	c5 55 ef 96 80 06 00 	vpxor  0x680(%rsi),%ymm5,%ymm10
  401f57:	00 
  401f58:	c4 41 7d ef d9       	vpxor  %ymm9,%ymm0,%ymm11
  401f5d:	c5 bd ef be 80 04 00 	vpxor  0x480(%rsi),%ymm8,%ymm7
  401f64:	00 
  401f65:	c5 7e 7f 64 24 20    	vmovdqu %ymm12,0x20(%rsp)
  401f6b:	c4 41 2d eb e3       	vpor   %ymm11,%ymm10,%ymm12
  401f70:	c4 c1 45 ef ea       	vpxor  %ymm10,%ymm7,%ymm5
  401f75:	c4 41 75 db eb       	vpand  %ymm11,%ymm1,%ymm13
  401f7a:	c5 35 ef cf          	vpxor  %ymm7,%ymm9,%ymm9
  401f7e:	c4 c1 75 ef cc       	vpxor  %ymm12,%ymm1,%ymm1
  401f83:	c5 7e 6f 9f a0 02 00 	vmovdqu 0x2a0(%rdi),%ymm11
  401f8a:	00 
  401f8b:	c5 7e 6f 97 a0 00 00 	vmovdqu 0xa0(%rdi),%ymm10
  401f92:	00 
  401f93:	c5 7e 6f a7 a0 04 00 	vmovdqu 0x4a0(%rdi),%ymm12
  401f9a:	00 
  401f9b:	c5 15 ef c5          	vpxor  %ymm5,%ymm13,%ymm8
  401f9f:	c5 c5 ef f9          	vpxor  %ymm1,%ymm7,%ymm7
  401fa3:	c5 d5 db e9          	vpand  %ymm1,%ymm5,%ymm5
  401fa7:	c5 2d ef 96 a0 00 00 	vpxor  0xa0(%rsi),%ymm10,%ymm10
  401fae:	00 
  401faf:	c5 7e 6f af a0 06 00 	vmovdqu 0x6a0(%rdi),%ymm13
  401fb6:	00 
  401fb7:	c5 45 ef be 60 0a 00 	vpxor  0xa60(%rsi),%ymm7,%ymm15
  401fbe:	00 
  401fbf:	c5 b5 ef fd          	vpxor  %ymm5,%ymm9,%ymm7
  401fc3:	c4 41 3d eb c9       	vpor   %ymm9,%ymm8,%ymm9
  401fc8:	c5 7e 7f bc 24 60 02 	vmovdqu %ymm15,0x260(%rsp)
  401fcf:	00 00 
  401fd1:	c4 c1 75 ef e9       	vpxor  %ymm9,%ymm1,%ymm5
  401fd6:	c5 bd ef 8e 80 08 00 	vpxor  0x880(%rsi),%ymm8,%ymm1
  401fdd:	00 
  401fde:	c5 45 ef 86 e0 0e 00 	vpxor  0xee0(%rsi),%ymm7,%ymm8
  401fe5:	00 
  401fe6:	c5 25 ef be a0 02 00 	vpxor  0x2a0(%rsi),%ymm11,%ymm15
  401fed:	00 
  401fee:	c5 1d ef 9e a0 04 00 	vpxor  0x4a0(%rsi),%ymm12,%ymm11
  401ff5:	00 
  401ff6:	c5 fe 7f 8c 24 60 01 	vmovdqu %ymm1,0x160(%rsp)
  401ffd:	00 00 
  401fff:	c5 7e 7f 44 24 60    	vmovdqu %ymm8,0x60(%rsp)
  402005:	c5 d5 ef 8e 00 0d 00 	vpxor  0xd00(%rsi),%ymm5,%ymm1
  40200c:	00 
  40200d:	c5 15 ef 86 a0 06 00 	vpxor  0x6a0(%rsi),%ymm13,%ymm8
  402014:	00 
  402015:	c4 c1 7d ef ef       	vpxor  %ymm15,%ymm0,%ymm5
  40201a:	c4 c1 05 ef fb       	vpxor  %ymm11,%ymm15,%ymm7
  40201f:	c4 41 25 ef c8       	vpxor  %ymm8,%ymm11,%ymm9
  402024:	c5 3d eb e5          	vpor   %ymm5,%ymm8,%ymm12
  402028:	c5 2d db ed          	vpand  %ymm5,%ymm10,%ymm13
  40202c:	c4 c1 2d ef ec       	vpxor  %ymm12,%ymm10,%ymm5
  402031:	c4 41 15 ef c1       	vpxor  %ymm9,%ymm13,%ymm8
  402036:	c5 7e 6f a7 c0 04 00 	vmovdqu 0x4c0(%rdi),%ymm12
  40203d:	00 
  40203e:	c5 35 db cd          	vpand  %ymm5,%ymm9,%ymm9
  402042:	c5 25 ef d5          	vpxor  %ymm5,%ymm11,%ymm10
  402046:	c5 3d ef be a0 08 00 	vpxor  0x8a0(%rsi),%ymm8,%ymm15
  40204d:	00 
  40204e:	c4 41 45 ef c9       	vpxor  %ymm9,%ymm7,%ymm9
  402053:	c5 bd eb ff          	vpor   %ymm7,%ymm8,%ymm7
  402057:	c5 2d ef 9e 80 0a 00 	vpxor  0xa80(%rsi),%ymm10,%ymm11
  40205e:	00 
  40205f:	c5 7e 6f 97 c0 00 00 	vmovdqu 0xc0(%rdi),%ymm10
  402066:	00 
  402067:	c5 7e 7f bc 24 a0 01 	vmovdqu %ymm15,0x1a0(%rsp)
  40206e:	00 00 
  402070:	c5 d5 ef ef          	vpxor  %ymm7,%ymm5,%ymm5
  402074:	c5 b5 ef be 00 0f 00 	vpxor  0xf00(%rsi),%ymm9,%ymm7
  40207b:	00 
  40207c:	c5 2d ef ae c0 00 00 	vpxor  0xc0(%rsi),%ymm10,%ymm13
  402083:	00 
  402084:	c5 1d ef be c0 04 00 	vpxor  0x4c0(%rsi),%ymm12,%ymm15
  40208b:	00 
  40208c:	c5 55 ef 86 20 0d 00 	vpxor  0xd20(%rsi),%ymm5,%ymm8
  402093:	00 
  402094:	c5 7e 7f 9c 24 20 02 	vmovdqu %ymm11,0x220(%rsp)
  40209b:	00 00 
  40209d:	c5 7e 6f 9f c0 02 00 	vmovdqu 0x2c0(%rdi),%ymm11
  4020a4:	00 
  4020a5:	c5 fe 7f bc 24 80 00 	vmovdqu %ymm7,0x80(%rsp)
  4020ac:	00 00 
  4020ae:	c5 7e 7f 84 24 40 04 	vmovdqu %ymm8,0x440(%rsp)
  4020b5:	00 00 
  4020b7:	c5 7e 6f 87 c0 06 00 	vmovdqu 0x6c0(%rdi),%ymm8
  4020be:	00 
  4020bf:	c5 a5 ef ae c0 02 00 	vpxor  0x2c0(%rsi),%ymm11,%ymm5
  4020c6:	00 
  4020c7:	c5 3d ef 8e c0 06 00 	vpxor  0x6c0(%rsi),%ymm8,%ymm9
  4020ce:	00 
  4020cf:	c5 fd ef fd          	vpxor  %ymm5,%ymm0,%ymm7
  4020d3:	c4 41 55 ef e7       	vpxor  %ymm15,%ymm5,%ymm12
  4020d8:	c4 41 05 ef d9       	vpxor  %ymm9,%ymm15,%ymm11
  4020dd:	c5 35 eb d7          	vpor   %ymm7,%ymm9,%ymm10
  4020e1:	c5 15 db c7          	vpand  %ymm7,%ymm13,%ymm8
  4020e5:	c4 41 15 ef d2       	vpxor  %ymm10,%ymm13,%ymm10
  4020ea:	c4 c1 3d ef fb       	vpxor  %ymm11,%ymm8,%ymm7
  4020ef:	c4 41 05 ef ea       	vpxor  %ymm10,%ymm15,%ymm13
  4020f4:	c4 c1 45 eb ec       	vpor   %ymm12,%ymm7,%ymm5
  4020f9:	c4 41 25 db c2       	vpand  %ymm10,%ymm11,%ymm8
  4020fe:	c5 45 ef 8e c0 08 00 	vpxor  0x8c0(%rsi),%ymm7,%ymm9
  402105:	00 
  402106:	c5 15 ef be a0 0a 00 	vpxor  0xaa0(%rsi),%ymm13,%ymm15
  40210d:	00 
  40210e:	c5 2d ef d5          	vpxor  %ymm5,%ymm10,%ymm10
  402112:	c4 41 1d ef d8       	vpxor  %ymm8,%ymm12,%ymm11
  402117:	c5 7e 6f af e0 00 00 	vmovdqu 0xe0(%rdi),%ymm13
  40211e:	00 
  40211f:	c5 7e 7f bc 24 80 02 	vmovdqu %ymm15,0x280(%rsp)
  402126:	00 00 
  402128:	c5 7e 6f bf e0 02 00 	vmovdqu 0x2e0(%rdi),%ymm15
  40212f:	00 
  402130:	c5 7e 6f 87 e0 04 00 	vmovdqu 0x4e0(%rdi),%ymm8
  402137:	00 
  402138:	c5 7e 7f 8c 24 e0 01 	vmovdqu %ymm9,0x1e0(%rsp)
  40213f:	00 00 
  402141:	c5 ad ef be 40 0d 00 	vpxor  0xd40(%rsi),%ymm10,%ymm7
  402148:	00 
  402149:	c5 25 ef a6 20 0f 00 	vpxor  0xf20(%rsi),%ymm11,%ymm12
  402150:	00 
  402151:	c5 05 ef 96 e0 02 00 	vpxor  0x2e0(%rsi),%ymm15,%ymm10
  402158:	00 
  402159:	c5 95 ef ae e0 00 00 	vpxor  0xe0(%rsi),%ymm13,%ymm5
  402160:	00 
  402161:	c5 3d ef 8e e0 04 00 	vpxor  0x4e0(%rsi),%ymm8,%ymm9
  402168:	00 
  402169:	c5 fe 7f bc 24 80 03 	vmovdqu %ymm7,0x380(%rsp)
  402170:	00 00 
  402172:	c5 fe 6f bf e0 06 00 	vmovdqu 0x6e0(%rdi),%ymm7
  402179:	00 
  40217a:	c5 7e 7f a4 24 a0 00 	vmovdqu %ymm12,0xa0(%rsp)
  402181:	00 00 
  402183:	c4 41 7d ef e2       	vpxor  %ymm10,%ymm0,%ymm12
  402188:	c4 41 2d ef c1       	vpxor  %ymm9,%ymm10,%ymm8
  40218d:	c5 45 ef 9e e0 06 00 	vpxor  0x6e0(%rsi),%ymm7,%ymm11
  402194:	00 
  402195:	c4 c1 55 db fc       	vpand  %ymm12,%ymm5,%ymm7
  40219a:	c4 41 25 eb ec       	vpor   %ymm12,%ymm11,%ymm13
  40219f:	c4 41 35 ef fb       	vpxor  %ymm11,%ymm9,%ymm15
  4021a4:	c4 41 55 ef ed       	vpxor  %ymm13,%ymm5,%ymm13
  4021a9:	c4 41 45 ef e7       	vpxor  %ymm15,%ymm7,%ymm12
  4021ae:	c4 c1 35 ef ed       	vpxor  %ymm13,%ymm9,%ymm5
  4021b3:	c4 41 05 db fd       	vpand  %ymm13,%ymm15,%ymm15
  4021b8:	c5 55 ef 8e c0 0a 00 	vpxor  0xac0(%rsi),%ymm5,%ymm9
  4021bf:	00 
  4021c0:	c4 41 3d ef d7       	vpxor  %ymm15,%ymm8,%ymm10
  4021c5:	c4 41 1d eb c0       	vpor   %ymm8,%ymm12,%ymm8
  4021ca:	c5 9d ef ae e0 08 00 	vpxor  0x8e0(%rsi),%ymm12,%ymm5
  4021d1:	00 
  4021d2:	c5 7e 7f 8c 24 c0 02 	vmovdqu %ymm9,0x2c0(%rsp)
  4021d9:	00 00 
  4021db:	c5 7e 6f a7 00 01 00 	vmovdqu 0x100(%rdi),%ymm12
  4021e2:	00 
  4021e3:	c5 7e 6f bf 00 05 00 	vmovdqu 0x500(%rdi),%ymm15
  4021ea:	00 
  4021eb:	c5 fe 7f ac 24 00 02 	vmovdqu %ymm5,0x200(%rsp)
  4021f2:	00 00 
  4021f4:	c4 41 15 ef c8       	vpxor  %ymm8,%ymm13,%ymm9
  4021f9:	c5 2d ef 9e 40 0f 00 	vpxor  0xf40(%rsi),%ymm10,%ymm11
  402200:	00 
  402201:	c5 1d ef 96 00 01 00 	vpxor  0x100(%rsi),%ymm12,%ymm10
  402208:	00 
  402209:	c5 7e 6f af 00 03 00 	vmovdqu 0x300(%rdi),%ymm13
  402210:	00 
  402211:	c5 7e 6f 87 00 07 00 	vmovdqu 0x700(%rdi),%ymm8
  402218:	00 
  402219:	c5 7e 7f 9c 24 c0 00 	vmovdqu %ymm11,0xc0(%rsp)
  402220:	00 00 
  402222:	c5 b5 ef be 60 0d 00 	vpxor  0xd60(%rsi),%ymm9,%ymm7
  402229:	00 
  40222a:	c5 95 ef ae 00 03 00 	vpxor  0x300(%rsi),%ymm13,%ymm5
  402231:	00 
  402232:	c5 3d ef a6 00 07 00 	vpxor  0x700(%rsi),%ymm8,%ymm12
  402239:	00 
  40223a:	c5 05 ef 9e 00 05 00 	vpxor  0x500(%rsi),%ymm15,%ymm11
  402241:	00 
  402242:	c5 fe 7f bc 24 c0 03 	vmovdqu %ymm7,0x3c0(%rsp)
  402249:	00 00 
  40224b:	c5 7d ef ed          	vpxor  %ymm5,%ymm0,%ymm13
  40224f:	c4 c1 55 ef fb       	vpxor  %ymm11,%ymm5,%ymm7
  402254:	c4 41 25 ef cc       	vpxor  %ymm12,%ymm11,%ymm9
  402259:	c4 41 1d eb fd       	vpor   %ymm13,%ymm12,%ymm15
  40225e:	c4 41 2d db c5       	vpand  %ymm13,%ymm10,%ymm8
  402263:	c5 7e 6f a7 20 03 00 	vmovdqu 0x320(%rdi),%ymm12
  40226a:	00 
  40226b:	c4 c1 2d ef ef       	vpxor  %ymm15,%ymm10,%ymm5
  402270:	c4 41 3d ef c1       	vpxor  %ymm9,%ymm8,%ymm8
  402275:	c5 7e 6f bf 20 05 00 	vmovdqu 0x520(%rdi),%ymm15
  40227c:	00 
  40227d:	c5 25 ef d5          	vpxor  %ymm5,%ymm11,%ymm10
  402281:	c5 35 db cd          	vpand  %ymm5,%ymm9,%ymm9
  402285:	c5 05 ef be 20 05 00 	vpxor  0x520(%rsi),%ymm15,%ymm15
  40228c:	00 
  40228d:	c5 2d ef 9e e0 0a 00 	vpxor  0xae0(%rsi),%ymm10,%ymm11
  402294:	00 
  402295:	c4 41 45 ef d1       	vpxor  %ymm9,%ymm7,%ymm10
  40229a:	c5 bd eb ff          	vpor   %ymm7,%ymm8,%ymm7
  40229e:	c5 3d ef 86 00 09 00 	vpxor  0x900(%rsi),%ymm8,%ymm8
  4022a5:	00 
  4022a6:	c5 7e 7f 9c 24 00 03 	vmovdqu %ymm11,0x300(%rsp)
  4022ad:	00 00 
  4022af:	c5 7e 6f 9f 20 01 00 	vmovdqu 0x120(%rdi),%ymm11
  4022b6:	00 
  4022b7:	c5 d5 ef ef          	vpxor  %ymm7,%ymm5,%ymm5
  4022bb:	c5 ad ef be 60 0f 00 	vpxor  0xf60(%rsi),%ymm10,%ymm7
  4022c2:	00 
  4022c3:	c5 7e 7f 84 24 40 02 	vmovdqu %ymm8,0x240(%rsp)
  4022ca:	00 00 
  4022cc:	c5 7e 6f 87 20 07 00 	vmovdqu 0x720(%rdi),%ymm8
  4022d3:	00 
  4022d4:	c5 55 ef 8e 80 0d 00 	vpxor  0xd80(%rsi),%ymm5,%ymm9
  4022db:	00 
  4022dc:	c5 9d ef ae 20 03 00 	vpxor  0x320(%rsi),%ymm12,%ymm5
  4022e3:	00 
  4022e4:	c5 25 ef ae 20 01 00 	vpxor  0x120(%rsi),%ymm11,%ymm13
  4022eb:	00 
  4022ec:	c5 fe 7f bc 24 e0 00 	vmovdqu %ymm7,0xe0(%rsp)
  4022f3:	00 00 
  4022f5:	c5 7e 7f 8c 24 00 04 	vmovdqu %ymm9,0x400(%rsp)
  4022fc:	00 00 
  4022fe:	c5 3d ef 8e 20 07 00 	vpxor  0x720(%rsi),%ymm8,%ymm9
  402305:	00 
  402306:	c5 fd ef fd          	vpxor  %ymm5,%ymm0,%ymm7
  40230a:	c4 41 55 ef e7       	vpxor  %ymm15,%ymm5,%ymm12
  40230f:	c4 41 05 ef d9       	vpxor  %ymm9,%ymm15,%ymm11
  402314:	c5 35 eb d7          	vpor   %ymm7,%ymm9,%ymm10
  402318:	c5 15 db c7          	vpand  %ymm7,%ymm13,%ymm8
  40231c:	c4 41 15 ef d2       	vpxor  %ymm10,%ymm13,%ymm10
  402321:	c4 c1 3d ef fb       	vpxor  %ymm11,%ymm8,%ymm7
  402326:	c4 41 05 ef ea       	vpxor  %ymm10,%ymm15,%ymm13
  40232b:	c4 41 45 eb cc       	vpor   %ymm12,%ymm7,%ymm9
  402330:	c4 c1 25 db ea       	vpand  %ymm10,%ymm11,%ymm5
  402335:	c5 c5 ef be 20 09 00 	vpxor  0x920(%rsi),%ymm7,%ymm7
  40233c:	00 
  40233d:	c5 15 ef 86 00 0b 00 	vpxor  0xb00(%rsi),%ymm13,%ymm8
  402344:	00 
  402345:	c4 41 2d ef d1       	vpxor  %ymm9,%ymm10,%ymm10
  40234a:	c5 1d ef ed          	vpxor  %ymm5,%ymm12,%ymm13
  40234e:	c5 fe 7f bc 24 a0 02 	vmovdqu %ymm7,0x2a0(%rsp)
  402355:	00 00 
  402357:	c5 7e 7f 84 24 60 03 	vmovdqu %ymm8,0x360(%rsp)
  40235e:	00 00 
  402360:	c5 7e 6f 87 40 03 00 	vmovdqu 0x340(%rdi),%ymm8
  402367:	00 
  402368:	c5 fe 6f bf 40 07 00 	vmovdqu 0x740(%rdi),%ymm7
  40236f:	00 
  402370:	c5 7e 6f bf 40 01 00 	vmovdqu 0x140(%rdi),%ymm15
  402377:	00 
  402378:	c5 7e 6f 8f 40 05 00 	vmovdqu 0x540(%rdi),%ymm9
  40237f:	00 
  402380:	c5 2d ef 9e a0 0d 00 	vpxor  0xda0(%rsi),%ymm10,%ymm11
  402387:	00 
  402388:	c5 15 ef a6 80 0f 00 	vpxor  0xf80(%rsi),%ymm13,%ymm12
  40238f:	00 
  402390:	c5 3d ef 96 40 03 00 	vpxor  0x340(%rsi),%ymm8,%ymm10
  402397:	00 
  402398:	c5 85 ef ae 40 01 00 	vpxor  0x140(%rsi),%ymm15,%ymm5
  40239f:	00 
  4023a0:	c5 35 ef 8e 40 05 00 	vpxor  0x540(%rsi),%ymm9,%ymm9
  4023a7:	00 
  4023a8:	c5 7e 7f 9c 24 20 04 	vmovdqu %ymm11,0x420(%rsp)
  4023af:	00 00 
  4023b1:	c5 7e 7f a4 24 20 01 	vmovdqu %ymm12,0x120(%rsp)
  4023b8:	00 00 
  4023ba:	c5 45 ef 9e 40 07 00 	vpxor  0x740(%rsi),%ymm7,%ymm11
  4023c1:	00 
  4023c2:	c4 41 7d ef e2       	vpxor  %ymm10,%ymm0,%ymm12
  4023c7:	c4 41 2d ef c1       	vpxor  %ymm9,%ymm10,%ymm8
  4023cc:	c4 41 35 ef fb       	vpxor  %ymm11,%ymm9,%ymm15
  4023d1:	c4 41 25 eb ec       	vpor   %ymm12,%ymm11,%ymm13
  4023d6:	c4 c1 55 db fc       	vpand  %ymm12,%ymm5,%ymm7
  4023db:	c4 41 55 ef ed       	vpxor  %ymm13,%ymm5,%ymm13
  4023e0:	c4 41 45 ef e7       	vpxor  %ymm15,%ymm7,%ymm12
  4023e5:	c4 41 05 db fd       	vpand  %ymm13,%ymm15,%ymm15
  4023ea:	c4 c1 35 ef ed       	vpxor  %ymm13,%ymm9,%ymm5
  4023ef:	c4 41 3d ef d7       	vpxor  %ymm15,%ymm8,%ymm10
  4023f4:	c4 41 1d eb c0       	vpor   %ymm8,%ymm12,%ymm8
  4023f9:	c5 d5 ef ae 20 0b 00 	vpxor  0xb20(%rsi),%ymm5,%ymm5
  402400:	00 
  402401:	c5 7e 6f bf 60 05 00 	vmovdqu 0x560(%rdi),%ymm15
  402408:	00 
  402409:	c4 41 15 ef c8       	vpxor  %ymm8,%ymm13,%ymm9
  40240e:	c5 2d ef 9e a0 0f 00 	vpxor  0xfa0(%rsi),%ymm10,%ymm11
  402415:	00 
  402416:	c5 7e 6f af 60 03 00 	vmovdqu 0x360(%rdi),%ymm13
  40241d:	00 
  40241e:	c5 fe 7f ac 24 a0 03 	vmovdqu %ymm5,0x3a0(%rsp)
  402425:	00 00 
  402427:	c5 7e 6f 87 60 07 00 	vmovdqu 0x760(%rdi),%ymm8
  40242e:	00 
  40242f:	c5 7e 7f 9c 24 40 01 	vmovdqu %ymm11,0x140(%rsp)
  402436:	00 00 
  402438:	c5 9d ef ae 40 09 00 	vpxor  0x940(%rsi),%ymm12,%ymm5
  40243f:	00 
  402440:	c5 b5 ef be c0 0d 00 	vpxor  0xdc0(%rsi),%ymm9,%ymm7
  402447:	00 
  402448:	c5 05 ef 9e 60 05 00 	vpxor  0x560(%rsi),%ymm15,%ymm11
  40244f:	00 
  402450:	c5 7e 6f a7 60 01 00 	vmovdqu 0x160(%rdi),%ymm12
  402457:	00 
  402458:	c5 fe 7f ac 24 e0 02 	vmovdqu %ymm5,0x2e0(%rsp)
  40245f:	00 00 
  402461:	c5 fe 7f bc 24 c0 09 	vmovdqu %ymm7,0x9c0(%rsp)
  402468:	00 00 
  40246a:	c5 95 ef ae 60 03 00 	vpxor  0x360(%rsi),%ymm13,%ymm5
  402471:	00 
  402472:	c5 1d ef 96 60 01 00 	vpxor  0x160(%rsi),%ymm12,%ymm10
  402479:	00 
  40247a:	c5 3d ef a6 60 07 00 	vpxor  0x760(%rsi),%ymm8,%ymm12
  402481:	00 
  402482:	c5 7d ef ed          	vpxor  %ymm5,%ymm0,%ymm13
  402486:	c4 41 55 ef cb       	vpxor  %ymm11,%ymm5,%ymm9
  40248b:	c4 c1 25 ef fc       	vpxor  %ymm12,%ymm11,%ymm7
  402490:	c4 41 1d eb fd       	vpor   %ymm13,%ymm12,%ymm15
  402495:	c4 41 2d db c5       	vpand  %ymm13,%ymm10,%ymm8
  40249a:	c5 7e 6f a7 80 03 00 	vmovdqu 0x380(%rdi),%ymm12
  4024a1:	00 
  4024a2:	c4 c1 2d ef ef       	vpxor  %ymm15,%ymm10,%ymm5
  4024a7:	c5 3d ef c7          	vpxor  %ymm7,%ymm8,%ymm8
  4024ab:	c5 c5 db fd          	vpand  %ymm5,%ymm7,%ymm7
  4024af:	c5 25 ef d5          	vpxor  %ymm5,%ymm11,%ymm10
  4024b3:	c5 b5 ef ff          	vpxor  %ymm7,%ymm9,%ymm7
  4024b7:	c4 41 3d eb c9       	vpor   %ymm9,%ymm8,%ymm9
  4024bc:	c5 2d ef 9e 40 0b 00 	vpxor  0xb40(%rsi),%ymm10,%ymm11
  4024c3:	00 
  4024c4:	c5 3d ef 86 60 09 00 	vpxor  0x960(%rsi),%ymm8,%ymm8
  4024cb:	00 
  4024cc:	c5 45 ef 96 c0 0f 00 	vpxor  0xfc0(%rsi),%ymm7,%ymm10
  4024d3:	00 
  4024d4:	c4 c1 55 ef e9       	vpxor  %ymm9,%ymm5,%ymm5
  4024d9:	c5 9d ef be 80 03 00 	vpxor  0x380(%rsi),%ymm12,%ymm7
  4024e0:	00 
  4024e1:	c5 7e 7f 9c 24 e0 03 	vmovdqu %ymm11,0x3e0(%rsp)
  4024e8:	00 00 
  4024ea:	c5 7e 6f 9f 80 01 00 	vmovdqu 0x180(%rdi),%ymm11
  4024f1:	00 
  4024f2:	c5 7e 7f 84 24 20 03 	vmovdqu %ymm8,0x320(%rsp)
  4024f9:	00 00 
  4024fb:	c5 7e 7f 94 24 00 07 	vmovdqu %ymm10,0x700(%rsp)
  402502:	00 00 
  402504:	c5 55 ef 8e e0 0d 00 	vpxor  0xde0(%rsi),%ymm5,%ymm9
  40250b:	00 
  40250c:	c5 25 ef 86 80 01 00 	vpxor  0x180(%rsi),%ymm11,%ymm8
  402513:	00 
  402514:	c5 fe 6f af 80 05 00 	vmovdqu 0x580(%rdi),%ymm5
  40251b:	00 
  40251c:	c5 7e 7f 8c 24 20 0a 	vmovdqu %ymm9,0xa20(%rsp)
  402523:	00 00 
  402525:	c5 7e 6f 97 80 07 00 	vmovdqu 0x780(%rdi),%ymm10
  40252c:	00 
  40252d:	c5 fe 7f 8c 24 00 05 	vmovdqu %ymm1,0x500(%rsp)
  402534:	00 00 
  402536:	c5 fe 7f a4 24 e0 04 	vmovdqu %ymm4,0x4e0(%rsp)
  40253d:	00 00 
  40253f:	c5 7d ef ef          	vpxor  %ymm7,%ymm0,%ymm13
  402543:	c5 2d ef be 80 07 00 	vpxor  0x780(%rsi),%ymm10,%ymm15
  40254a:	00 
  40254b:	c5 55 ef a6 80 05 00 	vpxor  0x580(%rsi),%ymm5,%ymm12
  402552:	00 
  402553:	c4 41 3d db dd       	vpand  %ymm13,%ymm8,%ymm11
  402558:	c4 c1 05 eb cd       	vpor   %ymm13,%ymm15,%ymm1
  40255d:	c4 c1 45 ef ec       	vpxor  %ymm12,%ymm7,%ymm5
  402562:	c4 c1 1d ef ff       	vpxor  %ymm15,%ymm12,%ymm7
  402567:	c5 7e 6f bf a0 03 00 	vmovdqu 0x3a0(%rdi),%ymm15
  40256e:	00 
  40256f:	c5 3d ef c9          	vpxor  %ymm1,%ymm8,%ymm9
  402573:	c5 25 ef df          	vpxor  %ymm7,%ymm11,%ymm11
  402577:	c4 c1 45 db c9       	vpand  %ymm9,%ymm7,%ymm1
  40257c:	c4 41 1d ef c1       	vpxor  %ymm9,%ymm12,%ymm8
  402581:	c5 25 eb e5          	vpor   %ymm5,%ymm11,%ymm12
  402585:	c5 a5 ef a6 80 09 00 	vpxor  0x980(%rsi),%ymm11,%ymm4
  40258c:	00 
  40258d:	c5 55 ef d1          	vpxor  %ymm1,%ymm5,%ymm10
  402591:	c5 3d ef ae 60 0b 00 	vpxor  0xb60(%rsi),%ymm8,%ymm13
  402598:	00 
  402599:	c4 c1 35 ef fc       	vpxor  %ymm12,%ymm9,%ymm7
  40259e:	c5 05 ef 9e a0 03 00 	vpxor  0x3a0(%rsi),%ymm15,%ymm11
  4025a5:	00 
  4025a6:	c5 ad ef ae e0 0f 00 	vpxor  0xfe0(%rsi),%ymm10,%ymm5
  4025ad:	00 
  4025ae:	c5 fe 6f 8f a0 07 00 	vmovdqu 0x7a0(%rdi),%ymm1
  4025b5:	00 
  4025b6:	c5 7e 7f ac 24 20 05 	vmovdqu %ymm13,0x520(%rsp)
  4025bd:	00 00 
  4025bf:	c5 7e 6f 87 a0 01 00 	vmovdqu 0x1a0(%rdi),%ymm8
  4025c6:	00 
  4025c7:	c5 7e 6f af a0 05 00 	vmovdqu 0x5a0(%rdi),%ymm13
  4025ce:	00 
  4025cf:	c5 fe 7f ac 24 20 07 	vmovdqu %ymm5,0x720(%rsp)
  4025d6:	00 00 
  4025d8:	c5 fe 7f a4 24 40 05 	vmovdqu %ymm4,0x540(%rsp)
  4025df:	00 00 
  4025e1:	c5 45 ef a6 00 0c 00 	vpxor  0xc00(%rsi),%ymm7,%ymm12
  4025e8:	00 
  4025e9:	c5 f5 ef be a0 07 00 	vpxor  0x7a0(%rsi),%ymm1,%ymm7
  4025f0:	00 
  4025f1:	c4 c1 7d ef eb       	vpxor  %ymm11,%ymm0,%ymm5
  4025f6:	c5 3d ef 8e a0 01 00 	vpxor  0x1a0(%rsi),%ymm8,%ymm9
  4025fd:	00 
  4025fe:	c5 95 ef a6 a0 05 00 	vpxor  0x5a0(%rsi),%ymm13,%ymm4
  402605:	00 
  402606:	c5 45 eb d5          	vpor   %ymm5,%ymm7,%ymm10
  40260a:	c5 35 db c5          	vpand  %ymm5,%ymm9,%ymm8
  40260e:	c5 dd ef cf          	vpxor  %ymm7,%ymm4,%ymm1
  402612:	c5 25 ef dc          	vpxor  %ymm4,%ymm11,%ymm11
  402616:	c4 41 35 ef ca       	vpxor  %ymm10,%ymm9,%ymm9
  40261b:	c5 fe 6f af c0 03 00 	vmovdqu 0x3c0(%rdi),%ymm5
  402622:	00 
  402623:	c5 7e 6f 97 c0 05 00 	vmovdqu 0x5c0(%rdi),%ymm10
  40262a:	00 
  40262b:	c5 3d ef e9          	vpxor  %ymm1,%ymm8,%ymm13
  40262f:	c4 c1 5d ef e1       	vpxor  %ymm9,%ymm4,%ymm4
  402634:	c4 c1 75 db c9       	vpand  %ymm9,%ymm1,%ymm1
  402639:	c5 2d ef 96 c0 05 00 	vpxor  0x5c0(%rsi),%ymm10,%ymm10
  402640:	00 
  402641:	c5 7e 6f 87 c0 07 00 	vmovdqu 0x7c0(%rdi),%ymm8
  402648:	00 
  402649:	c5 5d ef be 80 0b 00 	vpxor  0xb80(%rsi),%ymm4,%ymm15
  402650:	00 
  402651:	c5 a5 ef e1          	vpxor  %ymm1,%ymm11,%ymm4
  402655:	c4 41 15 eb db       	vpor   %ymm11,%ymm13,%ymm11
  40265a:	c5 7e 7f bc 24 60 05 	vmovdqu %ymm15,0x560(%rsp)
  402661:	00 00 
  402663:	c4 c1 35 ef cb       	vpxor  %ymm11,%ymm9,%ymm1
  402668:	c5 15 ef 8e a0 09 00 	vpxor  0x9a0(%rsi),%ymm13,%ymm9
  40266f:	00 
  402670:	c5 55 ef be c0 03 00 	vpxor  0x3c0(%rsi),%ymm5,%ymm15
  402677:	00 
  402678:	c5 5d ef 9e 00 0e 00 	vpxor  0xe00(%rsi),%ymm4,%ymm11
  40267f:	00 
  402680:	c5 7e 6f af c0 01 00 	vmovdqu 0x1c0(%rdi),%ymm13
  402687:	00 
  402688:	c5 7e 7f 8c 24 80 05 	vmovdqu %ymm9,0x580(%rsp)
  40268f:	00 00 
  402691:	c4 c1 7d ef ef       	vpxor  %ymm15,%ymm0,%ymm5
  402696:	c5 75 ef 8e 20 0c 00 	vpxor  0xc20(%rsi),%ymm1,%ymm9
  40269d:	00 
  40269e:	c4 c1 05 ef e2       	vpxor  %ymm10,%ymm15,%ymm4
  4026a3:	c5 95 ef be c0 01 00 	vpxor  0x1c0(%rsi),%ymm13,%ymm7
  4026aa:	00 
  4026ab:	c5 3d ef ae c0 07 00 	vpxor  0x7c0(%rsi),%ymm8,%ymm13
  4026b2:	00 
  4026b3:	c5 45 db fd          	vpand  %ymm5,%ymm7,%ymm15
  4026b7:	c5 15 eb c5          	vpor   %ymm5,%ymm13,%ymm8
  4026bb:	c4 c1 2d ef cd       	vpxor  %ymm13,%ymm10,%ymm1
  4026c0:	c4 41 45 ef e8       	vpxor  %ymm8,%ymm7,%ymm13
  4026c5:	c5 85 ef e9          	vpxor  %ymm1,%ymm15,%ymm5
  4026c9:	c5 7e 6f bf e0 01 00 	vmovdqu 0x1e0(%rdi),%ymm15
  4026d0:	00 
  4026d1:	c4 c1 75 db cd       	vpand  %ymm13,%ymm1,%ymm1
  4026d6:	c4 c1 2d ef fd       	vpxor  %ymm13,%ymm10,%ymm7
  4026db:	c5 5d ef c1          	vpxor  %ymm1,%ymm4,%ymm8
  4026df:	c5 d5 eb e4          	vpor   %ymm4,%ymm5,%ymm4
  4026e3:	c5 c5 ef be a0 0b 00 	vpxor  0xba0(%rsi),%ymm7,%ymm7
  4026ea:	00 
  4026eb:	c5 fe 6f 8f e0 03 00 	vmovdqu 0x3e0(%rdi),%ymm1
  4026f2:	00 
  4026f3:	c5 15 ef d4          	vpxor  %ymm4,%ymm13,%ymm10
  4026f7:	c5 55 ef ae c0 09 00 	vpxor  0x9c0(%rsi),%ymm5,%ymm13
  4026fe:	00 
  4026ff:	c5 bd ef a6 20 0e 00 	vpxor  0xe20(%rsi),%ymm8,%ymm4
  402706:	00 
  402707:	c5 fe 7f bc 24 a0 05 	vmovdqu %ymm7,0x5a0(%rsp)
  40270e:	00 00 
  402710:	c5 ad ef ae 40 0c 00 	vpxor  0xc40(%rsi),%ymm10,%ymm5
  402717:	00 
  402718:	c5 f5 ef be e0 03 00 	vpxor  0x3e0(%rsi),%ymm1,%ymm7
  40271f:	00 
  402720:	c5 7e 7f ac 24 a0 09 	vmovdqu %ymm13,0x9a0(%rsp)
  402727:	00 00 
  402729:	c5 7e 6f 97 e0 05 00 	vmovdqu 0x5e0(%rdi),%ymm10
  402730:	00 
  402731:	c5 05 ef ae e0 01 00 	vpxor  0x1e0(%rsi),%ymm15,%ymm13
  402738:	00 
  402739:	c5 7d ef ff          	vpxor  %ymm7,%ymm0,%ymm15
  40273d:	c5 ad ef 8e e0 05 00 	vpxor  0x5e0(%rsi),%ymm10,%ymm1
  402744:	00 
  402745:	c5 7e 6f 97 e0 07 00 	vmovdqu 0x7e0(%rdi),%ymm10
  40274c:	00 
  40274d:	c5 c5 ef f9          	vpxor  %ymm1,%ymm7,%ymm7
  402751:	c5 2d ef 96 e0 07 00 	vpxor  0x7e0(%rsi),%ymm10,%ymm10
  402758:	00 
  402759:	c4 41 75 ef c2       	vpxor  %ymm10,%ymm1,%ymm8
  40275e:	c4 41 2d eb d7       	vpor   %ymm15,%ymm10,%ymm10
  402763:	c4 41 15 db ff       	vpand  %ymm15,%ymm13,%ymm15
  402768:	c4 41 15 ef ea       	vpxor  %ymm10,%ymm13,%ymm13
  40276d:	c4 41 05 ef f8       	vpxor  %ymm8,%ymm15,%ymm15
  402772:	c5 7d ef d6          	vpxor  %ymm6,%ymm0,%ymm10
  402776:	c4 c1 4d ef f4       	vpxor  %ymm12,%ymm6,%ymm6
  40277b:	c4 c1 75 ef cd       	vpxor  %ymm13,%ymm1,%ymm1
  402780:	c4 41 3d db c5       	vpand  %ymm13,%ymm8,%ymm8
  402785:	c5 f5 ef 8e c0 0b 00 	vpxor  0xbc0(%rsi),%ymm1,%ymm1
  40278c:	00 
  40278d:	c5 fe 7f 8c 24 a0 0b 	vmovdqu %ymm1,0xba0(%rsp)
  402794:	00 00 
  402796:	c4 c1 45 ef c8       	vpxor  %ymm8,%ymm7,%ymm1
  40279b:	c5 85 eb ff          	vpor   %ymm7,%ymm15,%ymm7
  40279f:	c4 41 1d ef c3       	vpxor  %ymm11,%ymm12,%ymm8
  4027a4:	c5 f5 ef 8e 40 0e 00 	vpxor  0xe40(%rsi),%ymm1,%ymm1
  4027ab:	00 
  4027ac:	c5 95 ef ff          	vpxor  %ymm7,%ymm13,%ymm7
  4027b0:	c5 05 ef ae e0 09 00 	vpxor  0x9e0(%rsi),%ymm15,%ymm13
  4027b7:	00 
  4027b8:	c5 c5 ef be 60 0c 00 	vpxor  0xc60(%rsi),%ymm7,%ymm7
  4027bf:	00 
  4027c0:	c5 7e 7f ac 24 e0 09 	vmovdqu %ymm13,0x9e0(%rsp)
  4027c7:	00 00 
  4027c9:	c4 41 25 eb ea       	vpor   %ymm10,%ymm11,%ymm13
  4027ce:	c5 7e 6f 9c 24 c0 04 	vmovdqu 0x4c0(%rsp),%ymm11
  4027d5:	00 00 
  4027d7:	c4 41 25 db d2       	vpand  %ymm10,%ymm11,%ymm10
  4027dc:	c4 41 25 ef ed       	vpxor  %ymm13,%ymm11,%ymm13
  4027e1:	c4 41 2d ef f8       	vpxor  %ymm8,%ymm10,%ymm15
  4027e6:	c4 41 1d ef e5       	vpxor  %ymm13,%ymm12,%ymm12
  4027eb:	c4 41 3d db dd       	vpand  %ymm13,%ymm8,%ymm11
  4027f0:	c5 7e 6f 94 24 a0 04 	vmovdqu 0x4a0(%rsp),%ymm10
  4027f7:	00 00 
  4027f9:	c5 1d ef a6 e0 13 00 	vpxor  0x13e0(%rsi),%ymm12,%ymm12
  402800:	00 
  402801:	c4 41 4d ef c3       	vpxor  %ymm11,%ymm6,%ymm8
  402806:	c5 85 eb f6          	vpor   %ymm6,%ymm15,%ymm6
  40280a:	c5 7e 7f a4 24 e0 06 	vmovdqu %ymm12,0x6e0(%rsp)
  402811:	00 00 
  402813:	c5 15 ef e6          	vpxor  %ymm6,%ymm13,%ymm12
  402817:	c5 bd ef b6 60 16 00 	vpxor  0x1660(%rsi),%ymm8,%ymm6
  40281e:	00 
  40281f:	c4 41 7d ef c2       	vpxor  %ymm10,%ymm0,%ymm8
  402824:	c5 05 ef ae 00 10 00 	vpxor  0x1000(%rsi),%ymm15,%ymm13
  40282b:	00 
  40282c:	c5 1d ef 9e 80 14 00 	vpxor  0x1480(%rsi),%ymm12,%ymm11
  402833:	00 
  402834:	c4 41 2d ef d1       	vpxor  %ymm9,%ymm10,%ymm10
  402839:	c4 41 5d eb f8       	vpor   %ymm8,%ymm4,%ymm15
  40283e:	c5 fe 7f b4 24 40 08 	vmovdqu %ymm6,0x840(%rsp)
  402845:	00 00 
  402847:	c5 7e 7f ac 24 40 0a 	vmovdqu %ymm13,0xa40(%rsp)
  40284e:	00 00 
  402850:	c5 7e 7f 9c 24 20 0d 	vmovdqu %ymm11,0xd20(%rsp)
  402857:	00 00 
  402859:	c5 b5 ef f4          	vpxor  %ymm4,%ymm9,%ymm6
  40285d:	c5 fe 6f a4 24 80 04 	vmovdqu 0x480(%rsp),%ymm4
  402864:	00 00 
  402866:	c4 41 5d db e8       	vpand  %ymm8,%ymm4,%ymm13
  40286b:	c4 c1 5d ef e7       	vpxor  %ymm15,%ymm4,%ymm4
  402870:	c5 7e 6f bc 24 60 04 	vmovdqu 0x460(%rsp),%ymm15
  402877:	00 00 
  402879:	c5 15 ef de          	vpxor  %ymm6,%ymm13,%ymm11
  40287d:	c5 35 ef cc          	vpxor  %ymm4,%ymm9,%ymm9
  402881:	c5 4d db e4          	vpand  %ymm4,%ymm6,%ymm12
  402885:	c5 35 ef ae 00 12 00 	vpxor  0x1200(%rsi),%ymm9,%ymm13
  40288c:	00 
  40288d:	c4 41 25 eb ca       	vpor   %ymm10,%ymm11,%ymm9
  402892:	c5 25 ef 9e 20 10 00 	vpxor  0x1020(%rsi),%ymm11,%ymm11
  402899:	00 
  40289a:	c4 41 2d ef c4       	vpxor  %ymm12,%ymm10,%ymm8
  40289f:	c5 05 ef e5          	vpxor  %ymm5,%ymm15,%ymm12
  4028a3:	c4 c1 5d ef e1       	vpxor  %ymm9,%ymm4,%ymm4
  4028a8:	c5 7e 7f 9c 24 a0 0a 	vmovdqu %ymm11,0xaa0(%rsp)
  4028af:	00 00 
  4028b1:	c5 7e 7f ac 24 60 0d 	vmovdqu %ymm13,0xd60(%rsp)
  4028b8:	00 00 
  4028ba:	c4 41 7d ef df       	vpxor  %ymm15,%ymm0,%ymm11
  4028bf:	c5 55 ef e9          	vpxor  %ymm1,%ymm5,%ymm13
  4028c3:	c5 dd ef b6 a0 14 00 	vpxor  0x14a0(%rsi),%ymm4,%ymm6
  4028ca:	00 
  4028cb:	c5 3d ef 96 80 16 00 	vpxor  0x1680(%rsi),%ymm8,%ymm10
  4028d2:	00 
  4028d3:	c4 41 75 eb cb       	vpor   %ymm11,%ymm1,%ymm9
  4028d8:	c5 fe 6f 8c 24 40 03 	vmovdqu 0x340(%rsp),%ymm1
  4028df:	00 00 
  4028e1:	c5 fe 7f b4 24 40 0d 	vmovdqu %ymm6,0xd40(%rsp)
  4028e8:	00 00 
  4028ea:	c5 7e 6f bc 24 60 02 	vmovdqu 0x260(%rsp),%ymm15
  4028f1:	00 00 
  4028f3:	c5 7e 7f 94 24 80 08 	vmovdqu %ymm10,0x880(%rsp)
  4028fa:	00 00 
  4028fc:	c4 c1 75 ef e1       	vpxor  %ymm9,%ymm1,%ymm4
  402901:	c4 41 75 db db       	vpand  %ymm11,%ymm1,%ymm11
  402906:	c5 d5 ef ec          	vpxor  %ymm4,%ymm5,%ymm5
  40290a:	c4 c1 25 ef f5       	vpxor  %ymm13,%ymm11,%ymm6
  40290f:	c5 15 db ec          	vpand  %ymm4,%ymm13,%ymm13
  402913:	c5 d5 ef 8e 20 12 00 	vpxor  0x1220(%rsi),%ymm5,%ymm1
  40291a:	00 
  40291b:	c5 4d ef 9e 40 10 00 	vpxor  0x1040(%rsi),%ymm6,%ymm11
  402922:	00 
  402923:	c4 41 1d ef d5       	vpxor  %ymm13,%ymm12,%ymm10
  402928:	c4 41 4d eb e4       	vpor   %ymm12,%ymm6,%ymm12
  40292d:	c5 05 ef ef          	vpxor  %ymm7,%ymm15,%ymm13
  402931:	c5 fe 7f 8c 24 e0 0c 	vmovdqu %ymm1,0xce0(%rsp)
  402938:	00 00 
  40293a:	c5 fe 6f 8c 24 c0 01 	vmovdqu 0x1c0(%rsp),%ymm1
  402941:	00 00 
  402943:	c5 7e 7f 9c 24 40 0b 	vmovdqu %ymm11,0xb40(%rsp)
  40294a:	00 00 
  40294c:	c5 7e 6f 9c 24 80 01 	vmovdqu 0x180(%rsp),%ymm11
  402953:	00 00 
  402955:	c4 41 5d ef cc       	vpxor  %ymm12,%ymm4,%ymm9
  40295a:	c4 41 7d ef e7       	vpxor  %ymm15,%ymm0,%ymm12
  40295f:	c5 c5 ef f1          	vpxor  %ymm1,%ymm7,%ymm6
  402963:	c5 2d ef 86 a0 16 00 	vpxor  0x16a0(%rsi),%ymm10,%ymm8
  40296a:	00 
  40296b:	c5 b5 ef ae c0 14 00 	vpxor  0x14c0(%rsi),%ymm9,%ymm5
  402972:	00 
  402973:	c4 41 75 eb cc       	vpor   %ymm12,%ymm1,%ymm9
  402978:	c4 c1 25 db e4       	vpand  %ymm12,%ymm11,%ymm4
  40297d:	c5 7e 7f 84 24 c0 08 	vmovdqu %ymm8,0x8c0(%rsp)
  402984:	00 00 
  402986:	c5 fe 7f ac 24 80 0d 	vmovdqu %ymm5,0xd80(%rsp)
  40298d:	00 00 
  40298f:	c5 7e 6f 84 24 20 02 	vmovdqu 0x220(%rsp),%ymm8
  402996:	00 00 
  402998:	c5 7e 6f bc 24 00 01 	vmovdqu 0x100(%rsp),%ymm15
  40299f:	00 00 
  4029a1:	c4 c1 25 ef e9       	vpxor  %ymm9,%ymm11,%ymm5
  4029a6:	c5 5d ef d6          	vpxor  %ymm6,%ymm4,%ymm10
  4029aa:	c5 4d db e5          	vpand  %ymm5,%ymm6,%ymm12
  4029ae:	c5 2d ef 9e 60 10 00 	vpxor  0x1060(%rsi),%ymm10,%ymm11
  4029b5:	00 
  4029b6:	c5 c5 ef fd          	vpxor  %ymm5,%ymm7,%ymm7
  4029ba:	c4 c1 15 ef e4       	vpxor  %ymm12,%ymm13,%ymm4
  4029bf:	c4 41 2d eb ed       	vpor   %ymm13,%ymm10,%ymm13
  4029c4:	c4 41 7d ef e0       	vpxor  %ymm8,%ymm0,%ymm12
  4029c9:	c5 c5 ef 8e 40 12 00 	vpxor  0x1240(%rsi),%ymm7,%ymm1
  4029d0:	00 
  4029d1:	c5 dd ef be c0 16 00 	vpxor  0x16c0(%rsi),%ymm4,%ymm7
  4029d8:	00 
  4029d9:	c4 41 55 ef cd       	vpxor  %ymm13,%ymm5,%ymm9
  4029de:	c5 7e 7f 9c 24 00 0b 	vmovdqu %ymm11,0xb00(%rsp)
  4029e5:	00 00 
  4029e7:	c5 7e 6f 9c 24 60 01 	vmovdqu 0x160(%rsp),%ymm11
  4029ee:	00 00 
  4029f0:	c5 fe 7f bc 24 a0 08 	vmovdqu %ymm7,0x8a0(%rsp)
  4029f7:	00 00 
  4029f9:	c5 fe 7f 8c 24 60 0c 	vmovdqu %ymm1,0xc60(%rsp)
  402a00:	00 00 
  402a02:	c5 35 ef ae e0 14 00 	vpxor  0x14e0(%rsi),%ymm9,%ymm13
  402a09:	00 
  402a0a:	c4 41 05 eb cc       	vpor   %ymm12,%ymm15,%ymm9
  402a0f:	c4 c1 0d ef ff       	vpxor  %ymm15,%ymm14,%ymm7
  402a14:	c4 c1 25 db e4       	vpand  %ymm12,%ymm11,%ymm4
  402a19:	c4 c1 3d ef ce       	vpxor  %ymm14,%ymm8,%ymm1
  402a1e:	c4 c1 25 ef f1       	vpxor  %ymm9,%ymm11,%ymm6
  402a23:	c5 7e 6f 84 24 80 02 	vmovdqu 0x280(%rsp),%ymm8
  402a2a:	00 00 
  402a2c:	c5 7e 6f 3c 24       	vmovdqu (%rsp),%ymm15
  402a31:	c5 dd ef ef          	vpxor  %ymm7,%ymm4,%ymm5
  402a35:	c5 0d ef f6          	vpxor  %ymm6,%ymm14,%ymm14
  402a39:	c5 45 db de          	vpand  %ymm6,%ymm7,%ymm11
  402a3d:	c4 c1 6d ef ff       	vpxor  %ymm15,%ymm2,%ymm7
  402a42:	c5 55 ef 8e 80 10 00 	vpxor  0x1080(%rsi),%ymm5,%ymm9
  402a49:	00 
  402a4a:	c5 0d ef a6 60 12 00 	vpxor  0x1260(%rsi),%ymm14,%ymm12
  402a51:	00 
  402a52:	c4 41 75 ef f3       	vpxor  %ymm11,%ymm1,%ymm14
  402a57:	c5 d5 eb c9          	vpor   %ymm1,%ymm5,%ymm1
  402a5b:	c4 41 7d ef d8       	vpxor  %ymm8,%ymm0,%ymm11
  402a60:	c5 7e 7f 8c 24 c0 0a 	vmovdqu %ymm9,0xac0(%rsp)
  402a67:	00 00 
  402a69:	c5 7e 6f 8c 24 a0 01 	vmovdqu 0x1a0(%rsp),%ymm9
  402a70:	00 00 
  402a72:	c5 7e 7f a4 24 c0 0b 	vmovdqu %ymm12,0xbc0(%rsp)
  402a79:	00 00 
  402a7b:	c5 cd ef e1          	vpxor  %ymm1,%ymm6,%ymm4
  402a7f:	c5 0d ef 96 e0 16 00 	vpxor  0x16e0(%rsi),%ymm14,%ymm10
  402a86:	00 
  402a87:	c5 3d ef e2          	vpxor  %ymm2,%ymm8,%ymm12
  402a8b:	c4 41 35 db f3       	vpand  %ymm11,%ymm9,%ymm14
  402a90:	c5 dd ef 8e 00 15 00 	vpxor  0x1500(%rsi),%ymm4,%ymm1
  402a97:	00 
  402a98:	c4 c1 05 eb e3       	vpor   %ymm11,%ymm15,%ymm4
  402a9d:	c5 7e 6f 84 24 c0 02 	vmovdqu 0x2c0(%rsp),%ymm8
  402aa4:	00 00 
  402aa6:	c5 7e 6f 7c 24 20    	vmovdqu 0x20(%rsp),%ymm15
  402aac:	c5 7e 7f 94 24 60 08 	vmovdqu %ymm10,0x860(%rsp)
  402ab3:	00 00 
  402ab5:	c5 b5 ef f4          	vpxor  %ymm4,%ymm9,%ymm6
  402ab9:	c5 8d ef ef          	vpxor  %ymm7,%ymm14,%ymm5
  402abd:	c5 ed ef d6          	vpxor  %ymm6,%ymm2,%ymm2
  402ac1:	c5 55 ef 8e a0 10 00 	vpxor  0x10a0(%rsi),%ymm5,%ymm9
  402ac8:	00 
  402ac9:	c5 6d ef 9e 80 12 00 	vpxor  0x1280(%rsi),%ymm2,%ymm11
  402ad0:	00 
  402ad1:	c5 c5 db d6          	vpand  %ymm6,%ymm7,%ymm2
  402ad5:	c4 c1 65 ef ff       	vpxor  %ymm15,%ymm3,%ymm7
  402ada:	c5 7e 7f 8c 24 80 0a 	vmovdqu %ymm9,0xa80(%rsp)
  402ae1:	00 00 
  402ae3:	c5 7e 6f 8c 24 e0 01 	vmovdqu 0x1e0(%rsp),%ymm9
  402aea:	00 00 
  402aec:	c5 7e 7f 9c 24 00 0c 	vmovdqu %ymm11,0xc00(%rsp)
  402af3:	00 00 
  402af5:	c5 1d ef f2          	vpxor  %ymm2,%ymm12,%ymm14
  402af9:	c4 41 55 eb e4       	vpor   %ymm12,%ymm5,%ymm12
  402afe:	c4 c1 7d ef d0       	vpxor  %ymm8,%ymm0,%ymm2
  402b03:	c5 3d ef db          	vpxor  %ymm3,%ymm8,%ymm11
  402b07:	c5 0d ef 96 00 17 00 	vpxor  0x1700(%rsi),%ymm14,%ymm10
  402b0e:	00 
  402b0f:	c4 c1 4d ef e4       	vpxor  %ymm12,%ymm6,%ymm4
  402b14:	c5 35 db f2          	vpand  %ymm2,%ymm9,%ymm14
  402b18:	c5 7e 6f 84 24 00 03 	vmovdqu 0x300(%rsp),%ymm8
  402b1f:	00 00 
  402b21:	c5 7e 7f 94 24 20 08 	vmovdqu %ymm10,0x820(%rsp)
  402b28:	00 00 
  402b2a:	c5 5d ef a6 20 15 00 	vpxor  0x1520(%rsi),%ymm4,%ymm12
  402b31:	00 
  402b32:	c5 85 eb e2          	vpor   %ymm2,%ymm15,%ymm4
  402b36:	c5 8d ef ef          	vpxor  %ymm7,%ymm14,%ymm5
  402b3a:	c5 7e 6f 7c 24 60    	vmovdqu 0x60(%rsp),%ymm15
  402b40:	c5 b5 ef f4          	vpxor  %ymm4,%ymm9,%ymm6
  402b44:	c5 55 ef 8e c0 10 00 	vpxor  0x10c0(%rsi),%ymm5,%ymm9
  402b4b:	00 
  402b4c:	c5 c5 db d6          	vpand  %ymm6,%ymm7,%ymm2
  402b50:	c5 e5 ef de          	vpxor  %ymm6,%ymm3,%ymm3
  402b54:	c5 7e 7f 8c 24 60 0a 	vmovdqu %ymm9,0xa60(%rsp)
  402b5b:	00 00 
  402b5d:	c5 25 ef f2          	vpxor  %ymm2,%ymm11,%ymm14
  402b61:	c4 41 55 eb db       	vpor   %ymm11,%ymm5,%ymm11
  402b66:	c4 c1 7d ef d0       	vpxor  %ymm8,%ymm0,%ymm2
  402b6b:	c5 e5 ef 9e a0 12 00 	vpxor  0x12a0(%rsi),%ymm3,%ymm3
  402b72:	00 
  402b73:	c5 0d ef 96 20 17 00 	vpxor  0x1720(%rsi),%ymm14,%ymm10
  402b7a:	00 
  402b7b:	c4 c1 4d ef e3       	vpxor  %ymm11,%ymm6,%ymm4
  402b80:	c5 05 eb f2          	vpor   %ymm2,%ymm15,%ymm14
  402b84:	c5 fe 6f b4 24 e0 04 	vmovdqu 0x4e0(%rsp),%ymm6
  402b8b:	00 00 
  402b8d:	c5 fe 7f 9c 24 20 0c 	vmovdqu %ymm3,0xc20(%rsp)
  402b94:	00 00 
  402b96:	c5 7e 7f 94 24 00 08 	vmovdqu %ymm10,0x800(%rsp)
  402b9d:	00 00 
  402b9f:	c5 5d ef 9e 40 15 00 	vpxor  0x1540(%rsi),%ymm4,%ymm11
  402ba6:	00 
  402ba7:	c5 3d ef ce          	vpxor  %ymm6,%ymm8,%ymm9
  402bab:	c4 c1 4d ef df       	vpxor  %ymm15,%ymm6,%ymm3
  402bb0:	c5 fe 6f a4 24 00 02 	vmovdqu 0x200(%rsp),%ymm4
  402bb7:	00 00 
  402bb9:	c5 dd db fa          	vpand  %ymm2,%ymm4,%ymm7
  402bbd:	c4 41 5d ef c6       	vpxor  %ymm14,%ymm4,%ymm8
  402bc2:	c5 45 ef fb          	vpxor  %ymm3,%ymm7,%ymm15
  402bc6:	c4 c1 65 db d8       	vpand  %ymm8,%ymm3,%ymm3
  402bcb:	c4 c1 4d ef e8       	vpxor  %ymm8,%ymm6,%ymm5
  402bd0:	c5 fe 6f bc 24 60 03 	vmovdqu 0x360(%rsp),%ymm7
  402bd7:	00 00 
  402bd9:	c5 fe 6f b4 24 80 00 	vmovdqu 0x80(%rsp),%ymm6
  402be0:	00 00 
  402be2:	c5 b5 ef e3          	vpxor  %ymm3,%ymm9,%ymm4
  402be6:	c4 41 05 eb c9       	vpor   %ymm9,%ymm15,%ymm9
  402beb:	c5 55 ef 96 c0 12 00 	vpxor  0x12c0(%rsi),%ymm5,%ymm10
  402bf2:	00 
  402bf3:	c5 fd ef ef          	vpxor  %ymm7,%ymm0,%ymm5
  402bf7:	c5 85 ef 9e e0 10 00 	vpxor  0x10e0(%rsi),%ymm15,%ymm3
  402bfe:	00 
  402bff:	c4 c1 3d ef d1       	vpxor  %ymm9,%ymm8,%ymm2
  402c04:	c5 5d ef b6 40 17 00 	vpxor  0x1740(%rsi),%ymm4,%ymm14
  402c0b:	00 
  402c0c:	c5 4d eb c5          	vpor   %ymm5,%ymm6,%ymm8
  402c10:	c5 7e 7f 94 24 40 0c 	vmovdqu %ymm10,0xc40(%rsp)
  402c17:	00 00 
  402c19:	c5 7e 6f 94 24 40 02 	vmovdqu 0x240(%rsp),%ymm10
  402c20:	00 00 
  402c22:	c5 fe 7f 9c 24 00 0a 	vmovdqu %ymm3,0xa00(%rsp)
  402c29:	00 00 
  402c2b:	c5 7e 7f b4 24 e0 07 	vmovdqu %ymm14,0x7e0(%rsp)
  402c32:	00 00 
  402c34:	c5 6d ef 8e 60 15 00 	vpxor  0x1560(%rsi),%ymm2,%ymm9
  402c3b:	00 
  402c3c:	c5 2d db fd          	vpand  %ymm5,%ymm10,%ymm15
  402c40:	c5 7e 7f 8c 24 c0 0c 	vmovdqu %ymm9,0xcc0(%rsp)
  402c47:	00 00 
  402c49:	c5 7e 6f 8c 24 00 05 	vmovdqu 0x500(%rsp),%ymm9
  402c50:	00 00 
  402c52:	c4 c1 45 ef d1       	vpxor  %ymm9,%ymm7,%ymm2
  402c57:	c5 b5 ef de          	vpxor  %ymm6,%ymm9,%ymm3
  402c5b:	c4 c1 2d ef f8       	vpxor  %ymm8,%ymm10,%ymm7
  402c60:	c5 85 ef f3          	vpxor  %ymm3,%ymm15,%ymm6
  402c64:	c5 e5 db df          	vpand  %ymm7,%ymm3,%ymm3
  402c68:	c5 b5 ef e7          	vpxor  %ymm7,%ymm9,%ymm4
  402c6c:	c5 7e 6f 8c 24 a0 00 	vmovdqu 0xa0(%rsp),%ymm9
  402c73:	00 00 
  402c75:	c5 6d ef c3          	vpxor  %ymm3,%ymm2,%ymm8
  402c79:	c5 cd eb d2          	vpor   %ymm2,%ymm6,%ymm2
  402c7d:	c5 cd ef ae 00 11 00 	vpxor  0x1100(%rsi),%ymm6,%ymm5
  402c84:	00 
  402c85:	c5 5d ef b6 e0 12 00 	vpxor  0x12e0(%rsi),%ymm4,%ymm14
  402c8c:	00 
  402c8d:	c5 3d ef be 60 17 00 	vpxor  0x1760(%rsi),%ymm8,%ymm15
  402c94:	00 
  402c95:	c5 45 ef d2          	vpxor  %ymm2,%ymm7,%ymm10
  402c99:	c5 fe 6f 94 24 a0 03 	vmovdqu 0x3a0(%rsp),%ymm2
  402ca0:	00 00 
  402ca2:	c5 fe 7f ac 24 80 09 	vmovdqu %ymm5,0x980(%rsp)
  402ca9:	00 00 
  402cab:	c5 fe 6f bc 24 40 04 	vmovdqu 0x440(%rsp),%ymm7
  402cb2:	00 00 
  402cb4:	c5 fe 6f ac 24 a0 02 	vmovdqu 0x2a0(%rsp),%ymm5
  402cbb:	00 00 
  402cbd:	c5 7e 7f b4 24 a0 0c 	vmovdqu %ymm14,0xca0(%rsp)
  402cc4:	00 00 
  402cc6:	c5 7e 7f bc 24 c0 07 	vmovdqu %ymm15,0x7c0(%rsp)
  402ccd:	00 00 
  402ccf:	c5 fd ef f2          	vpxor  %ymm2,%ymm0,%ymm6
  402cd3:	c5 ad ef 9e 80 15 00 	vpxor  0x1580(%rsi),%ymm10,%ymm3
  402cda:	00 
  402cdb:	c5 6d ef f7          	vpxor  %ymm7,%ymm2,%ymm14
  402cdf:	c4 c1 45 ef e1       	vpxor  %ymm9,%ymm7,%ymm4
  402ce4:	c5 35 eb d6          	vpor   %ymm6,%ymm9,%ymm10
  402ce8:	c5 55 db c6          	vpand  %ymm6,%ymm5,%ymm8
  402cec:	c5 fe 6f b4 24 c0 00 	vmovdqu 0xc0(%rsp),%ymm6
  402cf3:	00 00 
  402cf5:	c4 c1 55 ef d2       	vpxor  %ymm10,%ymm5,%ymm2
  402cfa:	c5 3d ef cc          	vpxor  %ymm4,%ymm8,%ymm9
  402cfe:	c5 7e 6f 94 24 e0 02 	vmovdqu 0x2e0(%rsp),%ymm10
  402d05:	00 00 
  402d07:	c5 c5 ef fa          	vpxor  %ymm2,%ymm7,%ymm7
  402d0b:	c5 dd db e2          	vpand  %ymm2,%ymm4,%ymm4
  402d0f:	c5 45 ef be 00 13 00 	vpxor  0x1300(%rsi),%ymm7,%ymm15
  402d16:	00 
  402d17:	c5 8d ef fc          	vpxor  %ymm4,%ymm14,%ymm7
  402d1b:	c4 41 35 eb f6       	vpor   %ymm14,%ymm9,%ymm14
  402d20:	c5 7e 7f bc 24 80 0c 	vmovdqu %ymm15,0xc80(%rsp)
  402d27:	00 00 
  402d29:	c4 c1 6d ef e6       	vpxor  %ymm14,%ymm2,%ymm4
  402d2e:	c5 b5 ef 96 20 11 00 	vpxor  0x1120(%rsi),%ymm9,%ymm2
  402d35:	00 
  402d36:	c5 45 ef 8e 80 17 00 	vpxor  0x1780(%rsi),%ymm7,%ymm9
  402d3d:	00 
  402d3e:	c5 7e 6f b4 24 e0 03 	vmovdqu 0x3e0(%rsp),%ymm14
  402d45:	00 00 
  402d47:	c5 fe 7f 94 24 60 09 	vmovdqu %ymm2,0x960(%rsp)
  402d4e:	00 00 
  402d50:	c5 7e 7f 8c 24 a0 07 	vmovdqu %ymm9,0x7a0(%rsp)
  402d57:	00 00 
  402d59:	c5 7e 6f 8c 24 80 03 	vmovdqu 0x380(%rsp),%ymm9
  402d60:	00 00 
  402d62:	c4 c1 7d ef ee       	vpxor  %ymm14,%ymm0,%ymm5
  402d67:	c5 dd ef 96 a0 15 00 	vpxor  0x15a0(%rsi),%ymm4,%ymm2
  402d6e:	00 
  402d6f:	c4 41 0d ef f9       	vpxor  %ymm9,%ymm14,%ymm15
  402d74:	c5 cd eb e5          	vpor   %ymm5,%ymm6,%ymm4
  402d78:	c5 2d db f5          	vpand  %ymm5,%ymm10,%ymm14
  402d7c:	c5 35 ef c6          	vpxor  %ymm6,%ymm9,%ymm8
  402d80:	c5 2d ef d4          	vpxor  %ymm4,%ymm10,%ymm10
  402d84:	c4 c1 0d ef e8       	vpxor  %ymm8,%ymm14,%ymm5
  402d89:	c4 41 35 ef ca       	vpxor  %ymm10,%ymm9,%ymm9
  402d8e:	c4 41 3d db c2       	vpand  %ymm10,%ymm8,%ymm8
  402d93:	c5 b5 ef be 20 13 00 	vpxor  0x1320(%rsi),%ymm9,%ymm7
  402d9a:	00 
  402d9b:	c5 55 ef 8e 40 11 00 	vpxor  0x1140(%rsi),%ymm5,%ymm9
  402da2:	00 
  402da3:	c5 fe 7f bc 24 e0 0b 	vmovdqu %ymm7,0xbe0(%rsp)
  402daa:	00 00 
  402dac:	c5 7e 7f 8c 24 40 09 	vmovdqu %ymm9,0x940(%rsp)
  402db3:	00 00 
  402db5:	c4 c1 05 ef f8       	vpxor  %ymm8,%ymm15,%ymm7
  402dba:	c4 41 55 eb ff       	vpor   %ymm15,%ymm5,%ymm15
  402dbf:	c5 fe 6f ac 24 20 05 	vmovdqu 0x520(%rsp),%ymm5
  402dc6:	00 00 
  402dc8:	c5 c5 ef b6 a0 17 00 	vpxor  0x17a0(%rsi),%ymm7,%ymm6
  402dcf:	00 
  402dd0:	c4 c1 2d ef e7       	vpxor  %ymm15,%ymm10,%ymm4
  402dd5:	c5 7e 6f 94 24 e0 00 	vmovdqu 0xe0(%rsp),%ymm10
  402ddc:	00 00 
  402dde:	c5 7e 6f bc 24 20 03 	vmovdqu 0x320(%rsp),%ymm15
  402de5:	00 00 
  402de7:	c5 fe 7f b4 24 80 07 	vmovdqu %ymm6,0x780(%rsp)
  402dee:	00 00 
  402df0:	c5 fe 6f b4 24 c0 03 	vmovdqu 0x3c0(%rsp),%ymm6
  402df7:	00 00 
  402df9:	c5 7d ef c5          	vpxor  %ymm5,%ymm0,%ymm8
  402dfd:	c5 5d ef b6 c0 15 00 	vpxor  0x15c0(%rsi),%ymm4,%ymm14
  402e04:	00 
  402e05:	c5 d5 ef fe          	vpxor  %ymm6,%ymm5,%ymm7
  402e09:	c4 41 2d eb c8       	vpor   %ymm8,%ymm10,%ymm9
  402e0e:	c4 c1 05 db e8       	vpand  %ymm8,%ymm15,%ymm5
  402e13:	c5 7e 7f b4 24 00 0d 	vmovdqu %ymm14,0xd00(%rsp)
  402e1a:	00 00 
  402e1c:	c4 41 4d ef f2       	vpxor  %ymm10,%ymm6,%ymm14
  402e21:	c4 c1 05 ef e1       	vpxor  %ymm9,%ymm15,%ymm4
  402e26:	c4 41 55 ef ce       	vpxor  %ymm14,%ymm5,%ymm9
  402e2b:	c5 0d db f4          	vpand  %ymm4,%ymm14,%ymm14
  402e2f:	c5 cd ef f4          	vpxor  %ymm4,%ymm6,%ymm6
  402e33:	c5 fe 6f ac 24 40 05 	vmovdqu 0x540(%rsp),%ymm5
  402e3a:	00 00 
  402e3c:	c4 41 45 ef f6       	vpxor  %ymm14,%ymm7,%ymm14
  402e41:	c5 b5 eb ff          	vpor   %ymm7,%ymm9,%ymm7
  402e45:	c5 4d ef 96 40 13 00 	vpxor  0x1340(%rsi),%ymm6,%ymm10
  402e4c:	00 
  402e4d:	c5 5d ef c7          	vpxor  %ymm7,%ymm4,%ymm8
  402e51:	c5 b5 ef a6 60 11 00 	vpxor  0x1160(%rsi),%ymm9,%ymm4
  402e58:	00 
  402e59:	c5 0d ef 8e c0 17 00 	vpxor  0x17c0(%rsi),%ymm14,%ymm9
  402e60:	00 
  402e61:	c5 fe 6f bc 24 20 01 	vmovdqu 0x120(%rsp),%ymm7
  402e68:	00 00 
  402e6a:	c5 7e 7f 94 24 60 0b 	vmovdqu %ymm10,0xb60(%rsp)
  402e71:	00 00 
  402e73:	c5 fe 7f a4 24 20 09 	vmovdqu %ymm4,0x920(%rsp)
  402e7a:	00 00 
  402e7c:	c5 fe 6f a4 24 60 05 	vmovdqu 0x560(%rsp),%ymm4
  402e83:	00 00 
  402e85:	c5 7e 7f 8c 24 60 07 	vmovdqu %ymm9,0x760(%rsp)
  402e8c:	00 00 
  402e8e:	c5 3d ef be e0 15 00 	vpxor  0x15e0(%rsi),%ymm8,%ymm15
  402e95:	00 
  402e96:	c5 fd ef f4          	vpxor  %ymm4,%ymm0,%ymm6
  402e9a:	c5 7e 7f bc 24 80 0b 	vmovdqu %ymm15,0xb80(%rsp)
  402ea1:	00 00 
  402ea3:	c5 7e 6f bc 24 00 04 	vmovdqu 0x400(%rsp),%ymm15
  402eaa:	00 00 
  402eac:	c5 45 eb ce          	vpor   %ymm6,%ymm7,%ymm9
  402eb0:	c4 41 5d ef d7       	vpxor  %ymm15,%ymm4,%ymm10
  402eb5:	c5 05 ef c7          	vpxor  %ymm7,%ymm15,%ymm8
  402eb9:	c5 d5 db e6          	vpand  %ymm6,%ymm5,%ymm4
  402ebd:	c4 41 55 ef f1       	vpxor  %ymm9,%ymm5,%ymm14
  402ec2:	c5 fe 6f b4 24 a0 05 	vmovdqu 0x5a0(%rsp),%ymm6
  402ec9:	00 00 
  402ecb:	c5 fe 6f ac 24 20 04 	vmovdqu 0x420(%rsp),%ymm5
  402ed2:	00 00 
  402ed4:	c4 41 5d ef c8       	vpxor  %ymm8,%ymm4,%ymm9
  402ed9:	c4 41 05 ef fe       	vpxor  %ymm14,%ymm15,%ymm15
  402ede:	c4 41 3d db c6       	vpand  %ymm14,%ymm8,%ymm8
  402ee3:	c5 85 ef a6 60 13 00 	vpxor  0x1360(%rsi),%ymm15,%ymm4
  402eea:	00 
  402eeb:	c4 c1 2d ef f8       	vpxor  %ymm8,%ymm10,%ymm7
  402ef0:	c4 41 35 eb d2       	vpor   %ymm10,%ymm9,%ymm10
  402ef5:	c5 35 ef 8e 80 11 00 	vpxor  0x1180(%rsi),%ymm9,%ymm9
  402efc:	00 
  402efd:	c5 7e 6f 84 24 40 01 	vmovdqu 0x140(%rsp),%ymm8
  402f04:	00 00 
  402f06:	c5 fe 7f a4 24 20 0b 	vmovdqu %ymm4,0xb20(%rsp)
  402f0d:	00 00 
  402f0f:	c5 7e 6f bc 24 80 05 	vmovdqu 0x580(%rsp),%ymm15
  402f16:	00 00 
  402f18:	c5 7e 7f 8c 24 e0 08 	vmovdqu %ymm9,0x8e0(%rsp)
  402f1f:	00 00 
  402f21:	c4 c1 0d ef e2       	vpxor  %ymm10,%ymm14,%ymm4
  402f26:	c5 45 ef b6 e0 17 00 	vpxor  0x17e0(%rsi),%ymm7,%ymm14
  402f2d:	00 
  402f2e:	c5 7d ef d6          	vpxor  %ymm6,%ymm0,%ymm10
  402f32:	c5 cd ef f5          	vpxor  %ymm5,%ymm6,%ymm6
  402f36:	c5 5d ef 8e 00 14 00 	vpxor  0x1400(%rsi),%ymm4,%ymm9
  402f3d:	00 
  402f3e:	c4 c1 55 ef e0       	vpxor  %ymm8,%ymm5,%ymm4
  402f43:	c5 7e 7f b4 24 40 07 	vmovdqu %ymm14,0x740(%rsp)
  402f4a:	00 00 
  402f4c:	c4 41 3d eb f2       	vpor   %ymm10,%ymm8,%ymm14
  402f51:	c4 41 05 db c2       	vpand  %ymm10,%ymm15,%ymm8
  402f56:	c4 c1 05 ef fe       	vpxor  %ymm14,%ymm15,%ymm7
  402f5b:	c5 3d ef f4          	vpxor  %ymm4,%ymm8,%ymm14
  402f5f:	c5 dd db e7          	vpand  %ymm7,%ymm4,%ymm4
  402f63:	c5 d5 ef ef          	vpxor  %ymm7,%ymm5,%ymm5
  402f67:	c5 cd ef e4          	vpxor  %ymm4,%ymm6,%ymm4
  402f6b:	c5 8d eb f6          	vpor   %ymm6,%ymm14,%ymm6
  402f6f:	c5 d5 ef ae 80 13 00 	vpxor  0x1380(%rsi),%ymm5,%ymm5
  402f76:	00 
  402f77:	c5 0d ef b6 a0 11 00 	vpxor  0x11a0(%rsi),%ymm14,%ymm14
  402f7e:	00 
  402f7f:	c5 c5 ef fe          	vpxor  %ymm6,%ymm7,%ymm7
  402f83:	c5 fe 7f ac 24 e0 0a 	vmovdqu %ymm5,0xae0(%rsp)
  402f8a:	00 00 
  402f8c:	c5 7e 7f b4 24 00 09 	vmovdqu %ymm14,0x900(%rsp)
  402f93:	00 00 
  402f95:	c5 fe 6f ae 00 16 00 	vmovdqu 0x1600(%rsi),%ymm5
  402f9c:	00 
  402f9d:	c5 c5 ef be 20 14 00 	vpxor  0x1420(%rsi),%ymm7,%ymm7
  402fa4:	00 
  402fa5:	c5 fe 7f 94 24 c0 0d 	vmovdqu %ymm2,0xdc0(%rsp)
  402fac:	00 00 
  402fae:	c5 fe 6f 94 24 a0 0b 	vmovdqu 0xba0(%rsp),%ymm2
  402fb5:	00 00 
  402fb7:	c5 7e 6f 84 24 00 07 	vmovdqu 0x700(%rsp),%ymm8
  402fbe:	00 00 
  402fc0:	c5 fe 6f b4 24 c0 09 	vmovdqu 0x9c0(%rsp),%ymm6
  402fc7:	00 00 
  402fc9:	c5 fe 7f 9c 24 a0 0d 	vmovdqu %ymm3,0xda0(%rsp)
  402fd0:	00 00 
  402fd2:	c5 7e 6f bc 24 a0 09 	vmovdqu 0x9a0(%rsp),%ymm15
  402fd9:	00 00 
  402fdb:	c5 7d ef d2          	vpxor  %ymm2,%ymm0,%ymm10
  402fdf:	c5 5d ef f5          	vpxor  %ymm5,%ymm4,%ymm14
  402fe3:	c5 ed ef e6          	vpxor  %ymm6,%ymm2,%ymm4
  402fe7:	c4 c1 4d ef e8       	vpxor  %ymm8,%ymm6,%ymm5
  402fec:	c4 c1 3d eb da       	vpor   %ymm10,%ymm8,%ymm3
  402ff1:	c4 c1 05 db d2       	vpand  %ymm10,%ymm15,%ymm2
  402ff6:	c5 05 ef d3          	vpxor  %ymm3,%ymm15,%ymm10
  402ffa:	c5 6d ef c5          	vpxor  %ymm5,%ymm2,%ymm8
  402ffe:	c5 fe 6f 9c 24 20 07 	vmovdqu 0x720(%rsp),%ymm3
  403005:	00 00 
  403007:	c4 c1 55 db ea       	vpand  %ymm10,%ymm5,%ymm5
  40300c:	c4 c1 4d ef f2       	vpxor  %ymm10,%ymm6,%ymm6
  403011:	c5 5d ef fd          	vpxor  %ymm5,%ymm4,%ymm15
  403015:	c5 bd eb e4          	vpor   %ymm4,%ymm8,%ymm4
  403019:	c5 cd ef 96 a0 13 00 	vpxor  0x13a0(%rsi),%ymm6,%ymm2
  403020:	00 
  403021:	c5 2d ef d4          	vpxor  %ymm4,%ymm10,%ymm10
  403025:	c5 fe 6f 64 24 40    	vmovdqu 0x40(%rsp),%ymm4
  40302b:	c5 fe 7f 94 24 e0 0d 	vmovdqu %ymm2,0xde0(%rsp)
  403032:	00 00 
  403034:	c5 bd ef 96 c0 11 00 	vpxor  0x11c0(%rsi),%ymm8,%ymm2
  40303b:	00 
  40303c:	c5 ad ef ae 40 14 00 	vpxor  0x1440(%rsi),%ymm10,%ymm5
  403043:	00 
  403044:	c5 05 ef 86 20 16 00 	vpxor  0x1620(%rsi),%ymm15,%ymm8
  40304b:	00 
  40304c:	c5 7e 6f 94 24 20 0a 	vmovdqu 0xa20(%rsp),%ymm10
  403053:	00 00 
  403055:	c5 fe 7f 94 24 00 0e 	vmovdqu %ymm2,0xe00(%rsp)
  40305c:	00 00 
  40305e:	c5 fd ef d4          	vpxor  %ymm4,%ymm0,%ymm2
  403062:	c4 c1 5d ef f2       	vpxor  %ymm10,%ymm4,%ymm6
  403067:	c5 2d ef fb          	vpxor  %ymm3,%ymm10,%ymm15
  40306b:	c5 e5 eb e2          	vpor   %ymm2,%ymm3,%ymm4
  40306f:	c5 fe 6f 9c 24 e0 09 	vmovdqu 0x9e0(%rsp),%ymm3
  403076:	00 00 
  403078:	c5 e5 ef e4          	vpxor  %ymm4,%ymm3,%ymm4
  40307c:	c5 e5 db d2          	vpand  %ymm2,%ymm3,%ymm2
  403080:	c5 2d ef d4          	vpxor  %ymm4,%ymm10,%ymm10
  403084:	c4 c1 6d ef d7       	vpxor  %ymm15,%ymm2,%ymm2
  403089:	c5 05 db fc          	vpand  %ymm4,%ymm15,%ymm15
  40308d:	c5 ad ef 9e c0 13 00 	vpxor  0x13c0(%rsi),%ymm10,%ymm3
  403094:	00 
  403095:	c5 fe 7f 9c 24 20 0e 	vmovdqu %ymm3,0xe20(%rsp)
  40309c:	00 00 
  40309e:	c4 c1 4d ef df       	vpxor  %ymm15,%ymm6,%ymm3
  4030a3:	c5 ed eb f6          	vpor   %ymm6,%ymm2,%ymm6
  4030a7:	c5 ed ef 96 e0 11 00 	vpxor  0x11e0(%rsi),%ymm2,%ymm2
  4030ae:	00 
  4030af:	c5 7e 6f bc 24 40 0a 	vmovdqu 0xa40(%rsp),%ymm15
  4030b6:	00 00 
  4030b8:	c5 5d ef d6          	vpxor  %ymm6,%ymm4,%ymm10
  4030bc:	c5 fe 6f a4 24 60 0d 	vmovdqu 0xd60(%rsp),%ymm4
  4030c3:	00 00 
  4030c5:	c5 fe 7f 94 24 40 0e 	vmovdqu %ymm2,0xe40(%rsp)
  4030cc:	00 00 
  4030ce:	c5 ad ef b6 60 14 00 	vpxor  0x1460(%rsi),%ymm10,%ymm6
  4030d5:	00 
  4030d6:	c5 65 ef 96 40 16 00 	vpxor  0x1640(%rsi),%ymm3,%ymm10
  4030dd:	00 
  4030de:	c5 fd ef dc          	vpxor  %ymm4,%ymm0,%ymm3
  4030e2:	c4 c1 35 ef d6       	vpxor  %ymm14,%ymm9,%ymm2
  4030e7:	c4 c1 5d ef e1       	vpxor  %ymm9,%ymm4,%ymm4
  4030ec:	c5 0d eb f3          	vpor   %ymm3,%ymm14,%ymm14
  4030f0:	c5 85 db db          	vpand  %ymm3,%ymm15,%ymm3
  4030f4:	c4 41 05 ef f6       	vpxor  %ymm14,%ymm15,%ymm14
  4030f9:	c5 65 ef fa          	vpxor  %ymm2,%ymm3,%ymm15
  4030fd:	c4 c1 6d db d6       	vpand  %ymm14,%ymm2,%ymm2
  403102:	c4 41 35 ef ce       	vpxor  %ymm14,%ymm9,%ymm9
  403107:	c5 dd ef d2          	vpxor  %ymm2,%ymm4,%ymm2
  40310b:	c5 85 eb e4          	vpor   %ymm4,%ymm15,%ymm4
  40310f:	c5 35 ef 8e e0 1b 00 	vpxor  0x1be0(%rsi),%ymm9,%ymm9
  403116:	00 
  403117:	c5 ed ef 96 60 1e 00 	vpxor  0x1e60(%rsi),%ymm2,%ymm2
  40311e:	00 
  40311f:	c5 0d ef f4          	vpxor  %ymm4,%ymm14,%ymm14
  403123:	c5 85 ef a6 00 18 00 	vpxor  0x1800(%rsi),%ymm15,%ymm4
  40312a:	00 
  40312b:	c5 7e 6f bc 24 e0 0c 	vmovdqu 0xce0(%rsp),%ymm15
  403132:	00 00 
  403134:	c5 7e 7f 4c 24 20    	vmovdqu %ymm9,0x20(%rsp)
  40313a:	c5 fe 7f 54 24 60    	vmovdqu %ymm2,0x60(%rsp)
  403140:	c5 0d ef 8e 80 1c 00 	vpxor  0x1c80(%rsi),%ymm14,%ymm9
  403147:	00 
  403148:	c4 c1 45 ef d0       	vpxor  %ymm8,%ymm7,%ymm2
  40314d:	c5 7e 7f 8c 24 c0 04 	vmovdqu %ymm9,0x4c0(%rsp)
  403154:	00 00 
  403156:	c4 41 7d ef cf       	vpxor  %ymm15,%ymm0,%ymm9
  40315b:	c5 05 ef ff          	vpxor  %ymm7,%ymm15,%ymm15
  40315f:	c4 41 3d eb f1       	vpor   %ymm9,%ymm8,%ymm14
  403164:	c5 7e 6f 84 24 a0 0a 	vmovdqu 0xaa0(%rsp),%ymm8
  40316b:	00 00 
  40316d:	c4 c1 3d db d9       	vpand  %ymm9,%ymm8,%ymm3
  403172:	c4 41 3d ef f6       	vpxor  %ymm14,%ymm8,%ymm14
  403177:	c5 65 ef c2          	vpxor  %ymm2,%ymm3,%ymm8
  40317b:	c4 c1 6d db d6       	vpand  %ymm14,%ymm2,%ymm2
  403180:	c4 c1 45 ef fe       	vpxor  %ymm14,%ymm7,%ymm7
  403185:	c5 85 ef d2          	vpxor  %ymm2,%ymm15,%ymm2
  403189:	c5 45 ef 8e 00 1a 00 	vpxor  0x1a00(%rsi),%ymm7,%ymm9
  403190:	00 
  403191:	c4 c1 3d eb ff       	vpor   %ymm15,%ymm8,%ymm7
  403196:	c5 3d ef 86 20 18 00 	vpxor  0x1820(%rsi),%ymm8,%ymm8
  40319d:	00 
  40319e:	c5 ed ef 9e 80 1e 00 	vpxor  0x1e80(%rsi),%ymm2,%ymm3
  4031a5:	00 
  4031a6:	c5 fe 6f 94 24 60 0c 	vmovdqu 0xc60(%rsp),%ymm2
  4031ad:	00 00 
  4031af:	c5 0d ef ff          	vpxor  %ymm7,%ymm14,%ymm15
  4031b3:	c5 fe 7f 9c 24 80 00 	vmovdqu %ymm3,0x80(%rsp)
  4031ba:	00 00 
  4031bc:	c5 fd ef fa          	vpxor  %ymm2,%ymm0,%ymm7
  4031c0:	c5 05 ef b6 a0 1c 00 	vpxor  0x1ca0(%rsi),%ymm15,%ymm14
  4031c7:	00 
  4031c8:	c5 2d eb ff          	vpor   %ymm7,%ymm10,%ymm15
  4031cc:	c5 7e 7f b4 24 00 05 	vmovdqu %ymm14,0x500(%rsp)
  4031d3:	00 00 
  4031d5:	c5 6d ef f5          	vpxor  %ymm5,%ymm2,%ymm14
  4031d9:	c4 c1 55 ef d2       	vpxor  %ymm10,%ymm5,%ymm2
  4031de:	c5 7e 6f 94 24 40 0b 	vmovdqu 0xb40(%rsp),%ymm10
  4031e5:	00 00 
  4031e7:	c5 ad db ff          	vpand  %ymm7,%ymm10,%ymm7
  4031eb:	c4 41 2d ef d7       	vpxor  %ymm15,%ymm10,%ymm10
  4031f0:	c5 c5 ef da          	vpxor  %ymm2,%ymm7,%ymm3
  4031f4:	c4 c1 55 ef ea       	vpxor  %ymm10,%ymm5,%ymm5
  4031f9:	c4 c1 6d db d2       	vpand  %ymm10,%ymm2,%ymm2
  4031fe:	c5 d5 ef be 20 1a 00 	vpxor  0x1a20(%rsi),%ymm5,%ymm7
  403205:	00 
  403206:	c4 c1 65 eb ee       	vpor   %ymm14,%ymm3,%ymm5
  40320b:	c5 0d ef fa          	vpxor  %ymm2,%ymm14,%ymm15
  40320f:	c5 2d ef f5          	vpxor  %ymm5,%ymm10,%ymm14
  403213:	c5 65 ef 96 40 18 00 	vpxor  0x1840(%rsi),%ymm3,%ymm10
  40321a:	00 
  40321b:	c5 05 ef be a0 1e 00 	vpxor  0x1ea0(%rsi),%ymm15,%ymm15
  403222:	00 
  403223:	c5 8d ef 9e c0 1c 00 	vpxor  0x1cc0(%rsi),%ymm14,%ymm3
  40322a:	00 
  40322b:	c5 7e 7f 94 24 40 03 	vmovdqu %ymm10,0x340(%rsp)
  403232:	00 00 
  403234:	c5 7e 6f 94 24 c0 0b 	vmovdqu 0xbc0(%rsp),%ymm10
  40323b:	00 00 
  40323d:	c5 7e 6f b4 24 40 08 	vmovdqu 0x840(%rsp),%ymm14
  403244:	00 00 
  403246:	c5 fe 7f 9c 24 40 05 	vmovdqu %ymm3,0x540(%rsp)
  40324d:	00 00 
  40324f:	c5 fe 6f 9c 24 00 0b 	vmovdqu 0xb00(%rsp),%ymm3
  403256:	00 00 
  403258:	c5 7e 7f bc 24 a0 00 	vmovdqu %ymm15,0xa0(%rsp)
  40325f:	00 00 
  403261:	c4 c1 7d ef d2       	vpxor  %ymm10,%ymm0,%ymm2
  403266:	c5 ad ef ee          	vpxor  %ymm6,%ymm10,%ymm5
  40326a:	c4 41 4d ef d6       	vpxor  %ymm14,%ymm6,%ymm10
  40326f:	c5 0d eb fa          	vpor   %ymm2,%ymm14,%ymm15
  403273:	c5 e5 db d2          	vpand  %ymm2,%ymm3,%ymm2
  403277:	c4 c1 65 ef df       	vpxor  %ymm15,%ymm3,%ymm3
  40327c:	c4 41 6d ef f2       	vpxor  %ymm10,%ymm2,%ymm14
  403281:	c5 cd ef f3          	vpxor  %ymm3,%ymm6,%ymm6
  403285:	c5 2d db d3          	vpand  %ymm3,%ymm10,%ymm10
  403289:	c5 cd ef 96 40 1a 00 	vpxor  0x1a40(%rsi),%ymm6,%ymm2
  403290:	00 
  403291:	c4 41 55 ef fa       	vpxor  %ymm10,%ymm5,%ymm15
  403296:	c5 8d eb ed          	vpor   %ymm5,%ymm14,%ymm5
  40329a:	c5 8d ef b6 60 18 00 	vpxor  0x1860(%rsi),%ymm14,%ymm6
  4032a1:	00 
  4032a2:	c5 fe 7f 94 24 c0 05 	vmovdqu %ymm2,0x5c0(%rsp)
  4032a9:	00 00 
  4032ab:	c5 fe 6f 94 24 00 0c 	vmovdqu 0xc00(%rsp),%ymm2
  4032b2:	00 00 
  4032b4:	c5 7e 6f 94 24 20 0d 	vmovdqu 0xd20(%rsp),%ymm10
  4032bb:	00 00 
  4032bd:	c5 fe 7f b4 24 80 03 	vmovdqu %ymm6,0x380(%rsp)
  4032c4:	00 00 
  4032c6:	c5 fe 6f b4 24 c0 0a 	vmovdqu 0xac0(%rsp),%ymm6
  4032cd:	00 00 
  4032cf:	c5 05 ef be c0 1e 00 	vpxor  0x1ec0(%rsi),%ymm15,%ymm15
  4032d6:	00 
  4032d7:	c5 e5 ef dd          	vpxor  %ymm5,%ymm3,%ymm3
  4032db:	c4 c1 6d ef ea       	vpxor  %ymm10,%ymm2,%ymm5
  4032e0:	c5 7e 7f bc 24 c0 00 	vmovdqu %ymm15,0xc0(%rsp)
  4032e7:	00 00 
  4032e9:	c5 7e 6f bc 24 80 08 	vmovdqu 0x880(%rsp),%ymm15
  4032f0:	00 00 
  4032f2:	c5 65 ef b6 e0 1c 00 	vpxor  0x1ce0(%rsi),%ymm3,%ymm14
  4032f9:	00 
  4032fa:	c5 fd ef da          	vpxor  %ymm2,%ymm0,%ymm3
  4032fe:	c4 c1 2d ef d7       	vpxor  %ymm15,%ymm10,%ymm2
  403303:	c5 7e 7f b4 24 60 05 	vmovdqu %ymm14,0x560(%rsp)
  40330a:	00 00 
  40330c:	c5 05 eb f3          	vpor   %ymm3,%ymm15,%ymm14
  403310:	c5 cd db db          	vpand  %ymm3,%ymm6,%ymm3
  403314:	c4 41 4d ef f6       	vpxor  %ymm14,%ymm6,%ymm14
  403319:	c5 e5 ef f2          	vpxor  %ymm2,%ymm3,%ymm6
  40331d:	c4 41 2d ef d6       	vpxor  %ymm14,%ymm10,%ymm10
  403322:	c4 c1 6d db d6       	vpand  %ymm14,%ymm2,%ymm2
  403327:	c5 2d ef 96 60 1a 00 	vpxor  0x1a60(%rsi),%ymm10,%ymm10
  40332e:	00 
  40332f:	c5 55 ef fa          	vpxor  %ymm2,%ymm5,%ymm15
  403333:	c5 cd eb ed          	vpor   %ymm5,%ymm6,%ymm5
  403337:	c5 cd ef 96 80 18 00 	vpxor  0x1880(%rsi),%ymm6,%ymm2
  40333e:	00 
  40333f:	c5 7e 7f 94 24 e0 05 	vmovdqu %ymm10,0x5e0(%rsp)
  403346:	00 00 
  403348:	c5 fe 6f b4 24 20 0c 	vmovdqu 0xc20(%rsp),%ymm6
  40334f:	00 00 
  403351:	c5 0d ef d5          	vpxor  %ymm5,%ymm14,%ymm10
  403355:	c5 05 ef be e0 1e 00 	vpxor  0x1ee0(%rsi),%ymm15,%ymm15
  40335c:	00 
  40335d:	c5 7e 6f b4 24 c0 08 	vmovdqu 0x8c0(%rsp),%ymm14
  403364:	00 00 
  403366:	c5 fe 7f 94 24 a0 03 	vmovdqu %ymm2,0x3a0(%rsp)
  40336d:	00 00 
  40336f:	c5 ad ef ae 00 1d 00 	vpxor  0x1d00(%rsi),%ymm10,%ymm5
  403376:	00 
  403377:	c5 fd ef de          	vpxor  %ymm6,%ymm0,%ymm3
  40337b:	c5 7e 7f bc 24 00 01 	vmovdqu %ymm15,0x100(%rsp)
  403382:	00 00 
  403384:	c5 7e 6f 94 24 40 0d 	vmovdqu 0xd40(%rsp),%ymm10
  40338b:	00 00 
  40338d:	c5 7e 6f bc 24 80 0a 	vmovdqu 0xa80(%rsp),%ymm15
  403394:	00 00 
  403396:	c5 fe 7f ac 24 80 05 	vmovdqu %ymm5,0x580(%rsp)
  40339d:	00 00 
  40339f:	c4 c1 4d ef ea       	vpxor  %ymm10,%ymm6,%ymm5
  4033a4:	c5 8d eb f3          	vpor   %ymm3,%ymm14,%ymm6
  4033a8:	c4 c1 2d ef d6       	vpxor  %ymm14,%ymm10,%ymm2
  4033ad:	c5 85 db db          	vpand  %ymm3,%ymm15,%ymm3
  4033b1:	c5 05 ef f6          	vpxor  %ymm6,%ymm15,%ymm14
  4033b5:	c5 e5 ef f2          	vpxor  %ymm2,%ymm3,%ymm6
  4033b9:	c4 41 2d ef d6       	vpxor  %ymm14,%ymm10,%ymm10
  4033be:	c4 c1 6d db d6       	vpand  %ymm14,%ymm2,%ymm2
  4033c3:	c5 2d ef be 80 1a 00 	vpxor  0x1a80(%rsi),%ymm10,%ymm15
  4033ca:	00 
  4033cb:	c5 7e 6f 94 24 80 0d 	vmovdqu 0xd80(%rsp),%ymm10
  4033d2:	00 00 
  4033d4:	c5 7e 7f bc 24 00 06 	vmovdqu %ymm15,0x600(%rsp)
  4033db:	00 00 
  4033dd:	c5 55 ef fa          	vpxor  %ymm2,%ymm5,%ymm15
  4033e1:	c5 cd eb ed          	vpor   %ymm5,%ymm6,%ymm5
  4033e5:	c5 cd ef b6 a0 18 00 	vpxor  0x18a0(%rsi),%ymm6,%ymm6
  4033ec:	00 
  4033ed:	c5 85 ef 96 00 1f 00 	vpxor  0x1f00(%rsi),%ymm15,%ymm2
  4033f4:	00 
  4033f5:	c5 0d ef f5          	vpxor  %ymm5,%ymm14,%ymm14
  4033f9:	c5 fe 6f ac 24 40 0c 	vmovdqu 0xc40(%rsp),%ymm5
  403400:	00 00 
  403402:	c5 7e 6f bc 24 a0 08 	vmovdqu 0x8a0(%rsp),%ymm15
  403409:	00 00 
  40340b:	c5 fe 7f b4 24 c0 03 	vmovdqu %ymm6,0x3c0(%rsp)
  403412:	00 00 
  403414:	c5 fe 6f b4 24 60 0a 	vmovdqu 0xa60(%rsp),%ymm6
  40341b:	00 00 
  40341d:	c5 fe 7f 94 24 20 01 	vmovdqu %ymm2,0x120(%rsp)
  403424:	00 00 
  403426:	c5 8d ef 9e 20 1d 00 	vpxor  0x1d20(%rsi),%ymm14,%ymm3
  40342d:	00 
  40342e:	c4 c1 2d ef d7       	vpxor  %ymm15,%ymm10,%ymm2
  403433:	c5 fe 7f 9c 24 a0 05 	vmovdqu %ymm3,0x5a0(%rsp)
  40343a:	00 00 
  40343c:	c5 fd ef dd          	vpxor  %ymm5,%ymm0,%ymm3
  403440:	c4 c1 55 ef ea       	vpxor  %ymm10,%ymm5,%ymm5
  403445:	c5 05 eb f3          	vpor   %ymm3,%ymm15,%ymm14
  403449:	c5 cd db db          	vpand  %ymm3,%ymm6,%ymm3
  40344d:	c4 41 4d ef f6       	vpxor  %ymm14,%ymm6,%ymm14
  403452:	c5 e5 ef f2          	vpxor  %ymm2,%ymm3,%ymm6
  403456:	c4 c1 6d db d6       	vpand  %ymm14,%ymm2,%ymm2
  40345b:	c4 41 2d ef d6       	vpxor  %ymm14,%ymm10,%ymm10
  403460:	c5 4d ef be c0 18 00 	vpxor  0x18c0(%rsi),%ymm6,%ymm15
  403467:	00 
  403468:	c5 d5 ef d2          	vpxor  %ymm2,%ymm5,%ymm2
  40346c:	c5 cd eb ed          	vpor   %ymm5,%ymm6,%ymm5
  403470:	c5 2d ef 96 a0 1a 00 	vpxor  0x1aa0(%rsi),%ymm10,%ymm10
  403477:	00 
  403478:	c5 7e 7f bc 24 e0 03 	vmovdqu %ymm15,0x3e0(%rsp)
  40347f:	00 00 
  403481:	c5 0d ef f5          	vpxor  %ymm5,%ymm14,%ymm14
  403485:	c5 ed ef 9e 20 1f 00 	vpxor  0x1f20(%rsi),%ymm2,%ymm3
  40348c:	00 
  40348d:	c5 7e 7f 94 24 a0 06 	vmovdqu %ymm10,0x6a0(%rsp)
  403494:	00 00 
  403496:	c5 fe 6f 94 24 a0 0c 	vmovdqu 0xca0(%rsp),%ymm2
  40349d:	00 00 
  40349f:	c5 7e 6f 94 24 60 08 	vmovdqu 0x860(%rsp),%ymm10
  4034a6:	00 00 
  4034a8:	c5 fe 7f 9c 24 40 01 	vmovdqu %ymm3,0x140(%rsp)
  4034af:	00 00 
  4034b1:	c5 8d ef b6 40 1d 00 	vpxor  0x1d40(%rsi),%ymm14,%ymm6
  4034b8:	00 
  4034b9:	c4 41 6d ef fd       	vpxor  %ymm13,%ymm2,%ymm15
  4034be:	c4 c1 15 ef ea       	vpxor  %ymm10,%ymm13,%ymm5
  4034c3:	c5 7e 6f b4 24 00 0a 	vmovdqu 0xa00(%rsp),%ymm14
  4034ca:	00 00 
  4034cc:	c5 fe 7f b4 24 80 06 	vmovdqu %ymm6,0x680(%rsp)
  4034d3:	00 00 
  4034d5:	c5 fd ef f2          	vpxor  %ymm2,%ymm0,%ymm6
  4034d9:	c5 ad eb de          	vpor   %ymm6,%ymm10,%ymm3
  4034dd:	c5 8d db d6          	vpand  %ymm6,%ymm14,%ymm2
  4034e1:	c5 0d ef d3          	vpxor  %ymm3,%ymm14,%ymm10
  4034e5:	c5 ed ef d5          	vpxor  %ymm5,%ymm2,%ymm2
  4034e9:	c5 fe 6f 9c 24 80 0c 	vmovdqu 0xc80(%rsp),%ymm3
  4034f0:	00 00 
  4034f2:	c4 c1 55 db ea       	vpand  %ymm10,%ymm5,%ymm5
  4034f7:	c4 41 15 ef ea       	vpxor  %ymm10,%ymm13,%ymm13
  4034fc:	c5 85 ef f5          	vpxor  %ymm5,%ymm15,%ymm6
  403500:	c4 41 6d eb ff       	vpor   %ymm15,%ymm2,%ymm15
  403505:	c5 ed ef 96 e0 18 00 	vpxor  0x18e0(%rsi),%ymm2,%ymm2
  40350c:	00 
  40350d:	c5 15 ef ae c0 1a 00 	vpxor  0x1ac0(%rsi),%ymm13,%ymm13
  403514:	00 
  403515:	c5 4d ef b6 40 1f 00 	vpxor  0x1f40(%rsi),%ymm6,%ymm14
  40351c:	00 
  40351d:	c4 41 2d ef d7       	vpxor  %ymm15,%ymm10,%ymm10
  403522:	c5 7e 6f bc 24 20 08 	vmovdqu 0x820(%rsp),%ymm15
  403529:	00 00 
  40352b:	c5 fe 7f 94 24 00 04 	vmovdqu %ymm2,0x400(%rsp)
  403532:	00 00 
  403534:	c5 7e 7f b4 24 a0 01 	vmovdqu %ymm14,0x1a0(%rsp)
  40353b:	00 00 
  40353d:	c5 7e 7f ac 24 c0 06 	vmovdqu %ymm13,0x6c0(%rsp)
  403544:	00 00 
  403546:	c5 ad ef 96 60 1d 00 	vpxor  0x1d60(%rsi),%ymm10,%ymm2
  40354d:	00 
  40354e:	c5 7d ef d3          	vpxor  %ymm3,%ymm0,%ymm10
  403552:	c4 c1 75 ef ef       	vpxor  %ymm15,%ymm1,%ymm5
  403557:	c5 65 ef e9          	vpxor  %ymm1,%ymm3,%ymm13
  40355b:	c4 c1 05 eb f2       	vpor   %ymm10,%ymm15,%ymm6
  403560:	c5 7e 6f bc 24 80 09 	vmovdqu 0x980(%rsp),%ymm15
  403567:	00 00 
  403569:	c4 41 05 db f2       	vpand  %ymm10,%ymm15,%ymm14
  40356e:	c5 05 ef d6          	vpxor  %ymm6,%ymm15,%ymm10
  403572:	c5 8d ef dd          	vpxor  %ymm5,%ymm14,%ymm3
  403576:	c4 c1 75 ef ca       	vpxor  %ymm10,%ymm1,%ymm1
  40357b:	c4 c1 55 db ea       	vpand  %ymm10,%ymm5,%ymm5
  403580:	c5 f5 ef 8e e0 1a 00 	vpxor  0x1ae0(%rsi),%ymm1,%ymm1
  403587:	00 
  403588:	c5 15 ef f5          	vpxor  %ymm5,%ymm13,%ymm14
  40358c:	c4 41 65 eb ed       	vpor   %ymm13,%ymm3,%ymm13
  403591:	c5 fe 7f 8c 24 60 0e 	vmovdqu %ymm1,0xe60(%rsp)
  403598:	00 00 
  40359a:	c5 fe 6f 8c 24 e0 0b 	vmovdqu 0xbe0(%rsp),%ymm1
  4035a1:	00 00 
  4035a3:	c4 41 2d ef fd       	vpxor  %ymm13,%ymm10,%ymm15
  4035a8:	c5 65 ef 96 00 19 00 	vpxor  0x1900(%rsi),%ymm3,%ymm10
  4035af:	00 
  4035b0:	c5 8d ef 9e 60 1f 00 	vpxor  0x1f60(%rsi),%ymm14,%ymm3
  4035b7:	00 
  4035b8:	c5 fd ef e9          	vpxor  %ymm1,%ymm0,%ymm5
  4035bc:	c5 85 ef b6 80 1d 00 	vpxor  0x1d80(%rsi),%ymm15,%ymm6
  4035c3:	00 
  4035c4:	c4 41 75 ef f4       	vpxor  %ymm12,%ymm1,%ymm14
  4035c9:	c5 7e 7f 94 24 60 03 	vmovdqu %ymm10,0x360(%rsp)
  4035d0:	00 00 
  4035d2:	c5 7e 6f 94 24 00 08 	vmovdqu 0x800(%rsp),%ymm10
  4035d9:	00 00 
  4035db:	c5 7e 6f ac 24 60 09 	vmovdqu 0x960(%rsp),%ymm13
  4035e2:	00 00 
  4035e4:	c5 fe 7f b4 24 80 0e 	vmovdqu %ymm6,0xe80(%rsp)
  4035eb:	00 00 
  4035ed:	c5 fe 7f 9c 24 c0 01 	vmovdqu %ymm3,0x1c0(%rsp)
  4035f4:	00 00 
  4035f6:	c5 2d eb fd          	vpor   %ymm5,%ymm10,%ymm15
  4035fa:	c4 c1 1d ef f2       	vpxor  %ymm10,%ymm12,%ymm6
  4035ff:	c5 95 db dd          	vpand  %ymm5,%ymm13,%ymm3
  403603:	c4 41 15 ef ff       	vpxor  %ymm15,%ymm13,%ymm15
  403608:	c5 65 ef ee          	vpxor  %ymm6,%ymm3,%ymm13
  40360c:	c5 fe 6f 9c 24 60 0b 	vmovdqu 0xb60(%rsp),%ymm3
  403613:	00 00 
  403615:	c4 41 1d ef e7       	vpxor  %ymm15,%ymm12,%ymm12
  40361a:	c4 c1 15 eb ee       	vpor   %ymm14,%ymm13,%ymm5
  40361f:	c4 41 4d db d7       	vpand  %ymm15,%ymm6,%ymm10
  403624:	c5 15 ef ae 20 19 00 	vpxor  0x1920(%rsi),%ymm13,%ymm13
  40362b:	00 
  40362c:	c5 9d ef 8e 00 1b 00 	vpxor  0x1b00(%rsi),%ymm12,%ymm1
  403633:	00 
  403634:	c5 05 ef fd          	vpxor  %ymm5,%ymm15,%ymm15
  403638:	c4 c1 0d ef f2       	vpxor  %ymm10,%ymm14,%ymm6
  40363d:	c4 c1 65 ef eb       	vpxor  %ymm11,%ymm3,%ymm5
  403642:	c5 fe 7f 8c 24 60 06 	vmovdqu %ymm1,0x660(%rsp)
  403649:	00 00 
  40364b:	c5 fe 6f 8c 24 e0 07 	vmovdqu 0x7e0(%rsp),%ymm1
  403652:	00 00 
  403654:	c5 7e 7f ac 24 20 03 	vmovdqu %ymm13,0x320(%rsp)
  40365b:	00 00 
  40365d:	c5 05 ef a6 a0 1d 00 	vpxor  0x1da0(%rsi),%ymm15,%ymm12
  403664:	00 
  403665:	c5 7d ef eb          	vpxor  %ymm3,%ymm0,%ymm13
  403669:	c5 25 ef d1          	vpxor  %ymm1,%ymm11,%ymm10
  40366d:	c5 4d ef b6 80 1f 00 	vpxor  0x1f80(%rsi),%ymm6,%ymm14
  403674:	00 
  403675:	c5 7e 6f bc 24 40 09 	vmovdqu 0x940(%rsp),%ymm15
  40367c:	00 00 
  40367e:	c5 7e 7f a4 24 a0 0e 	vmovdqu %ymm12,0xea0(%rsp)
  403685:	00 00 
  403687:	c4 41 75 eb e5       	vpor   %ymm13,%ymm1,%ymm12
  40368c:	c5 7e 7f b4 24 e0 01 	vmovdqu %ymm14,0x1e0(%rsp)
  403693:	00 00 
  403695:	c5 7e 6f b4 24 c0 0c 	vmovdqu 0xcc0(%rsp),%ymm14
  40369c:	00 00 
  40369e:	c4 c1 05 db f5       	vpand  %ymm13,%ymm15,%ymm6
  4036a3:	c4 c1 05 ef dc       	vpxor  %ymm12,%ymm15,%ymm3
  4036a8:	c4 c1 4d ef ca       	vpxor  %ymm10,%ymm6,%ymm1
  4036ad:	c5 2d db d3          	vpand  %ymm3,%ymm10,%ymm10
  4036b1:	c5 25 ef db          	vpxor  %ymm3,%ymm11,%ymm11
  4036b5:	c4 41 55 ef e2       	vpxor  %ymm10,%ymm5,%ymm12
  4036ba:	c5 f5 eb ed          	vpor   %ymm5,%ymm1,%ymm5
  4036be:	c5 25 ef 9e 20 1b 00 	vpxor  0x1b20(%rsi),%ymm11,%ymm11
  4036c5:	00 
  4036c6:	c5 f5 ef 8e 40 19 00 	vpxor  0x1940(%rsi),%ymm1,%ymm1
  4036cd:	00 
  4036ce:	c5 9d ef b6 a0 1f 00 	vpxor  0x1fa0(%rsi),%ymm12,%ymm6
  4036d5:	00 
  4036d6:	c5 65 ef ed          	vpxor  %ymm5,%ymm3,%ymm13
  4036da:	c5 fe 6f 9c 24 20 0b 	vmovdqu 0xb20(%rsp),%ymm3
  4036e1:	00 00 
  4036e3:	c5 7e 7f 9c 24 20 05 	vmovdqu %ymm11,0x520(%rsp)
  4036ea:	00 00 
  4036ec:	c5 7e 6f 9c 24 c0 07 	vmovdqu 0x7c0(%rsp),%ymm11
  4036f3:	00 00 
  4036f5:	c5 fe 7f 8c 24 00 03 	vmovdqu %ymm1,0x300(%rsp)
  4036fc:	00 00 
  4036fe:	c5 7e 6f 94 24 20 09 	vmovdqu 0x920(%rsp),%ymm10
  403705:	00 00 
  403707:	c5 fe 7f b4 24 00 02 	vmovdqu %ymm6,0x200(%rsp)
  40370e:	00 00 
  403710:	c5 fd ef cb          	vpxor  %ymm3,%ymm0,%ymm1
  403714:	c5 15 ef be c0 1d 00 	vpxor  0x1dc0(%rsi),%ymm13,%ymm15
  40371b:	00 
  40371c:	c4 41 0d ef e3       	vpxor  %ymm11,%ymm14,%ymm12
  403721:	c4 c1 65 ef f6       	vpxor  %ymm14,%ymm3,%ymm6
  403726:	c5 a5 eb e9          	vpor   %ymm1,%ymm11,%ymm5
  40372a:	c5 7e 7f bc 24 c0 0e 	vmovdqu %ymm15,0xec0(%rsp)
  403731:	00 00 
  403733:	c5 fe 6f 9c 24 a0 07 	vmovdqu 0x7a0(%rsp),%ymm3
  40373a:	00 00 
  40373c:	c5 2d db f9          	vpand  %ymm1,%ymm10,%ymm15
  403740:	c5 2d ef ed          	vpxor  %ymm5,%ymm10,%ymm13
  403744:	c4 41 05 ef fc       	vpxor  %ymm12,%ymm15,%ymm15
  403749:	c4 41 0d ef f5       	vpxor  %ymm13,%ymm14,%ymm14
  40374e:	c4 c1 1d db cd       	vpand  %ymm13,%ymm12,%ymm1
  403753:	c5 05 eb d6          	vpor   %ymm6,%ymm15,%ymm10
  403757:	c5 0d ef 9e 40 1b 00 	vpxor  0x1b40(%rsi),%ymm14,%ymm11
  40375e:	00 
  40375f:	c5 85 ef ae 60 19 00 	vpxor  0x1960(%rsi),%ymm15,%ymm5
  403766:	00 
  403767:	c5 4d ef e1          	vpxor  %ymm1,%ymm6,%ymm12
  40376b:	c4 41 15 ef ea       	vpxor  %ymm10,%ymm13,%ymm13
  403770:	c5 7e 6f b4 24 e0 0a 	vmovdqu 0xae0(%rsp),%ymm14
  403777:	00 00 
  403779:	c5 7e 7f 9c 24 e0 04 	vmovdqu %ymm11,0x4e0(%rsp)
  403780:	00 00 
  403782:	c5 fe 7f ac 24 e0 02 	vmovdqu %ymm5,0x2e0(%rsp)
  403789:	00 00 
  40378b:	c5 fe 6f ac 24 a0 0d 	vmovdqu 0xda0(%rsp),%ymm5
  403792:	00 00 
  403794:	c5 15 ef be e0 1d 00 	vpxor  0x1de0(%rsi),%ymm13,%ymm15
  40379b:	00 
  40379c:	c4 41 7d ef de       	vpxor  %ymm14,%ymm0,%ymm11
  4037a1:	c5 9d ef b6 c0 1f 00 	vpxor  0x1fc0(%rsi),%ymm12,%ymm6
  4037a8:	00 
  4037a9:	c5 d5 ef cb          	vpxor  %ymm3,%ymm5,%ymm1
  4037ad:	c5 0d ef d5          	vpxor  %ymm5,%ymm14,%ymm10
  4037b1:	c5 7e 6f ac 24 e0 08 	vmovdqu 0x8e0(%rsp),%ymm13
  4037b8:	00 00 
  4037ba:	c5 7e 7f bc 24 40 06 	vmovdqu %ymm15,0x640(%rsp)
  4037c1:	00 00 
  4037c3:	c5 fe 7f b4 24 80 01 	vmovdqu %ymm6,0x180(%rsp)
  4037ca:	00 00 
  4037cc:	c4 41 65 eb fb       	vpor   %ymm11,%ymm3,%ymm15
  4037d1:	c4 41 15 db e3       	vpand  %ymm11,%ymm13,%ymm12
  4037d6:	c4 c1 15 ef f7       	vpxor  %ymm15,%ymm13,%ymm6
  4037db:	c5 1d ef d9          	vpxor  %ymm1,%ymm12,%ymm11
  4037df:	c5 7e 6f ac 24 80 07 	vmovdqu 0x780(%rsp),%ymm13
  4037e6:	00 00 
  4037e8:	c5 7e 6f a4 24 00 09 	vmovdqu 0x900(%rsp),%ymm12
  4037ef:	00 00 
  4037f1:	c5 f5 db ce          	vpand  %ymm6,%ymm1,%ymm1
  4037f5:	c5 d5 ef ee          	vpxor  %ymm6,%ymm5,%ymm5
  4037f9:	c5 ad ef c9          	vpxor  %ymm1,%ymm10,%ymm1
  4037fd:	c4 41 25 eb d2       	vpor   %ymm10,%ymm11,%ymm10
  403802:	c5 55 ef b6 60 1b 00 	vpxor  0x1b60(%rsi),%ymm5,%ymm14
  403809:	00 
  40380a:	c5 fe 6f ac 24 c0 0d 	vmovdqu 0xdc0(%rsp),%ymm5
  403811:	00 00 
  403813:	c4 c1 4d ef da       	vpxor  %ymm10,%ymm6,%ymm3
  403818:	c5 a5 ef b6 80 19 00 	vpxor  0x1980(%rsi),%ymm11,%ymm6
  40381f:	00 
  403820:	c5 75 ef 9e e0 1f 00 	vpxor  0x1fe0(%rsi),%ymm1,%ymm11
  403827:	00 
  403828:	c5 7e 6f 94 24 e0 0d 	vmovdqu 0xde0(%rsp),%ymm10
  40382f:	00 00 
  403831:	c5 7e 7f b4 24 a0 04 	vmovdqu %ymm14,0x4a0(%rsp)
  403838:	00 00 
  40383a:	c5 fe 7f b4 24 c0 02 	vmovdqu %ymm6,0x2c0(%rsp)
  403841:	00 00 
  403843:	c5 7e 7f 9c 24 60 01 	vmovdqu %ymm11,0x160(%rsp)
  40384a:	00 00 
  40384c:	c4 41 7d ef fa       	vpxor  %ymm10,%ymm0,%ymm15
  403851:	c5 e5 ef b6 00 1c 00 	vpxor  0x1c00(%rsi),%ymm3,%ymm6
  403858:	00 
  403859:	c4 41 55 ef dd       	vpxor  %ymm13,%ymm5,%ymm11
  40385e:	c5 ad ef cd          	vpxor  %ymm5,%ymm10,%ymm1
  403862:	c4 41 15 eb f7       	vpor   %ymm15,%ymm13,%ymm14
  403867:	c4 c1 1d db df       	vpand  %ymm15,%ymm12,%ymm3
  40386c:	c4 41 1d ef f6       	vpxor  %ymm14,%ymm12,%ymm14
  403871:	c4 41 65 ef d3       	vpxor  %ymm11,%ymm3,%ymm10
  403876:	c5 7e 6f a4 24 20 0e 	vmovdqu 0xe20(%rsp),%ymm12
  40387d:	00 00 
  40387f:	c5 fe 6f 9c 24 00 0d 	vmovdqu 0xd00(%rsp),%ymm3
  403886:	00 00 
  403888:	c4 41 25 db de       	vpand  %ymm14,%ymm11,%ymm11
  40388d:	c4 c1 55 ef ee       	vpxor  %ymm14,%ymm5,%ymm5
  403892:	c4 41 75 ef fb       	vpxor  %ymm11,%ymm1,%ymm15
  403897:	c5 ad eb c9          	vpor   %ymm1,%ymm10,%ymm1
  40389b:	c5 d5 ef ae 80 1b 00 	vpxor  0x1b80(%rsi),%ymm5,%ymm5
  4038a2:	00 
  4038a3:	c5 2d ef 96 a0 19 00 	vpxor  0x19a0(%rsi),%ymm10,%ymm10
  4038aa:	00 
  4038ab:	c5 7e 6f 9c 24 60 07 	vmovdqu 0x760(%rsp),%ymm11
  4038b2:	00 00 
  4038b4:	c5 0d ef e9          	vpxor  %ymm1,%ymm14,%ymm13
  4038b8:	c5 05 ef b6 00 1e 00 	vpxor  0x1e00(%rsi),%ymm15,%ymm14
  4038bf:	00 
  4038c0:	c4 41 7d ef fc       	vpxor  %ymm12,%ymm0,%ymm15
  4038c5:	c5 9d ef cb          	vpxor  %ymm3,%ymm12,%ymm1
  4038c9:	c4 41 65 ef e3       	vpxor  %ymm11,%ymm3,%ymm12
  4038ce:	c5 fe 7f ac 24 80 04 	vmovdqu %ymm5,0x480(%rsp)
  4038d5:	00 00 
  4038d7:	c5 fe 6f ac 24 00 0e 	vmovdqu 0xe00(%rsp),%ymm5
  4038de:	00 00 
  4038e0:	c5 7e 7f 94 24 a0 02 	vmovdqu %ymm10,0x2a0(%rsp)
  4038e7:	00 00 
  4038e9:	c5 15 ef 96 20 1c 00 	vpxor  0x1c20(%rsi),%ymm13,%ymm10
  4038f0:	00 
  4038f1:	c4 41 25 eb ef       	vpor   %ymm15,%ymm11,%ymm13
  4038f6:	c4 41 55 db ff       	vpand  %ymm15,%ymm5,%ymm15
  4038fb:	c4 41 55 ef ed       	vpxor  %ymm13,%ymm5,%ymm13
  403900:	c4 c1 05 ef ec       	vpxor  %ymm12,%ymm15,%ymm5
  403905:	c4 c1 65 ef dd       	vpxor  %ymm13,%ymm3,%ymm3
  40390a:	c4 41 1d db fd       	vpand  %ymm13,%ymm12,%ymm15
  40390f:	c5 65 ef 9e a0 1b 00 	vpxor  0x1ba0(%rsi),%ymm3,%ymm11
  403916:	00 
  403917:	c5 fe 6f 9c 24 e0 06 	vmovdqu 0x6e0(%rsp),%ymm3
  40391e:	00 00 
  403920:	c5 7e 7f 9c 24 60 04 	vmovdqu %ymm11,0x460(%rsp)
  403927:	00 00 
  403929:	c4 41 75 ef df       	vpxor  %ymm15,%ymm1,%ymm11
  40392e:	c5 d5 eb c9          	vpor   %ymm1,%ymm5,%ymm1
  403932:	c5 d5 ef ae c0 19 00 	vpxor  0x19c0(%rsi),%ymm5,%ymm5
  403939:	00 
  40393a:	c5 7e 6f bc 24 40 07 	vmovdqu 0x740(%rsp),%ymm15
  403941:	00 00 
  403943:	c5 15 ef e9          	vpxor  %ymm1,%ymm13,%ymm13
  403947:	c5 fd ef cb          	vpxor  %ymm3,%ymm0,%ymm1
  40394b:	c5 fe 7f ac 24 60 02 	vmovdqu %ymm5,0x260(%rsp)
  403952:	00 00 
  403954:	c5 15 ef a6 40 1c 00 	vpxor  0x1c40(%rsi),%ymm13,%ymm12
  40395b:	00 
  40395c:	c5 a5 ef ae 20 1e 00 	vpxor  0x1e20(%rsi),%ymm11,%ymm5
  403963:	00 
  403964:	c5 7e 7f a4 24 e0 0e 	vmovdqu %ymm12,0xee0(%rsp)
  40396b:	00 00 
  40396d:	c5 7e 6f a4 24 80 0b 	vmovdqu 0xb80(%rsp),%ymm12
  403974:	00 00 
  403976:	c4 41 65 ef ec       	vpxor  %ymm12,%ymm3,%ymm13
  40397b:	c4 41 1d ef df       	vpxor  %ymm15,%ymm12,%ymm11
  403980:	c5 05 eb f9          	vpor   %ymm1,%ymm15,%ymm15
  403984:	c5 fe 6f 9c 24 40 0e 	vmovdqu 0xe40(%rsp),%ymm3
  40398b:	00 00 
  40398d:	c4 41 65 ef ff       	vpxor  %ymm15,%ymm3,%ymm15
  403992:	c5 e5 db c9          	vpand  %ymm1,%ymm3,%ymm1
  403996:	c4 41 1d ef e7       	vpxor  %ymm15,%ymm12,%ymm12
  40399b:	c4 c1 75 ef cb       	vpxor  %ymm11,%ymm1,%ymm1
  4039a0:	c4 41 25 db df       	vpand  %ymm15,%ymm11,%ymm11
  4039a5:	c5 9d ef 9e c0 1b 00 	vpxor  0x1bc0(%rsi),%ymm12,%ymm3
  4039ac:	00 
  4039ad:	c4 41 4d ef e6       	vpxor  %ymm14,%ymm6,%ymm12
  4039b2:	c4 41 15 ef db       	vpxor  %ymm11,%ymm13,%ymm11
  4039b7:	c4 41 75 eb ed       	vpor   %ymm13,%ymm1,%ymm13
  4039bc:	c5 f5 ef 8e e0 19 00 	vpxor  0x19e0(%rsi),%ymm1,%ymm1
  4039c3:	00 
  4039c4:	c5 fe 7f 9c 24 40 04 	vmovdqu %ymm3,0x440(%rsp)
  4039cb:	00 00 
  4039cd:	c4 c1 7d ef d9       	vpxor  %ymm9,%ymm0,%ymm3
  4039d2:	c4 41 05 ef ed       	vpxor  %ymm13,%ymm15,%ymm13
  4039d7:	c5 35 ef fe          	vpxor  %ymm6,%ymm9,%ymm15
  4039db:	c5 25 ef 9e 40 1e 00 	vpxor  0x1e40(%rsi),%ymm11,%ymm11
  4039e2:	00 
  4039e3:	c5 0d eb cb          	vpor   %ymm3,%ymm14,%ymm9
  4039e7:	c5 dd db db          	vpand  %ymm3,%ymm4,%ymm3
  4039eb:	c5 fe 7f 8c 24 20 02 	vmovdqu %ymm1,0x220(%rsp)
  4039f2:	00 00 
  4039f4:	c5 95 ef 8e 60 1c 00 	vpxor  0x1c60(%rsi),%ymm13,%ymm1
  4039fb:	00 
  4039fc:	c4 41 5d ef e9       	vpxor  %ymm9,%ymm4,%ymm13
  403a01:	c4 41 65 ef cc       	vpxor  %ymm12,%ymm3,%ymm9
  403a06:	c4 c1 4d ef e5       	vpxor  %ymm13,%ymm6,%ymm4
  403a0b:	c5 dd ef 9e e0 23 00 	vpxor  0x23e0(%rsi),%ymm4,%ymm3
  403a12:	00 
  403a13:	c4 c1 1d db e5       	vpand  %ymm13,%ymm12,%ymm4
  403a18:	c5 fe 7f 1c 24       	vmovdqu %ymm3,(%rsp)
  403a1d:	c5 fd ef df          	vpxor  %ymm7,%ymm0,%ymm3
  403a21:	c5 05 ef e4          	vpxor  %ymm4,%ymm15,%ymm12
  403a25:	c4 41 35 eb ff       	vpor   %ymm15,%ymm9,%ymm15
  403a2a:	c5 ad ef e5          	vpxor  %ymm5,%ymm10,%ymm4
  403a2e:	c5 d5 eb eb          	vpor   %ymm3,%ymm5,%ymm5
  403a32:	c5 bd db db          	vpand  %ymm3,%ymm8,%ymm3
  403a36:	c4 41 15 ef ef       	vpxor  %ymm15,%ymm13,%ymm13
  403a3b:	c4 c1 45 ef fa       	vpxor  %ymm10,%ymm7,%ymm7
  403a40:	c5 bd ef ed          	vpxor  %ymm5,%ymm8,%ymm5
  403a44:	c5 35 ef 8e 00 20 00 	vpxor  0x2000(%rsi),%ymm9,%ymm9
  403a4b:	00 
  403a4c:	c5 95 ef b6 80 24 00 	vpxor  0x2480(%rsi),%ymm13,%ymm6
  403a53:	00 
  403a54:	c5 1d ef b6 60 26 00 	vpxor  0x2660(%rsi),%ymm12,%ymm14
  403a5b:	00 
  403a5c:	c5 2d ef c5          	vpxor  %ymm5,%ymm10,%ymm8
  403a60:	c5 5d db d5          	vpand  %ymm5,%ymm4,%ymm10
  403a64:	c5 fe 7f b4 24 20 06 	vmovdqu %ymm6,0x620(%rsp)
  403a6b:	00 00 
  403a6d:	c5 7e 7f 8c 24 40 02 	vmovdqu %ymm9,0x240(%rsp)
  403a74:	00 00 
  403a76:	c5 7e 7f b4 24 e0 00 	vmovdqu %ymm14,0xe0(%rsp)
  403a7d:	00 00 
  403a7f:	c5 e5 ef f4          	vpxor  %ymm4,%ymm3,%ymm6
  403a83:	c5 3d ef 86 00 22 00 	vpxor  0x2200(%rsi),%ymm8,%ymm8
  403a8a:	00 
  403a8b:	c5 cd ef 9e 20 20 00 	vpxor  0x2020(%rsi),%ymm6,%ymm3
  403a92:	00 
  403a93:	c5 7e 7f 84 24 20 04 	vmovdqu %ymm8,0x420(%rsp)
  403a9a:	00 00 
  403a9c:	c4 41 45 ef c2       	vpxor  %ymm10,%ymm7,%ymm8
  403aa1:	c5 cd eb ff          	vpor   %ymm7,%ymm6,%ymm7
  403aa5:	c5 fe 7f 9c 24 80 02 	vmovdqu %ymm3,0x280(%rsp)
  403aac:	00 00 
  403aae:	c5 7e 6f 96 80 26 00 	vmovdqu 0x2680(%rsi),%ymm10
  403ab5:	00 
  403ab6:	c5 fe 6f b4 24 e0 0e 	vmovdqu 0xee0(%rsp),%ymm6
  403abd:	00 00 
  403abf:	c5 fe 6f 9c 24 60 0e 	vmovdqu 0xe60(%rsp),%ymm3
  403ac6:	00 00 
  403ac8:	c5 d5 ef e7          	vpxor  %ymm7,%ymm5,%ymm4
  403acc:	c5 fe 6f bc 24 c0 0e 	vmovdqu 0xec0(%rsp),%ymm7
  403ad3:	00 00 
  403ad5:	c5 fe 6f ac 24 a0 0e 	vmovdqu 0xea0(%rsp),%ymm5
  403adc:	00 00 
  403ade:	c5 5d ef 8e a0 24 00 	vpxor  0x24a0(%rsi),%ymm4,%ymm9
  403ae5:	00 
  403ae6:	c5 fe 6f a4 24 80 0e 	vmovdqu 0xe80(%rsp),%ymm4
  403aed:	00 00 
  403aef:	c5 7e 6f ac 24 c0 05 	vmovdqu 0x5c0(%rsp),%ymm13
  403af6:	00 00 
  403af8:	c5 7e 7f 8c 24 c0 0d 	vmovdqu %ymm9,0xdc0(%rsp)
  403aff:	00 00 
  403b01:	c4 41 3d ef d2       	vpxor  %ymm10,%ymm8,%ymm10
  403b06:	c4 41 4d ef e3       	vpxor  %ymm11,%ymm6,%ymm12
  403b0b:	c5 15 ef ce          	vpxor  %ymm6,%ymm13,%ymm9
  403b0f:	c5 7e 7f 94 24 e0 0d 	vmovdqu %ymm10,0xde0(%rsp)
  403b16:	00 00 
  403b18:	c4 41 7d ef d5       	vpxor  %ymm13,%ymm0,%ymm10
  403b1d:	c4 41 25 eb f2       	vpor   %ymm10,%ymm11,%ymm14
  403b22:	c5 7e 6f 9c 24 40 03 	vmovdqu 0x340(%rsp),%ymm11
  403b29:	00 00 
  403b2b:	c4 41 25 db c2       	vpand  %ymm10,%ymm11,%ymm8
  403b30:	c4 41 25 ef ee       	vpxor  %ymm14,%ymm11,%ymm13
  403b35:	c4 41 3d ef dc       	vpxor  %ymm12,%ymm8,%ymm11
  403b3a:	c4 41 1d db fd       	vpand  %ymm13,%ymm12,%ymm15
  403b3f:	c4 c1 4d ef f5       	vpxor  %ymm13,%ymm6,%ymm6
  403b44:	c5 7e 6f 44 24 60    	vmovdqu 0x60(%rsp),%ymm8
  403b4a:	c4 41 25 eb e1       	vpor   %ymm9,%ymm11,%ymm12
  403b4f:	c4 41 35 ef f7       	vpxor  %ymm15,%ymm9,%ymm14
  403b54:	c5 4d ef 96 20 22 00 	vpxor  0x2220(%rsi),%ymm6,%ymm10
  403b5b:	00 
  403b5c:	c4 41 75 ef f8       	vpxor  %ymm8,%ymm1,%ymm15
  403b61:	c4 41 15 ef cc       	vpxor  %ymm12,%ymm13,%ymm9
  403b66:	c5 0d ef a6 a0 26 00 	vpxor  0x26a0(%rsi),%ymm14,%ymm12
  403b6d:	00 
  403b6e:	c5 25 ef 9e 40 20 00 	vpxor  0x2040(%rsi),%ymm11,%ymm11
  403b75:	00 
  403b76:	c5 35 ef ae c0 24 00 	vpxor  0x24c0(%rsi),%ymm9,%ymm13
  403b7d:	00 
  403b7e:	c5 7e 6f 8c 24 e0 05 	vmovdqu 0x5e0(%rsp),%ymm9
  403b85:	00 00 
  403b87:	c5 7e 7f a4 24 20 0e 	vmovdqu %ymm12,0xe20(%rsp)
  403b8e:	00 00 
  403b90:	c5 7e 6f a4 24 80 03 	vmovdqu 0x380(%rsp),%ymm12
  403b97:	00 00 
  403b99:	c5 7e 7f ac 24 00 0e 	vmovdqu %ymm13,0xe00(%rsp)
  403ba0:	00 00 
  403ba2:	c4 41 7d ef e9       	vpxor  %ymm9,%ymm0,%ymm13
  403ba7:	c5 b5 ef f1          	vpxor  %ymm1,%ymm9,%ymm6
  403bab:	c4 41 3d eb cd       	vpor   %ymm13,%ymm8,%ymm9
  403bb0:	c4 41 1d db c5       	vpand  %ymm13,%ymm12,%ymm8
  403bb5:	c4 41 1d ef f1       	vpxor  %ymm9,%ymm12,%ymm14
  403bba:	c4 41 3d ef e7       	vpxor  %ymm15,%ymm8,%ymm12
  403bbf:	c4 41 05 db ee       	vpand  %ymm14,%ymm15,%ymm13
  403bc4:	c4 c1 75 ef ce       	vpxor  %ymm14,%ymm1,%ymm1
  403bc9:	c5 7e 6f bc 24 00 06 	vmovdqu 0x600(%rsp),%ymm15
  403bd0:	00 00 
  403bd2:	c4 41 4d ef ed       	vpxor  %ymm13,%ymm6,%ymm13
  403bd7:	c5 9d eb f6          	vpor   %ymm6,%ymm12,%ymm6
  403bdb:	c5 1d ef a6 60 20 00 	vpxor  0x2060(%rsi),%ymm12,%ymm12
  403be2:	00 
  403be3:	c5 75 ef 8e 40 22 00 	vpxor  0x2240(%rsi),%ymm1,%ymm9
  403bea:	00 
  403beb:	c5 95 ef 8e c0 26 00 	vpxor  0x26c0(%rsi),%ymm13,%ymm1
  403bf2:	00 
  403bf3:	c5 0d ef f6          	vpxor  %ymm6,%ymm14,%ymm14
  403bf7:	c5 7e 6f ac 24 80 00 	vmovdqu 0x80(%rsp),%ymm13
  403bfe:	00 00 
  403c00:	c5 7e 7f a4 24 40 0e 	vmovdqu %ymm12,0xe40(%rsp)
  403c07:	00 00 
  403c09:	c5 fe 6f b4 24 c0 04 	vmovdqu 0x4c0(%rsp),%ymm6
  403c10:	00 00 
  403c12:	c5 fe 7f 8c 24 e0 06 	vmovdqu %ymm1,0x6e0(%rsp)
  403c19:	00 00 
  403c1b:	c4 41 7d ef e7       	vpxor  %ymm15,%ymm0,%ymm12
  403c20:	c5 0d ef 86 e0 24 00 	vpxor  0x24e0(%rsi),%ymm14,%ymm8
  403c27:	00 
  403c28:	c5 05 ef fe          	vpxor  %ymm6,%ymm15,%ymm15
  403c2c:	c5 7e 6f b4 24 a0 03 	vmovdqu 0x3a0(%rsp),%ymm14
  403c33:	00 00 
  403c35:	c4 c1 15 eb cc       	vpor   %ymm12,%ymm13,%ymm1
  403c3a:	c5 7e 7f 84 24 60 0e 	vmovdqu %ymm8,0xe60(%rsp)
  403c41:	00 00 
  403c43:	c4 41 4d ef c5       	vpxor  %ymm13,%ymm6,%ymm8
  403c48:	c4 41 0d db e4       	vpand  %ymm12,%ymm14,%ymm12
  403c4d:	c5 0d ef f1          	vpxor  %ymm1,%ymm14,%ymm14
  403c51:	c4 41 1d ef e8       	vpxor  %ymm8,%ymm12,%ymm13
  403c56:	c4 41 3d db c6       	vpand  %ymm14,%ymm8,%ymm8
  403c5b:	c4 c1 4d ef f6       	vpxor  %ymm14,%ymm6,%ymm6
  403c60:	c4 c1 05 ef c8       	vpxor  %ymm8,%ymm15,%ymm1
  403c65:	c4 41 15 eb ff       	vpor   %ymm15,%ymm13,%ymm15
  403c6a:	c5 15 ef ae 80 20 00 	vpxor  0x2080(%rsi),%ymm13,%ymm13
  403c71:	00 
  403c72:	c5 4d ef a6 60 22 00 	vpxor  0x2260(%rsi),%ymm6,%ymm12
  403c79:	00 
  403c7a:	c5 75 ef 86 e0 26 00 	vpxor  0x26e0(%rsi),%ymm1,%ymm8
  403c81:	00 
  403c82:	c4 41 0d ef f7       	vpxor  %ymm15,%ymm14,%ymm14
  403c87:	c5 7e 6f bc 24 a0 06 	vmovdqu 0x6a0(%rsp),%ymm15
  403c8e:	00 00 
  403c90:	c5 fe 6f 8c 24 00 05 	vmovdqu 0x500(%rsp),%ymm1
  403c97:	00 00 
  403c99:	c5 7e 7f ac 24 80 0e 	vmovdqu %ymm13,0xe80(%rsp)
  403ca0:	00 00 
  403ca2:	c5 7e 6f ac 24 a0 00 	vmovdqu 0xa0(%rsp),%ymm13
  403ca9:	00 00 
  403cab:	c5 7e 7f 84 24 00 07 	vmovdqu %ymm8,0x700(%rsp)
  403cb2:	00 00 
  403cb4:	c5 8d ef b6 00 25 00 	vpxor  0x2500(%rsi),%ymm14,%ymm6
  403cbb:	00 
  403cbc:	c5 05 ef f1          	vpxor  %ymm1,%ymm15,%ymm14
  403cc0:	c4 41 75 ef c5       	vpxor  %ymm13,%ymm1,%ymm8
  403cc5:	c5 fe 7f b4 24 a0 0e 	vmovdqu %ymm6,0xea0(%rsp)
  403ccc:	00 00 
  403cce:	c4 c1 7d ef f7       	vpxor  %ymm15,%ymm0,%ymm6
  403cd3:	c5 7e 6f bc 24 c0 03 	vmovdqu 0x3c0(%rsp),%ymm15
  403cda:	00 00 
  403cdc:	c5 15 eb ee          	vpor   %ymm6,%ymm13,%ymm13
  403ce0:	c5 85 db f6          	vpand  %ymm6,%ymm15,%ymm6
  403ce4:	c4 41 05 ef ed       	vpxor  %ymm13,%ymm15,%ymm13
  403ce9:	c4 41 4d ef f8       	vpxor  %ymm8,%ymm6,%ymm15
  403cee:	c4 41 3d db c5       	vpand  %ymm13,%ymm8,%ymm8
  403cf3:	c4 c1 75 ef cd       	vpxor  %ymm13,%ymm1,%ymm1
  403cf8:	c4 41 0d ef c0       	vpxor  %ymm8,%ymm14,%ymm8
  403cfd:	c4 41 05 eb f6       	vpor   %ymm14,%ymm15,%ymm14
  403d02:	c5 f5 ef b6 80 22 00 	vpxor  0x2280(%rsi),%ymm1,%ymm6
  403d09:	00 
  403d0a:	c4 c1 15 ef ce       	vpxor  %ymm14,%ymm13,%ymm1
  403d0f:	c5 05 ef ae a0 20 00 	vpxor  0x20a0(%rsi),%ymm15,%ymm13
  403d16:	00 
  403d17:	c5 7e 6f b4 24 c0 06 	vmovdqu 0x6c0(%rsp),%ymm14
  403d1e:	00 00 
  403d20:	c5 fe 7f b4 24 c0 0e 	vmovdqu %ymm6,0xec0(%rsp)
  403d27:	00 00 
  403d29:	c5 75 ef be 20 25 00 	vpxor  0x2520(%rsi),%ymm1,%ymm15
  403d30:	00 
  403d31:	c5 7e 7f ac 24 e0 0e 	vmovdqu %ymm13,0xee0(%rsp)
  403d38:	00 00 
  403d3a:	c5 fe 6f 8c 24 c0 00 	vmovdqu 0xc0(%rsp),%ymm1
  403d41:	00 00 
  403d43:	c5 3d ef ae 00 27 00 	vpxor  0x2700(%rsi),%ymm8,%ymm13
  403d4a:	00 
  403d4b:	c4 c1 7d ef f6       	vpxor  %ymm14,%ymm0,%ymm6
  403d50:	c5 7e 7f bc 24 c0 0c 	vmovdqu %ymm15,0xcc0(%rsp)
  403d57:	00 00 
  403d59:	c5 7e 6f bc 24 40 05 	vmovdqu 0x540(%rsp),%ymm15
  403d60:	00 00 
  403d62:	c5 7e 7f ac 24 20 07 	vmovdqu %ymm13,0x720(%rsp)
  403d69:	00 00 
  403d6b:	c4 41 0d ef ef       	vpxor  %ymm15,%ymm14,%ymm13
  403d70:	c5 05 ef c1          	vpxor  %ymm1,%ymm15,%ymm8
  403d74:	c5 f5 eb ce          	vpor   %ymm6,%ymm1,%ymm1
  403d78:	c5 7e 6f b4 24 e0 03 	vmovdqu 0x3e0(%rsp),%ymm14
  403d7f:	00 00 
  403d81:	c5 8d db f6          	vpand  %ymm6,%ymm14,%ymm6
  403d85:	c5 8d ef c9          	vpxor  %ymm1,%ymm14,%ymm1
  403d89:	c4 41 4d ef f0       	vpxor  %ymm8,%ymm6,%ymm14
  403d8e:	c5 85 ef f1          	vpxor  %ymm1,%ymm15,%ymm6
  403d92:	c5 3d db c1          	vpand  %ymm1,%ymm8,%ymm8
  403d96:	c5 4d ef be a0 22 00 	vpxor  0x22a0(%rsi),%ymm6,%ymm15
  403d9d:	00 
  403d9e:	c4 c1 15 ef f0       	vpxor  %ymm8,%ymm13,%ymm6
  403da3:	c4 41 0d eb ed       	vpor   %ymm13,%ymm14,%ymm13
  403da8:	c5 0d ef b6 c0 20 00 	vpxor  0x20c0(%rsi),%ymm14,%ymm14
  403daf:	00 
  403db0:	c5 7e 7f bc 24 00 0f 	vmovdqu %ymm15,0xf00(%rsp)
  403db7:	00 00 
  403db9:	c5 cd ef b6 20 27 00 	vpxor  0x2720(%rsi),%ymm6,%ymm6
  403dc0:	00 
  403dc1:	c4 41 75 ef c5       	vpxor  %ymm13,%ymm1,%ymm8
  403dc6:	c5 7d ef fb          	vpxor  %ymm3,%ymm0,%ymm15
  403dca:	c5 7e 7f b4 24 80 0a 	vmovdqu %ymm14,0xa80(%rsp)
  403dd1:	00 00 
  403dd3:	c5 fe 7f b4 24 40 07 	vmovdqu %ymm6,0x740(%rsp)
  403dda:	00 00 
  403ddc:	c5 fe 6f b4 24 00 01 	vmovdqu 0x100(%rsp),%ymm6
  403de3:	00 00 
  403de5:	c5 7e 6f b4 24 60 05 	vmovdqu 0x560(%rsp),%ymm14
  403dec:	00 00 
  403dee:	c5 bd ef 8e 40 25 00 	vpxor  0x2540(%rsi),%ymm8,%ymm1
  403df5:	00 
  403df6:	c5 7e 6f 84 24 00 04 	vmovdqu 0x400(%rsp),%ymm8
  403dfd:	00 00 
  403dff:	c4 c1 65 ef de       	vpxor  %ymm14,%ymm3,%ymm3
  403e04:	c5 0d ef ee          	vpxor  %ymm6,%ymm14,%ymm13
  403e08:	c5 fe 7f 8c 24 a0 0c 	vmovdqu %ymm1,0xca0(%rsp)
  403e0f:	00 00 
  403e11:	c4 c1 4d eb cf       	vpor   %ymm15,%ymm6,%ymm1
  403e16:	c4 41 3d db ff       	vpand  %ymm15,%ymm8,%ymm15
  403e1b:	c5 bd ef c9          	vpxor  %ymm1,%ymm8,%ymm1
  403e1f:	c4 41 05 ef c5       	vpxor  %ymm13,%ymm15,%ymm8
  403e24:	c5 0d ef f1          	vpxor  %ymm1,%ymm14,%ymm14
  403e28:	c5 15 db e9          	vpand  %ymm1,%ymm13,%ymm13
  403e2c:	c5 8d ef b6 c0 22 00 	vpxor  0x22c0(%rsi),%ymm14,%ymm6
  403e33:	00 
  403e34:	c5 fe 7f b4 24 a0 0d 	vmovdqu %ymm6,0xda0(%rsp)
  403e3b:	00 00 
  403e3d:	c4 c1 65 ef f5       	vpxor  %ymm13,%ymm3,%ymm6
  403e42:	c5 bd eb db          	vpor   %ymm3,%ymm8,%ymm3
  403e46:	c5 3d ef ae e0 20 00 	vpxor  0x20e0(%rsi),%ymm8,%ymm13
  403e4d:	00 
  403e4e:	c5 7e 6f 84 24 60 06 	vmovdqu 0x660(%rsp),%ymm8
  403e55:	00 00 
  403e57:	c5 f5 ef db          	vpxor  %ymm3,%ymm1,%ymm3
  403e5b:	c5 cd ef b6 40 27 00 	vpxor  0x2740(%rsi),%ymm6,%ymm6
  403e62:	00 
  403e63:	c5 fe 6f 8c 24 20 01 	vmovdqu 0x120(%rsp),%ymm1
  403e6a:	00 00 
  403e6c:	c5 7e 7f ac 24 a0 0a 	vmovdqu %ymm13,0xaa0(%rsp)
  403e73:	00 00 
  403e75:	c5 65 ef b6 60 25 00 	vpxor  0x2560(%rsi),%ymm3,%ymm14
  403e7c:	00 
  403e7d:	c4 41 7d ef f8       	vpxor  %ymm8,%ymm0,%ymm15
  403e82:	c5 fe 7f b4 24 60 07 	vmovdqu %ymm6,0x760(%rsp)
  403e89:	00 00 
  403e8b:	c5 fe 6f 9c 24 80 05 	vmovdqu 0x580(%rsp),%ymm3
  403e92:	00 00 
  403e94:	c5 fe 6f b4 24 60 03 	vmovdqu 0x360(%rsp),%ymm6
  403e9b:	00 00 
  403e9d:	c5 7e 7f b4 24 40 0c 	vmovdqu %ymm14,0xc40(%rsp)
  403ea4:	00 00 
  403ea6:	c5 3d ef f3          	vpxor  %ymm3,%ymm8,%ymm14
  403eaa:	c4 41 75 eb c7       	vpor   %ymm15,%ymm1,%ymm8
  403eaf:	c5 65 ef e9          	vpxor  %ymm1,%ymm3,%ymm13
  403eb3:	c4 41 4d db ff       	vpand  %ymm15,%ymm6,%ymm15
  403eb8:	c4 c1 4d ef c8       	vpxor  %ymm8,%ymm6,%ymm1
  403ebd:	c4 41 05 ef c5       	vpxor  %ymm13,%ymm15,%ymm8
  403ec2:	c5 e5 ef d9          	vpxor  %ymm1,%ymm3,%ymm3
  403ec6:	c5 15 db e9          	vpand  %ymm1,%ymm13,%ymm13
  403eca:	c5 e5 ef b6 e0 22 00 	vpxor  0x22e0(%rsi),%ymm3,%ymm6
  403ed1:	00 
  403ed2:	c5 fe 6f 9c 24 a0 05 	vmovdqu 0x5a0(%rsp),%ymm3
  403ed9:	00 00 
  403edb:	c5 fe 7f b4 24 40 0d 	vmovdqu %ymm6,0xd40(%rsp)
  403ee2:	00 00 
  403ee4:	c4 c1 0d ef f5       	vpxor  %ymm13,%ymm14,%ymm6
  403ee9:	c4 41 3d eb f6       	vpor   %ymm14,%ymm8,%ymm14
  403eee:	c5 3d ef 86 00 21 00 	vpxor  0x2100(%rsi),%ymm8,%ymm8
  403ef5:	00 
  403ef6:	c5 4d ef ae 60 27 00 	vpxor  0x2760(%rsi),%ymm6,%ymm13
  403efd:	00 
  403efe:	c4 c1 75 ef ce       	vpxor  %ymm14,%ymm1,%ymm1
  403f03:	c5 7e 6f b4 24 20 05 	vmovdqu 0x520(%rsp),%ymm14
  403f0a:	00 00 
  403f0c:	c5 fe 6f b4 24 40 01 	vmovdqu 0x140(%rsp),%ymm6
  403f13:	00 00 
  403f15:	c5 7e 7f 84 24 60 0a 	vmovdqu %ymm8,0xa60(%rsp)
  403f1c:	00 00 
  403f1e:	c5 7e 6f 84 24 20 03 	vmovdqu 0x320(%rsp),%ymm8
  403f25:	00 00 
  403f27:	c5 7e 7f ac 24 80 07 	vmovdqu %ymm13,0x780(%rsp)
  403f2e:	00 00 
  403f30:	c5 75 ef be 80 25 00 	vpxor  0x2580(%rsi),%ymm1,%ymm15
  403f37:	00 
  403f38:	c5 65 ef ee          	vpxor  %ymm6,%ymm3,%ymm13
  403f3c:	c5 7e 7f bc 24 60 0c 	vmovdqu %ymm15,0xc60(%rsp)
  403f43:	00 00 
  403f45:	c4 41 7d ef fe       	vpxor  %ymm14,%ymm0,%ymm15
  403f4a:	c5 0d ef f3          	vpxor  %ymm3,%ymm14,%ymm14
  403f4e:	c4 c1 4d eb cf       	vpor   %ymm15,%ymm6,%ymm1
  403f53:	c4 41 3d db ff       	vpand  %ymm15,%ymm8,%ymm15
  403f58:	c5 bd ef c9          	vpxor  %ymm1,%ymm8,%ymm1
  403f5c:	c4 41 05 ef c5       	vpxor  %ymm13,%ymm15,%ymm8
  403f61:	c5 15 db e9          	vpand  %ymm1,%ymm13,%ymm13
  403f65:	c5 e5 ef d9          	vpxor  %ymm1,%ymm3,%ymm3
  403f69:	c4 c1 0d ef f5       	vpxor  %ymm13,%ymm14,%ymm6
  403f6e:	c4 41 3d eb f6       	vpor   %ymm14,%ymm8,%ymm14
  403f73:	c5 e5 ef 9e 00 23 00 	vpxor  0x2300(%rsi),%ymm3,%ymm3
  403f7a:	00 
  403f7b:	c5 3d ef 86 20 21 00 	vpxor  0x2120(%rsi),%ymm8,%ymm8
  403f82:	00 
  403f83:	c5 cd ef b6 80 27 00 	vpxor  0x2780(%rsi),%ymm6,%ymm6
  403f8a:	00 
  403f8b:	c4 c1 75 ef ce       	vpxor  %ymm14,%ymm1,%ymm1
  403f90:	c5 7e 6f ac 24 e0 04 	vmovdqu 0x4e0(%rsp),%ymm13
  403f97:	00 00 
  403f99:	c5 fe 7f 9c 24 e0 0b 	vmovdqu %ymm3,0xbe0(%rsp)
  403fa0:	00 00 
  403fa2:	c5 fe 7f b4 24 a0 07 	vmovdqu %ymm6,0x7a0(%rsp)
  403fa9:	00 00 
  403fab:	c5 fe 6f b4 24 a0 01 	vmovdqu 0x1a0(%rsp),%ymm6
  403fb2:	00 00 
  403fb4:	c5 7e 7f 84 24 20 0a 	vmovdqu %ymm8,0xa20(%rsp)
  403fbb:	00 00 
  403fbd:	c5 fe 6f 9c 24 80 06 	vmovdqu 0x680(%rsp),%ymm3
  403fc4:	00 00 
  403fc6:	c5 7e 6f 84 24 00 03 	vmovdqu 0x300(%rsp),%ymm8
  403fcd:	00 00 
  403fcf:	c5 75 ef be a0 25 00 	vpxor  0x25a0(%rsi),%ymm1,%ymm15
  403fd6:	00 
  403fd7:	c5 15 ef f3          	vpxor  %ymm3,%ymm13,%ymm14
  403fdb:	c5 7e 7f bc 24 20 0c 	vmovdqu %ymm15,0xc20(%rsp)
  403fe2:	00 00 
  403fe4:	c4 41 7d ef fd       	vpxor  %ymm13,%ymm0,%ymm15
  403fe9:	c5 65 ef ee          	vpxor  %ymm6,%ymm3,%ymm13
  403fed:	c4 c1 4d eb cf       	vpor   %ymm15,%ymm6,%ymm1
  403ff2:	c4 41 3d db ff       	vpand  %ymm15,%ymm8,%ymm15
  403ff7:	c5 bd ef c9          	vpxor  %ymm1,%ymm8,%ymm1
  403ffb:	c4 41 05 ef c5       	vpxor  %ymm13,%ymm15,%ymm8
  404000:	c5 15 db e9          	vpand  %ymm1,%ymm13,%ymm13
  404004:	c5 e5 ef d9          	vpxor  %ymm1,%ymm3,%ymm3
  404008:	c4 c1 0d ef f5       	vpxor  %ymm13,%ymm14,%ymm6
  40400d:	c5 3d ef ae 40 21 00 	vpxor  0x2140(%rsi),%ymm8,%ymm13
  404014:	00 
  404015:	c5 e5 ef 9e 20 23 00 	vpxor  0x2320(%rsi),%ymm3,%ymm3
  40401c:	00 
  40401d:	c4 41 3d eb f6       	vpor   %ymm14,%ymm8,%ymm14
  404022:	c5 cd ef b6 a0 27 00 	vpxor  0x27a0(%rsi),%ymm6,%ymm6
  404029:	00 
  40402a:	c5 7e 6f 84 24 a0 04 	vmovdqu 0x4a0(%rsp),%ymm8
  404031:	00 00 
  404033:	c5 fe 7f 9c 24 a0 0b 	vmovdqu %ymm3,0xba0(%rsp)
  40403a:	00 00 
  40403c:	c5 7e 7f ac 24 c0 09 	vmovdqu %ymm13,0x9c0(%rsp)
  404043:	00 00 
  404045:	c5 7e 6f ac 24 e0 02 	vmovdqu 0x2e0(%rsp),%ymm13
  40404c:	00 00 
  40404e:	c5 fe 7f b4 24 c0 07 	vmovdqu %ymm6,0x7c0(%rsp)
  404055:	00 00 
  404057:	c4 c1 75 ef de       	vpxor  %ymm14,%ymm1,%ymm3
  40405c:	c4 41 7d ef f8       	vpxor  %ymm8,%ymm0,%ymm15
  404061:	c5 fe 6f 8c 24 c0 01 	vmovdqu 0x1c0(%rsp),%ymm1
  404068:	00 00 
  40406a:	c5 65 ef b6 c0 25 00 	vpxor  0x25c0(%rsi),%ymm3,%ymm14
  404071:	00 
  404072:	c4 c1 75 eb f7       	vpor   %ymm15,%ymm1,%ymm6
  404077:	c5 ed ef d9          	vpxor  %ymm1,%ymm2,%ymm3
  40407b:	c5 7e 7f b4 24 00 0c 	vmovdqu %ymm14,0xc00(%rsp)
  404082:	00 00 
  404084:	c5 3d ef f2          	vpxor  %ymm2,%ymm8,%ymm14
  404088:	c4 41 15 db c7       	vpand  %ymm15,%ymm13,%ymm8
  40408d:	c5 15 ef ee          	vpxor  %ymm6,%ymm13,%ymm13
  404091:	c5 3d ef fb          	vpxor  %ymm3,%ymm8,%ymm15
  404095:	c4 c1 6d ef d5       	vpxor  %ymm13,%ymm2,%ymm2
  40409a:	c4 c1 65 db dd       	vpand  %ymm13,%ymm3,%ymm3
  40409f:	c5 ed ef b6 40 23 00 	vpxor  0x2340(%rsi),%ymm2,%ymm6
  4040a6:	00 
  4040a7:	c5 8d ef d3          	vpxor  %ymm3,%ymm14,%ymm2
  4040ab:	c4 41 05 eb f6       	vpor   %ymm14,%ymm15,%ymm14
  4040b0:	c5 fe 6f 9c 24 e0 01 	vmovdqu 0x1e0(%rsp),%ymm3
  4040b7:	00 00 
  4040b9:	c5 fe 7f b4 24 80 0b 	vmovdqu %ymm6,0xb80(%rsp)
  4040c0:	00 00 
  4040c2:	c5 fe 6f b4 24 c0 02 	vmovdqu 0x2c0(%rsp),%ymm6
  4040c9:	00 00 
  4040cb:	c4 41 15 ef c6       	vpxor  %ymm14,%ymm13,%ymm8
  4040d0:	c5 05 ef ae 60 21 00 	vpxor  0x2160(%rsi),%ymm15,%ymm13
  4040d7:	00 
  4040d8:	c5 6d ef be c0 27 00 	vpxor  0x27c0(%rsi),%ymm2,%ymm15
  4040df:	00 
  4040e0:	c5 bd ef 8e e0 25 00 	vpxor  0x25e0(%rsi),%ymm8,%ymm1
  4040e7:	00 
  4040e8:	c5 5d ef c3          	vpxor  %ymm3,%ymm4,%ymm8
  4040ec:	c5 7e 7f ac 24 a0 09 	vmovdqu %ymm13,0x9a0(%rsp)
  4040f3:	00 00 
  4040f5:	c5 7e 6f ac 24 80 04 	vmovdqu 0x480(%rsp),%ymm13
  4040fc:	00 00 
  4040fe:	c5 7e 7f bc 24 e0 07 	vmovdqu %ymm15,0x7e0(%rsp)
  404105:	00 00 
  404107:	c5 fe 7f 8c 24 c0 0b 	vmovdqu %ymm1,0xbc0(%rsp)
  40410e:	00 00 
  404110:	c4 41 7d ef f5       	vpxor  %ymm13,%ymm0,%ymm14
  404115:	c5 95 ef cc          	vpxor  %ymm4,%ymm13,%ymm1
  404119:	c4 c1 65 eb d6       	vpor   %ymm14,%ymm3,%ymm2
  40411e:	c4 41 4d db fe       	vpand  %ymm14,%ymm6,%ymm15
  404123:	c5 cd ef f2          	vpxor  %ymm2,%ymm6,%ymm6
  404127:	c4 41 05 ef f0       	vpxor  %ymm8,%ymm15,%ymm14
  40412c:	c5 7e 6f bc 24 60 04 	vmovdqu 0x460(%rsp),%ymm15
  404133:	00 00 
  404135:	c5 dd ef e6          	vpxor  %ymm6,%ymm4,%ymm4
  404139:	c5 8d eb d9          	vpor   %ymm1,%ymm14,%ymm3
  40413d:	c5 0d ef b6 80 21 00 	vpxor  0x2180(%rsi),%ymm14,%ymm14
  404144:	00 
  404145:	c5 5d ef ae 60 23 00 	vpxor  0x2360(%rsi),%ymm4,%ymm13
  40414c:	00 
  40414d:	c5 bd db e6          	vpand  %ymm6,%ymm8,%ymm4
  404151:	c5 cd ef f3          	vpxor  %ymm3,%ymm6,%ymm6
  404155:	c5 85 ef dd          	vpxor  %ymm5,%ymm15,%ymm3
  404159:	c5 7e 7f ac 24 60 0b 	vmovdqu %ymm13,0xb60(%rsp)
  404160:	00 00 
  404162:	c5 7e 6f ac 24 00 02 	vmovdqu 0x200(%rsp),%ymm13
  404169:	00 00 
  40416b:	c5 7e 7f b4 24 60 09 	vmovdqu %ymm14,0x960(%rsp)
  404172:	00 00 
  404174:	c5 f5 ef d4          	vpxor  %ymm4,%ymm1,%ymm2
  404178:	c4 41 7d ef f7       	vpxor  %ymm15,%ymm0,%ymm14
  40417d:	c4 c1 55 ef e5       	vpxor  %ymm13,%ymm5,%ymm4
  404182:	c5 4d ef 86 00 24 00 	vpxor  0x2400(%rsi),%ymm6,%ymm8
  404189:	00 
  40418a:	c5 ed ef 8e e0 27 00 	vpxor  0x27e0(%rsi),%ymm2,%ymm1
  404191:	00 
  404192:	c5 fe 6f b4 24 a0 02 	vmovdqu 0x2a0(%rsp),%ymm6
  404199:	00 00 
  40419b:	c5 fe 7f 8c 24 00 08 	vmovdqu %ymm1,0x800(%rsp)
  4041a2:	00 00 
  4041a4:	c4 c1 15 eb ce       	vpor   %ymm14,%ymm13,%ymm1
  4041a9:	c4 c1 4d db d6       	vpand  %ymm14,%ymm6,%ymm2
  4041ae:	c5 4d ef e9          	vpxor  %ymm1,%ymm6,%ymm13
  4041b2:	c5 ed ef f4          	vpxor  %ymm4,%ymm2,%ymm6
  4041b6:	c5 fe 6f 94 24 40 04 	vmovdqu 0x440(%rsp),%ymm2
  4041bd:	00 00 
  4041bf:	c4 c1 5d db e5       	vpand  %ymm13,%ymm4,%ymm4
  4041c4:	c4 c1 55 ef ed       	vpxor  %ymm13,%ymm5,%ymm5
  4041c9:	c5 6d ef ff          	vpxor  %ymm7,%ymm2,%ymm15
  4041cd:	c5 e5 ef cc          	vpxor  %ymm4,%ymm3,%ymm1
  4041d1:	c5 cd eb db          	vpor   %ymm3,%ymm6,%ymm3
  4041d5:	c5 d5 ef ae 80 23 00 	vpxor  0x2380(%rsi),%ymm5,%ymm5
  4041dc:	00 
  4041dd:	c5 fd ef e2          	vpxor  %ymm2,%ymm0,%ymm4
  4041e1:	c5 15 ef f3          	vpxor  %ymm3,%ymm13,%ymm14
  4041e5:	c5 4d ef ae a0 21 00 	vpxor  0x21a0(%rsi),%ymm6,%ymm13
  4041ec:	00 
  4041ed:	c5 fe 7f ac 24 20 0b 	vmovdqu %ymm5,0xb20(%rsp)
  4041f4:	00 00 
  4041f6:	c5 fe 6f ac 24 60 02 	vmovdqu 0x260(%rsp),%ymm5
  4041fd:	00 00 
  4041ff:	c5 8d ef b6 20 24 00 	vpxor  0x2420(%rsi),%ymm14,%ymm6
  404206:	00 
  404207:	c5 75 ef b6 00 26 00 	vpxor  0x2600(%rsi),%ymm1,%ymm14
  40420e:	00 
  40420f:	c5 7e 7f ac 24 40 09 	vmovdqu %ymm13,0x940(%rsp)
  404216:	00 00 
  404218:	c5 7e 6f ac 24 80 01 	vmovdqu 0x180(%rsp),%ymm13
  40421f:	00 00 
  404221:	c5 d5 db cc          	vpand  %ymm4,%ymm5,%ymm1
  404225:	c5 95 eb dc          	vpor   %ymm4,%ymm13,%ymm3
  404229:	c4 c1 45 ef d5       	vpxor  %ymm13,%ymm7,%ymm2
  40422e:	c5 d5 ef db          	vpxor  %ymm3,%ymm5,%ymm3
  404232:	c5 f5 ef ea          	vpxor  %ymm2,%ymm1,%ymm5
  404236:	c5 c5 ef fb          	vpxor  %ymm3,%ymm7,%ymm7
  40423a:	c5 ed db e3          	vpand  %ymm3,%ymm2,%ymm4
  40423e:	c5 fe 6f 54 24 20    	vmovdqu 0x20(%rsp),%ymm2
  404244:	c5 45 ef ae a0 23 00 	vpxor  0x23a0(%rsi),%ymm7,%ymm13
  40424b:	00 
  40424c:	c4 c1 55 eb ff       	vpor   %ymm15,%ymm5,%ymm7
  404251:	c5 d5 ef ae c0 21 00 	vpxor  0x21c0(%rsi),%ymm5,%ymm5
  404258:	00 
  404259:	c5 85 ef cc          	vpxor  %ymm4,%ymm15,%ymm1
  40425d:	c5 fe 6f a4 24 40 06 	vmovdqu 0x640(%rsp),%ymm4
  404264:	00 00 
  404266:	c5 7e 6f bc 24 60 01 	vmovdqu 0x160(%rsp),%ymm15
  40426d:	00 00 
  40426f:	c5 7e 7f ac 24 00 0b 	vmovdqu %ymm13,0xb00(%rsp)
  404276:	00 00 
  404278:	c5 fe 7f ac 24 00 09 	vmovdqu %ymm5,0x900(%rsp)
  40427f:	00 00 
  404281:	c5 e5 ef df          	vpxor  %ymm7,%ymm3,%ymm3
  404285:	c5 7d ef ea          	vpxor  %ymm2,%ymm0,%ymm13
  404289:	c4 c1 5d ef ff       	vpxor  %ymm15,%ymm4,%ymm7
  40428e:	c5 ed ef d4          	vpxor  %ymm4,%ymm2,%ymm2
  404292:	c5 e5 ef ae 40 24 00 	vpxor  0x2440(%rsi),%ymm3,%ymm5
  404299:	00 
  40429a:	c5 f5 ef 9e 20 26 00 	vpxor  0x2620(%rsi),%ymm1,%ymm3
  4042a1:	00 
  4042a2:	c4 41 05 eb fd       	vpor   %ymm13,%ymm15,%ymm15
  4042a7:	c5 fe 6f 8c 24 20 02 	vmovdqu 0x220(%rsp),%ymm1
  4042ae:	00 00 
  4042b0:	c4 41 75 db ed       	vpand  %ymm13,%ymm1,%ymm13
  4042b5:	c4 41 75 ef ff       	vpxor  %ymm15,%ymm1,%ymm15
  4042ba:	c5 15 ef ef          	vpxor  %ymm7,%ymm13,%ymm13
  4042be:	c4 c1 5d ef e7       	vpxor  %ymm15,%ymm4,%ymm4
  4042c3:	c4 c1 45 db ff       	vpand  %ymm15,%ymm7,%ymm7
  4042c8:	c5 95 eb ca          	vpor   %ymm2,%ymm13,%ymm1
  4042cc:	c5 dd ef a6 c0 23 00 	vpxor  0x23c0(%rsi),%ymm4,%ymm4
  4042d3:	00 
  4042d4:	c5 15 ef ae e0 21 00 	vpxor  0x21e0(%rsi),%ymm13,%ymm13
  4042db:	00 
  4042dc:	c5 fe 7f a4 24 e0 0a 	vmovdqu %ymm4,0xae0(%rsp)
  4042e3:	00 00 
  4042e5:	c5 7e 7f ac 24 c0 08 	vmovdqu %ymm13,0x8c0(%rsp)
  4042ec:	00 00 
  4042ee:	c5 ed ef e7          	vpxor  %ymm7,%ymm2,%ymm4
  4042f2:	c5 85 ef d1          	vpxor  %ymm1,%ymm15,%ymm2
  4042f6:	c4 41 3d ef ee       	vpxor  %ymm14,%ymm8,%ymm13
  4042fb:	c5 7e 6f bc 24 20 04 	vmovdqu 0x420(%rsp),%ymm15
  404302:	00 00 
  404304:	c5 ed ef be 60 24 00 	vpxor  0x2460(%rsi),%ymm2,%ymm7
  40430b:	00 
  40430c:	c5 dd ef a6 40 26 00 	vpxor  0x2640(%rsi),%ymm4,%ymm4
  404313:	00 
  404314:	c4 c1 7d ef cf       	vpxor  %ymm15,%ymm0,%ymm1
  404319:	c4 c1 05 ef d0       	vpxor  %ymm8,%ymm15,%ymm2
  40431e:	c5 7e 6f bc 24 40 02 	vmovdqu 0x240(%rsp),%ymm15
  404325:	00 00 
  404327:	c5 0d eb f1          	vpor   %ymm1,%ymm14,%ymm14
  40432b:	c5 85 db c9          	vpand  %ymm1,%ymm15,%ymm1
  40432f:	c4 41 05 ef f6       	vpxor  %ymm14,%ymm15,%ymm14
  404334:	c4 41 7d ef fa       	vpxor  %ymm10,%ymm0,%ymm15
  404339:	c4 c1 75 ef cd       	vpxor  %ymm13,%ymm1,%ymm1
  40433e:	c4 41 3d ef c6       	vpxor  %ymm14,%ymm8,%ymm8
  404343:	c4 41 15 db ee       	vpand  %ymm14,%ymm13,%ymm13
  404348:	c5 3d ef 86 e0 2b 00 	vpxor  0x2be0(%rsi),%ymm8,%ymm8
  40434f:	00 
  404350:	c5 7e 7f 44 24 40    	vmovdqu %ymm8,0x40(%rsp)
  404356:	c4 41 6d ef c5       	vpxor  %ymm13,%ymm2,%ymm8
  40435b:	c5 f5 eb d2          	vpor   %ymm2,%ymm1,%ymm2
  40435f:	c5 0d ef ea          	vpxor  %ymm2,%ymm14,%ymm13
  404363:	c5 75 ef b6 00 28 00 	vpxor  0x2800(%rsi),%ymm1,%ymm14
  40436a:	00 
  40436b:	c5 bd ef 8e 60 2e 00 	vpxor  0x2e60(%rsi),%ymm8,%ymm1
  404372:	00 
  404373:	c5 7e 7f b4 24 e0 08 	vmovdqu %ymm14,0x8e0(%rsp)
  40437a:	00 00 
  40437c:	c5 fe 7f 8c 24 20 08 	vmovdqu %ymm1,0x820(%rsp)
  404383:	00 00 
  404385:	c5 15 ef b6 80 2c 00 	vpxor  0x2c80(%rsi),%ymm13,%ymm14
  40438c:	00 
  40438d:	c5 4d ef eb          	vpxor  %ymm3,%ymm6,%ymm13
  404391:	c4 c1 65 eb df       	vpor   %ymm15,%ymm3,%ymm3
  404396:	c5 7e 7f b4 24 80 0c 	vmovdqu %ymm14,0xc80(%rsp)
  40439d:	00 00 
  40439f:	c5 2d ef f6          	vpxor  %ymm6,%ymm10,%ymm14
  4043a3:	c5 7e 6f 94 24 80 02 	vmovdqu 0x280(%rsp),%ymm10
  4043aa:	00 00 
  4043ac:	c4 c1 2d db cf       	vpand  %ymm15,%ymm10,%ymm1
  4043b1:	c5 2d ef d3          	vpxor  %ymm3,%ymm10,%ymm10
  4043b5:	c4 c1 75 ef dd       	vpxor  %ymm13,%ymm1,%ymm3
  4043ba:	c4 c1 4d ef f2       	vpxor  %ymm10,%ymm6,%ymm6
  4043bf:	c4 41 15 db ea       	vpand  %ymm10,%ymm13,%ymm13
  4043c4:	c5 cd ef 8e 00 2a 00 	vpxor  0x2a00(%rsi),%ymm6,%ymm1
  4043cb:	00 
  4043cc:	c4 c1 0d ef f5       	vpxor  %ymm13,%ymm14,%ymm6
  4043d1:	c4 41 65 eb f6       	vpor   %ymm14,%ymm3,%ymm14
  4043d6:	c4 41 7d ef e9       	vpxor  %ymm9,%ymm0,%ymm13
  4043db:	c5 35 ef cd          	vpxor  %ymm5,%ymm9,%ymm9
  4043df:	c5 4d ef be 80 2e 00 	vpxor  0x2e80(%rsi),%ymm6,%ymm15
  4043e6:	00 
  4043e7:	c4 c1 2d ef d6       	vpxor  %ymm14,%ymm10,%ymm2
  4043ec:	c5 65 ef 96 20 28 00 	vpxor  0x2820(%rsi),%ymm3,%ymm10
  4043f3:	00 
  4043f4:	c5 fe 7f 8c 24 c0 0a 	vmovdqu %ymm1,0xac0(%rsp)
  4043fb:	00 00 
  4043fd:	c5 7e 7f bc 24 40 08 	vmovdqu %ymm15,0x840(%rsp)
  404404:	00 00 
  404406:	c5 d5 ef cc          	vpxor  %ymm4,%ymm5,%ymm1
  40440a:	c4 c1 5d eb e5       	vpor   %ymm13,%ymm4,%ymm4
  40440f:	c4 41 25 db ed       	vpand  %ymm13,%ymm11,%ymm13
  404414:	c5 6d ef 86 a0 2c 00 	vpxor  0x2ca0(%rsi),%ymm2,%ymm8
  40441b:	00 
  40441c:	c5 7e 7f 94 24 20 09 	vmovdqu %ymm10,0x920(%rsp)
  404423:	00 00 
  404425:	c5 a5 ef d4          	vpxor  %ymm4,%ymm11,%ymm2
  404429:	c5 95 ef d9          	vpxor  %ymm1,%ymm13,%ymm3
  40442d:	c5 7e 7f 84 24 80 0d 	vmovdqu %ymm8,0xd80(%rsp)
  404434:	00 00 
  404436:	c5 55 ef da          	vpxor  %ymm2,%ymm5,%ymm11
  40443a:	c5 f5 db e2          	vpand  %ymm2,%ymm1,%ymm4
  40443e:	c5 1d ef c7          	vpxor  %ymm7,%ymm12,%ymm8
  404442:	c5 25 ef ae 20 2a 00 	vpxor  0x2a20(%rsi),%ymm11,%ymm13
  404449:	00 
  40444a:	c5 b5 ef ec          	vpxor  %ymm4,%ymm9,%ymm5
  40444e:	c4 41 65 eb c9       	vpor   %ymm9,%ymm3,%ymm9
  404453:	c5 7e 7f ac 24 40 0b 	vmovdqu %ymm13,0xb40(%rsp)
  40445a:	00 00 
  40445c:	c5 65 ef ae 40 28 00 	vpxor  0x2840(%rsi),%ymm3,%ymm13
  404463:	00 
  404464:	c4 c1 6d ef e1       	vpxor  %ymm9,%ymm2,%ymm4
  404469:	c4 c1 7d ef d4       	vpxor  %ymm12,%ymm0,%ymm2
  40446e:	c5 d5 ef 8e a0 2e 00 	vpxor  0x2ea0(%rsi),%ymm5,%ymm1
  404475:	00 
  404476:	c5 7e 6f a4 24 e0 00 	vmovdqu 0xe0(%rsp),%ymm12
  40447d:	00 00 
  40447f:	c5 7e 7f ac 24 80 09 	vmovdqu %ymm13,0x980(%rsp)
  404486:	00 00 
  404488:	c5 5d ef ae c0 2c 00 	vpxor  0x2cc0(%rsi),%ymm4,%ymm13
  40448f:	00 
  404490:	c5 fe 6f a4 24 40 0e 	vmovdqu 0xe40(%rsp),%ymm4
  404497:	00 00 
  404499:	c5 fe 7f 8c 24 60 08 	vmovdqu %ymm1,0x860(%rsp)
  4044a0:	00 00 
  4044a2:	c4 c1 45 ef dc       	vpxor  %ymm12,%ymm7,%ymm3
  4044a7:	c5 1d eb e2          	vpor   %ymm2,%ymm12,%ymm12
  4044ab:	c5 dd db ea          	vpand  %ymm2,%ymm4,%ymm5
  4044af:	c5 fe 6f 94 24 e0 0d 	vmovdqu 0xde0(%rsp),%ymm2
  4044b6:	00 00 
  4044b8:	c4 41 5d ef cc       	vpxor  %ymm12,%ymm4,%ymm9
  4044bd:	c5 55 ef db          	vpxor  %ymm3,%ymm5,%ymm11
  4044c1:	c4 c1 45 ef f9       	vpxor  %ymm9,%ymm7,%ymm7
  4044c6:	c4 c1 65 db f1       	vpand  %ymm9,%ymm3,%ymm6
  4044cb:	c4 41 25 eb d0       	vpor   %ymm8,%ymm11,%ymm10
  4044d0:	c5 25 ef b6 60 28 00 	vpxor  0x2860(%rsi),%ymm11,%ymm14
  4044d7:	00 
  4044d8:	c5 c5 ef 8e 40 2a 00 	vpxor  0x2a40(%rsi),%ymm7,%ymm1
  4044df:	00 
  4044e0:	c5 3d ef e6          	vpxor  %ymm6,%ymm8,%ymm12
  4044e4:	c4 41 35 ef fa       	vpxor  %ymm10,%ymm9,%ymm15
  4044e9:	c5 fe 6f b4 24 80 0e 	vmovdqu 0xe80(%rsp),%ymm6
  4044f0:	00 00 
  4044f2:	c5 fe 7f 8c 24 20 0d 	vmovdqu %ymm1,0xd20(%rsp)
  4044f9:	00 00 
  4044fb:	c5 fe 6f 8c 24 c0 0e 	vmovdqu 0xec0(%rsp),%ymm1
  404502:	00 00 
  404504:	c5 7e 6f 8c 24 20 06 	vmovdqu 0x620(%rsp),%ymm9
  40450b:	00 00 
  40450d:	c5 7e 7f b4 24 e0 09 	vmovdqu %ymm14,0x9e0(%rsp)
  404514:	00 00 
  404516:	c5 9d ef ae c0 2e 00 	vpxor  0x2ec0(%rsi),%ymm12,%ymm5
  40451d:	00 
  40451e:	c5 fd ef d9          	vpxor  %ymm1,%ymm0,%ymm3
  404522:	c5 35 ef f2          	vpxor  %ymm2,%ymm9,%ymm14
  404526:	c5 85 ef a6 e0 2c 00 	vpxor  0x2ce0(%rsi),%ymm15,%ymm4
  40452d:	00 
  40452e:	c5 fe 7f ac 24 80 08 	vmovdqu %ymm5,0x880(%rsp)
  404535:	00 00 
  404537:	c5 ed eb fb          	vpor   %ymm3,%ymm2,%ymm7
  40453b:	c5 4d db c3          	vpand  %ymm3,%ymm6,%ymm8
  40453f:	c4 c1 75 ef e9       	vpxor  %ymm9,%ymm1,%ymm5
  404544:	c5 4d ef e7          	vpxor  %ymm7,%ymm6,%ymm12
  404548:	c4 c1 3d ef ce       	vpxor  %ymm14,%ymm8,%ymm1
  40454d:	c4 41 35 ef d4       	vpxor  %ymm12,%ymm9,%ymm10
  404552:	c4 41 0d db fc       	vpand  %ymm12,%ymm14,%ymm15
  404557:	c5 f5 ef 96 80 28 00 	vpxor  0x2880(%rsi),%ymm1,%ymm2
  40455e:	00 
  40455f:	c5 7e 6f 8c 24 00 0f 	vmovdqu 0xf00(%rsp),%ymm9
  404566:	00 00 
  404568:	c5 7e 6f b4 24 e0 0e 	vmovdqu 0xee0(%rsp),%ymm14
  40456f:	00 00 
  404571:	c5 2d ef 9e 60 2a 00 	vpxor  0x2a60(%rsi),%ymm10,%ymm11
  404578:	00 
  404579:	c4 c1 55 ef ff       	vpxor  %ymm15,%ymm5,%ymm7
  40457e:	c5 f5 eb ed          	vpor   %ymm5,%ymm1,%ymm5
  404582:	c5 7e 6f 94 24 20 0e 	vmovdqu 0xe20(%rsp),%ymm10
  404589:	00 00 
  40458b:	c5 7e 7f 9c 24 e0 0c 	vmovdqu %ymm11,0xce0(%rsp)
  404592:	00 00 
  404594:	c5 fe 6f 8c 24 c0 0d 	vmovdqu 0xdc0(%rsp),%ymm1
  40459b:	00 00 
  40459d:	c5 fe 7f 94 24 00 0a 	vmovdqu %ymm2,0xa00(%rsp)
  4045a4:	00 00 
  4045a6:	c4 41 7d ef d9       	vpxor  %ymm9,%ymm0,%ymm11
  4045ab:	c5 9d ef dd          	vpxor  %ymm5,%ymm12,%ymm3
  4045af:	c4 c1 75 ef d2       	vpxor  %ymm10,%ymm1,%ymm2
  4045b4:	c5 35 ef e1          	vpxor  %ymm1,%ymm9,%ymm12
  4045b8:	c4 41 2d eb fb       	vpor   %ymm11,%ymm10,%ymm15
  4045bd:	c5 e5 ef b6 00 2d 00 	vpxor  0x2d00(%rsi),%ymm3,%ymm6
  4045c4:	00 
  4045c5:	c4 41 0d db d3       	vpand  %ymm11,%ymm14,%ymm10
  4045ca:	c5 45 ef 86 e0 2e 00 	vpxor  0x2ee0(%rsi),%ymm7,%ymm8
  4045d1:	00 
  4045d2:	c4 c1 0d ef ef       	vpxor  %ymm15,%ymm14,%ymm5
  4045d7:	c5 fe 7f b4 24 60 0d 	vmovdqu %ymm6,0xd60(%rsp)
  4045de:	00 00 
  4045e0:	c5 ad ef f2          	vpxor  %ymm2,%ymm10,%ymm6
  4045e4:	c5 ed db dd          	vpand  %ymm5,%ymm2,%ymm3
  4045e8:	c5 75 ef dd          	vpxor  %ymm5,%ymm1,%ymm11
  4045ec:	c5 7e 7f 84 24 a0 08 	vmovdqu %ymm8,0x8a0(%rsp)
  4045f3:	00 00 
  4045f5:	c5 fe 6f 8c 24 00 0e 	vmovdqu 0xe00(%rsp),%ymm1
  4045fc:	00 00 
  4045fe:	c5 fe 6f 94 24 60 0e 	vmovdqu 0xe60(%rsp),%ymm2
  404605:	00 00 
  404607:	c5 1d ef cb          	vpxor  %ymm3,%ymm12,%ymm9
  40460b:	c4 41 4d eb e4       	vpor   %ymm12,%ymm6,%ymm12
  404610:	c5 25 ef b6 80 2a 00 	vpxor  0x2a80(%rsi),%ymm11,%ymm14
  404617:	00 
  404618:	c5 cd ef be a0 28 00 	vpxor  0x28a0(%rsi),%ymm6,%ymm7
  40461f:	00 
  404620:	c5 fe 6f b6 00 2f 00 	vmovdqu 0x2f00(%rsi),%ymm6
  404627:	00 
  404628:	c5 fe 6f 9c 24 a0 0e 	vmovdqu 0xea0(%rsp),%ymm3
  40462f:	00 00 
  404631:	c5 7e 7f b4 24 00 0d 	vmovdqu %ymm14,0xd00(%rsp)
  404638:	00 00 
  40463a:	c5 fe 7f bc 24 40 0a 	vmovdqu %ymm7,0xa40(%rsp)
  404641:	00 00 
  404643:	c4 41 55 ef c4       	vpxor  %ymm12,%ymm5,%ymm8
  404648:	c5 bd ef ae 20 2d 00 	vpxor  0x2d20(%rsi),%ymm8,%ymm5
  40464f:	00 
  404650:	c5 7e 6f a4 24 a0 0d 	vmovdqu 0xda0(%rsp),%ymm12
  404657:	00 00 
  404659:	c5 7e 6f 84 24 e0 06 	vmovdqu 0x6e0(%rsp),%ymm8
  404660:	00 00 
  404662:	c5 fe 7f a4 24 c0 0d 	vmovdqu %ymm4,0xdc0(%rsp)
  404669:	00 00 
  40466b:	c5 fe 7f ac 24 e0 0d 	vmovdqu %ymm5,0xde0(%rsp)
  404672:	00 00 
  404674:	c4 c1 7d ef fc       	vpxor  %ymm12,%ymm0,%ymm7
  404679:	c5 35 ef ce          	vpxor  %ymm6,%ymm9,%ymm9
  40467d:	c4 c1 75 ef e0       	vpxor  %ymm8,%ymm1,%ymm4
  404682:	c5 1d ef d9          	vpxor  %ymm1,%ymm12,%ymm11
  404686:	c5 3d eb d7          	vpor   %ymm7,%ymm8,%ymm10
  40468a:	c5 fe 6f b4 24 80 0a 	vmovdqu 0xa80(%rsp),%ymm6
  404691:	00 00 
  404693:	c5 7e 7f 8c 24 00 0e 	vmovdqu %ymm9,0xe00(%rsp)
  40469a:	00 00 
  40469c:	c5 4d db cf          	vpand  %ymm7,%ymm6,%ymm9
  4046a0:	c4 41 4d ef f2       	vpxor  %ymm10,%ymm6,%ymm14
  4046a5:	c5 35 ef fc          	vpxor  %ymm4,%ymm9,%ymm15
  4046a9:	c4 c1 75 ef ee       	vpxor  %ymm14,%ymm1,%ymm5
  4046ae:	c4 c1 5d db ce       	vpand  %ymm14,%ymm4,%ymm1
  4046b3:	c5 05 ef 96 c0 28 00 	vpxor  0x28c0(%rsi),%ymm15,%ymm10
  4046ba:	00 
  4046bb:	c5 55 ef 8e a0 2a 00 	vpxor  0x2aa0(%rsi),%ymm5,%ymm9
  4046c2:	00 
  4046c3:	c5 a5 ef f9          	vpxor  %ymm1,%ymm11,%ymm7
  4046c7:	c4 41 05 eb db       	vpor   %ymm11,%ymm15,%ymm11
  4046cc:	c5 fe 6f ac 24 00 07 	vmovdqu 0x700(%rsp),%ymm5
  4046d3:	00 00 
  4046d5:	c5 7e 6f bc 24 a0 0a 	vmovdqu 0xaa0(%rsp),%ymm15
  4046dc:	00 00 
  4046de:	c4 41 0d ef e3       	vpxor  %ymm11,%ymm14,%ymm12
  4046e3:	c5 c5 ef b6 20 2f 00 	vpxor  0x2f20(%rsi),%ymm7,%ymm6
  4046ea:	00 
  4046eb:	c5 ed ef cd          	vpxor  %ymm5,%ymm2,%ymm1
  4046ef:	c5 7e 6f 9c 24 40 0d 	vmovdqu 0xd40(%rsp),%ymm11
  4046f6:	00 00 
  4046f8:	c5 1d ef 86 40 2d 00 	vpxor  0x2d40(%rsi),%ymm12,%ymm8
  4046ff:	00 
  404700:	c5 fe 7f b4 24 40 0e 	vmovdqu %ymm6,0xe40(%rsp)
  404707:	00 00 
  404709:	c4 c1 7d ef e3       	vpxor  %ymm11,%ymm0,%ymm4
  40470e:	c5 25 ef f2          	vpxor  %ymm2,%ymm11,%ymm14
  404712:	c5 7e 7f 84 24 20 0e 	vmovdqu %ymm8,0xe20(%rsp)
  404719:	00 00 
  40471b:	c5 55 eb e4          	vpor   %ymm4,%ymm5,%ymm12
  40471f:	c5 05 db c4          	vpand  %ymm4,%ymm15,%ymm8
  404723:	c5 fe 6f a4 24 e0 0b 	vmovdqu 0xbe0(%rsp),%ymm4
  40472a:	00 00 
  40472c:	c4 c1 05 ef fc       	vpxor  %ymm12,%ymm15,%ymm7
  404731:	c5 bd ef f1          	vpxor  %ymm1,%ymm8,%ymm6
  404735:	c5 7e 6f bc 24 60 0a 	vmovdqu 0xa60(%rsp),%ymm15
  40473c:	00 00 
  40473e:	c5 f5 db cf          	vpand  %ymm7,%ymm1,%ymm1
  404742:	c5 ed ef d7          	vpxor  %ymm7,%ymm2,%ymm2
  404746:	c5 8d ef e9          	vpxor  %ymm1,%ymm14,%ymm5
  40474a:	c4 41 4d eb f6       	vpor   %ymm14,%ymm6,%ymm14
  40474f:	c5 6d ef 9e c0 2a 00 	vpxor  0x2ac0(%rsi),%ymm2,%ymm11
  404756:	00 
  404757:	c5 cd ef 96 e0 28 00 	vpxor  0x28e0(%rsi),%ymm6,%ymm2
  40475e:	00 
  40475f:	c5 fe 6f 8c 24 20 07 	vmovdqu 0x720(%rsp),%ymm1
  404766:	00 00 
  404768:	c4 41 45 ef e6       	vpxor  %ymm14,%ymm7,%ymm12
  40476d:	c5 7d ef f4          	vpxor  %ymm4,%ymm0,%ymm14
  404771:	c5 d5 ef be 40 2f 00 	vpxor  0x2f40(%rsi),%ymm5,%ymm7
  404778:	00 
  404779:	c5 e5 ef e9          	vpxor  %ymm1,%ymm3,%ymm5
  40477d:	c5 1d ef 86 60 2d 00 	vpxor  0x2d60(%rsi),%ymm12,%ymm8
  404784:	00 
  404785:	c4 41 05 db e6       	vpand  %ymm14,%ymm15,%ymm12
  40478a:	c5 dd ef e3          	vpxor  %ymm3,%ymm4,%ymm4
  40478e:	c5 fe 7f 94 24 60 0e 	vmovdqu %ymm2,0xe60(%rsp)
  404795:	00 00 
  404797:	c5 7e 7f 84 24 80 0e 	vmovdqu %ymm8,0xe80(%rsp)
  40479e:	00 00 
  4047a0:	c5 fe 7f 7c 24 60    	vmovdqu %ymm7,0x60(%rsp)
  4047a6:	c4 c1 75 eb d6       	vpor   %ymm14,%ymm1,%ymm2
  4047ab:	c5 9d ef f5          	vpxor  %ymm5,%ymm12,%ymm6
  4047af:	c5 05 ef c2          	vpxor  %ymm2,%ymm15,%ymm8
  4047b3:	c5 cd eb fc          	vpor   %ymm4,%ymm6,%ymm7
  4047b7:	c4 c1 65 ef d8       	vpxor  %ymm8,%ymm3,%ymm3
  4047bc:	c4 41 55 db e0       	vpand  %ymm8,%ymm5,%ymm12
  4047c1:	c5 cd ef ae 00 29 00 	vpxor  0x2900(%rsi),%ymm6,%ymm5
  4047c8:	00 
  4047c9:	c5 e5 ef 96 e0 2a 00 	vpxor  0x2ae0(%rsi),%ymm3,%ymm2
  4047d0:	00 
  4047d1:	c4 41 5d ef f4       	vpxor  %ymm12,%ymm4,%ymm14
  4047d6:	c5 bd ef e7          	vpxor  %ymm7,%ymm8,%ymm4
  4047da:	c5 fe 6f 9c 24 a0 0b 	vmovdqu 0xba0(%rsp),%ymm3
  4047e1:	00 00 
  4047e3:	c5 fe 7f 94 24 a0 0e 	vmovdqu %ymm2,0xea0(%rsp)
  4047ea:	00 00 
  4047ec:	c5 fe 6f 94 24 40 07 	vmovdqu 0x740(%rsp),%ymm2
  4047f3:	00 00 
  4047f5:	c5 7e 6f 84 24 20 0a 	vmovdqu 0xa20(%rsp),%ymm8
  4047fc:	00 00 
  4047fe:	c5 fe 7f ac 24 c0 0e 	vmovdqu %ymm5,0xec0(%rsp)
  404805:	00 00 
  404807:	c5 dd ef 8e 80 2d 00 	vpxor  0x2d80(%rsi),%ymm4,%ymm1
  40480e:	00 
  40480f:	c5 7d ef e3          	vpxor  %ymm3,%ymm0,%ymm12
  404813:	c5 0d ef be 60 2f 00 	vpxor  0x2f60(%rsi),%ymm14,%ymm15
  40481a:	00 
  40481b:	c5 fe 7f 8c 24 e0 0e 	vmovdqu %ymm1,0xee0(%rsp)
  404822:	00 00 
  404824:	c5 fe 6f 8c 24 c0 0c 	vmovdqu 0xcc0(%rsp),%ymm1
  40482b:	00 00 
  40482d:	c5 7e 7f bc 24 80 00 	vmovdqu %ymm15,0x80(%rsp)
  404834:	00 00 
  404836:	c4 c1 6d eb ec       	vpor   %ymm12,%ymm2,%ymm5
  40483b:	c4 c1 3d db e4       	vpand  %ymm12,%ymm8,%ymm4
  404840:	c5 e5 ef f1          	vpxor  %ymm1,%ymm3,%ymm6
  404844:	c5 f5 ef fa          	vpxor  %ymm2,%ymm1,%ymm7
  404848:	c5 bd ef dd          	vpxor  %ymm5,%ymm8,%ymm3
  40484c:	c5 dd ef d7          	vpxor  %ymm7,%ymm4,%ymm2
  404850:	c5 c5 db fb          	vpand  %ymm3,%ymm7,%ymm7
  404854:	c5 75 ef f3          	vpxor  %ymm3,%ymm1,%ymm14
  404858:	c5 fe 6f a4 24 80 0b 	vmovdqu 0xb80(%rsp),%ymm4
  40485f:	00 00 
  404861:	c5 fe 6f 8c 24 60 07 	vmovdqu 0x760(%rsp),%ymm1
  404868:	00 00 
  40486a:	c5 cd ef ef          	vpxor  %ymm7,%ymm6,%ymm5
  40486e:	c5 ed eb f6          	vpor   %ymm6,%ymm2,%ymm6
  404872:	c5 0d ef be 00 2b 00 	vpxor  0x2b00(%rsi),%ymm14,%ymm15
  404879:	00 
  40487a:	c5 7d ef f4          	vpxor  %ymm4,%ymm0,%ymm14
  40487e:	c5 6d ef a6 20 29 00 	vpxor  0x2920(%rsi),%ymm2,%ymm12
  404885:	00 
  404886:	c5 65 ef c6          	vpxor  %ymm6,%ymm3,%ymm8
  40488a:	c5 d5 ef b6 80 2f 00 	vpxor  0x2f80(%rsi),%ymm5,%ymm6
  404891:	00 
  404892:	c4 c1 75 eb de       	vpor   %ymm14,%ymm1,%ymm3
  404897:	c5 7e 7f bc 24 00 0f 	vmovdqu %ymm15,0xf00(%rsp)
  40489e:	00 00 
  4048a0:	c5 7e 6f bc 24 c0 09 	vmovdqu 0x9c0(%rsp),%ymm15
  4048a7:	00 00 
  4048a9:	c5 7e 7f a4 24 20 0f 	vmovdqu %ymm12,0xf20(%rsp)
  4048b0:	00 00 
  4048b2:	c5 fe 7f b4 24 a0 00 	vmovdqu %ymm6,0xa0(%rsp)
  4048b9:	00 00 
  4048bb:	c5 bd ef be a0 2d 00 	vpxor  0x2da0(%rsi),%ymm8,%ymm7
  4048c2:	00 
  4048c3:	c4 c1 05 db d6       	vpand  %ymm14,%ymm15,%ymm2
  4048c8:	c5 fe 7f bc 24 40 0f 	vmovdqu %ymm7,0xf40(%rsp)
  4048cf:	00 00 
  4048d1:	c5 fe 6f bc 24 a0 0c 	vmovdqu 0xca0(%rsp),%ymm7
  4048d8:	00 00 
  4048da:	c5 5d ef c7          	vpxor  %ymm7,%ymm4,%ymm8
  4048de:	c5 45 ef e1          	vpxor  %ymm1,%ymm7,%ymm12
  4048e2:	c5 85 ef e3          	vpxor  %ymm3,%ymm15,%ymm4
  4048e6:	c4 c1 6d ef cc       	vpxor  %ymm12,%ymm2,%ymm1
  4048eb:	c5 1d db e4          	vpand  %ymm4,%ymm12,%ymm12
  4048ef:	c5 c5 ef f4          	vpxor  %ymm4,%ymm7,%ymm6
  4048f3:	c5 fe 6f bc 24 80 07 	vmovdqu 0x780(%rsp),%ymm7
  4048fa:	00 00 
  4048fc:	c4 c1 3d ef d4       	vpxor  %ymm12,%ymm8,%ymm2
  404901:	c4 41 75 eb c0       	vpor   %ymm8,%ymm1,%ymm8
  404906:	c5 cd ef ae 20 2b 00 	vpxor  0x2b20(%rsi),%ymm6,%ymm5
  40490d:	00 
  40490e:	c5 75 ef b6 40 29 00 	vpxor  0x2940(%rsi),%ymm1,%ymm14
  404915:	00 
  404916:	c5 6d ef a6 a0 2f 00 	vpxor  0x2fa0(%rsi),%ymm2,%ymm12
  40491d:	00 
  40491e:	c4 41 5d ef f8       	vpxor  %ymm8,%ymm4,%ymm15
  404923:	c5 7e 6f 84 24 60 0b 	vmovdqu 0xb60(%rsp),%ymm8
  40492a:	00 00 
  40492c:	c5 fe 7f ac 24 60 0f 	vmovdqu %ymm5,0xf60(%rsp)
  404933:	00 00 
  404935:	c5 7e 7f b4 24 e0 03 	vmovdqu %ymm14,0x3e0(%rsp)
  40493c:	00 00 
  40493e:	c5 7e 6f b4 24 40 0c 	vmovdqu 0xc40(%rsp),%ymm14
  404945:	00 00 
  404947:	c5 fe 6f ac 24 a0 09 	vmovdqu 0x9a0(%rsp),%ymm5
  40494e:	00 00 
  404950:	c5 7e 7f a4 24 c0 00 	vmovdqu %ymm12,0xc0(%rsp)
  404957:	00 00 
  404959:	c4 c1 7d ef f0       	vpxor  %ymm8,%ymm0,%ymm6
  40495e:	c5 85 ef 9e c0 2d 00 	vpxor  0x2dc0(%rsi),%ymm15,%ymm3
  404965:	00 
  404966:	c4 c1 3d ef d6       	vpxor  %ymm14,%ymm8,%ymm2
  40496b:	c5 c5 eb e6          	vpor   %ymm6,%ymm7,%ymm4
  40496f:	c5 d5 db ce          	vpand  %ymm6,%ymm5,%ymm1
  404973:	c5 fe 7f 9c 24 80 06 	vmovdqu %ymm3,0x680(%rsp)
  40497a:	00 00 
  40497c:	c5 55 ef c4          	vpxor  %ymm4,%ymm5,%ymm8
  404980:	c5 8d ef df          	vpxor  %ymm7,%ymm14,%ymm3
  404984:	c4 41 0d ef f8       	vpxor  %ymm8,%ymm14,%ymm15
  404989:	c5 f5 ef fb          	vpxor  %ymm3,%ymm1,%ymm7
  40498d:	c4 c1 65 db d8       	vpand  %ymm8,%ymm3,%ymm3
  404992:	c5 7e 6f b4 24 20 0b 	vmovdqu 0xb20(%rsp),%ymm14
  404999:	00 00 
  40499b:	c5 05 ef a6 40 2b 00 	vpxor  0x2b40(%rsi),%ymm15,%ymm12
  4049a2:	00 
  4049a3:	c5 ed ef e3          	vpxor  %ymm3,%ymm2,%ymm4
  4049a7:	c5 c5 eb d2          	vpor   %ymm2,%ymm7,%ymm2
  4049ab:	c5 fe 6f 9c 24 a0 07 	vmovdqu 0x7a0(%rsp),%ymm3
  4049b2:	00 00 
  4049b4:	c5 7e 7f a4 24 60 06 	vmovdqu %ymm12,0x660(%rsp)
  4049bb:	00 00 
  4049bd:	c5 bd ef f2          	vpxor  %ymm2,%ymm8,%ymm6
  4049c1:	c5 45 ef a6 60 29 00 	vpxor  0x2960(%rsi),%ymm7,%ymm12
  4049c8:	00 
  4049c9:	c4 c1 7d ef d6       	vpxor  %ymm14,%ymm0,%ymm2
  4049ce:	c5 dd ef 8e c0 2f 00 	vpxor  0x2fc0(%rsi),%ymm4,%ymm1
  4049d5:	00 
  4049d6:	c5 cd ef ae e0 2d 00 	vpxor  0x2de0(%rsi),%ymm6,%ymm5
  4049dd:	00 
  4049de:	c5 7e 7f a4 24 a0 03 	vmovdqu %ymm12,0x3a0(%rsp)
  4049e5:	00 00 
  4049e7:	c5 fe 6f b4 24 60 0c 	vmovdqu 0xc60(%rsp),%ymm6
  4049ee:	00 00 
  4049f0:	c5 7e 6f a4 24 60 09 	vmovdqu 0x960(%rsp),%ymm12
  4049f7:	00 00 
  4049f9:	c5 fe 7f 8c 24 e0 00 	vmovdqu %ymm1,0xe0(%rsp)
  404a00:	00 00 
  404a02:	c5 fe 7f ac 24 20 05 	vmovdqu %ymm5,0x520(%rsp)
  404a09:	00 00 
  404a0b:	c5 65 eb c2          	vpor   %ymm2,%ymm3,%ymm8
  404a0f:	c5 0d ef fe          	vpxor  %ymm6,%ymm14,%ymm15
  404a13:	c5 cd ef cb          	vpxor  %ymm3,%ymm6,%ymm1
  404a17:	c5 9d db fa          	vpand  %ymm2,%ymm12,%ymm7
  404a1b:	c4 41 1d ef f0       	vpxor  %ymm8,%ymm12,%ymm14
  404a20:	c5 c5 ef d9          	vpxor  %ymm1,%ymm7,%ymm3
  404a24:	c4 c1 75 db ce       	vpand  %ymm14,%ymm1,%ymm1
  404a29:	c4 c1 4d ef ee       	vpxor  %ymm14,%ymm6,%ymm5
  404a2e:	c5 fe 6f b4 24 00 0b 	vmovdqu 0xb00(%rsp),%ymm6
  404a35:	00 00 
  404a37:	c5 05 ef c1          	vpxor  %ymm1,%ymm15,%ymm8
  404a3b:	c4 41 65 eb ff       	vpor   %ymm15,%ymm3,%ymm15
  404a40:	c5 e5 ef 96 80 29 00 	vpxor  0x2980(%rsi),%ymm3,%ymm2
  404a47:	00 
  404a48:	c5 d5 ef a6 60 2b 00 	vpxor  0x2b60(%rsi),%ymm5,%ymm4
  404a4f:	00 
  404a50:	c5 bd ef be e0 2f 00 	vpxor  0x2fe0(%rsi),%ymm8,%ymm7
  404a57:	00 
  404a58:	c4 41 0d ef e7       	vpxor  %ymm15,%ymm14,%ymm12
  404a5d:	c5 7e 6f bc 24 c0 07 	vmovdqu 0x7c0(%rsp),%ymm15
  404a64:	00 00 
  404a66:	c5 fe 7f 94 24 20 03 	vmovdqu %ymm2,0x320(%rsp)
  404a6d:	00 00 
  404a6f:	c5 7e 6f b4 24 20 0c 	vmovdqu 0xc20(%rsp),%ymm14
  404a76:	00 00 
  404a78:	c5 fe 7f bc 24 00 01 	vmovdqu %ymm7,0x100(%rsp)
  404a7f:	00 00 
  404a81:	c5 fe 7f a4 24 60 05 	vmovdqu %ymm4,0x560(%rsp)
  404a88:	00 00 
  404a8a:	c5 fd ef d6          	vpxor  %ymm6,%ymm0,%ymm2
  404a8e:	c5 9d ef 8e 00 2c 00 	vpxor  0x2c00(%rsi),%ymm12,%ymm1
  404a95:	00 
  404a96:	c4 c1 0d ef ef       	vpxor  %ymm15,%ymm14,%ymm5
  404a9b:	c4 c1 4d ef e6       	vpxor  %ymm14,%ymm6,%ymm4
  404aa0:	c5 05 eb c2          	vpor   %ymm2,%ymm15,%ymm8
  404aa4:	c5 7e 6f a4 24 40 09 	vmovdqu 0x940(%rsp),%ymm12
  404aab:	00 00 
  404aad:	c5 7e 6f bc 24 00 09 	vmovdqu 0x900(%rsp),%ymm15
  404ab4:	00 00 
  404ab6:	c5 9d db fa          	vpand  %ymm2,%ymm12,%ymm7
  404aba:	c4 41 1d ef c0       	vpxor  %ymm8,%ymm12,%ymm8
  404abf:	c5 c5 ef f5          	vpxor  %ymm5,%ymm7,%ymm6
  404ac3:	c4 c1 55 db e8       	vpand  %ymm8,%ymm5,%ymm5
  404ac8:	c4 41 0d ef f0       	vpxor  %ymm8,%ymm14,%ymm14
  404acd:	c5 dd ef fd          	vpxor  %ymm5,%ymm4,%ymm7
  404ad1:	c5 cd eb e4          	vpor   %ymm4,%ymm6,%ymm4
  404ad5:	c5 8d ef 96 80 2b 00 	vpxor  0x2b80(%rsi),%ymm14,%ymm2
  404adc:	00 
  404add:	c5 45 ef b6 00 2e 00 	vpxor  0x2e00(%rsi),%ymm7,%ymm14
  404ae4:	00 
  404ae5:	c5 3d ef e4          	vpxor  %ymm4,%ymm8,%ymm12
  404ae9:	c5 7e 6f 84 24 e0 0a 	vmovdqu 0xae0(%rsp),%ymm8
  404af0:	00 00 
  404af2:	c5 fe 7f 94 24 e0 04 	vmovdqu %ymm2,0x4e0(%rsp)
  404af9:	00 00 
  404afb:	c5 fe 6f bc 24 00 0c 	vmovdqu 0xc00(%rsp),%ymm7
  404b02:	00 00 
  404b04:	c5 cd ef 96 a0 29 00 	vpxor  0x29a0(%rsi),%ymm6,%ymm2
  404b0b:	00 
  404b0c:	c4 c1 7d ef e8       	vpxor  %ymm8,%ymm0,%ymm5
  404b11:	c5 9d ef a6 20 2c 00 	vpxor  0x2c20(%rsi),%ymm12,%ymm4
  404b18:	00 
  404b19:	c5 3d ef e7          	vpxor  %ymm7,%ymm8,%ymm12
  404b1d:	c5 fe 6f b4 24 e0 07 	vmovdqu 0x7e0(%rsp),%ymm6
  404b24:	00 00 
  404b26:	c5 fe 7f 94 24 c0 02 	vmovdqu %ymm2,0x2c0(%rsp)
  404b2d:	00 00 
  404b2f:	c5 05 db c5          	vpand  %ymm5,%ymm15,%ymm8
  404b33:	c5 cd eb dd          	vpor   %ymm5,%ymm6,%ymm3
  404b37:	c5 c5 ef d6          	vpxor  %ymm6,%ymm7,%ymm2
  404b3b:	c5 85 ef f3          	vpxor  %ymm3,%ymm15,%ymm6
  404b3f:	c5 3d ef c2          	vpxor  %ymm2,%ymm8,%ymm8
  404b43:	c5 ed db d6          	vpand  %ymm6,%ymm2,%ymm2
  404b47:	c5 c5 ef fe          	vpxor  %ymm6,%ymm7,%ymm7
  404b4b:	c5 9d ef da          	vpxor  %ymm2,%ymm12,%ymm3
  404b4f:	c4 41 3d eb e4       	vpor   %ymm12,%ymm8,%ymm12
  404b54:	c5 c5 ef ae a0 2b 00 	vpxor  0x2ba0(%rsi),%ymm7,%ymm5
  404b5b:	00 
  404b5c:	c5 fe 6f bc 24 c0 0b 	vmovdqu 0xbc0(%rsp),%ymm7
  404b63:	00 00 
  404b65:	c4 41 4d ef fc       	vpxor  %ymm12,%ymm6,%ymm15
  404b6a:	c5 bd ef b6 c0 29 00 	vpxor  0x29c0(%rsi),%ymm8,%ymm6
  404b71:	00 
  404b72:	c5 7e 6f 24 24       	vmovdqu (%rsp),%ymm12
  404b77:	c5 fe 7f ac 24 80 04 	vmovdqu %ymm5,0x480(%rsp)
  404b7e:	00 00 
  404b80:	c5 e5 ef ae 20 2e 00 	vpxor  0x2e20(%rsi),%ymm3,%ymm5
  404b87:	00 
  404b88:	c5 fe 7f b4 24 80 02 	vmovdqu %ymm6,0x280(%rsp)
  404b8f:	00 00 
  404b91:	c5 85 ef b6 40 2c 00 	vpxor  0x2c40(%rsi),%ymm15,%ymm6
  404b98:	00 
  404b99:	c4 c1 7d ef d4       	vpxor  %ymm12,%ymm0,%ymm2
  404b9e:	c5 9d ef df          	vpxor  %ymm7,%ymm12,%ymm3
  404ba2:	c5 7e 6f bc 24 00 08 	vmovdqu 0x800(%rsp),%ymm15
  404ba9:	00 00 
  404bab:	c5 7e 6f a4 24 c0 08 	vmovdqu 0x8c0(%rsp),%ymm12
  404bb2:	00 00 
  404bb4:	c4 41 45 ef c7       	vpxor  %ymm15,%ymm7,%ymm8
  404bb9:	c5 05 eb fa          	vpor   %ymm2,%ymm15,%ymm15
  404bbd:	c5 9d db d2          	vpand  %ymm2,%ymm12,%ymm2
  404bc1:	c4 41 1d ef ff       	vpxor  %ymm15,%ymm12,%ymm15
  404bc6:	c4 41 6d ef e0       	vpxor  %ymm8,%ymm2,%ymm12
  404bcb:	c4 c1 45 ef d7       	vpxor  %ymm15,%ymm7,%ymm2
  404bd0:	c4 41 3d db c7       	vpand  %ymm15,%ymm8,%ymm8
  404bd5:	c5 ed ef be c0 2b 00 	vpxor  0x2bc0(%rsi),%ymm2,%ymm7
  404bdc:	00 
  404bdd:	c4 c1 65 ef d0       	vpxor  %ymm8,%ymm3,%ymm2
  404be2:	c5 9d eb db          	vpor   %ymm3,%ymm12,%ymm3
  404be6:	c5 1d ef a6 e0 29 00 	vpxor  0x29e0(%rsi),%ymm12,%ymm12
  404bed:	00 
  404bee:	c5 fe 7f bc 24 60 04 	vmovdqu %ymm7,0x460(%rsp)
  404bf5:	00 00 
  404bf7:	c5 ed ef be 40 2e 00 	vpxor  0x2e40(%rsi),%ymm2,%ymm7
  404bfe:	00 
  404bff:	c5 05 ef c3          	vpxor  %ymm3,%ymm15,%ymm8
  404c03:	c5 7e 7f a4 24 40 02 	vmovdqu %ymm12,0x240(%rsp)
  404c0a:	00 00 
  404c0c:	c5 fe 6f 94 24 c0 0a 	vmovdqu 0xac0(%rsp),%ymm2
  404c13:	00 00 
  404c15:	c5 7e 6f bc 24 e0 08 	vmovdqu 0x8e0(%rsp),%ymm15
  404c1c:	00 00 
  404c1e:	c5 3d ef 86 60 2c 00 	vpxor  0x2c60(%rsi),%ymm8,%ymm8
  404c25:	00 
  404c26:	c5 7d ef e2          	vpxor  %ymm2,%ymm0,%ymm12
  404c2a:	c5 ed ef d9          	vpxor  %ymm1,%ymm2,%ymm3
  404c2e:	c4 c1 75 ef d6       	vpxor  %ymm14,%ymm1,%ymm2
  404c33:	c4 41 0d eb f4       	vpor   %ymm12,%ymm14,%ymm14
  404c38:	c4 41 05 db e4       	vpand  %ymm12,%ymm15,%ymm12
  404c3d:	c4 41 05 ef f6       	vpxor  %ymm14,%ymm15,%ymm14
  404c42:	c5 1d ef e2          	vpxor  %ymm2,%ymm12,%ymm12
  404c46:	c4 c1 75 ef ce       	vpxor  %ymm14,%ymm1,%ymm1
  404c4b:	c5 1d eb fb          	vpor   %ymm3,%ymm12,%ymm15
  404c4f:	c5 1d ef a6 00 30 00 	vpxor  0x3000(%rsi),%ymm12,%ymm12
  404c56:	00 
  404c57:	c4 c1 6d db d6       	vpand  %ymm14,%ymm2,%ymm2
  404c5c:	c5 f5 ef 8e e0 33 00 	vpxor  0x33e0(%rsi),%ymm1,%ymm1
  404c63:	00 
  404c64:	c4 41 0d ef f7       	vpxor  %ymm15,%ymm14,%ymm14
  404c69:	c5 7e 7f a4 24 60 02 	vmovdqu %ymm12,0x260(%rsp)
  404c70:	00 00 
  404c72:	c5 7e 6f a4 24 40 0b 	vmovdqu 0xb40(%rsp),%ymm12
  404c79:	00 00 
  404c7b:	c5 fe 7f 4c 24 20    	vmovdqu %ymm1,0x20(%rsp)
  404c81:	c5 e5 ef d2          	vpxor  %ymm2,%ymm3,%ymm2
  404c85:	c5 8d ef 9e 80 34 00 	vpxor  0x3480(%rsi),%ymm14,%ymm3
  404c8c:	00 
  404c8d:	c4 c1 7d ef cc       	vpxor  %ymm12,%ymm0,%ymm1
  404c92:	c5 1d ef fc          	vpxor  %ymm4,%ymm12,%ymm15
  404c96:	c5 ed ef 96 60 36 00 	vpxor  0x3660(%rsi),%ymm2,%ymm2
  404c9d:	00 
  404c9e:	c5 fe 7f 9c 24 40 05 	vmovdqu %ymm3,0x540(%rsp)
  404ca5:	00 00 
  404ca7:	c5 dd ef dd          	vpxor  %ymm5,%ymm4,%ymm3
  404cab:	c5 55 eb f1          	vpor   %ymm1,%ymm5,%ymm14
  404caf:	c5 fe 7f 94 24 20 01 	vmovdqu %ymm2,0x120(%rsp)
  404cb6:	00 00 
  404cb8:	c5 fe 6f ac 24 20 09 	vmovdqu 0x920(%rsp),%ymm5
  404cbf:	00 00 
  404cc1:	c4 41 55 ef f6       	vpxor  %ymm14,%ymm5,%ymm14
  404cc6:	c5 d5 db d1          	vpand  %ymm1,%ymm5,%ymm2
  404cca:	c4 c1 5d ef e6       	vpxor  %ymm14,%ymm4,%ymm4
  404ccf:	c5 ed ef cb          	vpxor  %ymm3,%ymm2,%ymm1
  404cd3:	c4 41 65 db e6       	vpand  %ymm14,%ymm3,%ymm12
  404cd8:	c5 dd ef 96 00 32 00 	vpxor  0x3200(%rsi),%ymm4,%ymm2
  404cdf:	00 
  404ce0:	c4 c1 75 eb ef       	vpor   %ymm15,%ymm1,%ymm5
  404ce5:	c4 c1 05 ef dc       	vpxor  %ymm12,%ymm15,%ymm3
  404cea:	c5 f5 ef a6 20 30 00 	vpxor  0x3020(%rsi),%ymm1,%ymm4
  404cf1:	00 
  404cf2:	c5 fe 7f 94 24 40 04 	vmovdqu %ymm2,0x440(%rsp)
  404cf9:	00 00 
  404cfb:	c5 fe 6f 94 24 20 0d 	vmovdqu 0xd20(%rsp),%ymm2
  404d02:	00 00 
  404d04:	c5 0d ef f5          	vpxor  %ymm5,%ymm14,%ymm14
  404d08:	c5 cd ef ef          	vpxor  %ymm7,%ymm6,%ymm5
  404d0c:	c5 65 ef be 80 36 00 	vpxor  0x3680(%rsi),%ymm3,%ymm15
  404d13:	00 
  404d14:	c5 7d ef e2          	vpxor  %ymm2,%ymm0,%ymm12
  404d18:	c5 8d ef 8e a0 34 00 	vpxor  0x34a0(%rsi),%ymm14,%ymm1
  404d1f:	00 
  404d20:	c5 fe 7f a4 24 a0 02 	vmovdqu %ymm4,0x2a0(%rsp)
  404d27:	00 00 
  404d29:	c5 7e 6f b4 24 e0 0c 	vmovdqu 0xce0(%rsp),%ymm14
  404d30:	00 00 
  404d32:	c5 7e 7f bc 24 40 01 	vmovdqu %ymm15,0x140(%rsp)
  404d39:	00 00 
  404d3b:	c5 fe 7f 8c 24 80 05 	vmovdqu %ymm1,0x580(%rsp)
  404d42:	00 00 
  404d44:	c5 7e 6f bc 24 20 08 	vmovdqu 0x820(%rsp),%ymm15
  404d4b:	00 00 
  404d4d:	c5 ed ef e6          	vpxor  %ymm6,%ymm2,%ymm4
  404d51:	c4 c1 45 eb d4       	vpor   %ymm12,%ymm7,%ymm2
  404d56:	c5 fe 6f bc 24 80 09 	vmovdqu 0x980(%rsp),%ymm7
  404d5d:	00 00 
  404d5f:	c4 c1 45 db cc       	vpand  %ymm12,%ymm7,%ymm1
  404d64:	c5 45 ef e2          	vpxor  %ymm2,%ymm7,%ymm12
  404d68:	c5 f5 ef fd          	vpxor  %ymm5,%ymm1,%ymm7
  404d6c:	c4 c1 4d ef f4       	vpxor  %ymm12,%ymm6,%ymm6
  404d71:	c5 cd ef 96 20 32 00 	vpxor  0x3220(%rsi),%ymm6,%ymm2
  404d78:	00 
  404d79:	c4 c1 55 db f4       	vpand  %ymm12,%ymm5,%ymm6
  404d7e:	c5 c5 eb ec          	vpor   %ymm4,%ymm7,%ymm5
  404d82:	c5 fe 7f 94 24 a0 04 	vmovdqu %ymm2,0x4a0(%rsp)
  404d89:	00 00 
  404d8b:	c5 dd ef ce          	vpxor  %ymm6,%ymm4,%ymm1
  404d8f:	c5 9d ef e5          	vpxor  %ymm5,%ymm12,%ymm4
  404d93:	c4 c1 0d ef d0       	vpxor  %ymm8,%ymm14,%ymm2
  404d98:	c5 45 ef a6 40 30 00 	vpxor  0x3040(%rsi),%ymm7,%ymm12
  404d9f:	00 
  404da0:	c5 f5 ef 9e a0 36 00 	vpxor  0x36a0(%rsi),%ymm1,%ymm3
  404da7:	00 
  404da8:	c5 dd ef be c0 34 00 	vpxor  0x34c0(%rsi),%ymm4,%ymm7
  404daf:	00 
  404db0:	c4 c1 3d ef cf       	vpxor  %ymm15,%ymm8,%ymm1
  404db5:	c5 7e 7f a4 24 e0 02 	vmovdqu %ymm12,0x2e0(%rsp)
  404dbc:	00 00 
  404dbe:	c5 fe 7f 9c 24 60 01 	vmovdqu %ymm3,0x160(%rsp)
  404dc5:	00 00 
  404dc7:	c5 fe 7f bc 24 c0 05 	vmovdqu %ymm7,0x5c0(%rsp)
  404dce:	00 00 
  404dd0:	c5 fe 6f bc 24 e0 09 	vmovdqu 0x9e0(%rsp),%ymm7
  404dd7:	00 00 
  404dd9:	c4 41 7d ef e6       	vpxor  %ymm14,%ymm0,%ymm12
  404dde:	c4 c1 05 eb f4       	vpor   %ymm12,%ymm15,%ymm6
  404de3:	c4 c1 45 db ec       	vpand  %ymm12,%ymm7,%ymm5
  404de8:	c5 7e 6f bc 24 00 0d 	vmovdqu 0xd00(%rsp),%ymm15
  404def:	00 00 
  404df1:	c5 c5 ef e6          	vpxor  %ymm6,%ymm7,%ymm4
  404df5:	c5 d5 ef d9          	vpxor  %ymm1,%ymm5,%ymm3
  404df9:	c5 3d ef c4          	vpxor  %ymm4,%ymm8,%ymm8
  404dfd:	c5 e5 ef be 60 30 00 	vpxor  0x3060(%rsi),%ymm3,%ymm7
  404e04:	00 
  404e05:	c5 3d ef a6 40 32 00 	vpxor  0x3240(%rsi),%ymm8,%ymm12
  404e0c:	00 
  404e0d:	c5 75 db c4          	vpand  %ymm4,%ymm1,%ymm8
  404e11:	c5 fe 7f bc 24 00 03 	vmovdqu %ymm7,0x300(%rsp)
  404e18:	00 00 
  404e1a:	c5 7e 7f a4 24 c0 04 	vmovdqu %ymm12,0x4c0(%rsp)
  404e21:	00 00 
  404e23:	c4 c1 6d ef c8       	vpxor  %ymm8,%ymm2,%ymm1
  404e28:	c5 e5 eb d2          	vpor   %ymm2,%ymm3,%ymm2
  404e2c:	c4 41 7d ef e7       	vpxor  %ymm15,%ymm0,%ymm12
  404e31:	c5 7e 6f 84 24 00 0a 	vmovdqu 0xa00(%rsp),%ymm8
  404e38:	00 00 
  404e3a:	c5 dd ef f2          	vpxor  %ymm2,%ymm4,%ymm6
  404e3e:	c5 75 ef b6 c0 36 00 	vpxor  0x36c0(%rsi),%ymm1,%ymm14
  404e45:	00 
  404e46:	c5 fe 6f 94 24 40 08 	vmovdqu 0x840(%rsp),%ymm2
  404e4d:	00 00 
  404e4f:	c5 fe 6f 8c 24 80 0c 	vmovdqu 0xc80(%rsp),%ymm1
  404e56:	00 00 
  404e58:	c5 cd ef ae e0 34 00 	vpxor  0x34e0(%rsi),%ymm6,%ymm5
  404e5f:	00 
  404e60:	c4 c1 3d db f4       	vpand  %ymm12,%ymm8,%ymm6
  404e65:	c4 c1 6d eb fc       	vpor   %ymm12,%ymm2,%ymm7
  404e6a:	c5 f5 ef e2          	vpxor  %ymm2,%ymm1,%ymm4
  404e6e:	c5 fe 7f ac 24 00 06 	vmovdqu %ymm5,0x600(%rsp)
  404e75:	00 00 
  404e77:	c5 7e 7f b4 24 80 01 	vmovdqu %ymm14,0x180(%rsp)
  404e7e:	00 00 
  404e80:	c5 85 ef e9          	vpxor  %ymm1,%ymm15,%ymm5
  404e84:	c5 3d ef ff          	vpxor  %ymm7,%ymm8,%ymm15
  404e88:	c5 cd ef d4          	vpxor  %ymm4,%ymm6,%ymm2
  404e8c:	c4 c1 5d db e7       	vpand  %ymm15,%ymm4,%ymm4
  404e91:	c4 c1 75 ef df       	vpxor  %ymm15,%ymm1,%ymm3
  404e96:	c5 6d ef a6 80 30 00 	vpxor  0x3080(%rsi),%ymm2,%ymm12
  404e9d:	00 
  404e9e:	c5 d5 ef f4          	vpxor  %ymm4,%ymm5,%ymm6
  404ea2:	c5 65 ef b6 60 32 00 	vpxor  0x3260(%rsi),%ymm3,%ymm14
  404ea9:	00 
  404eaa:	c4 c1 7d ef d9       	vpxor  %ymm9,%ymm0,%ymm3
  404eaf:	c5 ed eb ed          	vpor   %ymm5,%ymm2,%ymm5
  404eb3:	c5 cd ef 8e e0 36 00 	vpxor  0x36e0(%rsi),%ymm6,%ymm1
  404eba:	00 
  404ebb:	c5 fe 6f a4 24 80 0d 	vmovdqu 0xd80(%rsp),%ymm4
  404ec2:	00 00 
  404ec4:	c5 fe 6f 94 24 40 0a 	vmovdqu 0xa40(%rsp),%ymm2
  404ecb:	00 00 
  404ecd:	c5 7e 7f a4 24 40 03 	vmovdqu %ymm12,0x340(%rsp)
  404ed4:	00 00 
  404ed6:	c5 7e 7f b4 24 00 05 	vmovdqu %ymm14,0x500(%rsp)
  404edd:	00 00 
  404edf:	c5 fe 7f 8c 24 a0 01 	vmovdqu %ymm1,0x1a0(%rsp)
  404ee6:	00 00 
  404ee8:	c5 b5 ef f4          	vpxor  %ymm4,%ymm9,%ymm6
  404eec:	c5 05 ef c5          	vpxor  %ymm5,%ymm15,%ymm8
  404ef0:	c5 7e 6f 8c 24 60 08 	vmovdqu 0x860(%rsp),%ymm9
  404ef7:	00 00 
  404ef9:	c5 bd ef be 00 35 00 	vpxor  0x3500(%rsi),%ymm8,%ymm7
  404f00:	00 
  404f01:	c5 6d db c3          	vpand  %ymm3,%ymm2,%ymm8
  404f05:	c5 35 eb e3          	vpor   %ymm3,%ymm9,%ymm12
  404f09:	c4 c1 5d ef c9       	vpxor  %ymm9,%ymm4,%ymm1
  404f0e:	c5 fe 7f bc 24 20 06 	vmovdqu %ymm7,0x620(%rsp)
  404f15:	00 00 
  404f17:	c4 41 6d ef f4       	vpxor  %ymm12,%ymm2,%ymm14
  404f1c:	c5 3d ef f9          	vpxor  %ymm1,%ymm8,%ymm15
  404f20:	c4 c1 5d ef fe       	vpxor  %ymm14,%ymm4,%ymm7
  404f25:	c4 c1 75 db ee       	vpand  %ymm14,%ymm1,%ymm5
  404f2a:	c4 c1 7d ef cb       	vpxor  %ymm11,%ymm0,%ymm1
  404f2f:	c5 85 ef 96 a0 30 00 	vpxor  0x30a0(%rsi),%ymm15,%ymm2
  404f36:	00 
  404f37:	c5 45 ef 8e 80 32 00 	vpxor  0x3280(%rsi),%ymm7,%ymm9
  404f3e:	00 
  404f3f:	c5 cd ef fd          	vpxor  %ymm5,%ymm6,%ymm7
  404f43:	c5 85 eb f6          	vpor   %ymm6,%ymm15,%ymm6
  404f47:	c5 fe 7f 94 24 60 03 	vmovdqu %ymm2,0x360(%rsp)
  404f4e:	00 00 
  404f50:	c5 7e 7f 8c 24 a0 05 	vmovdqu %ymm9,0x5a0(%rsp)
  404f57:	00 00 
  404f59:	c5 7e 6f 8c 24 a0 0e 	vmovdqu 0xea0(%rsp),%ymm9
  404f60:	00 00 
  404f62:	c5 7e 6f bc 24 60 0e 	vmovdqu 0xe60(%rsp),%ymm15
  404f69:	00 00 
  404f6b:	c5 0d ef e6          	vpxor  %ymm6,%ymm14,%ymm12
  404f6f:	c5 c5 ef b6 00 37 00 	vpxor  0x3700(%rsi),%ymm7,%ymm6
  404f76:	00 
  404f77:	c4 c1 25 ef fd       	vpxor  %ymm13,%ymm11,%ymm7
  404f7c:	c4 41 7d ef f1       	vpxor  %ymm9,%ymm0,%ymm14
  404f81:	c5 1d ef 86 20 35 00 	vpxor  0x3520(%rsi),%ymm12,%ymm8
  404f88:	00 
  404f89:	c5 2d db e1          	vpand  %ymm1,%ymm10,%ymm12
  404f8d:	c5 7e 6f 9c 24 80 08 	vmovdqu 0x880(%rsp),%ymm11
  404f94:	00 00 
  404f96:	c5 fe 7f b4 24 c0 01 	vmovdqu %ymm6,0x1c0(%rsp)
  404f9d:	00 00 
  404f9f:	c5 7e 7f 84 24 40 06 	vmovdqu %ymm8,0x640(%rsp)
  404fa6:	00 00 
  404fa8:	c5 a5 eb d1          	vpor   %ymm1,%ymm11,%ymm2
  404fac:	c4 41 15 ef c3       	vpxor  %ymm11,%ymm13,%ymm8
  404fb1:	c5 7e 6f 9c 24 a0 08 	vmovdqu 0x8a0(%rsp),%ymm11
  404fb8:	00 00 
  404fba:	c5 2d ef d2          	vpxor  %ymm2,%ymm10,%ymm10
  404fbe:	c4 c1 1d ef c8       	vpxor  %ymm8,%ymm12,%ymm1
  404fc3:	c4 41 15 ef ea       	vpxor  %ymm10,%ymm13,%ymm13
  404fc8:	c4 41 3d db e2       	vpand  %ymm10,%ymm8,%ymm12
  404fcd:	c5 f5 eb f7          	vpor   %ymm7,%ymm1,%ymm6
  404fd1:	c4 41 05 db c6       	vpand  %ymm14,%ymm15,%ymm8
  404fd6:	c5 95 ef 96 a0 32 00 	vpxor  0x32a0(%rsi),%ymm13,%ymm2
  404fdd:	00 
  404fde:	c4 c1 45 ef e4       	vpxor  %ymm12,%ymm7,%ymm4
  404fe3:	c5 ad ef de          	vpxor  %ymm6,%ymm10,%ymm3
  404fe7:	c4 41 25 eb e6       	vpor   %ymm14,%ymm11,%ymm12
  404fec:	c5 75 ef ae c0 30 00 	vpxor  0x30c0(%rsi),%ymm1,%ymm13
  404ff3:	00 
  404ff4:	c5 dd ef ae 20 37 00 	vpxor  0x3720(%rsi),%ymm4,%ymm5
  404ffb:	00 
  404ffc:	c5 fe 6f bc 24 c0 0d 	vmovdqu 0xdc0(%rsp),%ymm7
  405003:	00 00 
  405005:	c5 fe 7f 94 24 e0 05 	vmovdqu %ymm2,0x5e0(%rsp)
  40500c:	00 00 
  40500e:	c5 7e 7f ac 24 80 03 	vmovdqu %ymm13,0x380(%rsp)
  405015:	00 00 
  405017:	c5 fe 7f ac 24 e0 01 	vmovdqu %ymm5,0x1e0(%rsp)
  40501e:	00 00 
  405020:	c5 e5 ef 96 40 35 00 	vpxor  0x3540(%rsi),%ymm3,%ymm2
  405027:	00 
  405028:	c4 c1 05 ef dc       	vpxor  %ymm12,%ymm15,%ymm3
  40502d:	c4 41 45 ef d3       	vpxor  %ymm11,%ymm7,%ymm10
  405032:	c5 b5 ef cf          	vpxor  %ymm7,%ymm9,%ymm1
  405036:	c5 c5 ef f3          	vpxor  %ymm3,%ymm7,%ymm6
  40503a:	c5 2d db eb          	vpand  %ymm3,%ymm10,%ymm13
  40503e:	c4 c1 3d ef ea       	vpxor  %ymm10,%ymm8,%ymm5
  405043:	c5 fe 6f bc 24 00 0f 	vmovdqu 0xf00(%rsp),%ymm7
  40504a:	00 00 
  40504c:	c5 4d ef a6 c0 32 00 	vpxor  0x32c0(%rsi),%ymm6,%ymm12
  405053:	00 
  405054:	c4 41 75 ef f5       	vpxor  %ymm13,%ymm1,%ymm14
  405059:	c5 d5 eb e1          	vpor   %ymm1,%ymm5,%ymm4
  40505d:	c5 7d ef d7          	vpxor  %ymm7,%ymm0,%ymm10
  405061:	c5 55 ef 8e e0 30 00 	vpxor  0x30e0(%rsi),%ymm5,%ymm9
  405068:	00 
  405069:	c5 0d ef be 40 37 00 	vpxor  0x3740(%rsi),%ymm14,%ymm15
  405070:	00 
  405071:	c5 65 ef dc          	vpxor  %ymm4,%ymm3,%ymm11
  405075:	c5 fe 6f b4 24 00 0e 	vmovdqu 0xe00(%rsp),%ymm6
  40507c:	00 00 
  40507e:	c5 7e 6f ac 24 c0 0e 	vmovdqu 0xec0(%rsp),%ymm13
  405085:	00 00 
  405087:	c5 fe 6f a4 24 60 0d 	vmovdqu 0xd60(%rsp),%ymm4
  40508e:	00 00 
  405090:	c5 7e 7f bc 24 00 02 	vmovdqu %ymm15,0x200(%rsp)
  405097:	00 00 
  405099:	c5 7e 7f 8c 24 c0 03 	vmovdqu %ymm9,0x3c0(%rsp)
  4050a0:	00 00 
  4050a2:	c4 c1 4d eb ca       	vpor   %ymm10,%ymm6,%ymm1
  4050a7:	c5 25 ef 86 60 35 00 	vpxor  0x3560(%rsi),%ymm11,%ymm8
  4050ae:	00 
  4050af:	c5 5d ef de          	vpxor  %ymm6,%ymm4,%ymm11
  4050b3:	c4 c1 15 db da       	vpand  %ymm10,%ymm13,%ymm3
  4050b8:	c5 15 ef f9          	vpxor  %ymm1,%ymm13,%ymm15
  4050bc:	c5 c5 ef fc          	vpxor  %ymm4,%ymm7,%ymm7
  4050c0:	c4 c1 65 ef f3       	vpxor  %ymm11,%ymm3,%ymm6
  4050c5:	c4 c1 5d ef ef       	vpxor  %ymm15,%ymm4,%ymm5
  4050ca:	c4 41 25 db f7       	vpand  %ymm15,%ymm11,%ymm14
  4050cf:	c5 fe 6f a4 24 60 0f 	vmovdqu 0xf60(%rsp),%ymm4
  4050d6:	00 00 
  4050d8:	c5 7e 6f 9c 24 20 0f 	vmovdqu 0xf20(%rsp),%ymm11
  4050df:	00 00 
  4050e1:	c5 55 ef 8e e0 32 00 	vpxor  0x32e0(%rsi),%ymm5,%ymm9
  4050e8:	00 
  4050e9:	c4 c1 45 ef ce       	vpxor  %ymm14,%ymm7,%ymm1
  4050ee:	c5 cd eb ff          	vpor   %ymm7,%ymm6,%ymm7
  4050f2:	c5 4d ef 96 00 31 00 	vpxor  0x3100(%rsi),%ymm6,%ymm10
  4050f9:	00 
  4050fa:	c5 fe 6f ac 24 40 0e 	vmovdqu 0xe40(%rsp),%ymm5
  405101:	00 00 
  405103:	c5 7e 7f 8c 24 a0 06 	vmovdqu %ymm9,0x6a0(%rsp)
  40510a:	00 00 
  40510c:	c5 fe 6f b4 24 e0 0d 	vmovdqu 0xde0(%rsp),%ymm6
  405113:	00 00 
  405115:	c5 7e 7f 94 24 00 04 	vmovdqu %ymm10,0x400(%rsp)
  40511c:	00 00 
  40511e:	c5 7d ef cc          	vpxor  %ymm4,%ymm0,%ymm9
  405122:	c5 05 ef ef          	vpxor  %ymm7,%ymm15,%ymm13
  405126:	c5 5d ef d6          	vpxor  %ymm6,%ymm4,%ymm10
  40512a:	c5 f5 ef 9e 60 37 00 	vpxor  0x3760(%rsi),%ymm1,%ymm3
  405131:	00 
  405132:	c4 41 55 eb f1       	vpor   %ymm9,%ymm5,%ymm14
  405137:	c5 95 ef be 80 35 00 	vpxor  0x3580(%rsi),%ymm13,%ymm7
  40513e:	00 
  40513f:	c5 4d ef ed          	vpxor  %ymm5,%ymm6,%ymm13
  405143:	c4 41 25 db f9       	vpand  %ymm9,%ymm11,%ymm15
  405148:	c5 fe 7f 9c 24 20 02 	vmovdqu %ymm3,0x220(%rsp)
  40514f:	00 00 
  405151:	c4 c1 25 ef de       	vpxor  %ymm14,%ymm11,%ymm3
  405156:	c4 c1 05 ef e5       	vpxor  %ymm13,%ymm15,%ymm4
  40515b:	c5 15 db eb          	vpand  %ymm3,%ymm13,%ymm13
  40515f:	c5 4d ef fb          	vpxor  %ymm3,%ymm6,%ymm15
  405163:	c5 dd ef ae 20 31 00 	vpxor  0x3120(%rsi),%ymm4,%ymm5
  40516a:	00 
  40516b:	c4 c1 2d ef f5       	vpxor  %ymm13,%ymm10,%ymm6
  405170:	c4 41 5d eb d2       	vpor   %ymm10,%ymm4,%ymm10
  405175:	c5 85 ef 8e 00 33 00 	vpxor  0x3300(%rsi),%ymm15,%ymm1
  40517c:	00 
  40517d:	c5 fe 7f ac 24 20 04 	vmovdqu %ymm5,0x420(%rsp)
  405184:	00 00 
  405186:	c5 fe 6f a4 24 e0 0e 	vmovdqu 0xee0(%rsp),%ymm4
  40518d:	00 00 
  40518f:	c5 fe 6f ac 24 40 0f 	vmovdqu 0xf40(%rsp),%ymm5
  405196:	00 00 
  405198:	c5 fe 7f 8c 24 c0 06 	vmovdqu %ymm1,0x6c0(%rsp)
  40519f:	00 00 
  4051a1:	c5 fe 6f 8c 24 20 0e 	vmovdqu 0xe20(%rsp),%ymm1
  4051a8:	00 00 
  4051aa:	c4 41 65 ef ca       	vpxor  %ymm10,%ymm3,%ymm9
  4051af:	c5 fe 6f 9c 24 80 0e 	vmovdqu 0xe80(%rsp),%ymm3
  4051b6:	00 00 
  4051b8:	c5 7e 6f 96 80 37 00 	vmovdqu 0x3780(%rsi),%ymm10
  4051bf:	00 
  4051c0:	c5 35 ef 8e a0 35 00 	vpxor  0x35a0(%rsi),%ymm9,%ymm9
  4051c7:	00 
  4051c8:	c4 c1 4d ef f2       	vpxor  %ymm10,%ymm6,%ymm6
  4051cd:	c5 fe 7f bc 24 80 0d 	vmovdqu %ymm7,0xd80(%rsp)
  4051d4:	00 00 
  4051d6:	c5 fe 6f 7c 24 60    	vmovdqu 0x60(%rsp),%ymm7
  4051dc:	c5 7e 6f ac 24 e0 03 	vmovdqu 0x3e0(%rsp),%ymm13
  4051e3:	00 00 
  4051e5:	c5 fe 7f b4 24 c0 0d 	vmovdqu %ymm6,0xdc0(%rsp)
  4051ec:	00 00 
  4051ee:	c5 fe 6f b4 24 60 06 	vmovdqu 0x660(%rsp),%ymm6
  4051f5:	00 00 
  4051f7:	c5 7e 7f 04 24       	vmovdqu %ymm8,(%rsp)
  4051fc:	c5 7e 7f 8c 24 a0 0d 	vmovdqu %ymm9,0xda0(%rsp)
  405203:	00 00 
  405205:	c5 75 ef f7          	vpxor  %ymm7,%ymm1,%ymm14
  405209:	c5 7d ef c6          	vpxor  %ymm6,%ymm0,%ymm8
  40520d:	c5 4d ef d9          	vpxor  %ymm1,%ymm6,%ymm11
  405211:	c4 41 45 eb c8       	vpor   %ymm8,%ymm7,%ymm9
  405216:	c4 41 15 db d0       	vpand  %ymm8,%ymm13,%ymm10
  40521b:	c4 41 15 ef c1       	vpxor  %ymm9,%ymm13,%ymm8
  405220:	c4 41 2d ef ee       	vpxor  %ymm14,%ymm10,%ymm13
  405225:	c5 7e 6f 8c 24 60 05 	vmovdqu 0x560(%rsp),%ymm9
  40522c:	00 00 
  40522e:	c5 7e 6f 94 24 80 00 	vmovdqu 0x80(%rsp),%ymm10
  405235:	00 00 
  405237:	c4 c1 15 eb f3       	vpor   %ymm11,%ymm13,%ymm6
  40523c:	c4 c1 75 ef c8       	vpxor  %ymm8,%ymm1,%ymm1
  405241:	c4 41 0d db f8       	vpand  %ymm8,%ymm14,%ymm15
  405246:	c5 95 ef be 40 31 00 	vpxor  0x3140(%rsi),%ymm13,%ymm7
  40524d:	00 
  40524e:	c5 3d ef c6          	vpxor  %ymm6,%ymm8,%ymm8
  405252:	c5 b5 ef f3          	vpxor  %ymm3,%ymm9,%ymm6
  405256:	c4 41 25 ef f7       	vpxor  %ymm15,%ymm11,%ymm14
  40525b:	c4 41 7d ef f9       	vpxor  %ymm9,%ymm0,%ymm15
  405260:	c5 3d ef ae c0 35 00 	vpxor  0x35c0(%rsi),%ymm8,%ymm13
  405267:	00 
  405268:	c5 f5 ef 8e 20 33 00 	vpxor  0x3320(%rsi),%ymm1,%ymm1
  40526f:	00 
  405270:	c5 0d ef 9e a0 37 00 	vpxor  0x37a0(%rsi),%ymm14,%ymm11
  405277:	00 
  405278:	c5 7e 6f 84 24 a0 03 	vmovdqu 0x3a0(%rsp),%ymm8
  40527f:	00 00 
  405281:	c5 7e 7f ac 24 40 0c 	vmovdqu %ymm13,0xc40(%rsp)
  405288:	00 00 
  40528a:	c5 fe 7f bc 24 e0 0d 	vmovdqu %ymm7,0xde0(%rsp)
  405291:	00 00 
  405293:	c5 7e 7f 9c 24 00 0e 	vmovdqu %ymm11,0xe00(%rsp)
  40529a:	00 00 
  40529c:	c4 41 2d eb ef       	vpor   %ymm15,%ymm10,%ymm13
  4052a1:	c4 c1 65 ef fa       	vpxor  %ymm10,%ymm3,%ymm7
  4052a6:	c4 41 3d db df       	vpand  %ymm15,%ymm8,%ymm11
  4052ab:	c4 41 3d ef d5       	vpxor  %ymm13,%ymm8,%ymm10
  4052b0:	c5 7e 6f ac 24 20 03 	vmovdqu 0x320(%rsp),%ymm13
  4052b7:	00 00 
  4052b9:	c5 25 ef ff          	vpxor  %ymm7,%ymm11,%ymm15
  4052bd:	c4 c1 45 db fa       	vpand  %ymm10,%ymm7,%ymm7
  4052c2:	c4 c1 65 ef da       	vpxor  %ymm10,%ymm3,%ymm3
  4052c7:	c5 05 ef b6 60 31 00 	vpxor  0x3160(%rsi),%ymm15,%ymm14
  4052ce:	00 
  4052cf:	c5 cd ef ff          	vpxor  %ymm7,%ymm6,%ymm7
  4052d3:	c5 85 eb f6          	vpor   %ymm6,%ymm15,%ymm6
  4052d7:	c5 e5 ef 9e 40 33 00 	vpxor  0x3340(%rsi),%ymm3,%ymm3
  4052de:	00 
  4052df:	c5 7e 7f b4 24 20 0e 	vmovdqu %ymm14,0xe20(%rsp)
  4052e6:	00 00 
  4052e8:	c5 2d ef ce          	vpxor  %ymm6,%ymm10,%ymm9
  4052ec:	c5 45 ef be c0 37 00 	vpxor  0x37c0(%rsi),%ymm7,%ymm15
  4052f3:	00 
  4052f4:	c5 fe 6f b4 24 e0 04 	vmovdqu 0x4e0(%rsp),%ymm6
  4052fb:	00 00 
  4052fd:	c5 fe 6f bc 24 a0 00 	vmovdqu 0xa0(%rsp),%ymm7
  405304:	00 00 
  405306:	c5 35 ef 96 e0 35 00 	vpxor  0x35e0(%rsi),%ymm9,%ymm10
  40530d:	00 
  40530e:	c5 7e 7f bc 24 00 07 	vmovdqu %ymm15,0x700(%rsp)
  405315:	00 00 
  405317:	c5 7d ef c6          	vpxor  %ymm6,%ymm0,%ymm8
  40531b:	c5 4d ef cc          	vpxor  %ymm4,%ymm6,%ymm9
  40531f:	c5 5d ef f7          	vpxor  %ymm7,%ymm4,%ymm14
  405323:	c5 7e 7f 94 24 20 0c 	vmovdqu %ymm10,0xc20(%rsp)
  40532a:	00 00 
  40532c:	c4 41 45 eb d8       	vpor   %ymm8,%ymm7,%ymm11
  405331:	c4 41 15 db d0       	vpand  %ymm8,%ymm13,%ymm10
  405336:	c4 c1 15 ef f3       	vpxor  %ymm11,%ymm13,%ymm6
  40533b:	c4 41 2d ef de       	vpxor  %ymm14,%ymm10,%ymm11
  405340:	c5 7e 6f 94 24 c0 00 	vmovdqu 0xc0(%rsp),%ymm10
  405347:	00 00 
  405349:	c5 8d db fe          	vpand  %ymm6,%ymm14,%ymm7
  40534d:	c5 dd ef e6          	vpxor  %ymm6,%ymm4,%ymm4
  405351:	c4 41 25 eb c1       	vpor   %ymm9,%ymm11,%ymm8
  405356:	c5 35 ef f7          	vpxor  %ymm7,%ymm9,%ymm14
  40535a:	c5 dd ef a6 60 33 00 	vpxor  0x3360(%rsi),%ymm4,%ymm4
  405361:	00 
  405362:	c4 41 4d ef e8       	vpxor  %ymm8,%ymm6,%ymm13
  405367:	c5 a5 ef b6 80 31 00 	vpxor  0x3180(%rsi),%ymm11,%ymm6
  40536e:	00 
  40536f:	c5 0d ef 9e e0 37 00 	vpxor  0x37e0(%rsi),%ymm14,%ymm11
  405376:	00 
  405377:	c4 c1 55 ef fa       	vpxor  %ymm10,%ymm5,%ymm7
  40537c:	c5 7e 6f 8c 24 80 04 	vmovdqu 0x480(%rsp),%ymm9
  405383:	00 00 
  405385:	c5 fe 7f a4 24 40 0e 	vmovdqu %ymm4,0xe40(%rsp)
  40538c:	00 00 
  40538e:	c5 fe 6f a4 24 c0 02 	vmovdqu 0x2c0(%rsp),%ymm4
  405395:	00 00 
  405397:	c5 fe 7f b4 24 60 0e 	vmovdqu %ymm6,0xe60(%rsp)
  40539e:	00 00 
  4053a0:	c5 7e 7f 9c 24 20 07 	vmovdqu %ymm11,0x720(%rsp)
  4053a7:	00 00 
  4053a9:	c4 41 7d ef f9       	vpxor  %ymm9,%ymm0,%ymm15
  4053ae:	c5 95 ef b6 00 34 00 	vpxor  0x3400(%rsi),%ymm13,%ymm6
  4053b5:	00 
  4053b6:	c5 35 ef c5          	vpxor  %ymm5,%ymm9,%ymm8
  4053ba:	c5 7e 6f 8c 24 60 04 	vmovdqu 0x460(%rsp),%ymm9
  4053c1:	00 00 
  4053c3:	c4 41 2d eb ef       	vpor   %ymm15,%ymm10,%ymm13
  4053c8:	c4 41 5d db df       	vpand  %ymm15,%ymm4,%ymm11
  4053cd:	c5 7e 6f bc 24 e0 00 	vmovdqu 0xe0(%rsp),%ymm15
  4053d4:	00 00 
  4053d6:	c4 41 5d ef ed       	vpxor  %ymm13,%ymm4,%ymm13
  4053db:	c5 a5 ef e7          	vpxor  %ymm7,%ymm11,%ymm4
  4053df:	c4 c1 55 ef ed       	vpxor  %ymm13,%ymm5,%ymm5
  4053e4:	c4 c1 45 db fd       	vpand  %ymm13,%ymm7,%ymm7
  4053e9:	c5 d5 ef ae 80 33 00 	vpxor  0x3380(%rsi),%ymm5,%ymm5
  4053f0:	00 
  4053f1:	c5 3d ef df          	vpxor  %ymm7,%ymm8,%ymm11
  4053f5:	c4 41 5d eb c0       	vpor   %ymm8,%ymm4,%ymm8
  4053fa:	c4 c1 7d ef f9       	vpxor  %ymm9,%ymm0,%ymm7
  4053ff:	c5 dd ef a6 a0 31 00 	vpxor  0x31a0(%rsi),%ymm4,%ymm4
  405406:	00 
  405407:	c5 25 ef b6 00 36 00 	vpxor  0x3600(%rsi),%ymm11,%ymm14
  40540e:	00 
  40540f:	c4 41 15 ef e8       	vpxor  %ymm8,%ymm13,%ymm13
  405414:	c5 05 eb df          	vpor   %ymm7,%ymm15,%ymm11
  405418:	c5 fe 7f ac 24 80 0e 	vmovdqu %ymm5,0xe80(%rsp)
  40541f:	00 00 
  405421:	c5 fe 6f ac 24 80 06 	vmovdqu 0x680(%rsp),%ymm5
  405428:	00 00 
  40542a:	c5 7e 6f 84 24 80 02 	vmovdqu 0x280(%rsp),%ymm8
  405431:	00 00 
  405433:	c5 fe 7f a4 24 a0 0e 	vmovdqu %ymm4,0xea0(%rsp)
  40543a:	00 00 
  40543c:	c5 15 ef ae 20 34 00 	vpxor  0x3420(%rsi),%ymm13,%ymm13
  405443:	00 
  405444:	c5 b5 ef e5          	vpxor  %ymm5,%ymm9,%ymm4
  405448:	c4 41 3d ef cb       	vpxor  %ymm11,%ymm8,%ymm9
  40544d:	c4 41 55 ef d7       	vpxor  %ymm15,%ymm5,%ymm10
  405452:	c5 3d db ff          	vpand  %ymm7,%ymm8,%ymm15
  405456:	c4 c1 55 ef e9       	vpxor  %ymm9,%ymm5,%ymm5
  40545b:	c4 41 05 ef da       	vpxor  %ymm10,%ymm15,%ymm11
  405460:	c4 41 2d db d1       	vpand  %ymm9,%ymm10,%ymm10
  405465:	c5 d5 ef ae a0 33 00 	vpxor  0x33a0(%rsi),%ymm5,%ymm5
  40546c:	00 
  40546d:	c5 7e 6f bc 24 00 01 	vmovdqu 0x100(%rsp),%ymm15
  405474:	00 00 
  405476:	c4 41 5d ef c2       	vpxor  %ymm10,%ymm4,%ymm8
  40547b:	c5 a5 eb e4          	vpor   %ymm4,%ymm11,%ymm4
  40547f:	c5 7e 6f 54 24 40    	vmovdqu 0x40(%rsp),%ymm10
  405485:	c5 fe 7f ac 24 c0 0e 	vmovdqu %ymm5,0xec0(%rsp)
  40548c:	00 00 
  40548e:	c5 a5 ef ae c0 31 00 	vpxor  0x31c0(%rsi),%ymm11,%ymm5
  405495:	00 
  405496:	c5 b5 ef fc          	vpxor  %ymm4,%ymm9,%ymm7
  40549a:	c4 c1 7d ef e2       	vpxor  %ymm10,%ymm0,%ymm4
  40549f:	c5 3d ef 86 20 36 00 	vpxor  0x3620(%rsi),%ymm8,%ymm8
  4054a6:	00 
  4054a7:	c5 7e 6f 9c 24 20 05 	vmovdqu 0x520(%rsp),%ymm11
  4054ae:	00 00 
  4054b0:	c5 fe 7f ac 24 20 09 	vmovdqu %ymm5,0x920(%rsp)
  4054b7:	00 00 
  4054b9:	c5 fe 6f ac 24 40 02 	vmovdqu 0x240(%rsp),%ymm5
  4054c0:	00 00 
  4054c2:	c5 45 ef 8e 40 34 00 	vpxor  0x3440(%rsi),%ymm7,%ymm9
  4054c9:	00 
  4054ca:	c4 c1 25 ef ff       	vpxor  %ymm15,%ymm11,%ymm7
  4054cf:	c5 05 eb fc          	vpor   %ymm4,%ymm15,%ymm15
  4054d3:	c5 d5 db e4          	vpand  %ymm4,%ymm5,%ymm4
  4054d7:	c4 41 2d ef d3       	vpxor  %ymm11,%ymm10,%ymm10
  4054dc:	c4 41 55 ef ff       	vpxor  %ymm15,%ymm5,%ymm15
  4054e1:	c5 dd ef e7          	vpxor  %ymm7,%ymm4,%ymm4
  4054e5:	c4 41 25 ef df       	vpxor  %ymm15,%ymm11,%ymm11
  4054ea:	c4 c1 45 db ff       	vpand  %ymm15,%ymm7,%ymm7
  4054ef:	c5 a5 ef ae c0 33 00 	vpxor  0x33c0(%rsi),%ymm11,%ymm5
  4054f6:	00 
  4054f7:	c4 41 5d eb da       	vpor   %ymm10,%ymm4,%ymm11
  4054fc:	c5 dd ef a6 e0 31 00 	vpxor  0x31e0(%rsi),%ymm4,%ymm4
  405503:	00 
  405504:	c5 ad ef ff          	vpxor  %ymm7,%ymm10,%ymm7
  405508:	c5 fe 7f ac 24 00 0b 	vmovdqu %ymm5,0xb00(%rsp)
  40550f:	00 00 
  405511:	c4 41 05 ef d3       	vpxor  %ymm11,%ymm15,%ymm10
  405516:	c5 fe 7f a4 24 e0 08 	vmovdqu %ymm4,0x8e0(%rsp)
  40551d:	00 00 
  40551f:	c5 fe 6f a4 24 40 04 	vmovdqu 0x440(%rsp),%ymm4
  405526:	00 00 
  405528:	c5 7e 6f bc 24 60 02 	vmovdqu 0x260(%rsp),%ymm15
  40552f:	00 00 
  405531:	c5 2d ef 9e 60 34 00 	vpxor  0x3460(%rsi),%ymm10,%ymm11
  405538:	00 
  405539:	c5 45 ef 96 40 36 00 	vpxor  0x3640(%rsi),%ymm7,%ymm10
  405540:	00 
  405541:	c5 fd ef ec          	vpxor  %ymm4,%ymm0,%ymm5
  405545:	c5 dd ef fe          	vpxor  %ymm6,%ymm4,%ymm7
  405549:	c4 c1 4d ef e6       	vpxor  %ymm14,%ymm6,%ymm4
  40554e:	c5 0d eb f5          	vpor   %ymm5,%ymm14,%ymm14
  405552:	c5 85 db ed          	vpand  %ymm5,%ymm15,%ymm5
  405556:	c4 41 05 ef f6       	vpxor  %ymm14,%ymm15,%ymm14
  40555b:	c5 55 ef fc          	vpxor  %ymm4,%ymm5,%ymm15
  40555f:	c4 c1 4d ef f6       	vpxor  %ymm14,%ymm6,%ymm6
  405564:	c4 c1 5d db e6       	vpand  %ymm14,%ymm4,%ymm4
  405569:	c5 cd ef ae e0 3b 00 	vpxor  0x3be0(%rsi),%ymm6,%ymm5
  405570:	00 
  405571:	c5 c5 ef f4          	vpxor  %ymm4,%ymm7,%ymm6
  405575:	c5 85 eb ff          	vpor   %ymm7,%ymm15,%ymm7
  405579:	c5 fe 7f ac 24 e0 06 	vmovdqu %ymm5,0x6e0(%rsp)
  405580:	00 00 
  405582:	c5 8d ef e7          	vpxor  %ymm7,%ymm14,%ymm4
  405586:	c5 05 ef b6 00 38 00 	vpxor  0x3800(%rsi),%ymm15,%ymm14
  40558d:	00 
  40558e:	c5 cd ef b6 60 3e 00 	vpxor  0x3e60(%rsi),%ymm6,%ymm6
  405595:	00 
  405596:	c5 fe 6f bc 24 a0 04 	vmovdqu 0x4a0(%rsp),%ymm7
  40559d:	00 00 
  40559f:	c5 dd ef ae 80 3c 00 	vpxor  0x3c80(%rsi),%ymm4,%ymm5
  4055a6:	00 
  4055a7:	c4 c1 15 ef e0       	vpxor  %ymm8,%ymm13,%ymm4
  4055ac:	c5 7e 7f b4 24 00 09 	vmovdqu %ymm14,0x900(%rsp)
  4055b3:	00 00 
  4055b5:	c5 fe 7f b4 24 40 07 	vmovdqu %ymm6,0x740(%rsp)
  4055bc:	00 00 
  4055be:	c5 fe 7f ac 24 e0 0b 	vmovdqu %ymm5,0xbe0(%rsp)
  4055c5:	00 00 
  4055c7:	c5 7d ef f7          	vpxor  %ymm7,%ymm0,%ymm14
  4055cb:	c4 c1 45 ef ed       	vpxor  %ymm13,%ymm7,%ymm5
  4055d0:	c4 41 3d eb fe       	vpor   %ymm14,%ymm8,%ymm15
  4055d5:	c5 7e 6f 84 24 a0 02 	vmovdqu 0x2a0(%rsp),%ymm8
  4055dc:	00 00 
  4055de:	c4 c1 3d db f6       	vpand  %ymm14,%ymm8,%ymm6
  4055e3:	c4 41 3d ef ff       	vpxor  %ymm15,%ymm8,%ymm15
  4055e8:	c5 4d ef f4          	vpxor  %ymm4,%ymm6,%ymm14
  4055ec:	c4 c1 5d db e7       	vpand  %ymm15,%ymm4,%ymm4
  4055f1:	c4 41 15 ef ef       	vpxor  %ymm15,%ymm13,%ymm13
  4055f6:	c5 8d ef be 20 38 00 	vpxor  0x3820(%rsi),%ymm14,%ymm7
  4055fd:	00 
  4055fe:	c5 d5 ef e4          	vpxor  %ymm4,%ymm5,%ymm4
  405602:	c5 8d eb ed          	vpor   %ymm5,%ymm14,%ymm5
  405606:	c5 95 ef b6 00 3a 00 	vpxor  0x3a00(%rsi),%ymm13,%ymm6
  40560d:	00 
  40560e:	c5 fe 7f bc 24 40 09 	vmovdqu %ymm7,0x940(%rsp)
  405615:	00 00 
  405617:	c5 05 ef c5          	vpxor  %ymm5,%ymm15,%ymm8
  40561b:	c5 5d ef b6 80 3e 00 	vpxor  0x3e80(%rsi),%ymm4,%ymm14
  405622:	00 
  405623:	c4 c1 35 ef fa       	vpxor  %ymm10,%ymm9,%ymm7
  405628:	c5 7e 6f bc 24 c0 04 	vmovdqu 0x4c0(%rsp),%ymm15
  40562f:	00 00 
  405631:	c5 fe 7f b4 24 e0 0a 	vmovdqu %ymm6,0xae0(%rsp)
  405638:	00 00 
  40563a:	c5 7e 7f b4 24 60 07 	vmovdqu %ymm14,0x760(%rsp)
  405641:	00 00 
  405643:	c5 3d ef ae a0 3c 00 	vpxor  0x3ca0(%rsi),%ymm8,%ymm13
  40564a:	00 
  40564b:	c4 c1 7d ef e7       	vpxor  %ymm15,%ymm0,%ymm4
  405650:	c4 41 05 ef c1       	vpxor  %ymm9,%ymm15,%ymm8
  405655:	c5 7e 6f bc 24 20 01 	vmovdqu 0x120(%rsp),%ymm15
  40565c:	00 00 
  40565e:	c5 7e 7f ac 24 80 0c 	vmovdqu %ymm13,0xc80(%rsp)
  405665:	00 00 
  405667:	c5 ad eb ec          	vpor   %ymm4,%ymm10,%ymm5
  40566b:	c5 7e 6f 94 24 e0 02 	vmovdqu 0x2e0(%rsp),%ymm10
  405672:	00 00 
  405674:	c5 ad db f4          	vpand  %ymm4,%ymm10,%ymm6
  405678:	c5 ad ef e5          	vpxor  %ymm5,%ymm10,%ymm4
  40567c:	c5 7e 6f 94 24 00 05 	vmovdqu 0x500(%rsp),%ymm10
  405683:	00 00 
  405685:	c5 cd ef f7          	vpxor  %ymm7,%ymm6,%ymm6
  405689:	c5 c5 db fc          	vpand  %ymm4,%ymm7,%ymm7
  40568d:	c5 35 ef cc          	vpxor  %ymm4,%ymm9,%ymm9
  405691:	c5 3d ef f7          	vpxor  %ymm7,%ymm8,%ymm14
  405695:	c4 41 4d eb c0       	vpor   %ymm8,%ymm6,%ymm8
  40569a:	c5 b5 ef ae 20 3a 00 	vpxor  0x3a20(%rsi),%ymm9,%ymm5
  4056a1:	00 
  4056a2:	c5 fe 6f bc 24 00 03 	vmovdqu 0x300(%rsp),%ymm7
  4056a9:	00 00 
  4056ab:	c4 41 5d ef e8       	vpxor  %ymm8,%ymm4,%ymm13
  4056b0:	c5 cd ef a6 40 38 00 	vpxor  0x3840(%rsi),%ymm6,%ymm4
  4056b7:	00 
  4056b8:	c5 0d ef 8e a0 3e 00 	vpxor  0x3ea0(%rsi),%ymm14,%ymm9
  4056bf:	00 
  4056c0:	c5 fe 7f ac 24 20 0b 	vmovdqu %ymm5,0xb20(%rsp)
  4056c7:	00 00 
  4056c9:	c5 95 ef b6 c0 3c 00 	vpxor  0x3cc0(%rsi),%ymm13,%ymm6
  4056d0:	00 
  4056d1:	c4 c1 2d ef eb       	vpxor  %ymm11,%ymm10,%ymm5
  4056d6:	c5 fe 7f a4 24 60 09 	vmovdqu %ymm4,0x960(%rsp)
  4056dd:	00 00 
  4056df:	c5 7e 7f 8c 24 80 07 	vmovdqu %ymm9,0x780(%rsp)
  4056e6:	00 00 
  4056e8:	c5 fe 7f b4 24 c0 0c 	vmovdqu %ymm6,0xcc0(%rsp)
  4056ef:	00 00 
  4056f1:	c4 c1 7d ef f2       	vpxor  %ymm10,%ymm0,%ymm6
  4056f6:	c4 c1 25 ef e7       	vpxor  %ymm15,%ymm11,%ymm4
  4056fb:	c5 7e 6f 94 24 a0 05 	vmovdqu 0x5a0(%rsp),%ymm10
  405702:	00 00 
  405704:	c5 05 eb c6          	vpor   %ymm6,%ymm15,%ymm8
  405708:	c5 45 db ee          	vpand  %ymm6,%ymm7,%ymm13
  40570c:	c5 7e 6f bc 24 40 01 	vmovdqu 0x140(%rsp),%ymm15
  405713:	00 00 
  405715:	c4 41 45 ef f0       	vpxor  %ymm8,%ymm7,%ymm14
  40571a:	c5 15 ef cc          	vpxor  %ymm4,%ymm13,%ymm9
  40571e:	c4 c1 5d db e6       	vpand  %ymm14,%ymm4,%ymm4
  405723:	c4 41 25 ef de       	vpxor  %ymm14,%ymm11,%ymm11
  405728:	c5 b5 ef be 60 38 00 	vpxor  0x3860(%rsi),%ymm9,%ymm7
  40572f:	00 
  405730:	c5 55 ef ec          	vpxor  %ymm4,%ymm5,%ymm13
  405734:	c5 b5 eb ed          	vpor   %ymm5,%ymm9,%ymm5
  405738:	c5 a5 ef b6 40 3a 00 	vpxor  0x3a40(%rsi),%ymm11,%ymm6
  40573f:	00 
  405740:	c5 fe 7f bc 24 80 09 	vmovdqu %ymm7,0x980(%rsp)
  405747:	00 00 
  405749:	c5 0d ef c5          	vpxor  %ymm5,%ymm14,%ymm8
  40574d:	c5 15 ef 9e c0 3e 00 	vpxor  0x3ec0(%rsi),%ymm13,%ymm11
  405754:	00 
  405755:	c4 c1 7d ef ea       	vpxor  %ymm10,%ymm0,%ymm5
  40575a:	c5 fe 7f b4 24 40 0b 	vmovdqu %ymm6,0xb40(%rsp)
  405761:	00 00 
  405763:	c5 7e 6f ac 24 40 05 	vmovdqu 0x540(%rsp),%ymm13
  40576a:	00 00 
  40576c:	c5 fe 6f b4 24 40 03 	vmovdqu 0x340(%rsp),%ymm6
  405773:	00 00 
  405775:	c5 7e 7f 9c 24 a0 07 	vmovdqu %ymm11,0x7a0(%rsp)
  40577c:	00 00 
  40577e:	c5 05 eb dd          	vpor   %ymm5,%ymm15,%ymm11
  405782:	c4 c1 15 ef ff       	vpxor  %ymm15,%ymm13,%ymm7
  405787:	c5 4d db f5          	vpand  %ymm5,%ymm6,%ymm14
  40578b:	c5 bd ef a6 e0 3c 00 	vpxor  0x3ce0(%rsi),%ymm8,%ymm4
  405792:	00 
  405793:	c4 c1 4d ef eb       	vpxor  %ymm11,%ymm6,%ymm5
  405798:	c4 41 2d ef c5       	vpxor  %ymm13,%ymm10,%ymm8
  40579d:	c5 8d ef f7          	vpxor  %ymm7,%ymm14,%ymm6
  4057a1:	c5 7e 6f b4 24 60 03 	vmovdqu 0x360(%rsp),%ymm14
  4057a8:	00 00 
  4057aa:	c5 c5 db fd          	vpand  %ymm5,%ymm7,%ymm7
  4057ae:	c5 15 ef ed          	vpxor  %ymm5,%ymm13,%ymm13
  4057b2:	c5 4d ef 96 80 38 00 	vpxor  0x3880(%rsi),%ymm6,%ymm10
  4057b9:	00 
  4057ba:	c5 bd ef ff          	vpxor  %ymm7,%ymm8,%ymm7
  4057be:	c4 41 4d eb c0       	vpor   %ymm8,%ymm6,%ymm8
  4057c3:	c5 15 ef 8e 60 3a 00 	vpxor  0x3a60(%rsi),%ymm13,%ymm9
  4057ca:	00 
  4057cb:	c5 7e 6f ac 24 60 01 	vmovdqu 0x160(%rsp),%ymm13
  4057d2:	00 00 
  4057d4:	c5 7e 7f 94 24 a0 09 	vmovdqu %ymm10,0x9a0(%rsp)
  4057db:	00 00 
  4057dd:	c4 41 55 ef f8       	vpxor  %ymm8,%ymm5,%ymm15
  4057e2:	c5 c5 ef b6 e0 3e 00 	vpxor  0x3ee0(%rsi),%ymm7,%ymm6
  4057e9:	00 
  4057ea:	c5 7e 7f 8c 24 60 0b 	vmovdqu %ymm9,0xb60(%rsp)
  4057f1:	00 00 
  4057f3:	c5 7e 6f 84 24 e0 05 	vmovdqu 0x5e0(%rsp),%ymm8
  4057fa:	00 00 
  4057fc:	c5 85 ef ae 00 3d 00 	vpxor  0x3d00(%rsi),%ymm15,%ymm5
  405803:	00 
  405804:	c5 fe 7f b4 24 c0 07 	vmovdqu %ymm6,0x7c0(%rsp)
  40580b:	00 00 
  40580d:	c5 7e 6f bc 24 80 05 	vmovdqu 0x580(%rsp),%ymm15
  405814:	00 00 
  405816:	c4 41 7d ef d8       	vpxor  %ymm8,%ymm0,%ymm11
  40581b:	c5 fe 7f ac 24 60 0d 	vmovdqu %ymm5,0xd60(%rsp)
  405822:	00 00 
  405824:	c4 41 05 ef cd       	vpxor  %ymm13,%ymm15,%ymm9
  405829:	c4 c1 15 eb eb       	vpor   %ymm11,%ymm13,%ymm5
  40582e:	c4 c1 0d db f3       	vpand  %ymm11,%ymm14,%ymm6
  405833:	c4 41 3d ef d7       	vpxor  %ymm15,%ymm8,%ymm10
  405838:	c5 0d ef dd          	vpxor  %ymm5,%ymm14,%ymm11
  40583c:	c4 41 4d ef f1       	vpxor  %ymm9,%ymm6,%ymm14
  405841:	c4 41 05 ef fb       	vpxor  %ymm11,%ymm15,%ymm15
  405846:	c4 41 35 db cb       	vpand  %ymm11,%ymm9,%ymm9
  40584b:	c5 85 ef ae 80 3a 00 	vpxor  0x3a80(%rsi),%ymm15,%ymm5
  405852:	00 
  405853:	c4 41 2d ef c1       	vpxor  %ymm9,%ymm10,%ymm8
  405858:	c4 41 0d eb d2       	vpor   %ymm10,%ymm14,%ymm10
  40585d:	c5 fe 7f ac 24 80 0b 	vmovdqu %ymm5,0xb80(%rsp)
  405864:	00 00 
  405866:	c5 8d ef ae a0 38 00 	vpxor  0x38a0(%rsi),%ymm14,%ymm5
  40586d:	00 
  40586e:	c4 c1 25 ef f2       	vpxor  %ymm10,%ymm11,%ymm6
  405873:	c4 41 7d ef dc       	vpxor  %ymm12,%ymm0,%ymm11
  405878:	c5 3d ef ae 00 3f 00 	vpxor  0x3f00(%rsi),%ymm8,%ymm13
  40587f:	00 
  405880:	c5 7e 6f b4 24 c0 05 	vmovdqu 0x5c0(%rsp),%ymm14
  405887:	00 00 
  405889:	c5 fe 7f ac 24 c0 09 	vmovdqu %ymm5,0x9c0(%rsp)
  405890:	00 00 
  405892:	c5 cd ef be 20 3d 00 	vpxor  0x3d20(%rsi),%ymm6,%ymm7
  405899:	00 
  40589a:	c5 7e 7f ac 24 e0 07 	vmovdqu %ymm13,0x7e0(%rsp)
  4058a1:	00 00 
  4058a3:	c4 c1 1d ef f6       	vpxor  %ymm14,%ymm12,%ymm6
  4058a8:	c5 7e 6f a4 24 80 01 	vmovdqu 0x180(%rsp),%ymm12
  4058af:	00 00 
  4058b1:	c5 fe 7f bc 24 a0 0c 	vmovdqu %ymm7,0xca0(%rsp)
  4058b8:	00 00 
  4058ba:	c5 fe 6f bc 24 80 03 	vmovdqu 0x380(%rsp),%ymm7
  4058c1:	00 00 
  4058c3:	c4 41 1d eb c3       	vpor   %ymm11,%ymm12,%ymm8
  4058c8:	c4 c1 0d ef ec       	vpxor  %ymm12,%ymm14,%ymm5
  4058cd:	c4 41 45 db eb       	vpand  %ymm11,%ymm7,%ymm13
  4058d2:	c5 7e 6f 9c 24 a0 01 	vmovdqu 0x1a0(%rsp),%ymm11
  4058d9:	00 00 
  4058db:	c4 41 45 ef d0       	vpxor  %ymm8,%ymm7,%ymm10
  4058e0:	c5 15 ef fd          	vpxor  %ymm5,%ymm13,%ymm15
  4058e4:	c5 7e 6f ac 24 a0 06 	vmovdqu 0x6a0(%rsp),%ymm13
  4058eb:	00 00 
  4058ed:	c4 41 0d ef e2       	vpxor  %ymm10,%ymm14,%ymm12
  4058f2:	c4 c1 55 db ea       	vpand  %ymm10,%ymm5,%ymm5
  4058f7:	c4 41 7d ef f5       	vpxor  %ymm13,%ymm0,%ymm14
  4058fc:	c5 1d ef 8e a0 3a 00 	vpxor  0x3aa0(%rsi),%ymm12,%ymm9
  405903:	00 
  405904:	c5 cd ef fd          	vpxor  %ymm5,%ymm6,%ymm7
  405908:	c5 85 eb f6          	vpor   %ymm6,%ymm15,%ymm6
  40590c:	c5 85 ef ae c0 38 00 	vpxor  0x38c0(%rsi),%ymm15,%ymm5
  405913:	00 
  405914:	c5 7e 7f 8c 24 a0 0b 	vmovdqu %ymm9,0xba0(%rsp)
  40591b:	00 00 
  40591d:	c5 7e 6f a4 24 00 06 	vmovdqu 0x600(%rsp),%ymm12
  405924:	00 00 
  405926:	c5 7e 6f 8c 24 c0 03 	vmovdqu 0x3c0(%rsp),%ymm9
  40592d:	00 00 
  40592f:	c5 fe 7f ac 24 e0 09 	vmovdqu %ymm5,0x9e0(%rsp)
  405936:	00 00 
  405938:	c5 ad ef f6          	vpxor  %ymm6,%ymm10,%ymm6
  40593c:	c5 45 ef 86 20 3f 00 	vpxor  0x3f20(%rsi),%ymm7,%ymm8
  405943:	00 
  405944:	c4 41 25 eb d6       	vpor   %ymm14,%ymm11,%ymm10
  405949:	c4 41 35 db fe       	vpand  %ymm14,%ymm9,%ymm15
  40594e:	c5 cd ef ae 40 3d 00 	vpxor  0x3d40(%rsi),%ymm6,%ymm5
  405955:	00 
  405956:	c4 41 15 ef ec       	vpxor  %ymm12,%ymm13,%ymm13
  40595b:	c4 c1 35 ef f2       	vpxor  %ymm10,%ymm9,%ymm6
  405960:	c5 7e 7f 84 24 00 08 	vmovdqu %ymm8,0x800(%rsp)
  405967:	00 00 
  405969:	c5 7e 6f 8c 24 c0 06 	vmovdqu 0x6c0(%rsp),%ymm9
  405970:	00 00 
  405972:	c5 7e 6f 94 24 c0 01 	vmovdqu 0x1c0(%rsp),%ymm10
  405979:	00 00 
  40597b:	c4 41 1d ef c3       	vpxor  %ymm11,%ymm12,%ymm8
  405980:	c5 1d ef e6          	vpxor  %ymm6,%ymm12,%ymm12
  405984:	c4 c1 05 ef f8       	vpxor  %ymm8,%ymm15,%ymm7
  405989:	c5 3d db c6          	vpand  %ymm6,%ymm8,%ymm8
  40598d:	c4 41 7d ef f9       	vpxor  %ymm9,%ymm0,%ymm15
  405992:	c5 1d ef a6 c0 3a 00 	vpxor  0x3ac0(%rsi),%ymm12,%ymm12
  405999:	00 
  40599a:	c4 41 15 ef f0       	vpxor  %ymm8,%ymm13,%ymm14
  40599f:	c4 41 45 eb ed       	vpor   %ymm13,%ymm7,%ymm13
  4059a4:	c4 41 2d eb c7       	vpor   %ymm15,%ymm10,%ymm8
  4059a9:	c5 7e 7f a4 24 c0 0b 	vmovdqu %ymm12,0xbc0(%rsp)
  4059b0:	00 00 
  4059b2:	c4 41 4d ef dd       	vpxor  %ymm13,%ymm6,%ymm11
  4059b7:	c5 c5 ef b6 e0 38 00 	vpxor  0x38e0(%rsi),%ymm7,%ymm6
  4059be:	00 
  4059bf:	c5 8d ef be 40 3f 00 	vpxor  0x3f40(%rsi),%ymm14,%ymm7
  4059c6:	00 
  4059c7:	c5 fe 7f b4 24 00 0a 	vmovdqu %ymm6,0xa00(%rsp)
  4059ce:	00 00 
  4059d0:	c5 fe 7f bc 24 20 08 	vmovdqu %ymm7,0x820(%rsp)
  4059d7:	00 00 
  4059d9:	c5 fe 6f bc 24 00 04 	vmovdqu 0x400(%rsp),%ymm7
  4059e0:	00 00 
  4059e2:	c5 a5 ef b6 60 3d 00 	vpxor  0x3d60(%rsi),%ymm11,%ymm6
  4059e9:	00 
  4059ea:	c5 7e 6f 9c 24 20 06 	vmovdqu 0x620(%rsp),%ymm11
  4059f1:	00 00 
  4059f3:	c4 41 45 ef c0       	vpxor  %ymm8,%ymm7,%ymm8
  4059f8:	c4 41 45 db f7       	vpand  %ymm15,%ymm7,%ymm14
  4059fd:	c4 41 25 ef ea       	vpxor  %ymm10,%ymm11,%ymm13
  405a02:	c4 41 35 ef e3       	vpxor  %ymm11,%ymm9,%ymm12
  405a07:	c4 41 25 ef d8       	vpxor  %ymm8,%ymm11,%ymm11
  405a0c:	c4 c1 0d ef fd       	vpxor  %ymm13,%ymm14,%ymm7
  405a11:	c4 41 15 db e8       	vpand  %ymm8,%ymm13,%ymm13
  405a16:	c5 25 ef 8e e0 3a 00 	vpxor  0x3ae0(%rsi),%ymm11,%ymm9
  405a1d:	00 
  405a1e:	c5 7d ef f1          	vpxor  %ymm1,%ymm0,%ymm14
  405a22:	c5 45 ef 96 00 39 00 	vpxor  0x3900(%rsi),%ymm7,%ymm10
  405a29:	00 
  405a2a:	c4 41 1d ef ed       	vpxor  %ymm13,%ymm12,%ymm13
  405a2f:	c4 41 45 eb e4       	vpor   %ymm12,%ymm7,%ymm12
  405a34:	c5 7e 6f 9c 24 40 06 	vmovdqu 0x640(%rsp),%ymm11
  405a3b:	00 00 
  405a3d:	c5 7e 7f 8c 24 00 0c 	vmovdqu %ymm9,0xc00(%rsp)
  405a44:	00 00 
  405a46:	c5 7e 7f 94 24 20 0a 	vmovdqu %ymm10,0xa20(%rsp)
  405a4d:	00 00 
  405a4f:	c4 41 3d ef fc       	vpxor  %ymm12,%ymm8,%ymm15
  405a54:	c5 15 ef 86 60 3f 00 	vpxor  0x3f60(%rsi),%ymm13,%ymm8
  405a5b:	00 
  405a5c:	c4 41 75 ef e3       	vpxor  %ymm11,%ymm1,%ymm12
  405a61:	c5 fe 6f 8c 24 e0 01 	vmovdqu 0x1e0(%rsp),%ymm1
  405a68:	00 00 
  405a6a:	c5 85 ef be 80 3d 00 	vpxor  0x3d80(%rsi),%ymm15,%ymm7
  405a71:	00 
  405a72:	c5 7e 7f 84 24 40 08 	vmovdqu %ymm8,0x840(%rsp)
  405a79:	00 00 
  405a7b:	c5 7e 6f 84 24 20 04 	vmovdqu 0x420(%rsp),%ymm8
  405a82:	00 00 
  405a84:	c5 25 ef e9          	vpxor  %ymm1,%ymm11,%ymm13
  405a88:	c4 c1 75 eb ce       	vpor   %ymm14,%ymm1,%ymm1
  405a8d:	c4 41 3d db ce       	vpand  %ymm14,%ymm8,%ymm9
  405a92:	c5 bd ef c9          	vpxor  %ymm1,%ymm8,%ymm1
  405a96:	c4 41 35 ef c5       	vpxor  %ymm13,%ymm9,%ymm8
  405a9b:	c5 25 ef d9          	vpxor  %ymm1,%ymm11,%ymm11
  405a9f:	c5 15 db f9          	vpand  %ymm1,%ymm13,%ymm15
  405aa3:	c5 3d ef ae 20 39 00 	vpxor  0x3920(%rsi),%ymm8,%ymm13
  405aaa:	00 
  405aab:	c5 25 ef 96 00 3b 00 	vpxor  0x3b00(%rsi),%ymm11,%ymm10
  405ab2:	00 
  405ab3:	c4 41 1d ef df       	vpxor  %ymm15,%ymm12,%ymm11
  405ab8:	c4 41 3d eb e4       	vpor   %ymm12,%ymm8,%ymm12
  405abd:	c5 7e 7f ac 24 40 0a 	vmovdqu %ymm13,0xa40(%rsp)
  405ac4:	00 00 
  405ac6:	c5 7e 7f 94 24 60 0c 	vmovdqu %ymm10,0xc60(%rsp)
  405acd:	00 00 
  405acf:	c4 c1 75 ef cc       	vpxor  %ymm12,%ymm1,%ymm1
  405ad4:	c5 7d ef e3          	vpxor  %ymm3,%ymm0,%ymm12
  405ad8:	c5 65 ef d2          	vpxor  %ymm2,%ymm3,%ymm10
  405adc:	c5 25 ef ae 80 3f 00 	vpxor  0x3f80(%rsi),%ymm11,%ymm13
  405ae3:	00 
  405ae4:	c5 75 ef 86 a0 3d 00 	vpxor  0x3da0(%rsi),%ymm1,%ymm8
  405aeb:	00 
  405aec:	c5 fe 6f 9c 24 00 02 	vmovdqu 0x200(%rsp),%ymm3
  405af3:	00 00 
  405af5:	c5 fe 6f 8c 24 e0 0d 	vmovdqu 0xde0(%rsp),%ymm1
  405afc:	00 00 
  405afe:	c5 7e 7f ac 24 60 08 	vmovdqu %ymm13,0x860(%rsp)
  405b05:	00 00 
  405b07:	c5 6d ef cb          	vpxor  %ymm3,%ymm2,%ymm9
  405b0b:	c4 41 65 eb ec       	vpor   %ymm12,%ymm3,%ymm13
  405b10:	c4 c1 75 db dc       	vpand  %ymm12,%ymm1,%ymm3
  405b15:	c4 c1 75 ef cd       	vpxor  %ymm13,%ymm1,%ymm1
  405b1a:	c4 41 65 ef f1       	vpxor  %ymm9,%ymm3,%ymm14
  405b1f:	c5 35 db e9          	vpand  %ymm1,%ymm9,%ymm13
  405b23:	c4 c1 0d eb da       	vpor   %ymm10,%ymm14,%ymm3
  405b28:	c5 ed ef d1          	vpxor  %ymm1,%ymm2,%ymm2
  405b2c:	c5 7e 6f 8c 24 40 0e 	vmovdqu 0xe40(%rsp),%ymm9
  405b33:	00 00 
  405b35:	c4 41 2d ef dd       	vpxor  %ymm13,%ymm10,%ymm11
  405b3a:	c5 75 ef e3          	vpxor  %ymm3,%ymm1,%ymm12
  405b3e:	c5 8d ef 8e 40 39 00 	vpxor  0x3940(%rsi),%ymm14,%ymm1
  405b45:	00 
  405b46:	c4 41 7d ef f9       	vpxor  %ymm9,%ymm0,%ymm15
  405b4b:	c5 25 ef b6 a0 3f 00 	vpxor  0x3fa0(%rsi),%ymm11,%ymm14
  405b52:	00 
  405b53:	c5 ed ef 96 20 3b 00 	vpxor  0x3b20(%rsi),%ymm2,%ymm2
  405b5a:	00 
  405b5b:	c5 7e 6f 94 24 20 02 	vmovdqu 0x220(%rsp),%ymm10
  405b62:	00 00 
  405b64:	c5 fe 7f 8c 24 60 0a 	vmovdqu %ymm1,0xa60(%rsp)
  405b6b:	00 00 
  405b6d:	c5 7e 6f 1c 24       	vmovdqu (%rsp),%ymm11
  405b72:	c5 fe 6f 8c 24 20 0e 	vmovdqu 0xe20(%rsp),%ymm1
  405b79:	00 00 
  405b7b:	c5 7e 7f b4 24 80 08 	vmovdqu %ymm14,0x880(%rsp)
  405b82:	00 00 
  405b84:	c5 fe 7f 94 24 e0 0c 	vmovdqu %ymm2,0xce0(%rsp)
  405b8b:	00 00 
  405b8d:	c4 41 2d eb ef       	vpor   %ymm15,%ymm10,%ymm13
  405b92:	c4 c1 25 ef da       	vpxor  %ymm10,%ymm11,%ymm3
  405b97:	c4 41 75 db f7       	vpand  %ymm15,%ymm1,%ymm14
  405b9c:	c5 9d ef 96 c0 3d 00 	vpxor  0x3dc0(%rsi),%ymm12,%ymm2
  405ba3:	00 
  405ba4:	c4 41 75 ef ed       	vpxor  %ymm13,%ymm1,%ymm13
  405ba9:	c4 41 35 ef e3       	vpxor  %ymm11,%ymm9,%ymm12
  405bae:	c5 8d ef cb          	vpxor  %ymm3,%ymm14,%ymm1
  405bb2:	c5 7e 6f b4 24 c0 0d 	vmovdqu 0xdc0(%rsp),%ymm14
  405bb9:	00 00 
  405bbb:	c4 c1 65 db dd       	vpand  %ymm13,%ymm3,%ymm3
  405bc0:	c4 41 25 ef dd       	vpxor  %ymm13,%ymm11,%ymm11
  405bc5:	c5 75 ef 96 60 39 00 	vpxor  0x3960(%rsi),%ymm1,%ymm10
  405bcc:	00 
  405bcd:	c5 9d ef db          	vpxor  %ymm3,%ymm12,%ymm3
  405bd1:	c4 41 75 eb e4       	vpor   %ymm12,%ymm1,%ymm12
  405bd6:	c5 25 ef 8e 40 3b 00 	vpxor  0x3b40(%rsi),%ymm11,%ymm9
  405bdd:	00 
  405bde:	c5 7e 7f 94 24 80 0a 	vmovdqu %ymm10,0xa80(%rsp)
  405be5:	00 00 
  405be7:	c5 7e 6f 9c 24 80 0d 	vmovdqu 0xd80(%rsp),%ymm11
  405bee:	00 00 
  405bf0:	c5 7e 6f 94 24 60 0e 	vmovdqu 0xe60(%rsp),%ymm10
  405bf7:	00 00 
  405bf9:	c5 7e 7f 8c 24 00 0d 	vmovdqu %ymm9,0xd00(%rsp)
  405c00:	00 00 
  405c02:	c4 41 15 ef fc       	vpxor  %ymm12,%ymm13,%ymm15
  405c07:	c5 65 ef ae c0 3f 00 	vpxor  0x3fc0(%rsi),%ymm3,%ymm13
  405c0e:	00 
  405c0f:	c5 7e 6f a4 24 80 0e 	vmovdqu 0xe80(%rsp),%ymm12
  405c16:	00 00 
  405c18:	c5 85 ef 8e e0 3d 00 	vpxor  0x3de0(%rsi),%ymm15,%ymm1
  405c1f:	00 
  405c20:	c4 41 25 ef fe       	vpxor  %ymm14,%ymm11,%ymm15
  405c25:	c5 7e 7f ac 24 a0 08 	vmovdqu %ymm13,0x8a0(%rsp)
  405c2c:	00 00 
  405c2e:	c4 41 7d ef cc       	vpxor  %ymm12,%ymm0,%ymm9
  405c33:	c4 c1 1d ef db       	vpxor  %ymm11,%ymm12,%ymm3
  405c38:	c4 41 0d eb e9       	vpor   %ymm9,%ymm14,%ymm13
  405c3d:	c4 41 2d db f1       	vpand  %ymm9,%ymm10,%ymm14
  405c42:	c5 7e 6f 8c 24 c0 0e 	vmovdqu 0xec0(%rsp),%ymm9
  405c49:	00 00 
  405c4b:	c4 41 2d ef e5       	vpxor  %ymm13,%ymm10,%ymm12
  405c50:	c4 41 0d ef ef       	vpxor  %ymm15,%ymm14,%ymm13
  405c55:	c5 7e 6f 94 24 a0 0d 	vmovdqu 0xda0(%rsp),%ymm10
  405c5c:	00 00 
  405c5e:	c4 41 25 ef dc       	vpxor  %ymm12,%ymm11,%ymm11
  405c63:	c4 41 05 db fc       	vpand  %ymm12,%ymm15,%ymm15
  405c68:	c5 25 ef 9e 60 3b 00 	vpxor  0x3b60(%rsi),%ymm11,%ymm11
  405c6f:	00 
  405c70:	c5 7e 7f 9c 24 40 0d 	vmovdqu %ymm11,0xd40(%rsp)
  405c77:	00 00 
  405c79:	c4 41 65 ef df       	vpxor  %ymm15,%ymm3,%ymm11
  405c7e:	c5 95 eb db          	vpor   %ymm3,%ymm13,%ymm3
  405c82:	c5 15 ef ae 80 39 00 	vpxor  0x3980(%rsi),%ymm13,%ymm13
  405c89:	00 
  405c8a:	c5 7e 6f bc 24 00 0e 	vmovdqu 0xe00(%rsp),%ymm15
  405c91:	00 00 
  405c93:	c5 1d ef e3          	vpxor  %ymm3,%ymm12,%ymm12
  405c97:	c4 c1 7d ef d9       	vpxor  %ymm9,%ymm0,%ymm3
  405c9c:	c5 25 ef b6 e0 3f 00 	vpxor  0x3fe0(%rsi),%ymm11,%ymm14
  405ca3:	00 
  405ca4:	c5 7e 7f ac 24 a0 0a 	vmovdqu %ymm13,0xaa0(%rsp)
  405cab:	00 00 
  405cad:	c5 1d ef ae 00 3c 00 	vpxor  0x3c00(%rsi),%ymm12,%ymm13
  405cb4:	00 
  405cb5:	c5 05 eb db          	vpor   %ymm3,%ymm15,%ymm11
  405cb9:	c5 7e 7f b4 24 c0 08 	vmovdqu %ymm14,0x8c0(%rsp)
  405cc0:	00 00 
  405cc2:	c5 7e 6f a4 24 a0 0e 	vmovdqu 0xea0(%rsp),%ymm12
  405cc9:	00 00 
  405ccb:	c4 41 35 ef f2       	vpxor  %ymm10,%ymm9,%ymm14
  405cd0:	c4 41 2d ef cf       	vpxor  %ymm15,%ymm10,%ymm9
  405cd5:	c5 9d db db          	vpand  %ymm3,%ymm12,%ymm3
  405cd9:	c4 41 1d ef db       	vpxor  %ymm11,%ymm12,%ymm11
  405cde:	c4 41 65 ef e1       	vpxor  %ymm9,%ymm3,%ymm12
  405ce3:	c4 41 2d ef d3       	vpxor  %ymm11,%ymm10,%ymm10
  405ce8:	c4 41 35 db cb       	vpand  %ymm11,%ymm9,%ymm9
  405ced:	c5 ad ef 9e 80 3b 00 	vpxor  0x3b80(%rsi),%ymm10,%ymm3
  405cf4:	00 
  405cf5:	c4 41 1d eb d6       	vpor   %ymm14,%ymm12,%ymm10
  405cfa:	c5 1d ef a6 a0 39 00 	vpxor  0x39a0(%rsi),%ymm12,%ymm12
  405d01:	00 
  405d02:	c5 fe 7f 9c 24 20 0d 	vmovdqu %ymm3,0xd20(%rsp)
  405d09:	00 00 
  405d0b:	c4 41 25 ef da       	vpxor  %ymm10,%ymm11,%ymm11
  405d10:	c4 c1 0d ef d9       	vpxor  %ymm9,%ymm14,%ymm3
  405d15:	c5 7e 7f a4 24 c0 0a 	vmovdqu %ymm12,0xac0(%rsp)
  405d1c:	00 00 
  405d1e:	c5 7e 6f 8e 00 3e 00 	vmovdqu 0x3e00(%rsi),%ymm9
  405d25:	00 
  405d26:	c5 25 ef 96 20 3c 00 	vpxor  0x3c20(%rsi),%ymm11,%ymm10
  405d2d:	00 
  405d2e:	c5 7e 6f 9c 24 00 0b 	vmovdqu 0xb00(%rsp),%ymm11
  405d35:	00 00 
  405d37:	c5 7e 6f a4 24 00 07 	vmovdqu 0x700(%rsp),%ymm12
  405d3e:	00 00 
  405d40:	c5 7e 7f 44 24 40    	vmovdqu %ymm8,0x40(%rsp)
  405d46:	c5 7e 6f bc 24 20 09 	vmovdqu 0x920(%rsp),%ymm15
  405d4d:	00 00 
  405d4f:	c5 fe 7f 94 24 80 0d 	vmovdqu %ymm2,0xd80(%rsp)
  405d56:	00 00 
  405d58:	c5 fe 7f 8c 24 a0 0d 	vmovdqu %ymm1,0xda0(%rsp)
  405d5f:	00 00 
  405d61:	c4 41 7d ef c3       	vpxor  %ymm11,%ymm0,%ymm8
  405d66:	c4 41 65 ef f1       	vpxor  %ymm9,%ymm3,%ymm14
  405d6b:	c5 7e 6f 8c 24 40 0c 	vmovdqu 0xc40(%rsp),%ymm9
  405d72:	00 00 
  405d74:	c4 c1 1d eb d8       	vpor   %ymm8,%ymm12,%ymm3
  405d79:	c4 c1 25 ef d1       	vpxor  %ymm9,%ymm11,%ymm2
  405d7e:	c4 c1 35 ef cc       	vpxor  %ymm12,%ymm9,%ymm1
  405d83:	c4 41 05 db d8       	vpand  %ymm8,%ymm15,%ymm11
  405d88:	c5 85 ef db          	vpxor  %ymm3,%ymm15,%ymm3
  405d8c:	c5 25 ef d9          	vpxor  %ymm1,%ymm11,%ymm11
  405d90:	c5 f5 db cb          	vpand  %ymm3,%ymm1,%ymm1
  405d94:	c5 35 ef cb          	vpxor  %ymm3,%ymm9,%ymm9
  405d98:	c5 25 ef 86 c0 39 00 	vpxor  0x39c0(%rsi),%ymm11,%ymm8
  405d9f:	00 
  405da0:	c5 ed ef c9          	vpxor  %ymm1,%ymm2,%ymm1
  405da4:	c5 a5 eb d2          	vpor   %ymm2,%ymm11,%ymm2
  405da8:	c5 35 ef a6 a0 3b 00 	vpxor  0x3ba0(%rsi),%ymm9,%ymm12
  405daf:	00 
  405db0:	c5 7e 6f 8c 24 20 07 	vmovdqu 0x720(%rsp),%ymm9
  405db7:	00 00 
  405db9:	c5 7e 7f 84 24 e0 0d 	vmovdqu %ymm8,0xde0(%rsp)
  405dc0:	00 00 
  405dc2:	c5 65 ef fa          	vpxor  %ymm2,%ymm3,%ymm15
  405dc6:	c5 75 ef 9e 20 3e 00 	vpxor  0x3e20(%rsi),%ymm1,%ymm11
  405dcd:	00 
  405dce:	c5 7e 7f a4 24 c0 0d 	vmovdqu %ymm12,0xdc0(%rsp)
  405dd5:	00 00 
  405dd7:	c5 fe 6f 54 24 20    	vmovdqu 0x20(%rsp),%ymm2
  405ddd:	c5 fe 6f 8c 24 20 0c 	vmovdqu 0xc20(%rsp),%ymm1
  405de4:	00 00 
  405de6:	c5 05 ef 86 40 3c 00 	vpxor  0x3c40(%rsi),%ymm15,%ymm8
  405ded:	00 
  405dee:	c5 7e 6f bc 24 e0 08 	vmovdqu 0x8e0(%rsp),%ymm15
  405df5:	00 00 
  405df7:	c5 fd ef da          	vpxor  %ymm2,%ymm0,%ymm3
  405dfb:	c5 6d ef e1          	vpxor  %ymm1,%ymm2,%ymm12
  405dff:	c4 c1 75 ef d1       	vpxor  %ymm9,%ymm1,%ymm2
  405e04:	c5 35 eb cb          	vpor   %ymm3,%ymm9,%ymm9
  405e08:	c5 85 db db          	vpand  %ymm3,%ymm15,%ymm3
  405e0c:	c4 41 05 ef c9       	vpxor  %ymm9,%ymm15,%ymm9
  405e11:	c5 65 ef fa          	vpxor  %ymm2,%ymm3,%ymm15
  405e15:	c4 c1 75 ef d9       	vpxor  %ymm9,%ymm1,%ymm3
  405e1a:	c4 c1 6d db c9       	vpand  %ymm9,%ymm2,%ymm1
  405e1f:	c5 e5 ef 9e c0 3b 00 	vpxor  0x3bc0(%rsi),%ymm3,%ymm3
  405e26:	00 
  405e27:	c5 fe 7f 9c 24 00 0e 	vmovdqu %ymm3,0xe00(%rsp)
  405e2e:	00 00 
  405e30:	c5 9d ef d9          	vpxor  %ymm1,%ymm12,%ymm3
  405e34:	c5 85 ef 8e e0 39 00 	vpxor  0x39e0(%rsi),%ymm15,%ymm1
  405e3b:	00 
  405e3c:	c4 41 05 eb e4       	vpor   %ymm12,%ymm15,%ymm12
  405e41:	c5 7e 6f bc 24 e0 0a 	vmovdqu 0xae0(%rsp),%ymm15
  405e48:	00 00 
  405e4a:	c5 fe 7f 8c 24 20 0e 	vmovdqu %ymm1,0xe20(%rsp)
  405e51:	00 00 
  405e53:	c4 c1 35 ef d4       	vpxor  %ymm12,%ymm9,%ymm2
  405e58:	c4 c1 7d ef cf       	vpxor  %ymm15,%ymm0,%ymm1
  405e5d:	c5 65 ef a6 40 3e 00 	vpxor  0x3e40(%rsi),%ymm3,%ymm12
  405e64:	00 
  405e65:	c4 c1 15 ef de       	vpxor  %ymm14,%ymm13,%ymm3
  405e6a:	c5 6d ef 8e 60 3c 00 	vpxor  0x3c60(%rsi),%ymm2,%ymm9
  405e71:	00 
  405e72:	c4 c1 05 ef d5       	vpxor  %ymm13,%ymm15,%ymm2
  405e77:	c5 0d eb f1          	vpor   %ymm1,%ymm14,%ymm14
  405e7b:	c5 7e 6f bc 24 00 09 	vmovdqu 0x900(%rsp),%ymm15
  405e82:	00 00 
  405e84:	c5 85 db c9          	vpand  %ymm1,%ymm15,%ymm1
  405e88:	c4 41 05 ef f6       	vpxor  %ymm14,%ymm15,%ymm14
  405e8d:	c5 75 ef fb          	vpxor  %ymm3,%ymm1,%ymm15
  405e91:	c4 41 15 ef ee       	vpxor  %ymm14,%ymm13,%ymm13
  405e96:	c4 c1 65 db de       	vpand  %ymm14,%ymm3,%ymm3
  405e9b:	c5 95 ef 8e e0 43 00 	vpxor  0x43e0(%rsi),%ymm13,%ymm1
  405ea2:	00 
  405ea3:	c5 6d ef eb          	vpxor  %ymm3,%ymm2,%ymm13
  405ea7:	c5 85 eb d2          	vpor   %ymm2,%ymm15,%ymm2
  405eab:	c5 fe 7f 4c 24 60    	vmovdqu %ymm1,0x60(%rsp)
  405eb1:	c5 8d ef da          	vpxor  %ymm2,%ymm14,%ymm3
  405eb5:	c5 05 ef b6 00 40 00 	vpxor  0x4000(%rsi),%ymm15,%ymm14
  405ebc:	00 
  405ebd:	c5 15 ef ae 60 46 00 	vpxor  0x4660(%rsi),%ymm13,%ymm13
  405ec4:	00 
  405ec5:	c5 65 ef be 80 44 00 	vpxor  0x4480(%rsi),%ymm3,%ymm15
  405ecc:	00 
  405ecd:	c5 fe 6f 9c 24 20 0b 	vmovdqu 0xb20(%rsp),%ymm3
  405ed4:	00 00 
  405ed6:	c5 7e 7f ac 24 80 00 	vmovdqu %ymm13,0x80(%rsp)
  405edd:	00 00 
  405edf:	c4 41 2d ef eb       	vpxor  %ymm11,%ymm10,%ymm13
  405ee4:	c5 7e 7f bc 24 e0 05 	vmovdqu %ymm15,0x5e0(%rsp)
  405eeb:	00 00 
  405eed:	c5 fd ef cb          	vpxor  %ymm3,%ymm0,%ymm1
  405ef1:	c4 c1 65 ef da       	vpxor  %ymm10,%ymm3,%ymm3
  405ef6:	c5 a5 eb d1          	vpor   %ymm1,%ymm11,%ymm2
  405efa:	c5 7e 6f 9c 24 40 09 	vmovdqu 0x940(%rsp),%ymm11
  405f01:	00 00 
  405f03:	c5 a5 db c9          	vpand  %ymm1,%ymm11,%ymm1
  405f07:	c5 25 ef fa          	vpxor  %ymm2,%ymm11,%ymm15
  405f0b:	c4 c1 75 ef d5       	vpxor  %ymm13,%ymm1,%ymm2
  405f10:	c4 c1 15 db cf       	vpand  %ymm15,%ymm13,%ymm1
  405f15:	c4 41 2d ef d7       	vpxor  %ymm15,%ymm10,%ymm10
  405f1a:	c5 6d ef ae 20 40 00 	vpxor  0x4020(%rsi),%ymm2,%ymm13
  405f21:	00 
  405f22:	c5 e5 ef c9          	vpxor  %ymm1,%ymm3,%ymm1
  405f26:	c5 ed eb db          	vpor   %ymm3,%ymm2,%ymm3
  405f2a:	c5 2d ef 9e 00 42 00 	vpxor  0x4200(%rsi),%ymm10,%ymm11
  405f31:	00 
  405f32:	c5 05 ef d3          	vpxor  %ymm3,%ymm15,%ymm10
  405f36:	c5 75 ef be 80 46 00 	vpxor  0x4680(%rsi),%ymm1,%ymm15
  405f3d:	00 
  405f3e:	c5 fe 6f 9c 24 40 0b 	vmovdqu 0xb40(%rsp),%ymm3
  405f45:	00 00 
  405f47:	c5 ad ef 96 a0 44 00 	vpxor  0x44a0(%rsi),%ymm10,%ymm2
  405f4e:	00 
  405f4f:	c5 7e 7f bc 24 a0 00 	vmovdqu %ymm15,0xa0(%rsp)
  405f56:	00 00 
  405f58:	c5 7d ef d3          	vpxor  %ymm3,%ymm0,%ymm10
  405f5c:	c4 c1 65 ef d8       	vpxor  %ymm8,%ymm3,%ymm3
  405f61:	c5 fe 7f 94 24 00 06 	vmovdqu %ymm2,0x600(%rsp)
  405f68:	00 00 
  405f6a:	c4 c1 3d ef d4       	vpxor  %ymm12,%ymm8,%ymm2
  405f6f:	c4 c1 1d eb ca       	vpor   %ymm10,%ymm12,%ymm1
  405f74:	c5 7e 6f a4 24 60 09 	vmovdqu 0x960(%rsp),%ymm12
  405f7b:	00 00 
  405f7d:	c4 41 1d db d2       	vpand  %ymm10,%ymm12,%ymm10
  405f82:	c5 1d ef f9          	vpxor  %ymm1,%ymm12,%ymm15
  405f86:	c5 2d ef e2          	vpxor  %ymm2,%ymm10,%ymm12
  405f8a:	c4 c1 6d db cf       	vpand  %ymm15,%ymm2,%ymm1
  405f8f:	c4 41 3d ef c7       	vpxor  %ymm15,%ymm8,%ymm8
  405f94:	c5 e5 ef d1          	vpxor  %ymm1,%ymm3,%ymm2
  405f98:	c5 9d eb db          	vpor   %ymm3,%ymm12,%ymm3
  405f9c:	c5 3d ef 96 20 42 00 	vpxor  0x4220(%rsi),%ymm8,%ymm10
  405fa3:	00 
  405fa4:	c5 1d ef a6 40 40 00 	vpxor  0x4040(%rsi),%ymm12,%ymm12
  405fab:	00 
  405fac:	c5 ed ef 96 a0 46 00 	vpxor  0x46a0(%rsi),%ymm2,%ymm2
  405fb3:	00 
  405fb4:	c5 05 ef c3          	vpxor  %ymm3,%ymm15,%ymm8
  405fb8:	c5 fe 6f 9c 24 60 0b 	vmovdqu 0xb60(%rsp),%ymm3
  405fbf:	00 00 
  405fc1:	c5 7e 7f a4 24 c0 02 	vmovdqu %ymm12,0x2c0(%rsp)
  405fc8:	00 00 
  405fca:	c5 fe 7f 94 24 00 02 	vmovdqu %ymm2,0x200(%rsp)
  405fd1:	00 00 
  405fd3:	c5 fe 6f 94 24 40 07 	vmovdqu 0x740(%rsp),%ymm2
  405fda:	00 00 
  405fdc:	c5 7e 6f a4 24 80 09 	vmovdqu 0x980(%rsp),%ymm12
  405fe3:	00 00 
  405fe5:	c4 c1 65 ef c9       	vpxor  %ymm9,%ymm3,%ymm1
  405fea:	c5 3d ef be c0 44 00 	vpxor  0x44c0(%rsi),%ymm8,%ymm15
  405ff1:	00 
  405ff2:	c5 7e 7f bc 24 20 06 	vmovdqu %ymm15,0x620(%rsp)
  405ff9:	00 00 
  405ffb:	c5 7d ef fb          	vpxor  %ymm3,%ymm0,%ymm15
  405fff:	c5 b5 ef da          	vpxor  %ymm2,%ymm9,%ymm3
  406003:	c4 41 6d eb c7       	vpor   %ymm15,%ymm2,%ymm8
  406008:	c4 41 1d db ff       	vpand  %ymm15,%ymm12,%ymm15
  40600d:	c4 41 1d ef c0       	vpxor  %ymm8,%ymm12,%ymm8
  406012:	c5 05 ef e3          	vpxor  %ymm3,%ymm15,%ymm12
  406016:	c4 41 35 ef c8       	vpxor  %ymm8,%ymm9,%ymm9
  40601b:	c4 c1 65 db d8       	vpand  %ymm8,%ymm3,%ymm3
  406020:	c5 b5 ef 96 40 42 00 	vpxor  0x4240(%rsi),%ymm9,%ymm2
  406027:	00 
  406028:	c5 75 ef cb          	vpxor  %ymm3,%ymm1,%ymm9
  40602c:	c5 9d eb c9          	vpor   %ymm1,%ymm12,%ymm1
  406030:	c5 9d ef 9e 60 40 00 	vpxor  0x4060(%rsi),%ymm12,%ymm3
  406037:	00 
  406038:	c5 7e 6f a4 24 80 0b 	vmovdqu 0xb80(%rsp),%ymm12
  40603f:	00 00 
  406041:	c5 fe 7f 94 24 a0 04 	vmovdqu %ymm2,0x4a0(%rsp)
  406048:	00 00 
  40604a:	c5 bd ef c9          	vpxor  %ymm1,%ymm8,%ymm1
  40604e:	c5 35 ef 8e c0 46 00 	vpxor  0x46c0(%rsi),%ymm9,%ymm9
  406055:	00 
  406056:	c4 41 7d ef fc       	vpxor  %ymm12,%ymm0,%ymm15
  40605b:	c5 7e 6f 84 24 60 07 	vmovdqu 0x760(%rsp),%ymm8
  406062:	00 00 
  406064:	c5 fe 7f 9c 24 e0 02 	vmovdqu %ymm3,0x2e0(%rsp)
  40606b:	00 00 
  40606d:	c5 7e 7f 8c 24 20 02 	vmovdqu %ymm9,0x220(%rsp)
  406074:	00 00 
  406076:	c5 7e 6f 8c 24 a0 09 	vmovdqu 0x9a0(%rsp),%ymm9
  40607d:	00 00 
  40607f:	c5 f5 ef 96 e0 44 00 	vpxor  0x44e0(%rsi),%ymm1,%ymm2
  406086:	00 
  406087:	c5 fe 6f 8c 24 e0 0b 	vmovdqu 0xbe0(%rsp),%ymm1
  40608e:	00 00 
  406090:	c5 fe 7f 94 24 80 05 	vmovdqu %ymm2,0x580(%rsp)
  406097:	00 00 
  406099:	c5 9d ef d1          	vpxor  %ymm1,%ymm12,%ymm2
  40609d:	c4 41 3d eb e7       	vpor   %ymm15,%ymm8,%ymm12
  4060a2:	c4 c1 75 ef d8       	vpxor  %ymm8,%ymm1,%ymm3
  4060a7:	c4 41 35 db ff       	vpand  %ymm15,%ymm9,%ymm15
  4060ac:	c4 41 35 ef c4       	vpxor  %ymm12,%ymm9,%ymm8
  4060b1:	c5 05 ef e3          	vpxor  %ymm3,%ymm15,%ymm12
  4060b5:	c4 c1 75 ef c8       	vpxor  %ymm8,%ymm1,%ymm1
  4060ba:	c4 c1 65 db d8       	vpand  %ymm8,%ymm3,%ymm3
  4060bf:	c5 75 ef 8e 60 42 00 	vpxor  0x4260(%rsi),%ymm1,%ymm9
  4060c6:	00 
  4060c7:	c5 fe 6f 8c 24 80 0c 	vmovdqu 0xc80(%rsp),%ymm1
  4060ce:	00 00 
  4060d0:	c5 7e 7f 8c 24 c0 04 	vmovdqu %ymm9,0x4c0(%rsp)
  4060d7:	00 00 
  4060d9:	c5 6d ef cb          	vpxor  %ymm3,%ymm2,%ymm9
  4060dd:	c5 9d eb d2          	vpor   %ymm2,%ymm12,%ymm2
  4060e1:	c5 1d ef a6 80 40 00 	vpxor  0x4080(%rsi),%ymm12,%ymm12
  4060e8:	00 
  4060e9:	c5 b5 ef 9e e0 46 00 	vpxor  0x46e0(%rsi),%ymm9,%ymm3
  4060f0:	00 
  4060f1:	c5 3d ef c2          	vpxor  %ymm2,%ymm8,%ymm8
  4060f5:	c5 fe 6f 94 24 a0 0b 	vmovdqu 0xba0(%rsp),%ymm2
  4060fc:	00 00 
  4060fe:	c5 7e 6f 8c 24 80 07 	vmovdqu 0x780(%rsp),%ymm9
  406105:	00 00 
  406107:	c5 7e 7f a4 24 00 03 	vmovdqu %ymm12,0x300(%rsp)
  40610e:	00 00 
  406110:	c5 7e 6f a4 24 c0 09 	vmovdqu 0x9c0(%rsp),%ymm12
  406117:	00 00 
  406119:	c5 fe 7f 9c 24 c0 00 	vmovdqu %ymm3,0xc0(%rsp)
  406120:	00 00 
  406122:	c5 3d ef be 00 45 00 	vpxor  0x4500(%rsi),%ymm8,%ymm15
  406129:	00 
  40612a:	c4 c1 75 ef d9       	vpxor  %ymm9,%ymm1,%ymm3
  40612f:	c5 7e 7f bc 24 a0 05 	vmovdqu %ymm15,0x5a0(%rsp)
  406136:	00 00 
  406138:	c5 7d ef fa          	vpxor  %ymm2,%ymm0,%ymm15
  40613c:	c5 ed ef d1          	vpxor  %ymm1,%ymm2,%ymm2
  406140:	c4 41 35 eb c7       	vpor   %ymm15,%ymm9,%ymm8
  406145:	c4 41 1d db ff       	vpand  %ymm15,%ymm12,%ymm15
  40614a:	c4 41 1d ef c0       	vpxor  %ymm8,%ymm12,%ymm8
  40614f:	c5 05 ef e3          	vpxor  %ymm3,%ymm15,%ymm12
  406153:	c4 c1 65 db d8       	vpand  %ymm8,%ymm3,%ymm3
  406158:	c4 c1 75 ef c8       	vpxor  %ymm8,%ymm1,%ymm1
  40615d:	c5 6d ef cb          	vpxor  %ymm3,%ymm2,%ymm9
  406161:	c5 9d eb d2          	vpor   %ymm2,%ymm12,%ymm2
  406165:	c5 1d ef a6 a0 40 00 	vpxor  0x40a0(%rsi),%ymm12,%ymm12
  40616c:	00 
  40616d:	c5 f5 ef 8e 80 42 00 	vpxor  0x4280(%rsi),%ymm1,%ymm1
  406174:	00 
  406175:	c5 35 ef 8e 00 47 00 	vpxor  0x4700(%rsi),%ymm9,%ymm9
  40617c:	00 
  40617d:	c5 3d ef c2          	vpxor  %ymm2,%ymm8,%ymm8
  406181:	c5 fe 6f 9c 24 c0 0b 	vmovdqu 0xbc0(%rsp),%ymm3
  406188:	00 00 
  40618a:	c5 7e 7f a4 24 20 03 	vmovdqu %ymm12,0x320(%rsp)
  406191:	00 00 
  406193:	c5 7e 7f 8c 24 e0 00 	vmovdqu %ymm9,0xe0(%rsp)
  40619a:	00 00 
  40619c:	c5 7e 6f 8c 24 a0 07 	vmovdqu 0x7a0(%rsp),%ymm9
  4061a3:	00 00 
  4061a5:	c5 7e 6f a4 24 e0 09 	vmovdqu 0x9e0(%rsp),%ymm12
  4061ac:	00 00 
  4061ae:	c5 fe 7f 8c 24 e0 04 	vmovdqu %ymm1,0x4e0(%rsp)
  4061b5:	00 00 
  4061b7:	c5 fe 6f 8c 24 c0 0c 	vmovdqu 0xcc0(%rsp),%ymm1
  4061be:	00 00 
  4061c0:	c5 3d ef be 20 45 00 	vpxor  0x4520(%rsi),%ymm8,%ymm15
  4061c7:	00 
  4061c8:	c5 e5 ef d1          	vpxor  %ymm1,%ymm3,%ymm2
  4061cc:	c5 7e 7f bc 24 40 06 	vmovdqu %ymm15,0x640(%rsp)
  4061d3:	00 00 
  4061d5:	c5 7d ef fb          	vpxor  %ymm3,%ymm0,%ymm15
  4061d9:	c4 c1 75 ef d9       	vpxor  %ymm9,%ymm1,%ymm3
  4061de:	c4 41 35 eb c7       	vpor   %ymm15,%ymm9,%ymm8
  4061e3:	c4 41 1d db ff       	vpand  %ymm15,%ymm12,%ymm15
  4061e8:	c4 41 1d ef c0       	vpxor  %ymm8,%ymm12,%ymm8
  4061ed:	c5 05 ef e3          	vpxor  %ymm3,%ymm15,%ymm12
  4061f1:	c4 c1 75 ef c8       	vpxor  %ymm8,%ymm1,%ymm1
  4061f6:	c4 c1 65 db d8       	vpand  %ymm8,%ymm3,%ymm3
  4061fb:	c5 f5 ef 8e a0 42 00 	vpxor  0x42a0(%rsi),%ymm1,%ymm1
  406202:	00 
  406203:	c5 ed ef db          	vpxor  %ymm3,%ymm2,%ymm3
  406207:	c5 9d eb d2          	vpor   %ymm2,%ymm12,%ymm2
  40620b:	c5 fe 7f 8c 24 00 05 	vmovdqu %ymm1,0x500(%rsp)
  406212:	00 00 
  406214:	c5 9d ef 8e c0 40 00 	vpxor  0x40c0(%rsi),%ymm12,%ymm1
  40621b:	00 
  40621c:	c5 e5 ef 9e 20 47 00 	vpxor  0x4720(%rsi),%ymm3,%ymm3
  406223:	00 
  406224:	c5 bd ef d2          	vpxor  %ymm2,%ymm8,%ymm2
  406228:	c5 7e 6f a4 24 00 0c 	vmovdqu 0xc00(%rsp),%ymm12
  40622f:	00 00 
  406231:	c5 7e 6f 84 24 c0 07 	vmovdqu 0x7c0(%rsp),%ymm8
  406238:	00 00 
  40623a:	c5 fe 7f 9c 24 00 01 	vmovdqu %ymm3,0x100(%rsp)
  406241:	00 00 
  406243:	c5 fe 6f 9c 24 00 0a 	vmovdqu 0xa00(%rsp),%ymm3
  40624a:	00 00 
  40624c:	c5 fe 7f 8c 24 40 03 	vmovdqu %ymm1,0x340(%rsp)
  406253:	00 00 
  406255:	c4 41 7d ef fc       	vpxor  %ymm12,%ymm0,%ymm15
  40625a:	c5 6d ef 8e 40 45 00 	vpxor  0x4540(%rsi),%ymm2,%ymm9
  406261:	00 
  406262:	c4 c1 5d ef d0       	vpxor  %ymm8,%ymm4,%ymm2
  406267:	c4 c1 3d eb cf       	vpor   %ymm15,%ymm8,%ymm1
  40626c:	c5 7e 7f 8c 24 60 06 	vmovdqu %ymm9,0x660(%rsp)
  406273:	00 00 
  406275:	c5 1d ef cc          	vpxor  %ymm4,%ymm12,%ymm9
  406279:	c4 41 65 db e7       	vpand  %ymm15,%ymm3,%ymm12
  40627e:	c5 e5 ef c9          	vpxor  %ymm1,%ymm3,%ymm1
  406282:	c5 9d ef da          	vpxor  %ymm2,%ymm12,%ymm3
  406286:	c5 ed db d1          	vpand  %ymm1,%ymm2,%ymm2
  40628a:	c5 dd ef e1          	vpxor  %ymm1,%ymm4,%ymm4
  40628e:	c5 35 ef e2          	vpxor  %ymm2,%ymm9,%ymm12
  406292:	c4 41 65 eb c9       	vpor   %ymm9,%ymm3,%ymm9
  406297:	c5 e5 ef 9e e0 40 00 	vpxor  0x40e0(%rsi),%ymm3,%ymm3
  40629e:	00 
  40629f:	c5 dd ef a6 c0 42 00 	vpxor  0x42c0(%rsi),%ymm4,%ymm4
  4062a6:	00 
  4062a7:	c5 1d ef 86 40 47 00 	vpxor  0x4740(%rsi),%ymm12,%ymm8
  4062ae:	00 
  4062af:	c4 c1 75 ef c9       	vpxor  %ymm9,%ymm1,%ymm1
  4062b4:	c5 fe 7f 9c 24 60 03 	vmovdqu %ymm3,0x360(%rsp)
  4062bb:	00 00 
  4062bd:	c5 7e 6f 8c 24 e0 07 	vmovdqu 0x7e0(%rsp),%ymm9
  4062c4:	00 00 
  4062c6:	c5 7e 6f a4 24 20 0a 	vmovdqu 0xa20(%rsp),%ymm12
  4062cd:	00 00 
  4062cf:	c5 7e 7f 84 24 20 01 	vmovdqu %ymm8,0x120(%rsp)
  4062d6:	00 00 
  4062d8:	c5 fe 6f 94 24 60 0d 	vmovdqu 0xd60(%rsp),%ymm2
  4062df:	00 00 
  4062e1:	c5 fe 7f a4 24 20 05 	vmovdqu %ymm4,0x520(%rsp)
  4062e8:	00 00 
  4062ea:	c5 f5 ef 9e 60 45 00 	vpxor  0x4560(%rsi),%ymm1,%ymm3
  4062f1:	00 
  4062f2:	c5 fe 6f 8c 24 60 0c 	vmovdqu 0xc60(%rsp),%ymm1
  4062f9:	00 00 
  4062fb:	c5 7d ef f9          	vpxor  %ymm1,%ymm0,%ymm15
  4062ff:	c5 f5 ef e2          	vpxor  %ymm2,%ymm1,%ymm4
  406303:	c4 c1 6d ef c9       	vpxor  %ymm9,%ymm2,%ymm1
  406308:	c4 41 35 eb c7       	vpor   %ymm15,%ymm9,%ymm8
  40630d:	c4 41 1d db ff       	vpand  %ymm15,%ymm12,%ymm15
  406312:	c4 41 1d ef c0       	vpxor  %ymm8,%ymm12,%ymm8
  406317:	c5 05 ef e1          	vpxor  %ymm1,%ymm15,%ymm12
  40631b:	c4 c1 6d ef d0       	vpxor  %ymm8,%ymm2,%ymm2
  406320:	c4 c1 75 db c8       	vpand  %ymm8,%ymm1,%ymm1
  406325:	c5 6d ef 8e e0 42 00 	vpxor  0x42e0(%rsi),%ymm2,%ymm9
  40632c:	00 
  40632d:	c5 fe 6f 94 24 a0 0c 	vmovdqu 0xca0(%rsp),%ymm2
  406334:	00 00 
  406336:	c5 7e 7f 8c 24 40 05 	vmovdqu %ymm9,0x540(%rsp)
  40633d:	00 00 
  40633f:	c5 5d ef c9          	vpxor  %ymm1,%ymm4,%ymm9
  406343:	c5 9d eb e4          	vpor   %ymm4,%ymm12,%ymm4
  406347:	c5 1d ef a6 00 41 00 	vpxor  0x4100(%rsi),%ymm12,%ymm12
  40634e:	00 
  40634f:	c5 b5 ef 8e 60 47 00 	vpxor  0x4760(%rsi),%ymm9,%ymm1
  406356:	00 
  406357:	c5 3d ef c4          	vpxor  %ymm4,%ymm8,%ymm8
  40635b:	c5 fe 6f a4 24 e0 0c 	vmovdqu 0xce0(%rsp),%ymm4
  406362:	00 00 
  406364:	c5 7e 6f 8c 24 00 08 	vmovdqu 0x800(%rsp),%ymm9
  40636b:	00 00 
  40636d:	c5 7e 7f a4 24 80 03 	vmovdqu %ymm12,0x380(%rsp)
  406374:	00 00 
  406376:	c5 7e 6f a4 24 40 0a 	vmovdqu 0xa40(%rsp),%ymm12
  40637d:	00 00 
  40637f:	c5 fe 7f 8c 24 40 01 	vmovdqu %ymm1,0x140(%rsp)
  406386:	00 00 
  406388:	c5 3d ef be 80 45 00 	vpxor  0x4580(%rsi),%ymm8,%ymm15
  40638f:	00 
  406390:	c4 c1 6d ef c9       	vpxor  %ymm9,%ymm2,%ymm1
  406395:	c5 7e 7f bc 24 40 0e 	vmovdqu %ymm15,0xe40(%rsp)
  40639c:	00 00 
  40639e:	c5 7d ef fc          	vpxor  %ymm4,%ymm0,%ymm15
  4063a2:	c5 dd ef e2          	vpxor  %ymm2,%ymm4,%ymm4
  4063a6:	c4 41 35 eb c7       	vpor   %ymm15,%ymm9,%ymm8
  4063ab:	c4 41 1d db ff       	vpand  %ymm15,%ymm12,%ymm15
  4063b0:	c4 41 1d ef c0       	vpxor  %ymm8,%ymm12,%ymm8
  4063b5:	c5 05 ef e1          	vpxor  %ymm1,%ymm15,%ymm12
  4063b9:	c4 c1 75 db c8       	vpand  %ymm8,%ymm1,%ymm1
  4063be:	c4 c1 6d ef d0       	vpxor  %ymm8,%ymm2,%ymm2
  4063c3:	c5 5d ef c9          	vpxor  %ymm1,%ymm4,%ymm9
  4063c7:	c5 9d eb e4          	vpor   %ymm4,%ymm12,%ymm4
  4063cb:	c5 1d ef a6 20 41 00 	vpxor  0x4120(%rsi),%ymm12,%ymm12
  4063d2:	00 
  4063d3:	c5 ed ef 96 00 43 00 	vpxor  0x4300(%rsi),%ymm2,%ymm2
  4063da:	00 
  4063db:	c5 35 ef 8e 80 47 00 	vpxor  0x4780(%rsi),%ymm9,%ymm9
  4063e2:	00 
  4063e3:	c5 3d ef c4          	vpxor  %ymm4,%ymm8,%ymm8
  4063e7:	c5 fe 6f 8c 24 00 0d 	vmovdqu 0xd00(%rsp),%ymm1
  4063ee:	00 00 
  4063f0:	c5 7e 7f a4 24 a0 03 	vmovdqu %ymm12,0x3a0(%rsp)
  4063f7:	00 00 
  4063f9:	c5 7e 7f 8c 24 60 01 	vmovdqu %ymm9,0x160(%rsp)
  406400:	00 00 
  406402:	c5 7e 6f 8c 24 20 08 	vmovdqu 0x820(%rsp),%ymm9
  406409:	00 00 
  40640b:	c5 fe 7f 94 24 60 05 	vmovdqu %ymm2,0x560(%rsp)
  406412:	00 00 
  406414:	c5 3d ef be a0 45 00 	vpxor  0x45a0(%rsi),%ymm8,%ymm15
  40641b:	00 
  40641c:	c5 7d ef e1          	vpxor  %ymm1,%ymm0,%ymm12
  406420:	c5 f5 ef e5          	vpxor  %ymm5,%ymm1,%ymm4
  406424:	c4 c1 55 ef d1       	vpxor  %ymm9,%ymm5,%ymm2
  406429:	c5 7e 6f 84 24 60 0a 	vmovdqu 0xa60(%rsp),%ymm8
  406430:	00 00 
  406432:	c5 7e 7f bc 24 60 0e 	vmovdqu %ymm15,0xe60(%rsp)
  406439:	00 00 
  40643b:	c4 41 35 eb fc       	vpor   %ymm12,%ymm9,%ymm15
  406440:	c4 41 3d db cc       	vpand  %ymm12,%ymm8,%ymm9
  406445:	c4 c1 3d ef cf       	vpxor  %ymm15,%ymm8,%ymm1
  40644a:	c5 35 ef fa          	vpxor  %ymm2,%ymm9,%ymm15
  40644e:	c5 d5 ef e9          	vpxor  %ymm1,%ymm5,%ymm5
  406452:	c5 ed db d1          	vpand  %ymm1,%ymm2,%ymm2
  406456:	c5 55 ef 8e 20 43 00 	vpxor  0x4320(%rsi),%ymm5,%ymm9
  40645d:	00 
  40645e:	c5 dd ef ea          	vpxor  %ymm2,%ymm4,%ymm5
  406462:	c5 85 eb e4          	vpor   %ymm4,%ymm15,%ymm4
  406466:	c5 fe 6f 94 24 40 08 	vmovdqu 0x840(%rsp),%ymm2
  40646d:	00 00 
  40646f:	c5 7e 7f 8c 24 c0 05 	vmovdqu %ymm9,0x5c0(%rsp)
  406476:	00 00 
  406478:	c5 7e 6f 8c 24 80 0a 	vmovdqu 0xa80(%rsp),%ymm9
  40647f:	00 00 
  406481:	c5 75 ef e4          	vpxor  %ymm4,%ymm1,%ymm12
  406485:	c5 85 ef 8e 40 41 00 	vpxor  0x4140(%rsi),%ymm15,%ymm1
  40648c:	00 
  40648d:	c5 55 ef be a0 47 00 	vpxor  0x47a0(%rsi),%ymm5,%ymm15
  406494:	00 
  406495:	c5 1d ef 86 c0 45 00 	vpxor  0x45c0(%rsi),%ymm12,%ymm8
  40649c:	00 
  40649d:	c5 fe 7f 8c 24 c0 03 	vmovdqu %ymm1,0x3c0(%rsp)
  4064a4:	00 00 
  4064a6:	c5 fe 6f 8c 24 40 0d 	vmovdqu 0xd40(%rsp),%ymm1
  4064ad:	00 00 
  4064af:	c5 7e 7f bc 24 80 01 	vmovdqu %ymm15,0x180(%rsp)
  4064b6:	00 00 
  4064b8:	c5 7e 7f 84 24 80 0e 	vmovdqu %ymm8,0xe80(%rsp)
  4064bf:	00 00 
  4064c1:	c5 7e 6f bc 24 20 0d 	vmovdqu 0xd20(%rsp),%ymm15
  4064c8:	00 00 
  4064ca:	c5 fd ef e1          	vpxor  %ymm1,%ymm0,%ymm4
  4064ce:	c5 f5 ef ee          	vpxor  %ymm6,%ymm1,%ymm5
  4064d2:	c5 4d ef c2          	vpxor  %ymm2,%ymm6,%ymm8
  4064d6:	c5 ed eb cc          	vpor   %ymm4,%ymm2,%ymm1
  4064da:	c5 b5 db d4          	vpand  %ymm4,%ymm9,%ymm2
  4064de:	c5 35 ef e1          	vpxor  %ymm1,%ymm9,%ymm12
  4064e2:	c4 41 6d ef c8       	vpxor  %ymm8,%ymm2,%ymm9
  4064e7:	c4 c1 4d ef f4       	vpxor  %ymm12,%ymm6,%ymm6
  4064ec:	c5 b5 eb e5          	vpor   %ymm5,%ymm9,%ymm4
  4064f0:	c4 c1 3d db d4       	vpand  %ymm12,%ymm8,%ymm2
  4064f5:	c5 35 ef 8e 60 41 00 	vpxor  0x4160(%rsi),%ymm9,%ymm9
  4064fc:	00 
  4064fd:	c5 cd ef 8e 40 43 00 	vpxor  0x4340(%rsi),%ymm6,%ymm1
  406504:	00 
  406505:	c5 1d ef e4          	vpxor  %ymm4,%ymm12,%ymm12
  406509:	c5 d5 ef f2          	vpxor  %ymm2,%ymm5,%ymm6
  40650d:	c5 85 ef e7          	vpxor  %ymm7,%ymm15,%ymm4
  406511:	c5 fe 7f 8c 24 c0 06 	vmovdqu %ymm1,0x6c0(%rsp)
  406518:	00 00 
  40651a:	c5 fe 6f 8c 24 60 08 	vmovdqu 0x860(%rsp),%ymm1
  406521:	00 00 
  406523:	c5 7e 7f 8c 24 e0 03 	vmovdqu %ymm9,0x3e0(%rsp)
  40652a:	00 00 
  40652c:	c5 1d ef 86 e0 45 00 	vpxor  0x45e0(%rsi),%ymm12,%ymm8
  406533:	00 
  406534:	c4 41 7d ef cf       	vpxor  %ymm15,%ymm0,%ymm9
  406539:	c5 c5 ef d1          	vpxor  %ymm1,%ymm7,%ymm2
  40653d:	c5 cd ef ae c0 47 00 	vpxor  0x47c0(%rsi),%ymm6,%ymm5
  406544:	00 
  406545:	c5 7e 6f a4 24 a0 0a 	vmovdqu 0xaa0(%rsp),%ymm12
  40654c:	00 00 
  40654e:	c5 7e 7f 84 24 a0 0e 	vmovdqu %ymm8,0xea0(%rsp)
  406555:	00 00 
  406557:	c4 41 75 eb c1       	vpor   %ymm9,%ymm1,%ymm8
  40655c:	c5 fe 7f ac 24 a0 01 	vmovdqu %ymm5,0x1a0(%rsp)
  406563:	00 00 
  406565:	c5 fe 6f ac 24 80 08 	vmovdqu 0x880(%rsp),%ymm5
  40656c:	00 00 
  40656e:	c4 c1 1d db f1       	vpand  %ymm9,%ymm12,%ymm6
  406573:	c4 41 1d ef c8       	vpxor  %ymm8,%ymm12,%ymm9
  406578:	c5 cd ef ca          	vpxor  %ymm2,%ymm6,%ymm1
  40657c:	c4 c1 45 ef f9       	vpxor  %ymm9,%ymm7,%ymm7
  406581:	c4 c1 6d db d1       	vpand  %ymm9,%ymm2,%ymm2
  406586:	c5 45 ef a6 60 43 00 	vpxor  0x4360(%rsi),%ymm7,%ymm12
  40658d:	00 
  40658e:	c5 5d ef c2          	vpxor  %ymm2,%ymm4,%ymm8
  406592:	c5 f5 eb e4          	vpor   %ymm4,%ymm1,%ymm4
  406596:	c5 f5 ef 8e 80 41 00 	vpxor  0x4180(%rsi),%ymm1,%ymm1
  40659d:	00 
  40659e:	c5 fe 6f bc 24 c0 0d 	vmovdqu 0xdc0(%rsp),%ymm7
  4065a5:	00 00 
  4065a7:	c5 7e 7f a4 24 a0 06 	vmovdqu %ymm12,0x6a0(%rsp)
  4065ae:	00 00 
  4065b0:	c5 7e 6f a4 24 c0 0a 	vmovdqu 0xac0(%rsp),%ymm12
  4065b7:	00 00 
  4065b9:	c5 fe 7f 8c 24 00 04 	vmovdqu %ymm1,0x400(%rsp)
  4065c0:	00 00 
  4065c2:	c5 7d ef ff          	vpxor  %ymm7,%ymm0,%ymm15
  4065c6:	c5 35 ef cc          	vpxor  %ymm4,%ymm9,%ymm9
  4065ca:	c5 bd ef b6 e0 47 00 	vpxor  0x47e0(%rsi),%ymm8,%ymm6
  4065d1:	00 
  4065d2:	c5 fe 6f 64 24 40    	vmovdqu 0x40(%rsp),%ymm4
  4065d8:	c4 41 55 eb c7       	vpor   %ymm15,%ymm5,%ymm8
  4065dd:	c5 35 ef 8e 00 44 00 	vpxor  0x4400(%rsi),%ymm9,%ymm9
  4065e4:	00 
  4065e5:	c5 fe 7f b4 24 c0 01 	vmovdqu %ymm6,0x1c0(%rsp)
  4065ec:	00 00 
  4065ee:	c5 dd ef cd          	vpxor  %ymm5,%ymm4,%ymm1
  4065f2:	c4 c1 1d db f7       	vpand  %ymm15,%ymm12,%ymm6
  4065f7:	c4 41 1d ef f8       	vpxor  %ymm8,%ymm12,%ymm15
  4065fc:	c5 c5 ef d4          	vpxor  %ymm4,%ymm7,%ymm2
  406600:	c5 7e 6f 84 24 e0 0d 	vmovdqu 0xde0(%rsp),%ymm8
  406607:	00 00 
  406609:	c5 4d ef e1          	vpxor  %ymm1,%ymm6,%ymm12
  40660d:	c4 c1 75 db cf       	vpand  %ymm15,%ymm1,%ymm1
  406612:	c4 c1 5d ef e7       	vpxor  %ymm15,%ymm4,%ymm4
  406617:	c5 9d ef ae a0 41 00 	vpxor  0x41a0(%rsi),%ymm12,%ymm5
  40661e:	00 
  40661f:	c5 ed ef c9          	vpxor  %ymm1,%ymm2,%ymm1
  406623:	c5 9d eb d2          	vpor   %ymm2,%ymm12,%ymm2
  406627:	c5 dd ef be 80 43 00 	vpxor  0x4380(%rsi),%ymm4,%ymm7
  40662e:	00 
  40662f:	c5 fe 6f a4 24 a0 08 	vmovdqu 0x8a0(%rsp),%ymm4
  406636:	00 00 
  406638:	c5 fe 7f ac 24 20 04 	vmovdqu %ymm5,0x420(%rsp)
  40663f:	00 00 
  406641:	c5 05 ef fa          	vpxor  %ymm2,%ymm15,%ymm15
  406645:	c5 fe 6f 94 24 00 0e 	vmovdqu 0xe00(%rsp),%ymm2
  40664c:	00 00 
  40664e:	c5 fe 7f bc 24 80 06 	vmovdqu %ymm7,0x680(%rsp)
  406655:	00 00 
  406657:	c5 05 ef a6 20 44 00 	vpxor  0x4420(%rsi),%ymm15,%ymm12
  40665e:	00 
  40665f:	c5 75 ef be 00 46 00 	vpxor  0x4600(%rsi),%ymm1,%ymm15
  406666:	00 
  406667:	c5 fd ef f2          	vpxor  %ymm2,%ymm0,%ymm6
  40666b:	c5 fe 6f 8c 24 80 0d 	vmovdqu 0xd80(%rsp),%ymm1
  406672:	00 00 
  406674:	c5 ed ef f9          	vpxor  %ymm1,%ymm2,%ymm7
  406678:	c5 dd eb d6          	vpor   %ymm6,%ymm4,%ymm2
  40667c:	c5 bd db f6          	vpand  %ymm6,%ymm8,%ymm6
  406680:	c5 f5 ef ec          	vpxor  %ymm4,%ymm1,%ymm5
  406684:	c5 3d ef c2          	vpxor  %ymm2,%ymm8,%ymm8
  406688:	c5 cd ef e5          	vpxor  %ymm5,%ymm6,%ymm4
  40668c:	c5 fe 6f b4 24 e0 06 	vmovdqu 0x6e0(%rsp),%ymm6
  406693:	00 00 
  406695:	c4 c1 75 ef c8       	vpxor  %ymm8,%ymm1,%ymm1
  40669a:	c4 c1 55 db e8       	vpand  %ymm8,%ymm5,%ymm5
  40669f:	c5 f5 ef 96 a0 43 00 	vpxor  0x43a0(%rsi),%ymm1,%ymm2
  4066a6:	00 
  4066a7:	c5 dd ef 8e c0 41 00 	vpxor  0x41c0(%rsi),%ymm4,%ymm1
  4066ae:	00 
  4066af:	c5 fe 7f 94 24 80 04 	vmovdqu %ymm2,0x480(%rsp)
  4066b6:	00 00 
  4066b8:	c5 fe 7f 8c 24 80 02 	vmovdqu %ymm1,0x280(%rsp)
  4066bf:	00 00 
  4066c1:	c5 fe 6f 8c 24 c0 08 	vmovdqu 0x8c0(%rsp),%ymm1
  4066c8:	00 00 
  4066ca:	c5 c5 ef d5          	vpxor  %ymm5,%ymm7,%ymm2
  4066ce:	c5 dd eb ff          	vpor   %ymm7,%ymm4,%ymm7
  4066d2:	c5 fe 6f ac 24 a0 0d 	vmovdqu 0xda0(%rsp),%ymm5
  4066d9:	00 00 
  4066db:	c5 3d ef c7          	vpxor  %ymm7,%ymm8,%ymm8
  4066df:	c5 fd ef fe          	vpxor  %ymm6,%ymm0,%ymm7
  4066e3:	c5 bd ef a6 40 44 00 	vpxor  0x4440(%rsi),%ymm8,%ymm4
  4066ea:	00 
  4066eb:	c5 6d ef 86 20 46 00 	vpxor  0x4620(%rsi),%ymm2,%ymm8
  4066f2:	00 
  4066f3:	c5 f5 eb d7          	vpor   %ymm7,%ymm1,%ymm2
  4066f7:	c5 fe 7f a4 24 c0 0e 	vmovdqu %ymm4,0xec0(%rsp)
  4066fe:	00 00 
  406700:	c5 cd ef e5          	vpxor  %ymm5,%ymm6,%ymm4
  406704:	c5 d5 ef f1          	vpxor  %ymm1,%ymm5,%ymm6
  406708:	c5 fe 6f 8c 24 20 0e 	vmovdqu 0xe20(%rsp),%ymm1
  40670f:	00 00 
  406711:	c5 f5 ef d2          	vpxor  %ymm2,%ymm1,%ymm2
  406715:	c5 f5 db ff          	vpand  %ymm7,%ymm1,%ymm7
  406719:	c5 d5 ef ea          	vpxor  %ymm2,%ymm5,%ymm5
  40671d:	c5 c5 ef fe          	vpxor  %ymm6,%ymm7,%ymm7
  406721:	c5 cd db f2          	vpand  %ymm2,%ymm6,%ymm6
  406725:	c5 d5 ef 8e c0 43 00 	vpxor  0x43c0(%rsi),%ymm5,%ymm1
  40672c:	00 
  40672d:	c4 c1 35 ef ef       	vpxor  %ymm15,%ymm9,%ymm5
  406732:	c5 fe 7f 8c 24 40 04 	vmovdqu %ymm1,0x440(%rsp)
  406739:	00 00 
  40673b:	c5 dd ef ce          	vpxor  %ymm6,%ymm4,%ymm1
  40673f:	c5 c5 eb e4          	vpor   %ymm4,%ymm7,%ymm4
  406743:	c4 c1 7d ef f3       	vpxor  %ymm11,%ymm0,%ymm6
  406748:	c5 f5 ef 8e 40 46 00 	vpxor  0x4640(%rsi),%ymm1,%ymm1
  40674f:	00 
  406750:	c5 ed ef e4          	vpxor  %ymm4,%ymm2,%ymm4
  406754:	c5 c5 ef 96 e0 41 00 	vpxor  0x41e0(%rsi),%ymm7,%ymm2
  40675b:	00 
  40675c:	c4 c1 25 ef f9       	vpxor  %ymm9,%ymm11,%ymm7
  406761:	c5 05 eb de          	vpor   %ymm6,%ymm15,%ymm11
  406765:	c4 41 7d ef fa       	vpxor  %ymm10,%ymm0,%ymm15
  40676a:	c5 fe 7f 94 24 40 02 	vmovdqu %ymm2,0x240(%rsp)
  406771:	00 00 
  406773:	c5 dd ef 96 60 44 00 	vpxor  0x4460(%rsi),%ymm4,%ymm2
  40677a:	00 
  40677b:	c5 8d db e6          	vpand  %ymm6,%ymm14,%ymm4
  40677f:	c4 c1 0d ef f3       	vpxor  %ymm11,%ymm14,%ymm6
  406784:	c5 dd ef e5          	vpxor  %ymm5,%ymm4,%ymm4
  406788:	c5 35 ef f6          	vpxor  %ymm6,%ymm9,%ymm14
  40678c:	c5 55 db de          	vpand  %ymm6,%ymm5,%ymm11
  406790:	c5 0d ef 8e e0 4b 00 	vpxor  0x4be0(%rsi),%ymm14,%ymm9
  406797:	00 
  406798:	c4 c1 45 ef eb       	vpxor  %ymm11,%ymm7,%ymm5
  40679d:	c5 dd eb ff          	vpor   %ymm7,%ymm4,%ymm7
  4067a1:	c4 41 2d ef dc       	vpxor  %ymm12,%ymm10,%ymm11
  4067a6:	c4 41 1d ef d0       	vpxor  %ymm8,%ymm12,%ymm10
  4067ab:	c4 41 3d eb c7       	vpor   %ymm15,%ymm8,%ymm8
  4067b0:	c5 dd ef a6 00 48 00 	vpxor  0x4800(%rsi),%ymm4,%ymm4
  4067b7:	00 
  4067b8:	c5 cd ef f7          	vpxor  %ymm7,%ymm6,%ymm6
  4067bc:	c5 55 ef b6 60 4e 00 	vpxor  0x4e60(%rsi),%ymm5,%ymm14
  4067c3:	00 
  4067c4:	c4 c1 15 ef e8       	vpxor  %ymm8,%ymm13,%ymm5
  4067c9:	c5 7e 7f 0c 24       	vmovdqu %ymm9,(%rsp)
  4067ce:	c5 fe 7f a4 24 60 02 	vmovdqu %ymm4,0x260(%rsp)
  4067d5:	00 00 
  4067d7:	c5 7e 7f b4 24 e0 01 	vmovdqu %ymm14,0x1e0(%rsp)
  4067de:	00 00 
  4067e0:	c4 41 15 db cf       	vpand  %ymm15,%ymm13,%ymm9
  4067e5:	c5 cd ef a6 80 4c 00 	vpxor  0x4c80(%rsi),%ymm6,%ymm4
  4067ec:	00 
  4067ed:	c5 1d ef e5          	vpxor  %ymm5,%ymm12,%ymm12
  4067f1:	c4 c1 35 ef f2       	vpxor  %ymm10,%ymm9,%ymm6
  4067f6:	c5 2d db d5          	vpand  %ymm5,%ymm10,%ymm10
  4067fa:	c5 1d ef ae 00 4a 00 	vpxor  0x4a00(%rsi),%ymm12,%ymm13
  406801:	00 
  406802:	c5 7e 6f a6 80 4e 00 	vmovdqu 0x4e80(%rsi),%ymm12
  406809:	00 
  40680a:	c4 41 25 ef ca       	vpxor  %ymm10,%ymm11,%ymm9
  40680f:	c4 41 4d eb d3       	vpor   %ymm11,%ymm6,%ymm10
  406814:	c5 cd ef be 20 48 00 	vpxor  0x4820(%rsi),%ymm6,%ymm7
  40681b:	00 
  40681c:	c5 7e 7f ac 24 60 04 	vmovdqu %ymm13,0x460(%rsp)
  406823:	00 00 
  406825:	c5 fe 6f b4 24 60 0e 	vmovdqu 0xe60(%rsp),%ymm6
  40682c:	00 00 
  40682e:	c4 41 55 ef c2       	vpxor  %ymm10,%ymm5,%ymm8
  406833:	c5 fe 7f bc 24 a0 02 	vmovdqu %ymm7,0x2a0(%rsp)
  40683a:	00 00 
  40683c:	c5 fe 6f bc 24 80 0e 	vmovdqu 0xe80(%rsp),%ymm7
  406843:	00 00 
  406845:	c5 7e 6f 94 24 c0 0e 	vmovdqu 0xec0(%rsp),%ymm10
  40684c:	00 00 
  40684e:	c5 fe 6f ac 24 40 0e 	vmovdqu 0xe40(%rsp),%ymm5
  406855:	00 00 
  406857:	c5 3d ef 9e a0 4c 00 	vpxor  0x4ca0(%rsi),%ymm8,%ymm11
  40685e:	00 
  40685f:	c5 7e 6f 84 24 a0 0e 	vmovdqu 0xea0(%rsp),%ymm8
  406866:	00 00 
  406868:	c4 41 35 ef f4       	vpxor  %ymm12,%ymm9,%ymm14
  40686d:	c5 2d ef e1          	vpxor  %ymm1,%ymm10,%ymm12
  406871:	c5 7e 6f 8c 24 a0 04 	vmovdqu 0x4a0(%rsp),%ymm9
  406878:	00 00 
  40687a:	c5 7e 7f 9c 24 e0 06 	vmovdqu %ymm11,0x6e0(%rsp)
  406881:	00 00 
  406883:	c5 7e 7f b4 24 00 07 	vmovdqu %ymm14,0x700(%rsp)
  40688a:	00 00 
  40688c:	c5 fe 7f 64 24 20    	vmovdqu %ymm4,0x20(%rsp)
  406892:	c4 41 7d ef f1       	vpxor  %ymm9,%ymm0,%ymm14
  406897:	c4 c1 35 ef e2       	vpxor  %ymm10,%ymm9,%ymm4
  40689c:	c4 41 75 eb de       	vpor   %ymm14,%ymm1,%ymm11
  4068a1:	c5 fe 6f 8c 24 c0 02 	vmovdqu 0x2c0(%rsp),%ymm1
  4068a8:	00 00 
  4068aa:	c4 41 75 db ee       	vpand  %ymm14,%ymm1,%ymm13
  4068af:	c4 41 75 ef cb       	vpxor  %ymm11,%ymm1,%ymm9
  4068b4:	c4 c1 15 ef cc       	vpxor  %ymm12,%ymm13,%ymm1
  4068b9:	c4 41 1d db f9       	vpand  %ymm9,%ymm12,%ymm15
  4068be:	c4 41 2d ef d1       	vpxor  %ymm9,%ymm10,%ymm10
  4068c3:	c5 7e 6f ac 24 c0 04 	vmovdqu 0x4c0(%rsp),%ymm13
  4068ca:	00 00 
  4068cc:	c4 41 5d ef df       	vpxor  %ymm15,%ymm4,%ymm11
  4068d1:	c5 f5 eb e4          	vpor   %ymm4,%ymm1,%ymm4
  4068d5:	c5 2d ef b6 20 4a 00 	vpxor  0x4a20(%rsi),%ymm10,%ymm14
  4068dc:	00 
  4068dd:	c5 15 ef fa          	vpxor  %ymm2,%ymm13,%ymm15
  4068e1:	c5 25 ef 96 a0 4e 00 	vpxor  0x4ea0(%rsi),%ymm11,%ymm10
  4068e8:	00 
  4068e9:	c5 35 ef cc          	vpxor  %ymm4,%ymm9,%ymm9
  4068ed:	c4 c1 7d ef e5       	vpxor  %ymm13,%ymm0,%ymm4
  4068f2:	c5 f5 ef 8e 40 48 00 	vpxor  0x4840(%rsi),%ymm1,%ymm1
  4068f9:	00 
  4068fa:	c5 7e 7f 94 24 e0 0d 	vmovdqu %ymm10,0xde0(%rsp)
  406901:	00 00 
  406903:	c5 35 ef a6 c0 4c 00 	vpxor  0x4cc0(%rsi),%ymm9,%ymm12
  40690a:	00 
  40690b:	c5 7e 6f 8c 24 80 00 	vmovdqu 0x80(%rsp),%ymm9
  406912:	00 00 
  406914:	c5 7e 7f a4 24 c0 0d 	vmovdqu %ymm12,0xdc0(%rsp)
  40691b:	00 00 
  40691d:	c5 7e 6f a4 24 e0 02 	vmovdqu 0x2e0(%rsp),%ymm12
  406924:	00 00 
  406926:	c5 35 eb dc          	vpor   %ymm4,%ymm9,%ymm11
  40692a:	c4 41 6d ef d1       	vpxor  %ymm9,%ymm2,%ymm10
  40692f:	c5 1d db ec          	vpand  %ymm4,%ymm12,%ymm13
  406933:	c4 41 1d ef db       	vpxor  %ymm11,%ymm12,%ymm11
  406938:	c4 41 15 ef e2       	vpxor  %ymm10,%ymm13,%ymm12
  40693d:	c4 41 2d db d3       	vpand  %ymm11,%ymm10,%ymm10
  406942:	c4 c1 6d ef d3       	vpxor  %ymm11,%ymm2,%ymm2
  406947:	c5 1d ef 8e 60 48 00 	vpxor  0x4860(%rsi),%ymm12,%ymm9
  40694e:	00 
  40694f:	c4 c1 05 ef e2       	vpxor  %ymm10,%ymm15,%ymm4
  406954:	c4 41 1d eb ff       	vpor   %ymm15,%ymm12,%ymm15
  406959:	c5 ed ef 96 40 4a 00 	vpxor  0x4a40(%rsi),%ymm2,%ymm2
  406960:	00 
  406961:	c5 7e 6f 94 24 e0 04 	vmovdqu 0x4e0(%rsp),%ymm10
  406968:	00 00 
  40696a:	c5 7e 7f 8c 24 00 0e 	vmovdqu %ymm9,0xe00(%rsp)
  406971:	00 00 
  406973:	c5 7e 6f 8c 24 e0 05 	vmovdqu 0x5e0(%rsp),%ymm9
  40697a:	00 00 
  40697c:	c4 41 25 ef df       	vpxor  %ymm15,%ymm11,%ymm11
  406981:	c5 dd ef a6 c0 4e 00 	vpxor  0x4ec0(%rsi),%ymm4,%ymm4
  406988:	00 
  406989:	c5 7e 6f bc 24 a0 00 	vmovdqu 0xa0(%rsp),%ymm15
  406990:	00 00 
  406992:	c5 25 ef a6 e0 4c 00 	vpxor  0x4ce0(%rsi),%ymm11,%ymm12
  406999:	00 
  40699a:	c5 fe 7f a4 24 20 07 	vmovdqu %ymm4,0x720(%rsp)
  4069a1:	00 00 
  4069a3:	c4 c1 7d ef e2       	vpxor  %ymm10,%ymm0,%ymm4
  4069a8:	c4 41 35 ef ef       	vpxor  %ymm15,%ymm9,%ymm13
  4069ad:	c4 41 2d ef d1       	vpxor  %ymm9,%ymm10,%ymm10
  4069b2:	c5 7e 7f a4 24 20 0e 	vmovdqu %ymm12,0xe20(%rsp)
  4069b9:	00 00 
  4069bb:	c5 7e 6f a4 24 00 03 	vmovdqu 0x300(%rsp),%ymm12
  4069c2:	00 00 
  4069c4:	c5 05 eb dc          	vpor   %ymm4,%ymm15,%ymm11
  4069c8:	c5 7e 6f bc 24 00 06 	vmovdqu 0x600(%rsp),%ymm15
  4069cf:	00 00 
  4069d1:	c5 9d db e4          	vpand  %ymm4,%ymm12,%ymm4
  4069d5:	c4 41 1d ef db       	vpxor  %ymm11,%ymm12,%ymm11
  4069da:	c4 41 5d ef e5       	vpxor  %ymm13,%ymm4,%ymm12
  4069df:	c4 41 35 ef cb       	vpxor  %ymm11,%ymm9,%ymm9
  4069e4:	c4 41 15 db eb       	vpand  %ymm11,%ymm13,%ymm13
  4069e9:	c5 b5 ef a6 60 4a 00 	vpxor  0x4a60(%rsi),%ymm9,%ymm4
  4069f0:	00 
  4069f1:	c4 41 2d ef cd       	vpxor  %ymm13,%ymm10,%ymm9
  4069f6:	c4 41 1d eb d2       	vpor   %ymm10,%ymm12,%ymm10
  4069fb:	c5 1d ef a6 80 48 00 	vpxor  0x4880(%rsi),%ymm12,%ymm12
  406a02:	00 
  406a03:	c5 35 ef 8e e0 4e 00 	vpxor  0x4ee0(%rsi),%ymm9,%ymm9
  406a0a:	00 
  406a0b:	c4 41 25 ef da       	vpxor  %ymm10,%ymm11,%ymm11
  406a10:	c5 7e 6f 94 24 00 05 	vmovdqu 0x500(%rsp),%ymm10
  406a17:	00 00 
  406a19:	c5 7e 7f a4 24 40 0e 	vmovdqu %ymm12,0xe40(%rsp)
  406a20:	00 00 
  406a22:	c5 7e 7f 8c 24 40 07 	vmovdqu %ymm9,0x740(%rsp)
  406a29:	00 00 
  406a2b:	c5 7e 6f 8c 24 00 02 	vmovdqu 0x200(%rsp),%ymm9
  406a32:	00 00 
  406a34:	c5 25 ef ae 00 4d 00 	vpxor  0x4d00(%rsi),%ymm11,%ymm13
  406a3b:	00 
  406a3c:	c4 41 2d ef e7       	vpxor  %ymm15,%ymm10,%ymm12
  406a41:	c4 41 05 ef d9       	vpxor  %ymm9,%ymm15,%ymm11
  406a46:	c5 7e 7f ac 24 60 0e 	vmovdqu %ymm13,0xe60(%rsp)
  406a4d:	00 00 
  406a4f:	c4 41 7d ef ea       	vpxor  %ymm10,%ymm0,%ymm13
  406a54:	c5 7e 6f 94 24 20 03 	vmovdqu 0x320(%rsp),%ymm10
  406a5b:	00 00 
  406a5d:	c4 41 35 eb cd       	vpor   %ymm13,%ymm9,%ymm9
  406a62:	c4 41 2d db ed       	vpand  %ymm13,%ymm10,%ymm13
  406a67:	c4 41 2d ef c9       	vpxor  %ymm9,%ymm10,%ymm9
  406a6c:	c4 41 15 ef eb       	vpxor  %ymm11,%ymm13,%ymm13
  406a71:	c4 41 25 db d9       	vpand  %ymm9,%ymm11,%ymm11
  406a76:	c4 41 05 ef f9       	vpxor  %ymm9,%ymm15,%ymm15
  406a7b:	c4 41 1d ef db       	vpxor  %ymm11,%ymm12,%ymm11
  406a80:	c4 41 15 eb e4       	vpor   %ymm12,%ymm13,%ymm12
  406a85:	c5 05 ef 96 80 4a 00 	vpxor  0x4a80(%rsi),%ymm15,%ymm10
  406a8c:	00 
  406a8d:	c4 41 35 ef fc       	vpxor  %ymm12,%ymm9,%ymm15
  406a92:	c5 15 ef 8e a0 48 00 	vpxor  0x48a0(%rsi),%ymm13,%ymm9
  406a99:	00 
  406a9a:	c5 7e 6f a4 24 20 05 	vmovdqu 0x520(%rsp),%ymm12
  406aa1:	00 00 
  406aa3:	c5 7e 7f 94 24 80 0e 	vmovdqu %ymm10,0xe80(%rsp)
  406aaa:	00 00 
  406aac:	c5 7e 6f 94 24 20 06 	vmovdqu 0x620(%rsp),%ymm10
  406ab3:	00 00 
  406ab5:	c5 7e 7f 8c 24 a0 0e 	vmovdqu %ymm9,0xea0(%rsp)
  406abc:	00 00 
  406abe:	c5 25 ef 8e 00 4f 00 	vpxor  0x4f00(%rsi),%ymm11,%ymm9
  406ac5:	00 
  406ac6:	c5 05 ef ae 20 4d 00 	vpxor  0x4d20(%rsi),%ymm15,%ymm13
  406acd:	00 
  406ace:	c4 41 7d ef fc       	vpxor  %ymm12,%ymm0,%ymm15
  406ad3:	c5 7e 6f 9c 24 20 02 	vmovdqu 0x220(%rsp),%ymm11
  406ada:	00 00 
  406adc:	c5 7e 7f 8c 24 60 07 	vmovdqu %ymm9,0x760(%rsp)
  406ae3:	00 00 
  406ae5:	c5 7e 7f ac 24 a0 0d 	vmovdqu %ymm13,0xda0(%rsp)
  406aec:	00 00 
  406aee:	c4 41 1d ef ca       	vpxor  %ymm10,%ymm12,%ymm9
  406af3:	c4 41 2d ef e3       	vpxor  %ymm11,%ymm10,%ymm12
  406af8:	c4 41 25 eb ef       	vpor   %ymm15,%ymm11,%ymm13
  406afd:	c5 7e 6f 9c 24 40 03 	vmovdqu 0x340(%rsp),%ymm11
  406b04:	00 00 
  406b06:	c4 41 25 ef ed       	vpxor  %ymm13,%ymm11,%ymm13
  406b0b:	c4 41 25 db ff       	vpand  %ymm15,%ymm11,%ymm15
  406b10:	c4 41 2d ef d5       	vpxor  %ymm13,%ymm10,%ymm10
  406b15:	c4 41 05 ef fc       	vpxor  %ymm12,%ymm15,%ymm15
  406b1a:	c4 41 1d db e5       	vpand  %ymm13,%ymm12,%ymm12
  406b1f:	c5 2d ef 9e a0 4a 00 	vpxor  0x4aa0(%rsi),%ymm10,%ymm11
  406b26:	00 
  406b27:	c5 7e 7f 9c 24 c0 0e 	vmovdqu %ymm11,0xec0(%rsp)
  406b2e:	00 00 
  406b30:	c4 41 35 ef dc       	vpxor  %ymm12,%ymm9,%ymm11
  406b35:	c4 41 05 eb c9       	vpor   %ymm9,%ymm15,%ymm9
  406b3a:	c5 7e 6f a4 24 40 05 	vmovdqu 0x540(%rsp),%ymm12
  406b41:	00 00 
  406b43:	c4 41 15 ef c9       	vpxor  %ymm9,%ymm13,%ymm9
  406b48:	c5 05 ef ae c0 48 00 	vpxor  0x48c0(%rsi),%ymm15,%ymm13
  406b4f:	00 
  406b50:	c4 41 7d ef d4       	vpxor  %ymm12,%ymm0,%ymm10
  406b55:	c5 35 ef be 40 4d 00 	vpxor  0x4d40(%rsi),%ymm9,%ymm15
  406b5c:	00 
  406b5d:	c5 25 ef 8e 20 4f 00 	vpxor  0x4f20(%rsi),%ymm11,%ymm9
  406b64:	00 
  406b65:	c5 7e 7f ac 24 80 09 	vmovdqu %ymm13,0x980(%rsp)
  406b6c:	00 00 
  406b6e:	c5 7e 6f ac 24 80 05 	vmovdqu 0x580(%rsp),%ymm13
  406b75:	00 00 
  406b77:	c5 7e 7f bc 24 00 0d 	vmovdqu %ymm15,0xd00(%rsp)
  406b7e:	00 00 
  406b80:	c5 7e 6f bc 24 c0 00 	vmovdqu 0xc0(%rsp),%ymm15
  406b87:	00 00 
  406b89:	c5 7e 7f 8c 24 60 08 	vmovdqu %ymm9,0x860(%rsp)
  406b90:	00 00 
  406b92:	c4 41 1d ef dd       	vpxor  %ymm13,%ymm12,%ymm11
  406b97:	c5 7e 6f a4 24 60 03 	vmovdqu 0x360(%rsp),%ymm12
  406b9e:	00 00 
  406ba0:	c4 41 15 ef cf       	vpxor  %ymm15,%ymm13,%ymm9
  406ba5:	c4 41 05 eb fa       	vpor   %ymm10,%ymm15,%ymm15
  406baa:	c4 41 1d db d2       	vpand  %ymm10,%ymm12,%ymm10
  406baf:	c4 41 1d ef ff       	vpxor  %ymm15,%ymm12,%ymm15
  406bb4:	c4 41 2d ef d1       	vpxor  %ymm9,%ymm10,%ymm10
  406bb9:	c4 41 15 ef ef       	vpxor  %ymm15,%ymm13,%ymm13
  406bbe:	c4 41 35 db cf       	vpand  %ymm15,%ymm9,%ymm9
  406bc3:	c5 15 ef a6 c0 4a 00 	vpxor  0x4ac0(%rsi),%ymm13,%ymm12
  406bca:	00 
  406bcb:	c5 7e 7f a4 24 a0 0b 	vmovdqu %ymm12,0xba0(%rsp)
  406bd2:	00 00 
  406bd4:	c4 41 25 ef e1       	vpxor  %ymm9,%ymm11,%ymm12
  406bd9:	c4 41 2d eb db       	vpor   %ymm11,%ymm10,%ymm11
  406bde:	c5 2d ef 96 e0 48 00 	vpxor  0x48e0(%rsi),%ymm10,%ymm10
  406be5:	00 
  406be6:	c5 1d ef a6 40 4f 00 	vpxor  0x4f40(%rsi),%ymm12,%ymm12
  406bed:	00 
  406bee:	c4 41 05 ef cb       	vpxor  %ymm11,%ymm15,%ymm9
  406bf3:	c5 7e 7f 94 24 a0 09 	vmovdqu %ymm10,0x9a0(%rsp)
  406bfa:	00 00 
  406bfc:	c5 7e 6f 94 24 60 05 	vmovdqu 0x560(%rsp),%ymm10
  406c03:	00 00 
  406c05:	c5 7e 6f bc 24 a0 05 	vmovdqu 0x5a0(%rsp),%ymm15
  406c0c:	00 00 
  406c0e:	c5 7e 7f a4 24 80 08 	vmovdqu %ymm12,0x880(%rsp)
  406c15:	00 00 
  406c17:	c5 35 ef 9e 60 4d 00 	vpxor  0x4d60(%rsi),%ymm9,%ymm11
  406c1e:	00 
  406c1f:	c4 41 7d ef ea       	vpxor  %ymm10,%ymm0,%ymm13
  406c24:	c4 41 2d ef e7       	vpxor  %ymm15,%ymm10,%ymm12
  406c29:	c5 7e 6f 8c 24 e0 00 	vmovdqu 0xe0(%rsp),%ymm9
  406c30:	00 00 
  406c32:	c5 7e 7f 9c 24 60 0c 	vmovdqu %ymm11,0xc60(%rsp)
  406c39:	00 00 
  406c3b:	c4 41 05 ef d9       	vpxor  %ymm9,%ymm15,%ymm11
  406c40:	c4 41 35 eb d5       	vpor   %ymm13,%ymm9,%ymm10
  406c45:	c5 7e 6f 8c 24 80 03 	vmovdqu 0x380(%rsp),%ymm9
  406c4c:	00 00 
  406c4e:	c4 41 35 ef d2       	vpxor  %ymm10,%ymm9,%ymm10
  406c53:	c4 41 35 db ed       	vpand  %ymm13,%ymm9,%ymm13
  406c58:	c4 41 05 ef fa       	vpxor  %ymm10,%ymm15,%ymm15
  406c5d:	c4 41 15 ef eb       	vpxor  %ymm11,%ymm13,%ymm13
  406c62:	c4 41 25 db da       	vpand  %ymm10,%ymm11,%ymm11
  406c67:	c5 05 ef 8e e0 4a 00 	vpxor  0x4ae0(%rsi),%ymm15,%ymm9
  406c6e:	00 
  406c6f:	c5 7e 7f 8c 24 c0 0b 	vmovdqu %ymm9,0xbc0(%rsp)
  406c76:	00 00 
  406c78:	c4 41 1d ef cb       	vpxor  %ymm11,%ymm12,%ymm9
  406c7d:	c4 41 15 eb e4       	vpor   %ymm12,%ymm13,%ymm12
  406c82:	c5 15 ef ae 00 49 00 	vpxor  0x4900(%rsi),%ymm13,%ymm13
  406c89:	00 
  406c8a:	c5 7e 6f 9c 24 c0 05 	vmovdqu 0x5c0(%rsp),%ymm11
  406c91:	00 00 
  406c93:	c4 41 2d ef d4       	vpxor  %ymm12,%ymm10,%ymm10
  406c98:	c5 35 ef 8e 60 4f 00 	vpxor  0x4f60(%rsi),%ymm9,%ymm9
  406c9f:	00 
  406ca0:	c5 7e 7f ac 24 c0 09 	vmovdqu %ymm13,0x9c0(%rsp)
  406ca7:	00 00 
  406ca9:	c5 7e 6f ac 24 00 01 	vmovdqu 0x100(%rsp),%ymm13
  406cb0:	00 00 
  406cb2:	c5 2d ef a6 80 4d 00 	vpxor  0x4d80(%rsi),%ymm10,%ymm12
  406cb9:	00 
  406cba:	c4 41 7d ef fb       	vpxor  %ymm11,%ymm0,%ymm15
  406cbf:	c5 7e 6f 94 24 40 06 	vmovdqu 0x640(%rsp),%ymm10
  406cc6:	00 00 
  406cc8:	c5 7e 7f 8c 24 a0 08 	vmovdqu %ymm9,0x8a0(%rsp)
  406ccf:	00 00 
  406cd1:	c5 7e 7f a4 24 80 0c 	vmovdqu %ymm12,0xc80(%rsp)
  406cd8:	00 00 
  406cda:	c4 41 25 ef ca       	vpxor  %ymm10,%ymm11,%ymm9
  406cdf:	c4 41 2d ef e5       	vpxor  %ymm13,%ymm10,%ymm12
  406ce4:	c4 41 15 eb df       	vpor   %ymm15,%ymm13,%ymm11
  406ce9:	c5 7e 6f ac 24 a0 03 	vmovdqu 0x3a0(%rsp),%ymm13
  406cf0:	00 00 
  406cf2:	c4 41 15 db ff       	vpand  %ymm15,%ymm13,%ymm15
  406cf7:	c4 41 15 ef db       	vpxor  %ymm11,%ymm13,%ymm11
  406cfc:	c4 41 05 ef ec       	vpxor  %ymm12,%ymm15,%ymm13
  406d01:	c4 41 2d ef fb       	vpxor  %ymm11,%ymm10,%ymm15
  406d06:	c4 41 1d db e3       	vpand  %ymm11,%ymm12,%ymm12
  406d0b:	c5 05 ef 96 00 4b 00 	vpxor  0x4b00(%rsi),%ymm15,%ymm10
  406d12:	00 
  406d13:	c5 7e 7f 94 24 e0 0b 	vmovdqu %ymm10,0xbe0(%rsp)
  406d1a:	00 00 
  406d1c:	c4 41 35 ef d4       	vpxor  %ymm12,%ymm9,%ymm10
  406d21:	c4 41 15 eb c9       	vpor   %ymm9,%ymm13,%ymm9
  406d26:	c4 41 25 ef f9       	vpxor  %ymm9,%ymm11,%ymm15
  406d2b:	c5 15 ef 9e 20 49 00 	vpxor  0x4920(%rsi),%ymm13,%ymm11
  406d32:	00 
  406d33:	c5 2d ef 8e 80 4f 00 	vpxor  0x4f80(%rsi),%ymm10,%ymm9
  406d3a:	00 
  406d3b:	c5 05 ef ae a0 4d 00 	vpxor  0x4da0(%rsi),%ymm15,%ymm13
  406d42:	00 
  406d43:	c5 7e 7f 9c 24 e0 09 	vmovdqu %ymm11,0x9e0(%rsp)
  406d4a:	00 00 
  406d4c:	c5 7e 6f 9c 24 c0 06 	vmovdqu 0x6c0(%rsp),%ymm11
  406d53:	00 00 
  406d55:	c5 7e 7f 8c 24 c0 08 	vmovdqu %ymm9,0x8c0(%rsp)
  406d5c:	00 00 
  406d5e:	c5 7e 6f 8c 24 60 06 	vmovdqu 0x660(%rsp),%ymm9
  406d65:	00 00 
  406d67:	c5 7e 6f bc 24 20 01 	vmovdqu 0x120(%rsp),%ymm15
  406d6e:	00 00 
  406d70:	c5 7e 7f ac 24 a0 0c 	vmovdqu %ymm13,0xca0(%rsp)
  406d77:	00 00 
  406d79:	c4 41 7d ef e3       	vpxor  %ymm11,%ymm0,%ymm12
  406d7e:	c4 41 25 ef e9       	vpxor  %ymm9,%ymm11,%ymm13
  406d83:	c4 41 35 ef d7       	vpxor  %ymm15,%ymm9,%ymm10
  406d88:	c5 7e 6f 9c 24 c0 03 	vmovdqu 0x3c0(%rsp),%ymm11
  406d8f:	00 00 
  406d91:	c4 41 05 eb fc       	vpor   %ymm12,%ymm15,%ymm15
  406d96:	c4 41 25 db e4       	vpand  %ymm12,%ymm11,%ymm12
  406d9b:	c4 41 25 ef ff       	vpxor  %ymm15,%ymm11,%ymm15
  406da0:	c4 41 1d ef e2       	vpxor  %ymm10,%ymm12,%ymm12
  406da5:	c4 41 35 ef cf       	vpxor  %ymm15,%ymm9,%ymm9
  406daa:	c4 41 2d db d7       	vpand  %ymm15,%ymm10,%ymm10
  406daf:	c5 35 ef 9e 20 4b 00 	vpxor  0x4b20(%rsi),%ymm9,%ymm11
  406db6:	00 
  406db7:	c5 7e 7f 9c 24 00 0c 	vmovdqu %ymm11,0xc00(%rsp)
  406dbe:	00 00 
  406dc0:	c4 41 15 ef da       	vpxor  %ymm10,%ymm13,%ymm11
  406dc5:	c4 41 1d eb ed       	vpor   %ymm13,%ymm12,%ymm13
  406dca:	c5 1d ef a6 40 49 00 	vpxor  0x4940(%rsi),%ymm12,%ymm12
  406dd1:	00 
  406dd2:	c5 7e 6f 94 24 a0 06 	vmovdqu 0x6a0(%rsp),%ymm10
  406dd9:	00 00 
  406ddb:	c4 41 05 ef cd       	vpxor  %ymm13,%ymm15,%ymm9
  406de0:	c5 25 ef 9e a0 4f 00 	vpxor  0x4fa0(%rsi),%ymm11,%ymm11
  406de7:	00 
  406de8:	c5 7e 6f ac 24 40 01 	vmovdqu 0x140(%rsp),%ymm13
  406def:	00 00 
  406df1:	c5 7e 7f a4 24 00 0a 	vmovdqu %ymm12,0xa00(%rsp)
  406df8:	00 00 
  406dfa:	c5 35 ef a6 c0 4d 00 	vpxor  0x4dc0(%rsi),%ymm9,%ymm12
  406e01:	00 
  406e02:	c4 41 7d ef fa       	vpxor  %ymm10,%ymm0,%ymm15
  406e07:	c4 41 65 ef cd       	vpxor  %ymm13,%ymm3,%ymm9
  406e0c:	c5 7e 7f 9c 24 e0 08 	vmovdqu %ymm11,0x8e0(%rsp)
  406e13:	00 00 
  406e15:	c5 7e 6f 9c 24 e0 03 	vmovdqu 0x3e0(%rsp),%ymm11
  406e1c:	00 00 
  406e1e:	c5 7e 7f a4 24 c0 0c 	vmovdqu %ymm12,0xcc0(%rsp)
  406e25:	00 00 
  406e27:	c5 2d ef e3          	vpxor  %ymm3,%ymm10,%ymm12
  406e2b:	c4 41 15 eb d7       	vpor   %ymm15,%ymm13,%ymm10
  406e30:	c4 41 25 db ff       	vpand  %ymm15,%ymm11,%ymm15
  406e35:	c4 41 25 ef ea       	vpxor  %ymm10,%ymm11,%ymm13
  406e3a:	c4 41 05 ef d1       	vpxor  %ymm9,%ymm15,%ymm10
  406e3f:	c4 41 35 db cd       	vpand  %ymm13,%ymm9,%ymm9
  406e44:	c4 c1 65 ef dd       	vpxor  %ymm13,%ymm3,%ymm3
  406e49:	c4 41 1d ef d9       	vpxor  %ymm9,%ymm12,%ymm11
  406e4e:	c4 41 2d eb e4       	vpor   %ymm12,%ymm10,%ymm12
  406e53:	c5 2d ef 96 60 49 00 	vpxor  0x4960(%rsi),%ymm10,%ymm10
  406e5a:	00 
  406e5b:	c5 e5 ef 9e 40 4b 00 	vpxor  0x4b40(%rsi),%ymm3,%ymm3
  406e62:	00 
  406e63:	c5 25 ef 9e c0 4f 00 	vpxor  0x4fc0(%rsi),%ymm11,%ymm11
  406e6a:	00 
  406e6b:	c4 41 15 ef ec       	vpxor  %ymm12,%ymm13,%ymm13
  406e70:	c5 7e 6f 8c 24 80 06 	vmovdqu 0x680(%rsp),%ymm9
  406e77:	00 00 
  406e79:	c5 7e 7f 94 24 20 0a 	vmovdqu %ymm10,0xa20(%rsp)
  406e80:	00 00 
  406e82:	c5 7e 7f 9c 24 80 07 	vmovdqu %ymm11,0x780(%rsp)
  406e89:	00 00 
  406e8b:	c5 7e 6f 9c 24 60 01 	vmovdqu 0x160(%rsp),%ymm11
  406e92:	00 00 
  406e94:	c5 fe 7f 9c 24 20 0c 	vmovdqu %ymm3,0xc20(%rsp)
  406e9b:	00 00 
  406e9d:	c5 15 ef be e0 4d 00 	vpxor  0x4de0(%rsi),%ymm13,%ymm15
  406ea4:	00 
  406ea5:	c4 41 7d ef d1       	vpxor  %ymm9,%ymm0,%ymm10
  406eaa:	c5 35 ef e5          	vpxor  %ymm5,%ymm9,%ymm12
  406eae:	c4 c1 55 ef db       	vpxor  %ymm11,%ymm5,%ymm3
  406eb3:	c5 7e 6f ac 24 00 04 	vmovdqu 0x400(%rsp),%ymm13
  406eba:	00 00 
  406ebc:	c5 7e 7f bc 24 e0 0c 	vmovdqu %ymm15,0xce0(%rsp)
  406ec3:	00 00 
  406ec5:	c4 41 25 eb fa       	vpor   %ymm10,%ymm11,%ymm15
  406eca:	c4 41 15 db da       	vpand  %ymm10,%ymm13,%ymm11
  406ecf:	c4 41 15 ef cf       	vpxor  %ymm15,%ymm13,%ymm9
  406ed4:	c5 25 ef eb          	vpxor  %ymm3,%ymm11,%ymm13
  406ed8:	c4 c1 55 ef e9       	vpxor  %ymm9,%ymm5,%ymm5
  406edd:	c4 c1 65 db d9       	vpand  %ymm9,%ymm3,%ymm3
  406ee2:	c5 d5 ef ae 60 4b 00 	vpxor  0x4b60(%rsi),%ymm5,%ymm5
  406ee9:	00 
  406eea:	c5 1d ef d3          	vpxor  %ymm3,%ymm12,%ymm10
  406eee:	c4 41 15 eb e4       	vpor   %ymm12,%ymm13,%ymm12
  406ef3:	c5 fe 6f 9c 24 80 01 	vmovdqu 0x180(%rsp),%ymm3
  406efa:	00 00 
  406efc:	c5 fe 7f ac 24 40 0c 	vmovdqu %ymm5,0xc40(%rsp)
  406f03:	00 00 
  406f05:	c5 fe 6f ac 24 80 04 	vmovdqu 0x480(%rsp),%ymm5
  406f0c:	00 00 
  406f0e:	c4 41 35 ef dc       	vpxor  %ymm12,%ymm9,%ymm11
  406f13:	c5 15 ef 8e 80 49 00 	vpxor  0x4980(%rsi),%ymm13,%ymm9
  406f1a:	00 
  406f1b:	c5 2d ef be e0 4f 00 	vpxor  0x4fe0(%rsi),%ymm10,%ymm15
  406f22:	00 
  406f23:	c5 7d ef e5          	vpxor  %ymm5,%ymm0,%ymm12
  406f27:	c5 25 ef ae 00 4c 00 	vpxor  0x4c00(%rsi),%ymm11,%ymm13
  406f2e:	00 
  406f2f:	c5 d5 ef ee          	vpxor  %ymm6,%ymm5,%ymm5
  406f33:	c5 7e 7f 8c 24 40 0a 	vmovdqu %ymm9,0xa40(%rsp)
  406f3a:	00 00 
  406f3c:	c5 7e 6f 8c 24 20 04 	vmovdqu 0x420(%rsp),%ymm9
  406f43:	00 00 
  406f45:	c5 7e 7f bc 24 a0 07 	vmovdqu %ymm15,0x7a0(%rsp)
  406f4c:	00 00 
  406f4e:	c5 4d ef fb          	vpxor  %ymm3,%ymm6,%ymm15
  406f52:	c4 c1 65 eb dc       	vpor   %ymm12,%ymm3,%ymm3
  406f57:	c4 41 35 db e4       	vpand  %ymm12,%ymm9,%ymm12
  406f5c:	c5 35 ef d3          	vpxor  %ymm3,%ymm9,%ymm10
  406f60:	c4 41 1d ef df       	vpxor  %ymm15,%ymm12,%ymm11
  406f65:	c4 c1 4d ef f2       	vpxor  %ymm10,%ymm6,%ymm6
  406f6a:	c4 c1 05 db da       	vpand  %ymm10,%ymm15,%ymm3
  406f6f:	c5 25 ef a6 a0 49 00 	vpxor  0x49a0(%rsi),%ymm11,%ymm12
  406f76:	00 
  406f77:	c5 7e 6f bc 24 40 04 	vmovdqu 0x440(%rsp),%ymm15
  406f7e:	00 00 
  406f80:	c5 4d ef 8e 80 4b 00 	vpxor  0x4b80(%rsi),%ymm6,%ymm9
  406f87:	00 
  406f88:	c5 d5 ef f3          	vpxor  %ymm3,%ymm5,%ymm6
  406f8c:	c5 a5 eb ed          	vpor   %ymm5,%ymm11,%ymm5
  406f90:	c4 c1 7d ef df       	vpxor  %ymm15,%ymm0,%ymm3
  406f95:	c5 7e 7f 8c 24 60 0b 	vmovdqu %ymm9,0xb60(%rsp)
  406f9c:	00 00 
  406f9e:	c5 7e 6f 8c 24 80 02 	vmovdqu 0x280(%rsp),%ymm9
  406fa5:	00 00 
  406fa7:	c5 7e 7f a4 24 60 0a 	vmovdqu %ymm12,0xa60(%rsp)
  406fae:	00 00 
  406fb0:	c5 2d ef d5          	vpxor  %ymm5,%ymm10,%ymm10
  406fb4:	c5 4d ef 9e 00 4e 00 	vpxor  0x4e00(%rsi),%ymm6,%ymm11
  406fbb:	00 
  406fbc:	c5 85 ef f7          	vpxor  %ymm7,%ymm15,%ymm6
  406fc0:	c5 fe 6f ac 24 a0 01 	vmovdqu 0x1a0(%rsp),%ymm5
  406fc7:	00 00 
  406fc9:	c5 2d ef 96 20 4c 00 	vpxor  0x4c20(%rsi),%ymm10,%ymm10
  406fd0:	00 
  406fd1:	c5 55 eb fb          	vpor   %ymm3,%ymm5,%ymm15
  406fd5:	c5 45 ef e5          	vpxor  %ymm5,%ymm7,%ymm12
  406fd9:	c5 b5 db db          	vpand  %ymm3,%ymm9,%ymm3
  406fdd:	c4 41 35 ef cf       	vpxor  %ymm15,%ymm9,%ymm9
  406fe2:	c5 7e 6f bc 24 40 02 	vmovdqu 0x240(%rsp),%ymm15
  406fe9:	00 00 
  406feb:	c4 c1 65 ef ec       	vpxor  %ymm12,%ymm3,%ymm5
  406ff0:	c4 c1 1d db d9       	vpand  %ymm9,%ymm12,%ymm3
  406ff5:	c4 c1 45 ef f9       	vpxor  %ymm9,%ymm7,%ymm7
  406ffa:	c5 55 eb e6          	vpor   %ymm6,%ymm5,%ymm12
  406ffe:	c5 cd ef db          	vpxor  %ymm3,%ymm6,%ymm3
  407002:	c5 c5 ef be a0 4b 00 	vpxor  0x4ba0(%rsi),%ymm7,%ymm7
  407009:	00 
  40700a:	c5 d5 ef ae c0 49 00 	vpxor  0x49c0(%rsi),%ymm5,%ymm5
  407011:	00 
  407012:	c4 41 35 ef cc       	vpxor  %ymm12,%ymm9,%ymm9
  407017:	c5 fe 6f 74 24 60    	vmovdqu 0x60(%rsp),%ymm6
  40701d:	c5 fe 7f bc 24 40 0b 	vmovdqu %ymm7,0xb40(%rsp)
  407024:	00 00 
  407026:	c5 fe 7f ac 24 40 09 	vmovdqu %ymm5,0x940(%rsp)
  40702d:	00 00 
  40702f:	c5 35 ef a6 40 4c 00 	vpxor  0x4c40(%rsi),%ymm9,%ymm12
  407036:	00 
  407037:	c5 fd ef ee          	vpxor  %ymm6,%ymm0,%ymm5
  40703b:	c4 c1 4d ef f8       	vpxor  %ymm8,%ymm6,%ymm7
  407040:	c5 65 ef 8e 20 4e 00 	vpxor  0x4e20(%rsi),%ymm3,%ymm9
  407047:	00 
  407048:	c5 fe 6f b4 24 c0 01 	vmovdqu 0x1c0(%rsp),%ymm6
  40704f:	00 00 
  407051:	c5 bd ef de          	vpxor  %ymm6,%ymm8,%ymm3
  407055:	c5 cd eb f5          	vpor   %ymm5,%ymm6,%ymm6
  407059:	c5 85 db ed          	vpand  %ymm5,%ymm15,%ymm5
  40705d:	c5 85 ef f6          	vpxor  %ymm6,%ymm15,%ymm6
  407061:	c5 55 ef fb          	vpxor  %ymm3,%ymm5,%ymm15
  407065:	c5 3d ef c6          	vpxor  %ymm6,%ymm8,%ymm8
  407069:	c5 bd ef ae c0 4b 00 	vpxor  0x4bc0(%rsi),%ymm8,%ymm5
  407070:	00 
  407071:	c5 65 db c6          	vpand  %ymm6,%ymm3,%ymm8
  407075:	c5 fe 7f ac 24 00 0b 	vmovdqu %ymm5,0xb00(%rsp)
  40707c:	00 00 
  40707e:	c5 fe 6f ac 24 60 04 	vmovdqu 0x460(%rsp),%ymm5
  407085:	00 00 
  407087:	c4 41 45 ef c0       	vpxor  %ymm8,%ymm7,%ymm8
  40708c:	c5 85 eb ff          	vpor   %ymm7,%ymm15,%ymm7
  407090:	c5 05 ef be e0 49 00 	vpxor  0x49e0(%rsi),%ymm15,%ymm15
  407097:	00 
  407098:	c5 3d ef 86 40 4e 00 	vpxor  0x4e40(%rsi),%ymm8,%ymm8
  40709f:	00 
  4070a0:	c5 cd ef df          	vpxor  %ymm7,%ymm6,%ymm3
  4070a4:	c5 fd ef f5          	vpxor  %ymm5,%ymm0,%ymm6
  4070a8:	c4 c1 55 ef fd       	vpxor  %ymm13,%ymm5,%ymm7
  4070ad:	c4 c1 15 ef eb       	vpxor  %ymm11,%ymm13,%ymm5
  4070b2:	c5 e5 ef 9e 60 4c 00 	vpxor  0x4c60(%rsi),%ymm3,%ymm3
  4070b9:	00 
  4070ba:	c5 25 eb de          	vpor   %ymm6,%ymm11,%ymm11
  4070be:	c5 7e 7f bc 24 00 09 	vmovdqu %ymm15,0x900(%rsp)
  4070c5:	00 00 
  4070c7:	c5 7e 6f bc 24 60 02 	vmovdqu 0x260(%rsp),%ymm15
  4070ce:	00 00 
  4070d0:	c5 85 db f6          	vpand  %ymm6,%ymm15,%ymm6
  4070d4:	c4 41 05 ef db       	vpxor  %ymm11,%ymm15,%ymm11
  4070d9:	c5 cd ef f5          	vpxor  %ymm5,%ymm6,%ymm6
  4070dd:	c4 c1 55 db eb       	vpand  %ymm11,%ymm5,%ymm5
  4070e2:	c4 41 15 ef eb       	vpxor  %ymm11,%ymm13,%ymm13
  4070e7:	c5 c5 ef ed          	vpxor  %ymm5,%ymm7,%ymm5
  4070eb:	c5 cd eb ff          	vpor   %ymm7,%ymm6,%ymm7
  4070ef:	c5 15 ef ae e0 53 00 	vpxor  0x53e0(%rsi),%ymm13,%ymm13
  4070f6:	00 
  4070f7:	c5 d5 ef ae 60 56 00 	vpxor  0x5660(%rsi),%ymm5,%ymm5
  4070fe:	00 
  4070ff:	c5 a5 ef ff          	vpxor  %ymm7,%ymm11,%ymm7
  407103:	c5 4d ef 9e 00 50 00 	vpxor  0x5000(%rsi),%ymm6,%ymm11
  40710a:	00 
  40710b:	c4 c1 7d ef f6       	vpxor  %ymm14,%ymm0,%ymm6
  407110:	c5 fe 7f ac 24 c0 07 	vmovdqu %ymm5,0x7c0(%rsp)
  407117:	00 00 
  407119:	c5 7e 7f 6c 24 40    	vmovdqu %ymm13,0x40(%rsp)
  40711f:	c5 7e 7f 9c 24 20 09 	vmovdqu %ymm11,0x920(%rsp)
  407126:	00 00 
  407128:	c5 45 ef 9e 80 54 00 	vpxor  0x5480(%rsi),%ymm7,%ymm11
  40712f:	00 
  407130:	c5 35 eb fe          	vpor   %ymm6,%ymm9,%ymm15
  407134:	c5 7d ef ec          	vpxor  %ymm4,%ymm0,%ymm13
  407138:	c5 7e 7f 9c 24 20 0d 	vmovdqu %ymm11,0xd20(%rsp)
  40713f:	00 00 
  407141:	c4 41 0d ef da       	vpxor  %ymm10,%ymm14,%ymm11
  407146:	c4 41 2d ef f1       	vpxor  %ymm9,%ymm10,%ymm14
  40714b:	c5 7e 6f 8c 24 a0 02 	vmovdqu 0x2a0(%rsp),%ymm9
  407152:	00 00 
  407154:	c4 c1 35 ef ff       	vpxor  %ymm15,%ymm9,%ymm7
  407159:	c5 b5 db ee          	vpand  %ymm6,%ymm9,%ymm5
  40715d:	c5 7e 6f bc 24 00 0e 	vmovdqu 0xe00(%rsp),%ymm15
  407164:	00 00 
  407166:	c5 2d ef d7          	vpxor  %ymm7,%ymm10,%ymm10
  40716a:	c4 c1 55 ef ee       	vpxor  %ymm14,%ymm5,%ymm5
  40716f:	c5 0d db f7          	vpand  %ymm7,%ymm14,%ymm14
  407173:	c5 2d ef 8e 00 52 00 	vpxor  0x5200(%rsi),%ymm10,%ymm9
  40717a:	00 
  40717b:	c5 7d ef d2          	vpxor  %ymm2,%ymm0,%ymm10
  40717f:	c4 41 25 ef f6       	vpxor  %ymm14,%ymm11,%ymm14
  407184:	c5 7e 7f 8c 24 20 0b 	vmovdqu %ymm9,0xb20(%rsp)
  40718b:	00 00 
  40718d:	c4 41 55 eb cb       	vpor   %ymm11,%ymm5,%ymm9
  407192:	c5 d5 ef ae 20 50 00 	vpxor  0x5020(%rsi),%ymm5,%ymm5
  407199:	00 
  40719a:	c5 8d ef b6 80 56 00 	vpxor  0x5680(%rsi),%ymm14,%ymm6
  4071a1:	00 
  4071a2:	c4 41 1d ef f0       	vpxor  %ymm8,%ymm12,%ymm14
  4071a7:	c4 c1 45 ef f9       	vpxor  %ymm9,%ymm7,%ymm7
  4071ac:	c4 41 6d ef cc       	vpxor  %ymm12,%ymm2,%ymm9
  4071b1:	c4 c1 3d eb d2       	vpor   %ymm10,%ymm8,%ymm2
  4071b6:	c5 fe 7f ac 24 60 09 	vmovdqu %ymm5,0x960(%rsp)
  4071bd:	00 00 
  4071bf:	c5 fe 7f b4 24 e0 07 	vmovdqu %ymm6,0x7e0(%rsp)
  4071c6:	00 00 
  4071c8:	c5 75 ef c2          	vpxor  %ymm2,%ymm1,%ymm8
  4071cc:	c5 c5 ef ae a0 54 00 	vpxor  0x54a0(%rsi),%ymm7,%ymm5
  4071d3:	00 
  4071d4:	c4 c1 75 db fa       	vpand  %ymm10,%ymm1,%ymm7
  4071d9:	c4 c1 1d ef c8       	vpxor  %ymm8,%ymm12,%ymm1
  4071de:	c4 c1 45 ef fe       	vpxor  %ymm14,%ymm7,%ymm7
  4071e3:	c5 75 ef a6 20 52 00 	vpxor  0x5220(%rsi),%ymm1,%ymm12
  4071ea:	00 
  4071eb:	c4 c1 0d db c8       	vpand  %ymm8,%ymm14,%ymm1
  4071f0:	c5 5d ef f3          	vpxor  %ymm3,%ymm4,%ymm14
  4071f4:	c5 c5 ef 96 40 50 00 	vpxor  0x5040(%rsi),%ymm7,%ymm2
  4071fb:	00 
  4071fc:	c5 fe 6f a4 24 e0 01 	vmovdqu 0x1e0(%rsp),%ymm4
  407203:	00 00 
  407205:	c5 7e 7f a4 24 80 0b 	vmovdqu %ymm12,0xb80(%rsp)
  40720c:	00 00 
  40720e:	c5 7e 6f a4 24 80 0e 	vmovdqu 0xe80(%rsp),%ymm12
  407215:	00 00 
  407217:	c5 fe 7f 94 24 80 0a 	vmovdqu %ymm2,0xa80(%rsp)
  40721e:	00 00 
  407220:	c5 35 ef d1          	vpxor  %ymm1,%ymm9,%ymm10
  407224:	c4 41 45 eb c9       	vpor   %ymm9,%ymm7,%ymm9
  407229:	c4 c1 05 db fd       	vpand  %ymm13,%ymm15,%ymm7
  40722e:	c5 2d ef 9e a0 56 00 	vpxor  0x56a0(%rsi),%ymm10,%ymm11
  407235:	00 
  407236:	c4 c1 3d ef f1       	vpxor  %ymm9,%ymm8,%ymm6
  40723b:	c4 41 5d eb cd       	vpor   %ymm13,%ymm4,%ymm9
  407240:	c5 65 ef c4          	vpxor  %ymm4,%ymm3,%ymm8
  407244:	c5 7e 7f 9c 24 00 08 	vmovdqu %ymm11,0x800(%rsp)
  40724b:	00 00 
  40724d:	c4 c1 05 ef e1       	vpxor  %ymm9,%ymm15,%ymm4
  407252:	c5 cd ef 8e c0 54 00 	vpxor  0x54c0(%rsi),%ymm6,%ymm1
  407259:	00 
  40725a:	c4 c1 45 ef f0       	vpxor  %ymm8,%ymm7,%ymm6
  40725f:	c5 bd db fc          	vpand  %ymm4,%ymm8,%ymm7
  407263:	c5 e5 ef dc          	vpxor  %ymm4,%ymm3,%ymm3
  407267:	c4 c1 4d eb d6       	vpor   %ymm14,%ymm6,%ymm2
  40726c:	c5 7e 6f 84 24 40 0e 	vmovdqu 0xe40(%rsp),%ymm8
  407273:	00 00 
  407275:	c5 0d ef d7          	vpxor  %ymm7,%ymm14,%ymm10
  407279:	c5 4d ef b6 60 50 00 	vpxor  0x5060(%rsi),%ymm6,%ymm14
  407280:	00 
  407281:	c5 65 ef 8e 40 52 00 	vpxor  0x5240(%rsi),%ymm3,%ymm9
  407288:	00 
  407289:	c5 dd ef da          	vpxor  %ymm2,%ymm4,%ymm3
  40728d:	c4 c1 7d ef e4       	vpxor  %ymm12,%ymm0,%ymm4
  407292:	c5 2d ef 9e c0 56 00 	vpxor  0x56c0(%rsi),%ymm10,%ymm11
  407299:	00 
  40729a:	c5 fe 6f 74 24 20    	vmovdqu 0x20(%rsp),%ymm6
  4072a0:	c5 fe 6f bc 24 00 07 	vmovdqu 0x700(%rsp),%ymm7
  4072a7:	00 00 
  4072a9:	c5 7e 7f 8c 24 80 0d 	vmovdqu %ymm9,0xd80(%rsp)
  4072b0:	00 00 
  4072b2:	c5 7e 7f 9c 24 20 08 	vmovdqu %ymm11,0x820(%rsp)
  4072b9:	00 00 
  4072bb:	c5 7e 7f b4 24 a0 0a 	vmovdqu %ymm14,0xaa0(%rsp)
  4072c2:	00 00 
  4072c4:	c5 9d ef d6          	vpxor  %ymm6,%ymm12,%ymm2
  4072c8:	c5 45 eb e4          	vpor   %ymm4,%ymm7,%ymm12
  4072cc:	c5 4d ef ef          	vpxor  %ymm7,%ymm6,%ymm13
  4072d0:	c5 65 ef 8e e0 54 00 	vpxor  0x54e0(%rsi),%ymm3,%ymm9
  4072d7:	00 
  4072d8:	c5 bd db dc          	vpand  %ymm4,%ymm8,%ymm3
  4072dc:	c4 41 3d ef fc       	vpxor  %ymm12,%ymm8,%ymm15
  4072e1:	c4 c1 65 ef e5       	vpxor  %ymm13,%ymm3,%ymm4
  4072e6:	c4 41 4d ef d7       	vpxor  %ymm15,%ymm6,%ymm10
  4072eb:	c4 41 15 db f7       	vpand  %ymm15,%ymm13,%ymm14
  4072f0:	c5 7e 6f ac 24 a0 0e 	vmovdqu 0xea0(%rsp),%ymm13
  4072f7:	00 00 
  4072f9:	c5 2d ef 9e 60 52 00 	vpxor  0x5260(%rsi),%ymm10,%ymm11
  407300:	00 
  407301:	c5 dd eb fa          	vpor   %ymm2,%ymm4,%ymm7
  407305:	c4 c1 6d ef de       	vpxor  %ymm14,%ymm2,%ymm3
  40730a:	c5 5d ef 86 80 50 00 	vpxor  0x5080(%rsi),%ymm4,%ymm8
  407311:	00 
  407312:	c5 7e 6f 94 24 c0 0e 	vmovdqu 0xec0(%rsp),%ymm10
  407319:	00 00 
  40731b:	c5 7e 7f 9c 24 60 0d 	vmovdqu %ymm11,0xd60(%rsp)
  407322:	00 00 
  407324:	c5 7e 6f 9c 24 e0 0d 	vmovdqu 0xde0(%rsp),%ymm11
  40732b:	00 00 
  40732d:	c5 7e 7f 84 24 c0 0a 	vmovdqu %ymm8,0xac0(%rsp)
  407334:	00 00 
  407336:	c5 85 ef d7          	vpxor  %ymm7,%ymm15,%ymm2
  40733a:	c4 41 7d ef e2       	vpxor  %ymm10,%ymm0,%ymm12
  40733f:	c5 e5 ef b6 e0 56 00 	vpxor  0x56e0(%rsi),%ymm3,%ymm6
  407346:	00 
  407347:	c5 ed ef be 00 55 00 	vpxor  0x5500(%rsi),%ymm2,%ymm7
  40734e:	00 
  40734f:	c4 41 25 eb f4       	vpor   %ymm12,%ymm11,%ymm14
  407354:	c4 41 15 db fc       	vpand  %ymm12,%ymm13,%ymm15
  407359:	c5 fe 6f 94 24 e0 06 	vmovdqu 0x6e0(%rsp),%ymm2
  407360:	00 00 
  407362:	c5 fe 7f b4 24 40 08 	vmovdqu %ymm6,0x840(%rsp)
  407369:	00 00 
  40736b:	c4 c1 15 ef f6       	vpxor  %ymm14,%ymm13,%ymm6
  407370:	c4 c1 6d ef e3       	vpxor  %ymm11,%ymm2,%ymm4
  407375:	c5 2d ef c2          	vpxor  %ymm2,%ymm10,%ymm8
  407379:	c5 05 ef d4          	vpxor  %ymm4,%ymm15,%ymm10
  40737d:	c5 dd db e6          	vpand  %ymm6,%ymm4,%ymm4
  407381:	c5 6d ef fe          	vpxor  %ymm6,%ymm2,%ymm15
  407385:	c5 fe 6f 94 24 60 0e 	vmovdqu 0xe60(%rsp),%ymm2
  40738c:	00 00 
  40738e:	c5 bd ef e4          	vpxor  %ymm4,%ymm8,%ymm4
  407392:	c4 41 2d eb c0       	vpor   %ymm8,%ymm10,%ymm8
  407397:	c5 85 ef 9e 80 52 00 	vpxor  0x5280(%rsi),%ymm15,%ymm3
  40739e:	00 
  40739f:	c5 2d ef 9e a0 50 00 	vpxor  0x50a0(%rsi),%ymm10,%ymm11
  4073a6:	00 
  4073a7:	c5 7e 6f 96 00 57 00 	vmovdqu 0x5700(%rsi),%ymm10
  4073ae:	00 
  4073af:	c4 41 4d ef e0       	vpxor  %ymm8,%ymm6,%ymm12
  4073b4:	c5 fe 7f 9c 24 40 0d 	vmovdqu %ymm3,0xd40(%rsp)
  4073bb:	00 00 
  4073bd:	c5 7e 7f 9c 24 e0 0a 	vmovdqu %ymm11,0xae0(%rsp)
  4073c4:	00 00 
  4073c6:	c5 fe 6f 9c 24 c0 0d 	vmovdqu 0xdc0(%rsp),%ymm3
  4073cd:	00 00 
  4073cf:	c5 fe 6f b4 24 20 0e 	vmovdqu 0xe20(%rsp),%ymm6
  4073d6:	00 00 
  4073d8:	c5 1d ef 86 20 55 00 	vpxor  0x5520(%rsi),%ymm12,%ymm8
  4073df:	00 
  4073e0:	c5 7e 6f a4 24 a0 0b 	vmovdqu 0xba0(%rsp),%ymm12
  4073e7:	00 00 
  4073e9:	c5 fe 7f bc 24 e0 0d 	vmovdqu %ymm7,0xde0(%rsp)
  4073f0:	00 00 
  4073f2:	c5 fe 6f bc 24 20 07 	vmovdqu 0x720(%rsp),%ymm7
  4073f9:	00 00 
  4073fb:	c5 7e 7f 8c 24 c0 0d 	vmovdqu %ymm9,0xdc0(%rsp)
  407402:	00 00 
  407404:	c5 7e 7f 84 24 00 0e 	vmovdqu %ymm8,0xe00(%rsp)
  40740b:	00 00 
  40740d:	c5 7e 6f 84 24 80 09 	vmovdqu 0x980(%rsp),%ymm8
  407414:	00 00 
  407416:	c4 41 7d ef cc       	vpxor  %ymm12,%ymm0,%ymm9
  40741b:	c4 41 5d ef ea       	vpxor  %ymm10,%ymm4,%ymm13
  407420:	c5 9d ef e3          	vpxor  %ymm3,%ymm12,%ymm4
  407424:	c4 41 45 eb d9       	vpor   %ymm9,%ymm7,%ymm11
  407429:	c4 41 3d db d1       	vpand  %ymm9,%ymm8,%ymm10
  40742e:	c5 7e 7f ac 24 20 0e 	vmovdqu %ymm13,0xe20(%rsp)
  407435:	00 00 
  407437:	c5 65 ef ef          	vpxor  %ymm7,%ymm3,%ymm13
  40743b:	c4 41 3d ef fb       	vpxor  %ymm11,%ymm8,%ymm15
  407440:	c4 c1 2d ef fd       	vpxor  %ymm13,%ymm10,%ymm7
  407445:	c4 41 15 db f7       	vpand  %ymm15,%ymm13,%ymm14
  40744a:	c4 c1 65 ef df       	vpxor  %ymm15,%ymm3,%ymm3
  40744f:	c5 7e 6f 94 24 c0 0b 	vmovdqu 0xbc0(%rsp),%ymm10
  407456:	00 00 
  407458:	c4 41 5d ef c6       	vpxor  %ymm14,%ymm4,%ymm8
  40745d:	c5 c5 eb e4          	vpor   %ymm4,%ymm7,%ymm4
  407461:	c5 65 ef a6 a0 52 00 	vpxor  0x52a0(%rsi),%ymm3,%ymm12
  407468:	00 
  407469:	c5 c5 ef 9e c0 50 00 	vpxor  0x50c0(%rsi),%ymm7,%ymm3
  407470:	00 
  407471:	c5 3d ef 9e 20 57 00 	vpxor  0x5720(%rsi),%ymm8,%ymm11
  407478:	00 
  407479:	c5 05 ef ec          	vpxor  %ymm4,%ymm15,%ymm13
  40747d:	c4 41 7d ef fa       	vpxor  %ymm10,%ymm0,%ymm15
  407482:	c5 2d ef d6          	vpxor  %ymm6,%ymm10,%ymm10
  407486:	c5 7e 6f b4 24 40 07 	vmovdqu 0x740(%rsp),%ymm14
  40748d:	00 00 
  40748f:	c5 fe 6f a4 24 a0 09 	vmovdqu 0x9a0(%rsp),%ymm4
  407496:	00 00 
  407498:	c5 fe 7f 9c 24 40 0e 	vmovdqu %ymm3,0xe40(%rsp)
  40749f:	00 00 
  4074a1:	c5 7e 7f 9c 24 60 0e 	vmovdqu %ymm11,0xe60(%rsp)
  4074a8:	00 00 
  4074aa:	c4 c1 0d eb df       	vpor   %ymm15,%ymm14,%ymm3
  4074af:	c5 15 ef 8e 40 55 00 	vpxor  0x5540(%rsi),%ymm13,%ymm9
  4074b6:	00 
  4074b7:	c4 41 4d ef de       	vpxor  %ymm14,%ymm6,%ymm11
  4074bc:	c4 41 5d db ef       	vpand  %ymm15,%ymm4,%ymm13
  4074c1:	c5 dd ef fb          	vpxor  %ymm3,%ymm4,%ymm7
  4074c5:	c5 7e 7f 8c 24 c0 06 	vmovdqu %ymm9,0x6c0(%rsp)
  4074cc:	00 00 
  4074ce:	c5 7e 6f bc 24 e0 0b 	vmovdqu 0xbe0(%rsp),%ymm15
  4074d5:	00 00 
  4074d7:	c4 41 15 ef cb       	vpxor  %ymm11,%ymm13,%ymm9
  4074dc:	c5 cd ef f7          	vpxor  %ymm7,%ymm6,%ymm6
  4074e0:	c5 a5 db e7          	vpand  %ymm7,%ymm11,%ymm4
  4074e4:	c5 b5 ef 9e e0 50 00 	vpxor  0x50e0(%rsi),%ymm9,%ymm3
  4074eb:	00 
  4074ec:	c5 4d ef ae c0 52 00 	vpxor  0x52c0(%rsi),%ymm6,%ymm13
  4074f3:	00 
  4074f4:	c4 c1 35 eb f2       	vpor   %ymm10,%ymm9,%ymm6
  4074f9:	c5 2d ef f4          	vpxor  %ymm4,%ymm10,%ymm14
  4074fd:	c5 fe 6f a4 24 60 07 	vmovdqu 0x760(%rsp),%ymm4
  407504:	00 00 
  407506:	c5 fe 7f 9c 24 80 0e 	vmovdqu %ymm3,0xe80(%rsp)
  40750d:	00 00 
  40750f:	c5 fe 6f 9c 24 c0 09 	vmovdqu 0x9c0(%rsp),%ymm3
  407516:	00 00 
  407518:	c5 45 ef c6          	vpxor  %ymm6,%ymm7,%ymm8
  40751c:	c4 c1 7d ef f7       	vpxor  %ymm15,%ymm0,%ymm6
  407521:	c5 0d ef 96 40 57 00 	vpxor  0x5740(%rsi),%ymm14,%ymm10
  407528:	00 
  407529:	c5 6d ef cc          	vpxor  %ymm4,%ymm2,%ymm9
  40752d:	c5 3d ef 9e 60 55 00 	vpxor  0x5560(%rsi),%ymm8,%ymm11
  407534:	00 
  407535:	c5 dd eb fe          	vpor   %ymm6,%ymm4,%ymm7
  407539:	c5 05 ef c2          	vpxor  %ymm2,%ymm15,%ymm8
  40753d:	c5 7e 7f 54 24 60    	vmovdqu %ymm10,0x60(%rsp)
  407543:	c5 7e 7f 9c 24 a0 0e 	vmovdqu %ymm11,0xea0(%rsp)
  40754a:	00 00 
  40754c:	c5 7e 6f bc 24 00 0c 	vmovdqu 0xc00(%rsp),%ymm15
  407553:	00 00 
  407555:	c5 65 db de          	vpand  %ymm6,%ymm3,%ymm11
  407559:	c5 65 ef d7          	vpxor  %ymm7,%ymm3,%ymm10
  40755d:	c4 41 25 ef f1       	vpxor  %ymm9,%ymm11,%ymm14
  407562:	c4 c1 6d ef d2       	vpxor  %ymm10,%ymm2,%ymm2
  407567:	c4 c1 0d eb f0       	vpor   %ymm8,%ymm14,%ymm6
  40756c:	c5 ed ef a6 e0 52 00 	vpxor  0x52e0(%rsi),%ymm2,%ymm4
  407573:	00 
  407574:	c4 c1 35 db d2       	vpand  %ymm10,%ymm9,%ymm2
  407579:	c5 8d ef 9e 00 51 00 	vpxor  0x5100(%rsi),%ymm14,%ymm3
  407580:	00 
  407581:	c5 ad ef fe          	vpxor  %ymm6,%ymm10,%ymm7
  407585:	c5 fe 7f a4 24 c0 0e 	vmovdqu %ymm4,0xec0(%rsp)
  40758c:	00 00 
  40758e:	c5 fe 6f a4 24 60 08 	vmovdqu 0x860(%rsp),%ymm4
  407595:	00 00 
  407597:	c5 fe 6f b4 24 e0 09 	vmovdqu 0x9e0(%rsp),%ymm6
  40759e:	00 00 
  4075a0:	c5 fe 7f 9c 24 e0 0e 	vmovdqu %ymm3,0xee0(%rsp)
  4075a7:	00 00 
  4075a9:	c5 3d ef da          	vpxor  %ymm2,%ymm8,%ymm11
  4075ad:	c5 45 ef 8e 80 55 00 	vpxor  0x5580(%rsi),%ymm7,%ymm9
  4075b4:	00 
  4075b5:	c4 c1 7d ef d7       	vpxor  %ymm15,%ymm0,%ymm2
  4075ba:	c5 25 ef 86 60 57 00 	vpxor  0x5760(%rsi),%ymm11,%ymm8
  4075c1:	00 
  4075c2:	c5 7e 6f 9c 24 a0 0d 	vmovdqu 0xda0(%rsp),%ymm11
  4075c9:	00 00 
  4075cb:	c5 7e 7f 8c 24 00 0f 	vmovdqu %ymm9,0xf00(%rsp)
  4075d2:	00 00 
  4075d4:	c5 5d eb ca          	vpor   %ymm2,%ymm4,%ymm9
  4075d8:	c5 7e 7f 84 24 80 00 	vmovdqu %ymm8,0x80(%rsp)
  4075df:	00 00 
  4075e1:	c4 c1 05 ef fb       	vpxor  %ymm11,%ymm15,%ymm7
  4075e6:	c5 a5 ef dc          	vpxor  %ymm4,%ymm11,%ymm3
  4075ea:	c5 4d db c2          	vpand  %ymm2,%ymm6,%ymm8
  4075ee:	c4 41 4d ef f9       	vpxor  %ymm9,%ymm6,%ymm15
  4075f3:	c5 bd ef e3          	vpxor  %ymm3,%ymm8,%ymm4
  4075f7:	c4 c1 65 db df       	vpand  %ymm15,%ymm3,%ymm3
  4075fc:	c4 41 25 ef d7       	vpxor  %ymm15,%ymm11,%ymm10
  407601:	c5 7e 6f 84 24 20 0c 	vmovdqu 0xc20(%rsp),%ymm8
  407608:	00 00 
  40760a:	c5 7e 6f 9c 24 80 08 	vmovdqu 0x880(%rsp),%ymm11
  407611:	00 00 
  407613:	c5 45 ef cb          	vpxor  %ymm3,%ymm7,%ymm9
  407617:	c5 dd eb ff          	vpor   %ymm7,%ymm4,%ymm7
  40761b:	c5 2d ef b6 00 53 00 	vpxor  0x5300(%rsi),%ymm10,%ymm14
  407622:	00 
  407623:	c4 41 7d ef d0       	vpxor  %ymm8,%ymm0,%ymm10
  407628:	c5 dd ef 96 20 51 00 	vpxor  0x5120(%rsi),%ymm4,%ymm2
  40762f:	00 
  407630:	c5 85 ef f7          	vpxor  %ymm7,%ymm15,%ymm6
  407634:	c5 b5 ef be 80 57 00 	vpxor  0x5780(%rsi),%ymm9,%ymm7
  40763b:	00 
  40763c:	c4 41 25 eb fa       	vpor   %ymm10,%ymm11,%ymm15
  407641:	c5 7e 7f b4 24 20 0f 	vmovdqu %ymm14,0xf20(%rsp)
  407648:	00 00 
  40764a:	c5 7e 6f b4 24 00 0a 	vmovdqu 0xa00(%rsp),%ymm14
  407651:	00 00 
  407653:	c5 fe 7f 94 24 40 0f 	vmovdqu %ymm2,0xf40(%rsp)
  40765a:	00 00 
  40765c:	c5 fe 7f bc 24 a0 00 	vmovdqu %ymm7,0xa0(%rsp)
  407663:	00 00 
  407665:	c5 cd ef 9e a0 55 00 	vpxor  0x55a0(%rsi),%ymm6,%ymm3
  40766c:	00 
  40766d:	c4 c1 0d db e2       	vpand  %ymm10,%ymm14,%ymm4
  407672:	c5 fe 7f 9c 24 e0 06 	vmovdqu %ymm3,0x6e0(%rsp)
  407679:	00 00 
  40767b:	c5 fe 6f 9c 24 00 0d 	vmovdqu 0xd00(%rsp),%ymm3
  407682:	00 00 
  407684:	c5 bd ef f3          	vpxor  %ymm3,%ymm8,%ymm6
  407688:	c4 c1 65 ef d3       	vpxor  %ymm11,%ymm3,%ymm2
  40768d:	c4 41 0d ef c7       	vpxor  %ymm15,%ymm14,%ymm8
  407692:	c5 5d ef da          	vpxor  %ymm2,%ymm4,%ymm11
  407696:	c4 c1 6d db d0       	vpand  %ymm8,%ymm2,%ymm2
  40769b:	c4 c1 65 ef f8       	vpxor  %ymm8,%ymm3,%ymm7
  4076a0:	c5 fe 6f 9c 24 a0 08 	vmovdqu 0x8a0(%rsp),%ymm3
  4076a7:	00 00 
  4076a9:	c5 cd ef e2          	vpxor  %ymm2,%ymm6,%ymm4
  4076ad:	c5 a5 eb f6          	vpor   %ymm6,%ymm11,%ymm6
  4076b1:	c5 45 ef 8e 20 53 00 	vpxor  0x5320(%rsi),%ymm7,%ymm9
  4076b8:	00 
  4076b9:	c5 25 ef 96 40 51 00 	vpxor  0x5140(%rsi),%ymm11,%ymm10
  4076c0:	00 
  4076c1:	c5 dd ef 96 a0 57 00 	vpxor  0x57a0(%rsi),%ymm4,%ymm2
  4076c8:	00 
  4076c9:	c5 3d ef f6          	vpxor  %ymm6,%ymm8,%ymm14
  4076cd:	c5 fe 6f b4 24 40 0c 	vmovdqu 0xc40(%rsp),%ymm6
  4076d4:	00 00 
  4076d6:	c5 7e 7f 8c 24 60 0f 	vmovdqu %ymm9,0xf60(%rsp)
  4076dd:	00 00 
  4076df:	c5 7e 7f 94 24 c0 02 	vmovdqu %ymm10,0x2c0(%rsp)
  4076e6:	00 00 
  4076e8:	c5 7e 6f 94 24 60 0c 	vmovdqu 0xc60(%rsp),%ymm10
  4076ef:	00 00 
  4076f1:	c5 7e 6f 8c 24 20 0a 	vmovdqu 0xa20(%rsp),%ymm9
  4076f8:	00 00 
  4076fa:	c5 fe 7f 94 24 c0 00 	vmovdqu %ymm2,0xc0(%rsp)
  407701:	00 00 
  407703:	c5 fd ef fe          	vpxor  %ymm6,%ymm0,%ymm7
  407707:	c5 0d ef be c0 55 00 	vpxor  0x55c0(%rsi),%ymm14,%ymm15
  40770e:	00 
  40770f:	c4 c1 4d ef e2       	vpxor  %ymm10,%ymm6,%ymm4
  407714:	c5 65 eb c7          	vpor   %ymm7,%ymm3,%ymm8
  407718:	c5 35 db df          	vpand  %ymm7,%ymm9,%ymm11
  40771c:	c5 7e 7f bc 24 40 06 	vmovdqu %ymm15,0x640(%rsp)
  407723:	00 00 
  407725:	c5 2d ef fb          	vpxor  %ymm3,%ymm10,%ymm15
  407729:	c4 c1 35 ef f0       	vpxor  %ymm8,%ymm9,%ymm6
  40772e:	c4 c1 25 ef df       	vpxor  %ymm15,%ymm11,%ymm3
  407733:	c5 05 db fe          	vpand  %ymm6,%ymm15,%ymm15
  407737:	c5 2d ef f6          	vpxor  %ymm6,%ymm10,%ymm14
  40773b:	c5 7e 6f 94 24 60 0b 	vmovdqu 0xb60(%rsp),%ymm10
  407742:	00 00 
  407744:	c4 41 5d ef c7       	vpxor  %ymm15,%ymm4,%ymm8
  407749:	c5 e5 eb e4          	vpor   %ymm4,%ymm3,%ymm4
  40774d:	c5 8d ef 96 40 53 00 	vpxor  0x5340(%rsi),%ymm14,%ymm2
  407754:	00 
  407755:	c5 7e 6f bc 24 c0 08 	vmovdqu 0x8c0(%rsp),%ymm15
  40775c:	00 00 
  40775e:	c5 cd ef fc          	vpxor  %ymm4,%ymm6,%ymm7
  407762:	c4 c1 7d ef e2       	vpxor  %ymm10,%ymm0,%ymm4
  407767:	c5 3d ef 9e c0 57 00 	vpxor  0x57c0(%rsi),%ymm8,%ymm11
  40776e:	00 
  40776f:	c5 fe 7f 94 24 60 06 	vmovdqu %ymm2,0x660(%rsp)
  407776:	00 00 
  407778:	c5 e5 ef 96 60 51 00 	vpxor  0x5160(%rsi),%ymm3,%ymm2
  40777f:	00 
  407780:	c5 45 ef 8e e0 55 00 	vpxor  0x55e0(%rsi),%ymm7,%ymm9
  407787:	00 
  407788:	c5 85 eb f4          	vpor   %ymm4,%ymm15,%ymm6
  40778c:	c5 7e 7f 9c 24 e0 00 	vmovdqu %ymm11,0xe0(%rsp)
  407793:	00 00 
  407795:	c5 fe 7f 94 24 e0 02 	vmovdqu %ymm2,0x2e0(%rsp)
  40779c:	00 00 
  40779e:	c5 7e 7f 8c 24 20 05 	vmovdqu %ymm9,0x520(%rsp)
  4077a5:	00 00 
  4077a7:	c5 7e 6f 8c 24 80 0c 	vmovdqu 0xc80(%rsp),%ymm9
  4077ae:	00 00 
  4077b0:	c5 fe 6f 94 24 40 0a 	vmovdqu 0xa40(%rsp),%ymm2
  4077b7:	00 00 
  4077b9:	c4 41 2d ef f1       	vpxor  %ymm9,%ymm10,%ymm14
  4077be:	c4 c1 35 ef df       	vpxor  %ymm15,%ymm9,%ymm3
  4077c3:	c5 ed db fc          	vpand  %ymm4,%ymm2,%ymm7
  4077c7:	c5 6d ef d6          	vpxor  %ymm6,%ymm2,%ymm10
  4077cb:	c5 45 ef fb          	vpxor  %ymm3,%ymm7,%ymm15
  4077cf:	c4 c1 65 db da       	vpand  %ymm10,%ymm3,%ymm3
  4077d4:	c4 41 35 ef c2       	vpxor  %ymm10,%ymm9,%ymm8
  4077d9:	c5 7e 6f 8c 24 40 0b 	vmovdqu 0xb40(%rsp),%ymm9
  4077e0:	00 00 
  4077e2:	c5 8d ef f3          	vpxor  %ymm3,%ymm14,%ymm6
  4077e6:	c4 41 05 eb f6       	vpor   %ymm14,%ymm15,%ymm14
  4077eb:	c5 85 ef a6 80 51 00 	vpxor  0x5180(%rsi),%ymm15,%ymm4
  4077f2:	00 
  4077f3:	c5 3d ef 9e 60 53 00 	vpxor  0x5360(%rsi),%ymm8,%ymm11
  4077fa:	00 
  4077fb:	c5 cd ef be e0 57 00 	vpxor  0x57e0(%rsi),%ymm6,%ymm7
  407802:	00 
  407803:	c4 c1 2d ef d6       	vpxor  %ymm14,%ymm10,%ymm2
  407808:	c5 7e 6f b4 24 e0 08 	vmovdqu 0x8e0(%rsp),%ymm14
  40780f:	00 00 
  407811:	c5 fe 7f a4 24 00 03 	vmovdqu %ymm4,0x300(%rsp)
  407818:	00 00 
  40781a:	c5 7e 6f 94 24 a0 0c 	vmovdqu 0xca0(%rsp),%ymm10
  407821:	00 00 
  407823:	c5 fe 7f bc 24 00 01 	vmovdqu %ymm7,0x100(%rsp)
  40782a:	00 00 
  40782c:	c5 7e 7f 9c 24 60 05 	vmovdqu %ymm11,0x560(%rsp)
  407833:	00 00 
  407835:	c5 7e 6f bc 24 00 0b 	vmovdqu 0xb00(%rsp),%ymm15
  40783c:	00 00 
  40783e:	c4 c1 7d ef e1       	vpxor  %ymm9,%ymm0,%ymm4
  407843:	c4 41 35 ef da       	vpxor  %ymm10,%ymm9,%ymm11
  407848:	c5 ed ef 9e 00 54 00 	vpxor  0x5400(%rsi),%ymm2,%ymm3
  40784f:	00 
  407850:	c4 41 2d ef c6       	vpxor  %ymm14,%ymm10,%ymm8
  407855:	c5 8d eb f4          	vpor   %ymm4,%ymm14,%ymm6
  407859:	c5 fe 6f 94 24 60 0a 	vmovdqu 0xa60(%rsp),%ymm2
  407860:	00 00 
  407862:	c5 ed ef fe          	vpxor  %ymm6,%ymm2,%ymm7
  407866:	c5 6d db cc          	vpand  %ymm4,%ymm2,%ymm9
  40786a:	c5 2d ef d7          	vpxor  %ymm7,%ymm10,%ymm10
  40786e:	c4 41 35 ef c8       	vpxor  %ymm8,%ymm9,%ymm9
  407873:	c5 3d db c7          	vpand  %ymm7,%ymm8,%ymm8
  407877:	c5 ad ef a6 80 53 00 	vpxor  0x5380(%rsi),%ymm10,%ymm4
  40787e:	00 
  40787f:	c4 c1 25 ef f0       	vpxor  %ymm8,%ymm11,%ymm6
  407884:	c4 41 35 eb db       	vpor   %ymm11,%ymm9,%ymm11
  407889:	c4 41 7d ef c7       	vpxor  %ymm15,%ymm0,%ymm8
  40788e:	c5 fe 7f a4 24 e0 04 	vmovdqu %ymm4,0x4e0(%rsp)
  407895:	00 00 
  407897:	c5 b5 ef a6 a0 51 00 	vpxor  0x51a0(%rsi),%ymm9,%ymm4
  40789e:	00 
  40789f:	c5 4d ef b6 00 56 00 	vpxor  0x5600(%rsi),%ymm6,%ymm14
  4078a6:	00 
  4078a7:	c4 c1 45 ef d3       	vpxor  %ymm11,%ymm7,%ymm2
  4078ac:	c5 7e 6f 8c 24 80 07 	vmovdqu 0x780(%rsp),%ymm9
  4078b3:	00 00 
  4078b5:	c5 fe 6f b4 24 c0 0c 	vmovdqu 0xcc0(%rsp),%ymm6
  4078bc:	00 00 
  4078be:	c5 7e 6f 9c 24 40 09 	vmovdqu 0x940(%rsp),%ymm11
  4078c5:	00 00 
  4078c7:	c5 fe 7f a4 24 20 03 	vmovdqu %ymm4,0x320(%rsp)
  4078ce:	00 00 
  4078d0:	c4 41 35 eb d0       	vpor   %ymm8,%ymm9,%ymm10
  4078d5:	c5 ed ef be 20 54 00 	vpxor  0x5420(%rsi),%ymm2,%ymm7
  4078dc:	00 
  4078dd:	c5 85 ef d6          	vpxor  %ymm6,%ymm15,%ymm2
  4078e1:	c4 41 25 db f8       	vpand  %ymm8,%ymm11,%ymm15
  4078e6:	c4 41 25 ef da       	vpxor  %ymm10,%ymm11,%ymm11
  4078eb:	c4 c1 4d ef e1       	vpxor  %ymm9,%ymm6,%ymm4
  4078f0:	c5 7e 6f 94 24 e0 0c 	vmovdqu 0xce0(%rsp),%ymm10
  4078f7:	00 00 
  4078f9:	c4 c1 4d ef f3       	vpxor  %ymm11,%ymm6,%ymm6
  4078fe:	c5 05 ef cc          	vpxor  %ymm4,%ymm15,%ymm9
  407902:	c4 c1 5d db e3       	vpand  %ymm11,%ymm4,%ymm4
  407907:	c5 7e 6f bc 24 a0 07 	vmovdqu 0x7a0(%rsp),%ymm15
  40790e:	00 00 
  407910:	c5 cd ef b6 a0 53 00 	vpxor  0x53a0(%rsi),%ymm6,%ymm6
  407917:	00 
  407918:	c5 fe 7f b4 24 80 04 	vmovdqu %ymm6,0x480(%rsp)
  40791f:	00 00 
  407921:	c5 ed ef f4          	vpxor  %ymm4,%ymm2,%ymm6
  407925:	c5 b5 eb d2          	vpor   %ymm2,%ymm9,%ymm2
  407929:	c5 b5 ef a6 c0 51 00 	vpxor  0x51c0(%rsi),%ymm9,%ymm4
  407930:	00 
  407931:	c5 4d ef 86 20 56 00 	vpxor  0x5620(%rsi),%ymm6,%ymm8
  407938:	00 
  407939:	c5 a5 ef d2          	vpxor  %ymm2,%ymm11,%ymm2
  40793d:	c5 7e 6f 1c 24       	vmovdqu (%rsp),%ymm11
  407942:	c5 fe 7f a4 24 80 02 	vmovdqu %ymm4,0x280(%rsp)
  407949:	00 00 
  40794b:	c5 6d ef 8e 40 54 00 	vpxor  0x5440(%rsi),%ymm2,%ymm9
  407952:	00 
  407953:	c5 fe 6f 94 24 00 09 	vmovdqu 0x900(%rsp),%ymm2
  40795a:	00 00 
  40795c:	c4 c1 7d ef e3       	vpxor  %ymm11,%ymm0,%ymm4
  407961:	c4 c1 25 ef f2       	vpxor  %ymm10,%ymm11,%ymm6
  407966:	c4 41 2d ef df       	vpxor  %ymm15,%ymm10,%ymm11
  40796b:	c5 05 eb fc          	vpor   %ymm4,%ymm15,%ymm15
  40796f:	c5 ed db e4          	vpand  %ymm4,%ymm2,%ymm4
  407973:	c4 41 6d ef ff       	vpxor  %ymm15,%ymm2,%ymm15
  407978:	c4 c1 5d ef e3       	vpxor  %ymm11,%ymm4,%ymm4
  40797d:	c4 41 2d ef d7       	vpxor  %ymm15,%ymm10,%ymm10
  407982:	c4 41 25 db df       	vpand  %ymm15,%ymm11,%ymm11
  407987:	c5 ad ef 96 c0 53 00 	vpxor  0x53c0(%rsi),%ymm10,%ymm2
  40798e:	00 
  40798f:	c4 41 4d ef d3       	vpxor  %ymm11,%ymm6,%ymm10
  407994:	c5 dd eb f6          	vpor   %ymm6,%ymm4,%ymm6
  407998:	c5 dd ef a6 e0 51 00 	vpxor  0x51e0(%rsi),%ymm4,%ymm4
  40799f:	00 
  4079a0:	c5 fe 7f 94 24 40 04 	vmovdqu %ymm2,0x440(%rsp)
  4079a7:	00 00 
  4079a9:	c5 05 ef fe          	vpxor  %ymm6,%ymm15,%ymm15
  4079ad:	c5 2d ef 96 40 56 00 	vpxor  0x5640(%rsi),%ymm10,%ymm10
  4079b4:	00 
  4079b5:	c5 fe 7f a4 24 40 02 	vmovdqu %ymm4,0x240(%rsp)
  4079bc:	00 00 
  4079be:	c5 fe 6f a4 24 20 0b 	vmovdqu 0xb20(%rsp),%ymm4
  4079c5:	00 00 
  4079c7:	c5 05 ef 9e 60 54 00 	vpxor  0x5460(%rsi),%ymm15,%ymm11
  4079ce:	00 
  4079cf:	c5 7e 6f bc 24 20 09 	vmovdqu 0x920(%rsp),%ymm15
  4079d6:	00 00 
  4079d8:	c5 fd ef d4          	vpxor  %ymm4,%ymm0,%ymm2
  4079dc:	c5 dd ef f3          	vpxor  %ymm3,%ymm4,%ymm6
  4079e0:	c4 c1 65 ef e6       	vpxor  %ymm14,%ymm3,%ymm4
  4079e5:	c5 0d eb f2          	vpor   %ymm2,%ymm14,%ymm14
  4079e9:	c5 85 db d2          	vpand  %ymm2,%ymm15,%ymm2
  4079ed:	c4 41 05 ef f6       	vpxor  %ymm14,%ymm15,%ymm14
  4079f2:	c5 6d ef fc          	vpxor  %ymm4,%ymm2,%ymm15
  4079f6:	c4 c1 65 ef de       	vpxor  %ymm14,%ymm3,%ymm3
  4079fb:	c4 c1 5d db e6       	vpand  %ymm14,%ymm4,%ymm4
  407a00:	c5 e5 ef 96 e0 5b 00 	vpxor  0x5be0(%rsi),%ymm3,%ymm2
  407a07:	00 
  407a08:	c5 85 ef 9e 00 58 00 	vpxor  0x5800(%rsi),%ymm15,%ymm3
  407a0f:	00 
  407a10:	c5 fe 7f 54 24 20    	vmovdqu %ymm2,0x20(%rsp)
  407a16:	c5 fe 7f 9c 24 60 02 	vmovdqu %ymm3,0x260(%rsp)
  407a1d:	00 00 
  407a1f:	c5 cd ef d4          	vpxor  %ymm4,%ymm6,%ymm2
  407a23:	c5 85 eb f6          	vpor   %ymm6,%ymm15,%ymm6
  407a27:	c5 ed ef a6 60 5e 00 	vpxor  0x5e60(%rsi),%ymm2,%ymm4
  407a2e:	00 
  407a2f:	c5 0d ef f6          	vpxor  %ymm6,%ymm14,%ymm14
  407a33:	c5 fe 6f 94 24 80 0b 	vmovdqu 0xb80(%rsp),%ymm2
  407a3a:	00 00 
  407a3c:	c5 fe 7f a4 24 a0 01 	vmovdqu %ymm4,0x1a0(%rsp)
  407a43:	00 00 
  407a45:	c5 0d ef be 80 5c 00 	vpxor  0x5c80(%rsi),%ymm14,%ymm15
  407a4c:	00 
  407a4d:	c5 fd ef f2          	vpxor  %ymm2,%ymm0,%ymm6
  407a51:	c5 ed ef e7          	vpxor  %ymm7,%ymm2,%ymm4
  407a55:	c5 7e 7f bc 24 40 05 	vmovdqu %ymm15,0x540(%rsp)
  407a5c:	00 00 
  407a5e:	c4 41 45 ef f8       	vpxor  %ymm8,%ymm7,%ymm15
  407a63:	c5 bd eb d6          	vpor   %ymm6,%ymm8,%ymm2
  407a67:	c5 7e 6f 84 24 60 09 	vmovdqu 0x960(%rsp),%ymm8
  407a6e:	00 00 
  407a70:	c5 bd db f6          	vpand  %ymm6,%ymm8,%ymm6
  407a74:	c5 3d ef f2          	vpxor  %ymm2,%ymm8,%ymm14
  407a78:	c4 41 4d ef c7       	vpxor  %ymm15,%ymm6,%ymm8
  407a7d:	c4 c1 05 db f6       	vpand  %ymm14,%ymm15,%ymm6
  407a82:	c4 c1 45 ef fe       	vpxor  %ymm14,%ymm7,%ymm7
  407a87:	c5 bd ef 9e 20 58 00 	vpxor  0x5820(%rsi),%ymm8,%ymm3
  407a8e:	00 
  407a8f:	c5 5d ef fe          	vpxor  %ymm6,%ymm4,%ymm15
  407a93:	c5 bd eb e4          	vpor   %ymm4,%ymm8,%ymm4
  407a97:	c5 c5 ef 96 00 5a 00 	vpxor  0x5a00(%rsi),%ymm7,%ymm2
  407a9e:	00 
  407a9f:	c5 fe 7f 9c 24 a0 02 	vmovdqu %ymm3,0x2a0(%rsp)
  407aa6:	00 00 
  407aa8:	c5 8d ef fc          	vpxor  %ymm4,%ymm14,%ymm7
  407aac:	c4 c1 35 ef da       	vpxor  %ymm10,%ymm9,%ymm3
  407ab1:	c5 05 ef b6 80 5e 00 	vpxor  0x5e80(%rsi),%ymm15,%ymm14
  407ab8:	00 
  407ab9:	c5 fe 6f a4 24 80 0d 	vmovdqu 0xd80(%rsp),%ymm4
  407ac0:	00 00 
  407ac2:	c5 fe 7f 94 24 60 04 	vmovdqu %ymm2,0x460(%rsp)
  407ac9:	00 00 
  407acb:	c5 7e 6f bc 24 c0 07 	vmovdqu 0x7c0(%rsp),%ymm15
  407ad2:	00 00 
  407ad4:	c5 7e 7f b4 24 c0 01 	vmovdqu %ymm14,0x1c0(%rsp)
  407adb:	00 00 
  407add:	c5 7e 6f b4 24 60 0d 	vmovdqu 0xd60(%rsp),%ymm14
  407ae4:	00 00 
  407ae6:	c5 fd ef d4          	vpxor  %ymm4,%ymm0,%ymm2
  407aea:	c5 45 ef 86 a0 5c 00 	vpxor  0x5ca0(%rsi),%ymm7,%ymm8
  407af1:	00 
  407af2:	c4 c1 5d ef f9       	vpxor  %ymm9,%ymm4,%ymm7
  407af7:	c5 ad eb e2          	vpor   %ymm2,%ymm10,%ymm4
  407afb:	c5 7e 6f 94 24 80 0a 	vmovdqu 0xa80(%rsp),%ymm10
  407b02:	00 00 
  407b04:	c5 7e 7f 84 24 80 05 	vmovdqu %ymm8,0x580(%rsp)
  407b0b:	00 00 
  407b0d:	c5 ad db f2          	vpand  %ymm2,%ymm10,%ymm6
  407b11:	c5 ad ef d4          	vpxor  %ymm4,%ymm10,%ymm2
  407b15:	c5 cd ef f3          	vpxor  %ymm3,%ymm6,%ymm6
  407b19:	c5 e5 db da          	vpand  %ymm2,%ymm3,%ymm3
  407b1d:	c5 35 ef ca          	vpxor  %ymm2,%ymm9,%ymm9
  407b21:	c5 45 ef c3          	vpxor  %ymm3,%ymm7,%ymm8
  407b25:	c5 cd eb ff          	vpor   %ymm7,%ymm6,%ymm7
  407b29:	c5 b5 ef a6 20 5a 00 	vpxor  0x5a20(%rsi),%ymm9,%ymm4
  407b30:	00 
  407b31:	c5 3d ef 96 a0 5e 00 	vpxor  0x5ea0(%rsi),%ymm8,%ymm10
  407b38:	00 
  407b39:	c5 6d ef cf          	vpxor  %ymm7,%ymm2,%ymm9
  407b3d:	c5 cd ef 96 40 58 00 	vpxor  0x5840(%rsi),%ymm6,%ymm2
  407b44:	00 
  407b45:	c4 41 25 ef c7       	vpxor  %ymm15,%ymm11,%ymm8
  407b4a:	c5 fe 7f a4 24 a0 04 	vmovdqu %ymm4,0x4a0(%rsp)
  407b51:	00 00 
  407b53:	c5 7e 7f 94 24 e0 01 	vmovdqu %ymm10,0x1e0(%rsp)
  407b5a:	00 00 
  407b5c:	c5 fe 7f 94 24 40 03 	vmovdqu %ymm2,0x340(%rsp)
  407b63:	00 00 
  407b65:	c5 b5 ef b6 c0 5c 00 	vpxor  0x5cc0(%rsi),%ymm9,%ymm6
  407b6c:	00 
  407b6d:	c4 c1 7d ef d6       	vpxor  %ymm14,%ymm0,%ymm2
  407b72:	c4 c1 0d ef e3       	vpxor  %ymm11,%ymm14,%ymm4
  407b77:	c5 fe 7f b4 24 c0 05 	vmovdqu %ymm6,0x5c0(%rsp)
  407b7e:	00 00 
  407b80:	c5 fe 6f b4 24 a0 0a 	vmovdqu 0xaa0(%rsp),%ymm6
  407b87:	00 00 
  407b89:	c5 85 eb da          	vpor   %ymm2,%ymm15,%ymm3
  407b8d:	c5 7e 6f bc 24 40 0d 	vmovdqu 0xd40(%rsp),%ymm15
  407b94:	00 00 
  407b96:	c5 cd db fa          	vpand  %ymm2,%ymm6,%ymm7
  407b9a:	c5 4d ef cb          	vpxor  %ymm3,%ymm6,%ymm9
  407b9e:	c4 41 45 ef d0       	vpxor  %ymm8,%ymm7,%ymm10
  407ba3:	c4 41 25 ef d9       	vpxor  %ymm9,%ymm11,%ymm11
  407ba8:	c4 c1 3d db f1       	vpand  %ymm9,%ymm8,%ymm6
  407bad:	c5 ad ef 9e 60 58 00 	vpxor  0x5860(%rsi),%ymm10,%ymm3
  407bb4:	00 
  407bb5:	c5 a5 ef 96 40 5a 00 	vpxor  0x5a40(%rsi),%ymm11,%ymm2
  407bbc:	00 
  407bbd:	c5 5d ef de          	vpxor  %ymm6,%ymm4,%ymm11
  407bc1:	c5 ad eb e4          	vpor   %ymm4,%ymm10,%ymm4
  407bc5:	c5 fe 6f b4 24 c0 0a 	vmovdqu 0xac0(%rsp),%ymm6
  407bcc:	00 00 
  407bce:	c5 fe 7f 94 24 c0 04 	vmovdqu %ymm2,0x4c0(%rsp)
  407bd5:	00 00 
  407bd7:	c5 fe 7f 9c 24 60 03 	vmovdqu %ymm3,0x360(%rsp)
  407bde:	00 00 
  407be0:	c5 b5 ef fc          	vpxor  %ymm4,%ymm9,%ymm7
  407be4:	c4 c1 7d ef d7       	vpxor  %ymm15,%ymm0,%ymm2
  407be9:	c5 25 ef b6 c0 5e 00 	vpxor  0x5ec0(%rsi),%ymm11,%ymm14
  407bf0:	00 
  407bf1:	c5 fe 6f a4 24 e0 07 	vmovdqu 0x7e0(%rsp),%ymm4
  407bf8:	00 00 
  407bfa:	c5 45 ef 86 e0 5c 00 	vpxor  0x5ce0(%rsi),%ymm7,%ymm8
  407c01:	00 
  407c02:	c5 7e 7f b4 24 00 02 	vmovdqu %ymm14,0x200(%rsp)
  407c09:	00 00 
  407c0b:	c5 dd eb da          	vpor   %ymm2,%ymm4,%ymm3
  407c0f:	c5 7e 7f 84 24 00 06 	vmovdqu %ymm8,0x600(%rsp)
  407c16:	00 00 
  407c18:	c5 7e 6f 84 24 20 0d 	vmovdqu 0xd20(%rsp),%ymm8
  407c1f:	00 00 
  407c21:	c5 4d ef f3          	vpxor  %ymm3,%ymm6,%ymm14
  407c25:	c4 c1 05 ef f8       	vpxor  %ymm8,%ymm15,%ymm7
  407c2a:	c5 3d ef cc          	vpxor  %ymm4,%ymm8,%ymm9
  407c2e:	c5 4d db fa          	vpand  %ymm2,%ymm6,%ymm15
  407c32:	c4 41 3d ef d6       	vpxor  %ymm14,%ymm8,%ymm10
  407c37:	c4 c1 05 ef e1       	vpxor  %ymm9,%ymm15,%ymm4
  407c3c:	c4 41 35 db ce       	vpand  %ymm14,%ymm9,%ymm9
  407c41:	c5 2d ef 9e 60 5a 00 	vpxor  0x5a60(%rsi),%ymm10,%ymm11
  407c48:	00 
  407c49:	c4 41 7d ef d4       	vpxor  %ymm12,%ymm0,%ymm10
  407c4e:	c5 dd ef 96 80 58 00 	vpxor  0x5880(%rsi),%ymm4,%ymm2
  407c55:	00 
  407c56:	c4 41 45 ef c1       	vpxor  %ymm9,%ymm7,%ymm8
  407c5b:	c5 dd eb ff          	vpor   %ymm7,%ymm4,%ymm7
  407c5f:	c5 1d ef e5          	vpxor  %ymm5,%ymm12,%ymm12
  407c63:	c5 7e 6f 8c 24 00 08 	vmovdqu 0x800(%rsp),%ymm9
  407c6a:	00 00 
  407c6c:	c5 7e 7f 9c 24 00 05 	vmovdqu %ymm11,0x500(%rsp)
  407c73:	00 00 
  407c75:	c5 7e 6f 9c 24 e0 0a 	vmovdqu 0xae0(%rsp),%ymm11
  407c7c:	00 00 
  407c7e:	c5 fe 7f 94 24 80 03 	vmovdqu %ymm2,0x380(%rsp)
  407c85:	00 00 
  407c87:	c5 8d ef f7          	vpxor  %ymm7,%ymm14,%ymm6
  407c8b:	c4 41 35 eb f2       	vpor   %ymm10,%ymm9,%ymm14
  407c90:	c4 c1 55 ef d1       	vpxor  %ymm9,%ymm5,%ymm2
  407c95:	c5 bd ef be e0 5e 00 	vpxor  0x5ee0(%rsi),%ymm8,%ymm7
  407c9c:	00 
  407c9d:	c5 cd ef 9e 00 5d 00 	vpxor  0x5d00(%rsi),%ymm6,%ymm3
  407ca4:	00 
  407ca5:	c4 41 25 db fa       	vpand  %ymm10,%ymm11,%ymm15
  407caa:	c5 fe 7f bc 24 20 02 	vmovdqu %ymm7,0x220(%rsp)
  407cb1:	00 00 
  407cb3:	c5 fe 7f 9c 24 20 06 	vmovdqu %ymm3,0x620(%rsp)
  407cba:	00 00 
  407cbc:	c4 c1 25 ef de       	vpxor  %ymm14,%ymm11,%ymm3
  407cc1:	c5 85 ef fa          	vpxor  %ymm2,%ymm15,%ymm7
  407cc5:	c4 41 7d ef dd       	vpxor  %ymm13,%ymm0,%ymm11
  407cca:	c5 7e 6f b4 24 40 0e 	vmovdqu 0xe40(%rsp),%ymm14
  407cd1:	00 00 
  407cd3:	c5 d5 ef eb          	vpxor  %ymm3,%ymm5,%ymm5
  407cd7:	c5 ed db f3          	vpand  %ymm3,%ymm2,%ymm6
  407cdb:	c4 c1 0d db d3       	vpand  %ymm11,%ymm14,%ymm2
  407ce0:	c5 d5 ef a6 80 5a 00 	vpxor  0x5a80(%rsi),%ymm5,%ymm4
  407ce7:	00 
  407ce8:	c4 c1 45 eb ec       	vpor   %ymm12,%ymm7,%ymm5
  407ced:	c5 1d ef ce          	vpxor  %ymm6,%ymm12,%ymm9
  407cf1:	c5 45 ef a6 a0 58 00 	vpxor  0x58a0(%rsi),%ymm7,%ymm12
  407cf8:	00 
  407cf9:	c5 fe 7f a4 24 a0 05 	vmovdqu %ymm4,0x5a0(%rsp)
  407d00:	00 00 
  407d02:	c5 65 ef c5          	vpxor  %ymm5,%ymm3,%ymm8
  407d06:	c5 95 ef e9          	vpxor  %ymm1,%ymm13,%ymm5
  407d0a:	c5 35 ef 96 00 5f 00 	vpxor  0x5f00(%rsi),%ymm9,%ymm10
  407d11:	00 
  407d12:	c5 7e 6f ac 24 20 08 	vmovdqu 0x820(%rsp),%ymm13
  407d19:	00 00 
  407d1b:	c5 7e 7f a4 24 a0 03 	vmovdqu %ymm12,0x3a0(%rsp)
  407d22:	00 00 
  407d24:	c5 bd ef a6 20 5d 00 	vpxor  0x5d20(%rsi),%ymm8,%ymm4
  407d2b:	00 
  407d2c:	c5 7e 7f 94 24 20 01 	vmovdqu %ymm10,0x120(%rsp)
  407d33:	00 00 
  407d35:	c4 41 15 eb fb       	vpor   %ymm11,%ymm13,%ymm15
  407d3a:	c4 c1 75 ef f5       	vpxor  %ymm13,%ymm1,%ymm6
  407d3f:	c5 7e 6f ac 24 c0 0e 	vmovdqu 0xec0(%rsp),%ymm13
  407d46:	00 00 
  407d48:	c4 c1 0d ef ff       	vpxor  %ymm15,%ymm14,%ymm7
  407d4d:	c5 6d ef c6          	vpxor  %ymm6,%ymm2,%ymm8
  407d51:	c5 7e 6f b4 24 40 08 	vmovdqu 0x840(%rsp),%ymm14
  407d58:	00 00 
  407d5a:	c5 f5 ef cf          	vpxor  %ymm7,%ymm1,%ymm1
  407d5e:	c5 cd db df          	vpand  %ymm7,%ymm6,%ymm3
  407d62:	c4 41 7d ef fd       	vpxor  %ymm13,%ymm0,%ymm15
  407d67:	c5 3d ef 8e c0 58 00 	vpxor  0x58c0(%rsi),%ymm8,%ymm9
  407d6e:	00 
  407d6f:	c5 f5 ef 96 a0 5a 00 	vpxor  0x5aa0(%rsi),%ymm1,%ymm2
  407d76:	00 
  407d77:	c5 bd eb cd          	vpor   %ymm5,%ymm8,%ymm1
  407d7b:	c5 55 ef db          	vpxor  %ymm3,%ymm5,%ymm11
  407d7f:	c4 c1 0d eb ef       	vpor   %ymm15,%ymm14,%ymm5
  407d84:	c5 fe 6f 9c 24 80 0e 	vmovdqu 0xe80(%rsp),%ymm3
  407d8b:	00 00 
  407d8d:	c5 fe 7f 94 24 e0 05 	vmovdqu %ymm2,0x5e0(%rsp)
  407d94:	00 00 
  407d96:	c5 7e 7f 8c 24 c0 03 	vmovdqu %ymm9,0x3c0(%rsp)
  407d9d:	00 00 
  407d9f:	c5 45 ef d1          	vpxor  %ymm1,%ymm7,%ymm10
  407da3:	c4 c1 65 db cf       	vpand  %ymm15,%ymm3,%ymm1
  407da8:	c5 25 ef a6 20 5f 00 	vpxor  0x5f20(%rsi),%ymm11,%ymm12
  407daf:	00 
  407db0:	c5 fe 6f bc 24 c0 0d 	vmovdqu 0xdc0(%rsp),%ymm7
  407db7:	00 00 
  407db9:	c5 ad ef 96 40 5d 00 	vpxor  0x5d40(%rsi),%ymm10,%ymm2
  407dc0:	00 
  407dc1:	c5 65 ef d5          	vpxor  %ymm5,%ymm3,%ymm10
  407dc5:	c5 7e 7f a4 24 40 01 	vmovdqu %ymm12,0x140(%rsp)
  407dcc:	00 00 
  407dce:	c4 41 45 ef c6       	vpxor  %ymm14,%ymm7,%ymm8
  407dd3:	c5 95 ef f7          	vpxor  %ymm7,%ymm13,%ymm6
  407dd7:	c4 41 45 ef f2       	vpxor  %ymm10,%ymm7,%ymm14
  407ddc:	c5 fe 6f bc 24 20 0e 	vmovdqu 0xe20(%rsp),%ymm7
  407de3:	00 00 
  407de5:	c4 41 75 ef d8       	vpxor  %ymm8,%ymm1,%ymm11
  407dea:	c4 41 3d db ca       	vpand  %ymm10,%ymm8,%ymm9
  407def:	c5 0d ef be c0 5a 00 	vpxor  0x5ac0(%rsi),%ymm14,%ymm15
  407df6:	00 
  407df7:	c5 fe 6f 8c 24 20 0f 	vmovdqu 0xf20(%rsp),%ymm1
  407dfe:	00 00 
  407e00:	c5 25 ef a6 e0 58 00 	vpxor  0x58e0(%rsi),%ymm11,%ymm12
  407e07:	00 
  407e08:	c4 c1 4d ef d9       	vpxor  %ymm9,%ymm6,%ymm3
  407e0d:	c5 a5 eb f6          	vpor   %ymm6,%ymm11,%ymm6
  407e11:	c5 7d ef c1          	vpxor  %ymm1,%ymm0,%ymm8
  407e15:	c5 7e 7f a4 24 e0 03 	vmovdqu %ymm12,0x3e0(%rsp)
  407e1c:	00 00 
  407e1e:	c5 7e 6f a4 24 e0 0d 	vmovdqu 0xde0(%rsp),%ymm12
  407e25:	00 00 
  407e27:	c5 7e 6f 8c 24 e0 0e 	vmovdqu 0xee0(%rsp),%ymm9
  407e2e:	00 00 
  407e30:	c5 7e 7f bc 24 a0 06 	vmovdqu %ymm15,0x6a0(%rsp)
  407e37:	00 00 
  407e39:	c5 2d ef ee          	vpxor  %ymm6,%ymm10,%ymm13
  407e3d:	c4 41 45 eb d0       	vpor   %ymm8,%ymm7,%ymm10
  407e42:	c5 1d ef ff          	vpxor  %ymm7,%ymm12,%ymm15
  407e46:	c5 e5 ef ae 40 5f 00 	vpxor  0x5f40(%rsi),%ymm3,%ymm5
  407e4d:	00 
  407e4e:	c4 c1 75 ef dc       	vpxor  %ymm12,%ymm1,%ymm3
  407e53:	c4 c1 35 ef ca       	vpxor  %ymm10,%ymm9,%ymm1
  407e58:	c4 41 35 db d8       	vpand  %ymm8,%ymm9,%ymm11
  407e5d:	c5 95 ef b6 60 5d 00 	vpxor  0x5d60(%rsi),%ymm13,%ymm6
  407e64:	00 
  407e65:	c5 fe 7f ac 24 60 01 	vmovdqu %ymm5,0x160(%rsp)
  407e6c:	00 00 
  407e6e:	c5 1d ef e9          	vpxor  %ymm1,%ymm12,%ymm13
  407e72:	c4 c1 25 ef ff       	vpxor  %ymm15,%ymm11,%ymm7
  407e77:	c5 85 db e9          	vpand  %ymm1,%ymm15,%ymm5
  407e7b:	c5 7e 6f a4 24 60 0f 	vmovdqu 0xf60(%rsp),%ymm12
  407e82:	00 00 
  407e84:	c5 7e 6f bc 24 40 0f 	vmovdqu 0xf40(%rsp),%ymm15
  407e8b:	00 00 
  407e8d:	c5 15 ef b6 e0 5a 00 	vpxor  0x5ae0(%rsi),%ymm13,%ymm14
  407e94:	00 
  407e95:	c5 45 ef 86 00 59 00 	vpxor  0x5900(%rsi),%ymm7,%ymm8
  407e9c:	00 
  407e9d:	c5 65 ef d5          	vpxor  %ymm5,%ymm3,%ymm10
  407ea1:	c5 c5 eb db          	vpor   %ymm3,%ymm7,%ymm3
  407ea5:	c5 fe 6f bc 24 00 0e 	vmovdqu 0xe00(%rsp),%ymm7
  407eac:	00 00 
  407eae:	c5 7e 6f ac 24 60 0e 	vmovdqu 0xe60(%rsp),%ymm13
  407eb5:	00 00 
  407eb7:	c5 7e 7f b4 24 00 07 	vmovdqu %ymm14,0x700(%rsp)
  407ebe:	00 00 
  407ec0:	c5 7e 7f 84 24 00 04 	vmovdqu %ymm8,0x400(%rsp)
  407ec7:	00 00 
  407ec9:	c4 41 7d ef f4       	vpxor  %ymm12,%ymm0,%ymm14
  407ece:	c5 9d ef ef          	vpxor  %ymm7,%ymm12,%ymm5
  407ed2:	c5 75 ef cb          	vpxor  %ymm3,%ymm1,%ymm9
  407ed6:	c5 2d ef 9e 60 5f 00 	vpxor  0x5f60(%rsi),%ymm10,%ymm11
  407edd:	00 
  407ede:	c4 41 15 eb e6       	vpor   %ymm14,%ymm13,%ymm12
  407ee3:	c4 c1 45 ef cd       	vpxor  %ymm13,%ymm7,%ymm1
  407ee8:	c4 41 05 db ee       	vpand  %ymm14,%ymm15,%ymm13
  407eed:	c5 b5 ef 9e 80 5d 00 	vpxor  0x5d80(%rsi),%ymm9,%ymm3
  407ef4:	00 
  407ef5:	c4 41 05 ef d4       	vpxor  %ymm12,%ymm15,%ymm10
  407efa:	c5 7e 7f 9c 24 80 01 	vmovdqu %ymm11,0x180(%rsp)
  407f01:	00 00 
  407f03:	c5 15 ef d9          	vpxor  %ymm1,%ymm13,%ymm11
  407f07:	c4 41 45 ef c2       	vpxor  %ymm10,%ymm7,%ymm8
  407f0c:	c4 c1 75 db ca       	vpand  %ymm10,%ymm1,%ymm1
  407f11:	c5 fe 6f bc 24 00 0f 	vmovdqu 0xf00(%rsp),%ymm7
  407f18:	00 00 
  407f1a:	c5 3d ef 8e 00 5b 00 	vpxor  0x5b00(%rsi),%ymm8,%ymm9
  407f21:	00 
  407f22:	c5 55 ef c1          	vpxor  %ymm1,%ymm5,%ymm8
  407f26:	c5 a5 eb ed          	vpor   %ymm5,%ymm11,%ymm5
  407f2a:	c5 25 ef b6 20 59 00 	vpxor  0x5920(%rsi),%ymm11,%ymm14
  407f31:	00 
  407f32:	c5 7e 7f 8c 24 80 06 	vmovdqu %ymm9,0x680(%rsp)
  407f39:	00 00 
  407f3b:	c5 7e 6f 8e 80 5f 00 	vmovdqu 0x5f80(%rsi),%ymm9
  407f42:	00 
  407f43:	c5 2d ef fd          	vpxor  %ymm5,%ymm10,%ymm15
  407f47:	c5 7e 7f b4 24 20 04 	vmovdqu %ymm14,0x420(%rsp)
  407f4e:	00 00 
  407f50:	c5 fe 6f ac 24 a0 0e 	vmovdqu 0xea0(%rsp),%ymm5
  407f57:	00 00 
  407f59:	c5 85 ef 8e a0 5d 00 	vpxor  0x5da0(%rsi),%ymm15,%ymm1
  407f60:	00 
  407f61:	c5 fe 7f 8c 24 e0 0d 	vmovdqu %ymm1,0xde0(%rsp)
  407f68:	00 00 
  407f6a:	c5 fe 7f 34 24       	vmovdqu %ymm6,(%rsp)
  407f6f:	c5 fe 6f 74 24 60    	vmovdqu 0x60(%rsp),%ymm6
  407f75:	c5 7e 6f b4 24 c0 06 	vmovdqu 0x6c0(%rsp),%ymm14
  407f7c:	00 00 
  407f7e:	c5 7e 6f ac 24 c0 02 	vmovdqu 0x2c0(%rsp),%ymm13
  407f85:	00 00 
  407f87:	c5 fe 7f 9c 24 c0 0d 	vmovdqu %ymm3,0xdc0(%rsp)
  407f8e:	00 00 
  407f90:	c4 c1 3d ef c9       	vpxor  %ymm9,%ymm8,%ymm1
  407f95:	c5 8d ef de          	vpxor  %ymm6,%ymm14,%ymm3
  407f99:	c5 7e 6f 84 24 60 06 	vmovdqu 0x660(%rsp),%ymm8
  407fa0:	00 00 
  407fa2:	c5 fe 7f 8c 24 00 0e 	vmovdqu %ymm1,0xe00(%rsp)
  407fa9:	00 00 
  407fab:	c4 c1 7d ef c8       	vpxor  %ymm8,%ymm0,%ymm1
  407fb0:	c4 41 3d ef c6       	vpxor  %ymm14,%ymm8,%ymm8
  407fb5:	c5 4d eb e1          	vpor   %ymm1,%ymm6,%ymm12
  407fb9:	c5 15 db d1          	vpand  %ymm1,%ymm13,%ymm10
  407fbd:	c4 41 15 ef cc       	vpxor  %ymm12,%ymm13,%ymm9
  407fc2:	c5 ad ef f3          	vpxor  %ymm3,%ymm10,%ymm6
  407fc6:	c4 c1 65 db d9       	vpand  %ymm9,%ymm3,%ymm3
  407fcb:	c4 41 0d ef d9       	vpxor  %ymm9,%ymm14,%ymm11
  407fd0:	c4 41 4d eb f8       	vpor   %ymm8,%ymm6,%ymm15
  407fd5:	c5 7e 6f b4 24 60 05 	vmovdqu 0x560(%rsp),%ymm14
  407fdc:	00 00 
  407fde:	c5 3d ef e3          	vpxor  %ymm3,%ymm8,%ymm12
  407fe2:	c5 4d ef 86 40 59 00 	vpxor  0x5940(%rsi),%ymm6,%ymm8
  407fe9:	00 
  407fea:	c5 a5 ef 8e 20 5b 00 	vpxor  0x5b20(%rsi),%ymm11,%ymm1
  407ff1:	00 
  407ff2:	c4 41 35 ef ef       	vpxor  %ymm15,%ymm9,%ymm13
  407ff7:	c5 1d ef 96 a0 5f 00 	vpxor  0x5fa0(%rsi),%ymm12,%ymm10
  407ffe:	00 
  407fff:	c5 0d ef fd          	vpxor  %ymm5,%ymm14,%ymm15
  408003:	c5 7e 6f 9c 24 80 00 	vmovdqu 0x80(%rsp),%ymm11
  40800a:	00 00 
  40800c:	c5 7e 7f 84 24 20 0e 	vmovdqu %ymm8,0xe20(%rsp)
  408013:	00 00 
  408015:	c5 fe 6f b4 24 e0 02 	vmovdqu 0x2e0(%rsp),%ymm6
  40801c:	00 00 
  40801e:	c5 7e 7f 94 24 40 0e 	vmovdqu %ymm10,0xe40(%rsp)
  408025:	00 00 
  408027:	c4 41 7d ef c6       	vpxor  %ymm14,%ymm0,%ymm8
  40802c:	c5 95 ef 9e c0 5d 00 	vpxor  0x5dc0(%rsi),%ymm13,%ymm3
  408033:	00 
  408034:	c4 41 55 ef cb       	vpxor  %ymm11,%ymm5,%ymm9
  408039:	c4 41 25 eb e8       	vpor   %ymm8,%ymm11,%ymm13
  40803e:	c5 fe 7f 9c 24 80 0c 	vmovdqu %ymm3,0xc80(%rsp)
  408045:	00 00 
  408047:	c4 c1 4d db d8       	vpand  %ymm8,%ymm6,%ymm3
  40804c:	c4 41 4d ef e5       	vpxor  %ymm13,%ymm6,%ymm12
  408051:	c4 41 65 ef d1       	vpxor  %ymm9,%ymm3,%ymm10
  408056:	c4 c1 55 ef ec       	vpxor  %ymm12,%ymm5,%ymm5
  40805b:	c4 41 35 db c4       	vpand  %ymm12,%ymm9,%ymm8
  408060:	c5 ad ef b6 60 59 00 	vpxor  0x5960(%rsi),%ymm10,%ymm6
  408067:	00 
  408068:	c5 d5 ef 9e 40 5b 00 	vpxor  0x5b40(%rsi),%ymm5,%ymm3
  40806f:	00 
  408070:	c4 c1 2d eb ef       	vpor   %ymm15,%ymm10,%ymm5
  408075:	c4 41 05 ef d8       	vpxor  %ymm8,%ymm15,%ymm11
  40807a:	c5 7e 6f bc 24 e0 04 	vmovdqu 0x4e0(%rsp),%ymm15
  408081:	00 00 
  408083:	c5 7e 6f 84 24 a0 00 	vmovdqu 0xa0(%rsp),%ymm8
  40808a:	00 00 
  40808c:	c5 fe 7f b4 24 60 0e 	vmovdqu %ymm6,0xe60(%rsp)
  408093:	00 00 
  408095:	c5 1d ef ed          	vpxor  %ymm5,%ymm12,%ymm13
  408099:	c4 c1 7d ef ef       	vpxor  %ymm15,%ymm0,%ymm5
  40809e:	c4 c1 45 ef f0       	vpxor  %ymm8,%ymm7,%ymm6
  4080a3:	c5 25 ef 8e c0 5f 00 	vpxor  0x5fc0(%rsi),%ymm11,%ymm9
  4080aa:	00 
  4080ab:	c5 15 ef b6 e0 5d 00 	vpxor  0x5de0(%rsi),%ymm13,%ymm14
  4080b2:	00 
  4080b3:	c5 3d eb e5          	vpor   %ymm5,%ymm8,%ymm12
  4080b7:	c5 05 ef df          	vpxor  %ymm7,%ymm15,%ymm11
  4080bb:	c5 7e 6f ac 24 00 03 	vmovdqu 0x300(%rsp),%ymm13
  4080c2:	00 00 
  4080c4:	c5 7e 7f b4 24 60 0c 	vmovdqu %ymm14,0xc60(%rsp)
  4080cb:	00 00 
  4080cd:	c5 7e 7f 8c 24 40 07 	vmovdqu %ymm9,0x740(%rsp)
  4080d4:	00 00 
  4080d6:	c5 7e 6f bc 24 c0 00 	vmovdqu 0xc0(%rsp),%ymm15
  4080dd:	00 00 
  4080df:	c5 15 db d5          	vpand  %ymm5,%ymm13,%ymm10
  4080e3:	c4 41 15 ef f4       	vpxor  %ymm12,%ymm13,%ymm14
  4080e8:	c5 2d ef ce          	vpxor  %ymm6,%ymm10,%ymm9
  4080ec:	c4 c1 4d db ee       	vpand  %ymm14,%ymm6,%ymm5
  4080f1:	c4 c1 45 ef fe       	vpxor  %ymm14,%ymm7,%ymm7
  4080f6:	c4 c1 35 eb f3       	vpor   %ymm11,%ymm9,%ymm6
  4080fb:	c5 25 ef e5          	vpxor  %ymm5,%ymm11,%ymm12
  4080ff:	c5 45 ef 86 60 5b 00 	vpxor  0x5b60(%rsi),%ymm7,%ymm8
  408106:	00 
  408107:	c5 b5 ef be 80 59 00 	vpxor  0x5980(%rsi),%ymm9,%ymm7
  40810e:	00 
  40810f:	c5 0d ef ee          	vpxor  %ymm6,%ymm14,%ymm13
  408113:	c5 1d ef 96 e0 5f 00 	vpxor  0x5fe0(%rsi),%ymm12,%ymm10
  40811a:	00 
  40811b:	c5 7e 6f 9c 24 80 04 	vmovdqu 0x480(%rsp),%ymm11
  408122:	00 00 
  408124:	c5 7e 7f 84 24 80 0e 	vmovdqu %ymm8,0xe80(%rsp)
  40812b:	00 00 
  40812d:	c5 7e 6f b4 24 e0 06 	vmovdqu 0x6e0(%rsp),%ymm14
  408134:	00 00 
  408136:	c5 fe 6f ac 24 20 03 	vmovdqu 0x320(%rsp),%ymm5
  40813d:	00 00 
  40813f:	c5 fe 7f bc 24 a0 0e 	vmovdqu %ymm7,0xea0(%rsp)
  408146:	00 00 
  408148:	c5 7e 7f 94 24 60 07 	vmovdqu %ymm10,0x760(%rsp)
  40814f:	00 00 
  408151:	c4 41 7d ef c3       	vpxor  %ymm11,%ymm0,%ymm8
  408156:	c5 95 ef b6 00 5c 00 	vpxor  0x5c00(%rsi),%ymm13,%ymm6
  40815d:	00 
  40815e:	c4 41 0d ef e7       	vpxor  %ymm15,%ymm14,%ymm12
  408163:	c4 41 25 ef d6       	vpxor  %ymm14,%ymm11,%ymm10
  408168:	c4 c1 05 eb f8       	vpor   %ymm8,%ymm15,%ymm7
  40816d:	c4 41 55 db e8       	vpand  %ymm8,%ymm5,%ymm13
  408172:	c5 d5 ef ff          	vpxor  %ymm7,%ymm5,%ymm7
  408176:	c4 41 15 ef ec       	vpxor  %ymm12,%ymm13,%ymm13
  40817b:	c5 fe 6f ac 24 40 06 	vmovdqu 0x640(%rsp),%ymm5
  408182:	00 00 
  408184:	c5 1d db e7          	vpand  %ymm7,%ymm12,%ymm12
  408188:	c5 0d ef f7          	vpxor  %ymm7,%ymm14,%ymm14
  40818c:	c5 15 ef 8e a0 59 00 	vpxor  0x59a0(%rsi),%ymm13,%ymm9
  408193:	00 
  408194:	c4 41 2d ef c4       	vpxor  %ymm12,%ymm10,%ymm8
  408199:	c4 41 15 eb d2       	vpor   %ymm10,%ymm13,%ymm10
  40819e:	c5 0d ef 9e 80 5b 00 	vpxor  0x5b80(%rsi),%ymm14,%ymm11
  4081a5:	00 
  4081a6:	c5 7e 6f a4 24 e0 00 	vmovdqu 0xe0(%rsp),%ymm12
  4081ad:	00 00 
  4081af:	c5 7e 7f 8c 24 e0 0e 	vmovdqu %ymm9,0xee0(%rsp)
  4081b6:	00 00 
  4081b8:	c5 7e 6f 8c 24 80 02 	vmovdqu 0x280(%rsp),%ymm9
  4081bf:	00 00 
  4081c1:	c5 7e 7f 9c 24 c0 0e 	vmovdqu %ymm11,0xec0(%rsp)
  4081c8:	00 00 
  4081ca:	c4 41 45 ef fa       	vpxor  %ymm10,%ymm7,%ymm15
  4081cf:	c5 3d ef b6 00 5e 00 	vpxor  0x5e00(%rsi),%ymm8,%ymm14
  4081d6:	00 
  4081d7:	c4 41 55 ef dc       	vpxor  %ymm12,%ymm5,%ymm11
  4081dc:	c5 fe 6f bc 24 40 04 	vmovdqu 0x440(%rsp),%ymm7
  4081e3:	00 00 
  4081e5:	c5 05 ef ae 20 5c 00 	vpxor  0x5c20(%rsi),%ymm15,%ymm13
  4081ec:	00 
  4081ed:	c5 7d ef d7          	vpxor  %ymm7,%ymm0,%ymm10
  4081f1:	c5 45 ef c5          	vpxor  %ymm5,%ymm7,%ymm8
  4081f5:	c4 41 1d eb fa       	vpor   %ymm10,%ymm12,%ymm15
  4081fa:	c4 c1 35 db fa       	vpand  %ymm10,%ymm9,%ymm7
  4081ff:	c4 41 35 ef d7       	vpxor  %ymm15,%ymm9,%ymm10
  408204:	c4 41 45 ef e3       	vpxor  %ymm11,%ymm7,%ymm12
  408209:	c5 7e 6f 7c 24 40    	vmovdqu 0x40(%rsp),%ymm15
  40820f:	c4 c1 55 ef ea       	vpxor  %ymm10,%ymm5,%ymm5
  408214:	c4 41 25 db da       	vpand  %ymm10,%ymm11,%ymm11
  408219:	c5 d5 ef ae a0 5b 00 	vpxor  0x5ba0(%rsi),%ymm5,%ymm5
  408220:	00 
  408221:	c4 41 3d ef db       	vpxor  %ymm11,%ymm8,%ymm11
  408226:	c4 41 1d eb c0       	vpor   %ymm8,%ymm12,%ymm8
  40822b:	c5 fe 7f ac 24 00 0f 	vmovdqu %ymm5,0xf00(%rsp)
  408232:	00 00 
  408234:	c5 9d ef ae c0 59 00 	vpxor  0x59c0(%rsi),%ymm12,%ymm5
  40823b:	00 
  40823c:	c4 c1 2d ef f8       	vpxor  %ymm8,%ymm10,%ymm7
  408241:	c4 41 7d ef c7       	vpxor  %ymm15,%ymm0,%ymm8
  408246:	c5 25 ef 8e 20 5e 00 	vpxor  0x5e20(%rsi),%ymm11,%ymm9
  40824d:	00 
  40824e:	c5 fe 7f ac 24 60 09 	vmovdqu %ymm5,0x960(%rsp)
  408255:	00 00 
  408257:	c5 7e 6f a4 24 20 05 	vmovdqu 0x520(%rsp),%ymm12
  40825e:	00 00 
  408260:	c5 fe 6f ac 24 00 01 	vmovdqu 0x100(%rsp),%ymm5
  408267:	00 00 
  408269:	c5 45 ef 96 40 5c 00 	vpxor  0x5c40(%rsi),%ymm7,%ymm10
  408270:	00 
  408271:	c4 41 05 ef dc       	vpxor  %ymm12,%ymm15,%ymm11
  408276:	c5 9d ef fd          	vpxor  %ymm5,%ymm12,%ymm7
  40827a:	c4 41 55 eb f8       	vpor   %ymm8,%ymm5,%ymm15
  40827f:	c5 fe 6f ac 24 40 02 	vmovdqu 0x240(%rsp),%ymm5
  408286:	00 00 
  408288:	c4 41 55 db c0       	vpand  %ymm8,%ymm5,%ymm8
  40828d:	c4 41 55 ef ff       	vpxor  %ymm15,%ymm5,%ymm15
  408292:	c5 3d ef c7          	vpxor  %ymm7,%ymm8,%ymm8
  408296:	c4 41 1d ef e7       	vpxor  %ymm15,%ymm12,%ymm12
  40829b:	c4 c1 45 db ff       	vpand  %ymm15,%ymm7,%ymm7
  4082a0:	c5 9d ef ae c0 5b 00 	vpxor  0x5bc0(%rsi),%ymm12,%ymm5
  4082a7:	00 
  4082a8:	c4 41 3d eb e3       	vpor   %ymm11,%ymm8,%ymm12
  4082ad:	c5 a5 ef ff          	vpxor  %ymm7,%ymm11,%ymm7
  4082b1:	c5 3d ef 86 e0 59 00 	vpxor  0x59e0(%rsi),%ymm8,%ymm8
  4082b8:	00 
  4082b9:	c5 fe 7f ac 24 20 0b 	vmovdqu %ymm5,0xb20(%rsp)
  4082c0:	00 00 
  4082c2:	c4 41 05 ef dc       	vpxor  %ymm12,%ymm15,%ymm11
  4082c7:	c5 7e 6f bc 24 60 04 	vmovdqu 0x460(%rsp),%ymm15
  4082ce:	00 00 
  4082d0:	c5 7e 7f 84 24 20 09 	vmovdqu %ymm8,0x920(%rsp)
  4082d7:	00 00 
  4082d9:	c5 25 ef a6 60 5c 00 	vpxor  0x5c60(%rsi),%ymm11,%ymm12
  4082e0:	00 
  4082e1:	c5 45 ef 9e 40 5e 00 	vpxor  0x5e40(%rsi),%ymm7,%ymm11
  4082e8:	00 
  4082e9:	c4 c1 7d ef ef       	vpxor  %ymm15,%ymm0,%ymm5
  4082ee:	c5 85 ef fe          	vpxor  %ymm6,%ymm15,%ymm7
  4082f2:	c4 41 4d ef c6       	vpxor  %ymm14,%ymm6,%ymm8
  4082f7:	c5 7e 6f bc 24 60 02 	vmovdqu 0x260(%rsp),%ymm15
  4082fe:	00 00 
  408300:	c5 0d eb f5          	vpor   %ymm5,%ymm14,%ymm14
  408304:	c5 85 db ed          	vpand  %ymm5,%ymm15,%ymm5
  408308:	c4 41 05 ef f6       	vpxor  %ymm14,%ymm15,%ymm14
  40830d:	c4 41 55 ef f8       	vpxor  %ymm8,%ymm5,%ymm15
  408312:	c4 c1 4d ef f6       	vpxor  %ymm14,%ymm6,%ymm6
  408317:	c4 41 3d db c6       	vpand  %ymm14,%ymm8,%ymm8
  40831c:	c5 cd ef ae e0 63 00 	vpxor  0x63e0(%rsi),%ymm6,%ymm5
  408323:	00 
  408324:	c5 85 eb f7          	vpor   %ymm7,%ymm15,%ymm6
  408328:	c5 fe 7f ac 24 20 07 	vmovdqu %ymm5,0x720(%rsp)
  40832f:	00 00 
  408331:	c4 c1 45 ef e8       	vpxor  %ymm8,%ymm7,%ymm5
  408336:	c5 0d ef f6          	vpxor  %ymm6,%ymm14,%ymm14
  40833a:	c5 85 ef be 00 60 00 	vpxor  0x6000(%rsi),%ymm15,%ymm7
  408341:	00 
  408342:	c5 55 ef 86 60 66 00 	vpxor  0x6660(%rsi),%ymm5,%ymm8
  408349:	00 
  40834a:	c5 0d ef be 80 64 00 	vpxor  0x6480(%rsi),%ymm14,%ymm15
  408351:	00 
  408352:	c5 fe 6f ac 24 a0 04 	vmovdqu 0x4a0(%rsp),%ymm5
  408359:	00 00 
  40835b:	c5 fe 7f bc 24 40 09 	vmovdqu %ymm7,0x940(%rsp)
  408362:	00 00 
  408364:	c5 7e 7f 84 24 80 07 	vmovdqu %ymm8,0x780(%rsp)
  40836b:	00 00 
  40836d:	c5 7e 7f bc 24 20 0c 	vmovdqu %ymm15,0xc20(%rsp)
  408374:	00 00 
  408376:	c5 fd ef f5          	vpxor  %ymm5,%ymm0,%ymm6
  40837a:	c4 41 55 ef c5       	vpxor  %ymm13,%ymm5,%ymm8
  40837f:	c4 41 15 ef f9       	vpxor  %ymm9,%ymm13,%ymm15
  408384:	c5 b5 eb ee          	vpor   %ymm6,%ymm9,%ymm5
  408388:	c5 7e 6f 8c 24 a0 02 	vmovdqu 0x2a0(%rsp),%ymm9
  40838f:	00 00 
  408391:	c5 b5 db fe          	vpand  %ymm6,%ymm9,%ymm7
  408395:	c5 35 ef cd          	vpxor  %ymm5,%ymm9,%ymm9
  408399:	c4 41 45 ef f7       	vpxor  %ymm15,%ymm7,%ymm14
  40839e:	c4 c1 05 db f1       	vpand  %ymm9,%ymm15,%ymm6
  4083a3:	c4 41 15 ef e9       	vpxor  %ymm9,%ymm13,%ymm13
  4083a8:	c5 8d ef be 20 60 00 	vpxor  0x6020(%rsi),%ymm14,%ymm7
  4083af:	00 
  4083b0:	c5 3d ef fe          	vpxor  %ymm6,%ymm8,%ymm15
  4083b4:	c4 41 0d eb c0       	vpor   %ymm8,%ymm14,%ymm8
  4083b9:	c5 95 ef ae 00 62 00 	vpxor  0x6200(%rsi),%ymm13,%ymm5
  4083c0:	00 
  4083c1:	c5 fe 7f bc 24 80 09 	vmovdqu %ymm7,0x980(%rsp)
  4083c8:	00 00 
  4083ca:	c4 41 35 ef e8       	vpxor  %ymm8,%ymm9,%ymm13
  4083cf:	c4 c1 2d ef fb       	vpxor  %ymm11,%ymm10,%ymm7
  4083d4:	c5 05 ef 8e 80 66 00 	vpxor  0x6680(%rsi),%ymm15,%ymm9
  4083db:	00 
  4083dc:	c5 7e 6f 84 24 c0 04 	vmovdqu 0x4c0(%rsp),%ymm8
  4083e3:	00 00 
  4083e5:	c5 fe 7f ac 24 40 0b 	vmovdqu %ymm5,0xb40(%rsp)
  4083ec:	00 00 
  4083ee:	c5 7e 6f bc 24 a0 01 	vmovdqu 0x1a0(%rsp),%ymm15
  4083f5:	00 00 
  4083f7:	c5 7e 7f 8c 24 a0 07 	vmovdqu %ymm9,0x7a0(%rsp)
  4083fe:	00 00 
  408400:	c5 7e 6f 8c 24 00 05 	vmovdqu 0x500(%rsp),%ymm9
  408407:	00 00 
  408409:	c4 c1 7d ef e8       	vpxor  %ymm8,%ymm0,%ymm5
  40840e:	c5 15 ef b6 a0 64 00 	vpxor  0x64a0(%rsi),%ymm13,%ymm14
  408415:	00 
  408416:	c4 41 3d ef ea       	vpxor  %ymm10,%ymm8,%ymm13
  40841b:	c5 25 eb c5          	vpor   %ymm5,%ymm11,%ymm8
  40841f:	c5 7e 6f 9c 24 40 03 	vmovdqu 0x340(%rsp),%ymm11
  408426:	00 00 
  408428:	c5 7e 7f b4 24 a0 0c 	vmovdqu %ymm14,0xca0(%rsp)
  40842f:	00 00 
  408431:	c5 a5 db ed          	vpand  %ymm5,%ymm11,%ymm5
  408435:	c4 41 25 ef c0       	vpxor  %ymm8,%ymm11,%ymm8
  40843a:	c5 d5 ef f7          	vpxor  %ymm7,%ymm5,%ymm6
  40843e:	c4 c1 45 db f8       	vpand  %ymm8,%ymm7,%ymm7
  408443:	c4 41 2d ef d0       	vpxor  %ymm8,%ymm10,%ymm10
  408448:	c5 15 ef f7          	vpxor  %ymm7,%ymm13,%ymm14
  40844c:	c4 41 4d eb ed       	vpor   %ymm13,%ymm6,%ymm13
  408451:	c5 ad ef ae 20 62 00 	vpxor  0x6220(%rsi),%ymm10,%ymm5
  408458:	00 
  408459:	c5 fe 6f bc 24 60 03 	vmovdqu 0x360(%rsp),%ymm7
  408460:	00 00 
  408462:	c4 41 3d ef d5       	vpxor  %ymm13,%ymm8,%ymm10
  408467:	c5 4d ef 86 40 60 00 	vpxor  0x6040(%rsi),%ymm6,%ymm8
  40846e:	00 
  40846f:	c5 0d ef 9e a0 66 00 	vpxor  0x66a0(%rsi),%ymm14,%ymm11
  408476:	00 
  408477:	c5 fe 7f ac 24 60 0b 	vmovdqu %ymm5,0xb60(%rsp)
  40847e:	00 00 
  408480:	c5 ad ef b6 c0 64 00 	vpxor  0x64c0(%rsi),%ymm10,%ymm6
  408487:	00 
  408488:	c4 c1 35 ef ec       	vpxor  %ymm12,%ymm9,%ymm5
  40848d:	c5 7e 7f 84 24 a0 09 	vmovdqu %ymm8,0x9a0(%rsp)
  408494:	00 00 
  408496:	c5 7e 7f 9c 24 c0 07 	vmovdqu %ymm11,0x7c0(%rsp)
  40849d:	00 00 
  40849f:	c5 fe 7f b4 24 20 0d 	vmovdqu %ymm6,0xd20(%rsp)
  4084a6:	00 00 
  4084a8:	c4 c1 7d ef f1       	vpxor  %ymm9,%ymm0,%ymm6
  4084ad:	c4 41 1d ef c7       	vpxor  %ymm15,%ymm12,%ymm8
  4084b2:	c5 7e 6f 8c 24 a0 05 	vmovdqu 0x5a0(%rsp),%ymm9
  4084b9:	00 00 
  4084bb:	c5 05 eb ee          	vpor   %ymm6,%ymm15,%ymm13
  4084bf:	c5 45 db d6          	vpand  %ymm6,%ymm7,%ymm10
  4084c3:	c5 7e 6f bc 24 c0 01 	vmovdqu 0x1c0(%rsp),%ymm15
  4084ca:	00 00 
  4084cc:	c4 41 45 ef f5       	vpxor  %ymm13,%ymm7,%ymm14
  4084d1:	c4 41 2d ef d8       	vpxor  %ymm8,%ymm10,%ymm11
  4084d6:	c4 41 1d ef e6       	vpxor  %ymm14,%ymm12,%ymm12
  4084db:	c4 41 3d db c6       	vpand  %ymm14,%ymm8,%ymm8
  4084e0:	c5 a5 ef be 60 60 00 	vpxor  0x6060(%rsi),%ymm11,%ymm7
  4084e7:	00 
  4084e8:	c5 9d ef b6 40 62 00 	vpxor  0x6240(%rsi),%ymm12,%ymm6
  4084ef:	00 
  4084f0:	c4 41 55 ef e0       	vpxor  %ymm8,%ymm5,%ymm12
  4084f5:	c5 a5 eb ed          	vpor   %ymm5,%ymm11,%ymm5
  4084f9:	c5 fe 7f bc 24 c0 09 	vmovdqu %ymm7,0x9c0(%rsp)
  408500:	00 00 
  408502:	c5 fe 7f b4 24 80 0b 	vmovdqu %ymm6,0xb80(%rsp)
  408509:	00 00 
  40850b:	c5 fe 6f b4 24 80 03 	vmovdqu 0x380(%rsp),%ymm6
  408512:	00 00 
  408514:	c5 0d ef ed          	vpxor  %ymm5,%ymm14,%ymm13
  408518:	c4 c1 7d ef e9       	vpxor  %ymm9,%ymm0,%ymm5
  40851d:	c5 1d ef 96 c0 66 00 	vpxor  0x66c0(%rsi),%ymm12,%ymm10
  408524:	00 
  408525:	c5 7e 6f a4 24 40 05 	vmovdqu 0x540(%rsp),%ymm12
  40852c:	00 00 
  40852e:	c5 4d db f5          	vpand  %ymm5,%ymm6,%ymm14
  408532:	c5 15 ef 86 e0 64 00 	vpxor  0x64e0(%rsi),%ymm13,%ymm8
  408539:	00 
  40853a:	c5 7e 7f 94 24 e0 07 	vmovdqu %ymm10,0x7e0(%rsp)
  408541:	00 00 
  408543:	c5 05 eb d5          	vpor   %ymm5,%ymm15,%ymm10
  408547:	c4 c1 1d ef ff       	vpxor  %ymm15,%ymm12,%ymm7
  40854c:	c4 41 35 ef ec       	vpxor  %ymm12,%ymm9,%ymm13
  408551:	c4 c1 4d ef ea       	vpxor  %ymm10,%ymm6,%ymm5
  408556:	c5 8d ef f7          	vpxor  %ymm7,%ymm14,%ymm6
  40855a:	c5 7e 6f b4 24 e0 01 	vmovdqu 0x1e0(%rsp),%ymm14
  408561:	00 00 
  408563:	c5 7e 6f 94 24 80 05 	vmovdqu 0x580(%rsp),%ymm10
  40856a:	00 00 
  40856c:	c5 c5 db fd          	vpand  %ymm5,%ymm7,%ymm7
  408570:	c5 1d ef e5          	vpxor  %ymm5,%ymm12,%ymm12
  408574:	c5 4d ef 8e 80 60 00 	vpxor  0x6080(%rsi),%ymm6,%ymm9
  40857b:	00 
  40857c:	c5 95 ef ff          	vpxor  %ymm7,%ymm13,%ymm7
  408580:	c4 41 4d eb ed       	vpor   %ymm13,%ymm6,%ymm13
  408585:	c5 1d ef 9e 60 62 00 	vpxor  0x6260(%rsi),%ymm12,%ymm11
  40858c:	00 
  40858d:	c5 7e 7f 8c 24 e0 09 	vmovdqu %ymm9,0x9e0(%rsp)
  408594:	00 00 
  408596:	c5 7e 6f 8c 24 a0 03 	vmovdqu 0x3a0(%rsp),%ymm9
  40859d:	00 00 
  40859f:	c4 41 55 ef fd       	vpxor  %ymm13,%ymm5,%ymm15
  4085a4:	c5 c5 ef b6 e0 66 00 	vpxor  0x66e0(%rsi),%ymm7,%ymm6
  4085ab:	00 
  4085ac:	c5 7e 6f ac 24 e0 05 	vmovdqu 0x5e0(%rsp),%ymm13
  4085b3:	00 00 
  4085b5:	c5 7e 7f 9c 24 a0 0b 	vmovdqu %ymm11,0xba0(%rsp)
  4085bc:	00 00 
  4085be:	c5 85 ef ae 00 65 00 	vpxor  0x6500(%rsi),%ymm15,%ymm5
  4085c5:	00 
  4085c6:	c5 fe 7f b4 24 00 08 	vmovdqu %ymm6,0x800(%rsp)
  4085cd:	00 00 
  4085cf:	c4 41 7d ef dd       	vpxor  %ymm13,%ymm0,%ymm11
  4085d4:	c4 41 15 ef e2       	vpxor  %ymm10,%ymm13,%ymm12
  4085d9:	c4 41 2d ef ee       	vpxor  %ymm14,%ymm10,%ymm13
  4085de:	c4 41 0d eb fb       	vpor   %ymm11,%ymm14,%ymm15
  4085e3:	c4 c1 35 db f3       	vpand  %ymm11,%ymm9,%ymm6
  4085e8:	c4 c1 35 ef ff       	vpxor  %ymm15,%ymm9,%ymm7
  4085ed:	c4 c1 4d ef f5       	vpxor  %ymm13,%ymm6,%ymm6
  4085f2:	c5 7e 6f bc 24 c0 05 	vmovdqu 0x5c0(%rsp),%ymm15
  4085f9:	00 00 
  4085fb:	c5 2d ef d7          	vpxor  %ymm7,%ymm10,%ymm10
  4085ff:	c5 15 db ef          	vpand  %ymm7,%ymm13,%ymm13
  408603:	c5 2d ef 96 80 62 00 	vpxor  0x6280(%rsi),%ymm10,%ymm10
  40860a:	00 
  40860b:	c4 41 1d ef f5       	vpxor  %ymm13,%ymm12,%ymm14
  408610:	c4 41 4d eb e4       	vpor   %ymm12,%ymm6,%ymm12
  408615:	c5 cd ef b6 a0 60 00 	vpxor  0x60a0(%rsi),%ymm6,%ymm6
  40861c:	00 
  40861d:	c5 7e 7f 94 24 c0 0b 	vmovdqu %ymm10,0xbc0(%rsp)
  408624:	00 00 
  408626:	c5 7e 6f 94 24 a0 06 	vmovdqu 0x6a0(%rsp),%ymm10
  40862d:	00 00 
  40862f:	c4 c1 45 ef fc       	vpxor  %ymm12,%ymm7,%ymm7
  408634:	c5 0d ef a6 00 67 00 	vpxor  0x6700(%rsi),%ymm14,%ymm12
  40863b:	00 
  40863c:	c5 fe 7f b4 24 00 0a 	vmovdqu %ymm6,0xa00(%rsp)
  408643:	00 00 
  408645:	c5 fe 6f b4 24 00 02 	vmovdqu 0x200(%rsp),%ymm6
  40864c:	00 00 
  40864e:	c5 45 ef ae 20 65 00 	vpxor  0x6520(%rsi),%ymm7,%ymm13
  408655:	00 
  408656:	c4 c1 7d ef fa       	vpxor  %ymm10,%ymm0,%ymm7
  40865b:	c4 41 2d ef cf       	vpxor  %ymm15,%ymm10,%ymm9
  408660:	c5 05 ef de          	vpxor  %ymm6,%ymm15,%ymm11
  408664:	c5 7e 7f ac 24 c0 0c 	vmovdqu %ymm13,0xcc0(%rsp)
  40866b:	00 00 
  40866d:	c5 7e 6f ac 24 c0 03 	vmovdqu 0x3c0(%rsp),%ymm13
  408674:	00 00 
  408676:	c5 7e 7f a4 24 20 08 	vmovdqu %ymm12,0x820(%rsp)
  40867d:	00 00 
  40867f:	c5 4d eb e7          	vpor   %ymm7,%ymm6,%ymm12
  408683:	c5 15 db d7          	vpand  %ymm7,%ymm13,%ymm10
  408687:	c4 41 15 ef f4       	vpxor  %ymm12,%ymm13,%ymm14
  40868c:	c4 c1 2d ef f3       	vpxor  %ymm11,%ymm10,%ymm6
  408691:	c4 41 05 ef fe       	vpxor  %ymm14,%ymm15,%ymm15
  408696:	c4 41 25 db de       	vpand  %ymm14,%ymm11,%ymm11
  40869b:	c5 85 ef be a0 62 00 	vpxor  0x62a0(%rsi),%ymm15,%ymm7
  4086a2:	00 
  4086a3:	c4 41 35 ef e3       	vpxor  %ymm11,%ymm9,%ymm12
  4086a8:	c4 41 4d eb c9       	vpor   %ymm9,%ymm6,%ymm9
  4086ad:	c5 cd ef b6 c0 60 00 	vpxor  0x60c0(%rsi),%ymm6,%ymm6
  4086b4:	00 
  4086b5:	c5 fe 7f bc 24 e0 0b 	vmovdqu %ymm7,0xbe0(%rsp)
  4086bc:	00 00 
  4086be:	c5 7e 6f 9c 24 20 02 	vmovdqu 0x220(%rsp),%ymm11
  4086c5:	00 00 
  4086c7:	c5 7e 6f bc 24 e0 03 	vmovdqu 0x3e0(%rsp),%ymm15
  4086ce:	00 00 
  4086d0:	c5 fe 7f b4 24 20 0a 	vmovdqu %ymm6,0xa20(%rsp)
  4086d7:	00 00 
  4086d9:	c4 c1 0d ef f9       	vpxor  %ymm9,%ymm14,%ymm7
  4086de:	c5 1d ef 96 20 67 00 	vpxor  0x6720(%rsi),%ymm12,%ymm10
  4086e5:	00 
  4086e6:	c5 7e 6f b4 24 00 07 	vmovdqu 0x700(%rsp),%ymm14
  4086ed:	00 00 
  4086ef:	c5 45 ef ae 40 65 00 	vpxor  0x6540(%rsi),%ymm7,%ymm13
  4086f6:	00 
  4086f7:	c5 7e 7f 94 24 60 08 	vmovdqu %ymm10,0x860(%rsp)
  4086fe:	00 00 
  408700:	c5 7e 6f 94 24 00 06 	vmovdqu 0x600(%rsp),%ymm10
  408707:	00 00 
  408709:	c4 41 7d ef ce       	vpxor  %ymm14,%ymm0,%ymm9
  40870e:	c5 7e 7f ac 24 e0 0c 	vmovdqu %ymm13,0xce0(%rsp)
  408715:	00 00 
  408717:	c4 41 0d ef e2       	vpxor  %ymm10,%ymm14,%ymm12
  40871c:	c4 c1 25 eb f1       	vpor   %ymm9,%ymm11,%ymm6
  408721:	c4 41 2d ef eb       	vpxor  %ymm11,%ymm10,%ymm13
  408726:	c4 41 05 db f1       	vpand  %ymm9,%ymm15,%ymm14
  40872b:	c5 85 ef fe          	vpxor  %ymm6,%ymm15,%ymm7
  40872f:	c4 c1 0d ef f5       	vpxor  %ymm13,%ymm14,%ymm6
  408734:	c5 7e 6f b4 24 20 06 	vmovdqu 0x620(%rsp),%ymm14
  40873b:	00 00 
  40873d:	c5 15 db ef          	vpand  %ymm7,%ymm13,%ymm13
  408741:	c5 2d ef d7          	vpxor  %ymm7,%ymm10,%ymm10
  408745:	c4 41 1d ef fd       	vpxor  %ymm13,%ymm12,%ymm15
  40874a:	c4 41 4d eb e4       	vpor   %ymm12,%ymm6,%ymm12
  40874f:	c5 2d ef 9e c0 62 00 	vpxor  0x62c0(%rsi),%ymm10,%ymm11
  408756:	00 
  408757:	c5 7e 6f ac 24 80 06 	vmovdqu 0x680(%rsp),%ymm13
  40875e:	00 00 
  408760:	c4 41 45 ef cc       	vpxor  %ymm12,%ymm7,%ymm9
  408765:	c5 cd ef be e0 60 00 	vpxor  0x60e0(%rsi),%ymm6,%ymm7
  40876c:	00 
  40876d:	c5 7e 7f 9c 24 00 0c 	vmovdqu %ymm11,0xc00(%rsp)
  408774:	00 00 
  408776:	c5 7e 6f 9c 24 20 01 	vmovdqu 0x120(%rsp),%ymm11
  40877d:	00 00 
  40877f:	c5 b5 ef b6 60 65 00 	vpxor  0x6560(%rsi),%ymm9,%ymm6
  408786:	00 
  408787:	c4 41 7d ef cd       	vpxor  %ymm13,%ymm0,%ymm9
  40878c:	c4 41 15 ef d6       	vpxor  %ymm14,%ymm13,%ymm10
  408791:	c4 41 0d ef e3       	vpxor  %ymm11,%ymm14,%ymm12
  408796:	c5 fe 7f bc 24 40 0a 	vmovdqu %ymm7,0xa40(%rsp)
  40879d:	00 00 
  40879f:	c5 85 ef be 40 67 00 	vpxor  0x6740(%rsi),%ymm15,%ymm7
  4087a6:	00 
  4087a7:	c5 7e 6f bc 24 00 04 	vmovdqu 0x400(%rsp),%ymm15
  4087ae:	00 00 
  4087b0:	c5 fe 7f bc 24 a0 08 	vmovdqu %ymm7,0x8a0(%rsp)
  4087b7:	00 00 
  4087b9:	c4 c1 25 eb f9       	vpor   %ymm9,%ymm11,%ymm7
  4087be:	c4 41 05 db d9       	vpand  %ymm9,%ymm15,%ymm11
  4087c3:	c5 05 ef ef          	vpxor  %ymm7,%ymm15,%ymm13
  4087c7:	c4 c1 25 ef fc       	vpxor  %ymm12,%ymm11,%ymm7
  4087cc:	c4 41 0d ef f5       	vpxor  %ymm13,%ymm14,%ymm14
  4087d1:	c4 41 1d db e5       	vpand  %ymm13,%ymm12,%ymm12
  4087d6:	c5 0d ef b6 e0 62 00 	vpxor  0x62e0(%rsi),%ymm14,%ymm14
  4087dd:	00 
  4087de:	c4 41 2d ef e4       	vpxor  %ymm12,%ymm10,%ymm12
  4087e3:	c4 41 45 eb d2       	vpor   %ymm10,%ymm7,%ymm10
  4087e8:	c5 c5 ef be 00 61 00 	vpxor  0x6100(%rsi),%ymm7,%ymm7
  4087ef:	00 
  4087f0:	c5 7e 7f b4 24 40 0c 	vmovdqu %ymm14,0xc40(%rsp)
  4087f7:	00 00 
  4087f9:	c4 41 15 ef ea       	vpxor  %ymm10,%ymm13,%ymm13
  4087fe:	c5 1d ef 96 60 67 00 	vpxor  0x6760(%rsi),%ymm12,%ymm10
  408805:	00 
  408806:	c5 7d ef f1          	vpxor  %ymm1,%ymm0,%ymm14
  40880a:	c5 75 ef e4          	vpxor  %ymm4,%ymm1,%ymm12
  40880e:	c5 fe 6f 8c 24 40 01 	vmovdqu 0x140(%rsp),%ymm1
  408815:	00 00 
  408817:	c5 fe 7f bc 24 60 0a 	vmovdqu %ymm7,0xa60(%rsp)
  40881e:	00 00 
  408820:	c5 7e 7f 94 24 c0 08 	vmovdqu %ymm10,0x8c0(%rsp)
  408827:	00 00 
  408829:	c5 95 ef be 80 65 00 	vpxor  0x6580(%rsi),%ymm13,%ymm7
  408830:	00 
  408831:	c5 5d ef e9          	vpxor  %ymm1,%ymm4,%ymm13
  408835:	c4 41 75 eb d6       	vpor   %ymm14,%ymm1,%ymm10
  40883a:	c5 fe 6f 8c 24 20 04 	vmovdqu 0x420(%rsp),%ymm1
  408841:	00 00 
  408843:	c4 41 75 db de       	vpand  %ymm14,%ymm1,%ymm11
  408848:	c4 c1 75 ef ca       	vpxor  %ymm10,%ymm1,%ymm1
  40884d:	c4 41 25 ef fd       	vpxor  %ymm13,%ymm11,%ymm15
  408852:	c5 15 db e9          	vpand  %ymm1,%ymm13,%ymm13
  408856:	c5 dd ef e1          	vpxor  %ymm1,%ymm4,%ymm4
  40885a:	c4 41 1d ef cd       	vpxor  %ymm13,%ymm12,%ymm9
  40885f:	c4 41 05 eb e4       	vpor   %ymm12,%ymm15,%ymm12
  408864:	c5 dd ef a6 00 63 00 	vpxor  0x6300(%rsi),%ymm4,%ymm4
  40886b:	00 
  40886c:	c5 7e 6f ac 24 20 0e 	vmovdqu 0xe20(%rsp),%ymm13
  408873:	00 00 
  408875:	c4 41 75 ef d4       	vpxor  %ymm12,%ymm1,%ymm10
  40887a:	c5 85 ef 8e 20 61 00 	vpxor  0x6120(%rsi),%ymm15,%ymm1
  408881:	00 
  408882:	c5 35 ef be 80 67 00 	vpxor  0x6780(%rsi),%ymm9,%ymm15
  408889:	00 
  40888a:	c5 65 ef ca          	vpxor  %ymm2,%ymm3,%ymm9
  40888e:	c5 fe 7f a4 24 00 0d 	vmovdqu %ymm4,0xd00(%rsp)
  408895:	00 00 
  408897:	c5 fe 7f 8c 24 80 0a 	vmovdqu %ymm1,0xa80(%rsp)
  40889e:	00 00 
  4088a0:	c5 7e 7f bc 24 e0 08 	vmovdqu %ymm15,0x8e0(%rsp)
  4088a7:	00 00 
  4088a9:	c5 fd ef cb          	vpxor  %ymm3,%ymm0,%ymm1
  4088ad:	c5 ad ef a6 a0 65 00 	vpxor  0x65a0(%rsi),%ymm10,%ymm4
  4088b4:	00 
  4088b5:	c5 fe 6f 9c 24 60 01 	vmovdqu 0x160(%rsp),%ymm3
  4088bc:	00 00 
  4088be:	c5 15 db e1          	vpand  %ymm1,%ymm13,%ymm12
  4088c2:	c5 6d ef db          	vpxor  %ymm3,%ymm2,%ymm11
  4088c6:	c5 e5 eb d9          	vpor   %ymm1,%ymm3,%ymm3
  4088ca:	c4 41 1d ef f3       	vpxor  %ymm11,%ymm12,%ymm14
  4088cf:	c5 95 ef cb          	vpxor  %ymm3,%ymm13,%ymm1
  4088d3:	c4 c1 0d eb d9       	vpor   %ymm9,%ymm14,%ymm3
  4088d8:	c5 25 db e9          	vpand  %ymm1,%ymm11,%ymm13
  4088dc:	c5 ed ef d1          	vpxor  %ymm1,%ymm2,%ymm2
  4088e0:	c5 7e 6f 9c 24 80 0e 	vmovdqu 0xe80(%rsp),%ymm11
  4088e7:	00 00 
  4088e9:	c4 41 35 ef d5       	vpxor  %ymm13,%ymm9,%ymm10
  4088ee:	c5 75 ef e3          	vpxor  %ymm3,%ymm1,%ymm12
  4088f2:	c5 8d ef 8e 40 61 00 	vpxor  0x6140(%rsi),%ymm14,%ymm1
  4088f9:	00 
  4088fa:	c4 41 7d ef fb       	vpxor  %ymm11,%ymm0,%ymm15
  4088ff:	c5 2d ef b6 a0 67 00 	vpxor  0x67a0(%rsi),%ymm10,%ymm14
  408906:	00 
  408907:	c5 ed ef 96 20 63 00 	vpxor  0x6320(%rsi),%ymm2,%ymm2
  40890e:	00 
  40890f:	c5 7e 6f 8c 24 80 01 	vmovdqu 0x180(%rsp),%ymm9
  408916:	00 00 
  408918:	c5 fe 7f 8c 24 a0 0a 	vmovdqu %ymm1,0xaa0(%rsp)
  40891f:	00 00 
  408921:	c5 7e 6f 14 24       	vmovdqu (%rsp),%ymm10
  408926:	c5 fe 6f 8c 24 60 0e 	vmovdqu 0xe60(%rsp),%ymm1
  40892d:	00 00 
  40892f:	c5 7e 7f b4 24 00 09 	vmovdqu %ymm14,0x900(%rsp)
  408936:	00 00 
  408938:	c5 fe 7f 94 24 a0 0d 	vmovdqu %ymm2,0xda0(%rsp)
  40893f:	00 00 
  408941:	c4 41 35 eb ef       	vpor   %ymm15,%ymm9,%ymm13
  408946:	c4 c1 2d ef d9       	vpxor  %ymm9,%ymm10,%ymm3
  40894b:	c4 41 75 db f7       	vpand  %ymm15,%ymm1,%ymm14
  408950:	c5 9d ef 96 c0 65 00 	vpxor  0x65c0(%rsi),%ymm12,%ymm2
  408957:	00 
  408958:	c4 41 75 ef ed       	vpxor  %ymm13,%ymm1,%ymm13
  40895d:	c4 41 25 ef e2       	vpxor  %ymm10,%ymm11,%ymm12
  408962:	c5 8d ef cb          	vpxor  %ymm3,%ymm14,%ymm1
  408966:	c5 7e 6f b4 24 00 0e 	vmovdqu 0xe00(%rsp),%ymm14
  40896d:	00 00 
  40896f:	c4 c1 65 db dd       	vpand  %ymm13,%ymm3,%ymm3
  408974:	c4 41 2d ef d5       	vpxor  %ymm13,%ymm10,%ymm10
  408979:	c5 75 ef 8e 60 61 00 	vpxor  0x6160(%rsi),%ymm1,%ymm9
  408980:	00 
  408981:	c5 9d ef db          	vpxor  %ymm3,%ymm12,%ymm3
  408985:	c4 41 75 eb e4       	vpor   %ymm12,%ymm1,%ymm12
  40898a:	c5 2d ef 9e 40 63 00 	vpxor  0x6340(%rsi),%ymm10,%ymm11
  408991:	00 
  408992:	c5 7e 7f 8c 24 c0 0a 	vmovdqu %ymm9,0xac0(%rsp)
  408999:	00 00 
  40899b:	c5 7e 6f 94 24 c0 0d 	vmovdqu 0xdc0(%rsp),%ymm10
  4089a2:	00 00 
  4089a4:	c5 7e 6f 8c 24 a0 0e 	vmovdqu 0xea0(%rsp),%ymm9
  4089ab:	00 00 
  4089ad:	c5 7e 7f 9c 24 60 0d 	vmovdqu %ymm11,0xd60(%rsp)
  4089b4:	00 00 
  4089b6:	c4 41 15 ef fc       	vpxor  %ymm12,%ymm13,%ymm15
  4089bb:	c5 65 ef ae c0 67 00 	vpxor  0x67c0(%rsi),%ymm3,%ymm13
  4089c2:	00 
  4089c3:	c5 7e 6f a4 24 c0 0e 	vmovdqu 0xec0(%rsp),%ymm12
  4089ca:	00 00 
  4089cc:	c5 85 ef 8e e0 65 00 	vpxor  0x65e0(%rsi),%ymm15,%ymm1
  4089d3:	00 
  4089d4:	c4 41 2d ef fe       	vpxor  %ymm14,%ymm10,%ymm15
  4089d9:	c5 7e 7f ac 24 80 08 	vmovdqu %ymm13,0x880(%rsp)
  4089e0:	00 00 
  4089e2:	c4 41 7d ef dc       	vpxor  %ymm12,%ymm0,%ymm11
  4089e7:	c4 c1 1d ef da       	vpxor  %ymm10,%ymm12,%ymm3
  4089ec:	c4 41 0d eb eb       	vpor   %ymm11,%ymm14,%ymm13
  4089f1:	c4 41 35 db f3       	vpand  %ymm11,%ymm9,%ymm14
  4089f6:	c5 7e 6f 9c 24 00 0f 	vmovdqu 0xf00(%rsp),%ymm11
  4089fd:	00 00 
  4089ff:	c4 41 35 ef e5       	vpxor  %ymm13,%ymm9,%ymm12
  408a04:	c4 41 0d ef ef       	vpxor  %ymm15,%ymm14,%ymm13
  408a09:	c5 7e 6f 8c 24 e0 0d 	vmovdqu 0xde0(%rsp),%ymm9
  408a10:	00 00 
  408a12:	c4 41 2d ef d4       	vpxor  %ymm12,%ymm10,%ymm10
  408a17:	c4 41 05 db fc       	vpand  %ymm12,%ymm15,%ymm15
  408a1c:	c5 2d ef 96 60 63 00 	vpxor  0x6360(%rsi),%ymm10,%ymm10
  408a23:	00 
  408a24:	c5 7e 7f 94 24 80 0d 	vmovdqu %ymm10,0xd80(%rsp)
  408a2b:	00 00 
  408a2d:	c4 41 65 ef d7       	vpxor  %ymm15,%ymm3,%ymm10
  408a32:	c5 95 eb db          	vpor   %ymm3,%ymm13,%ymm3
  408a36:	c5 15 ef ae 80 61 00 	vpxor  0x6180(%rsi),%ymm13,%ymm13
  408a3d:	00 
  408a3e:	c5 7e 6f bc 24 40 0e 	vmovdqu 0xe40(%rsp),%ymm15
  408a45:	00 00 
  408a47:	c5 1d ef e3          	vpxor  %ymm3,%ymm12,%ymm12
  408a4b:	c4 c1 7d ef db       	vpxor  %ymm11,%ymm0,%ymm3
  408a50:	c5 2d ef b6 e0 67 00 	vpxor  0x67e0(%rsi),%ymm10,%ymm14
  408a57:	00 
  408a58:	c5 7e 7f ac 24 e0 0a 	vmovdqu %ymm13,0xae0(%rsp)
  408a5f:	00 00 
  408a61:	c5 1d ef ae 00 64 00 	vpxor  0x6400(%rsi),%ymm12,%ymm13
  408a68:	00 
  408a69:	c5 05 eb d3          	vpor   %ymm3,%ymm15,%ymm10
  408a6d:	c5 7e 7f b4 24 40 08 	vmovdqu %ymm14,0x840(%rsp)
  408a74:	00 00 
  408a76:	c5 7e 6f a4 24 e0 0e 	vmovdqu 0xee0(%rsp),%ymm12
  408a7d:	00 00 
  408a7f:	c4 41 25 ef f1       	vpxor  %ymm9,%ymm11,%ymm14
  408a84:	c4 41 35 ef df       	vpxor  %ymm15,%ymm9,%ymm11
  408a89:	c5 9d db db          	vpand  %ymm3,%ymm12,%ymm3
  408a8d:	c4 41 1d ef d2       	vpxor  %ymm10,%ymm12,%ymm10
  408a92:	c4 41 65 ef e3       	vpxor  %ymm11,%ymm3,%ymm12
  408a97:	c4 41 35 ef ca       	vpxor  %ymm10,%ymm9,%ymm9
  408a9c:	c5 b5 ef 9e 80 63 00 	vpxor  0x6380(%rsi),%ymm9,%ymm3
  408aa3:	00 
  408aa4:	c4 41 25 db ca       	vpand  %ymm10,%ymm11,%ymm9
  408aa9:	c4 41 1d eb de       	vpor   %ymm14,%ymm12,%ymm11
  408aae:	c5 1d ef a6 a0 61 00 	vpxor  0x61a0(%rsi),%ymm12,%ymm12
  408ab5:	00 
  408ab6:	c5 fe 7f 9c 24 40 0d 	vmovdqu %ymm3,0xd40(%rsp)
  408abd:	00 00 
  408abf:	c4 41 2d ef d3       	vpxor  %ymm11,%ymm10,%ymm10
  408ac4:	c4 c1 0d ef d9       	vpxor  %ymm9,%ymm14,%ymm3
  408ac9:	c5 7e 7f a4 24 00 0b 	vmovdqu %ymm12,0xb00(%rsp)
  408ad0:	00 00 
  408ad2:	c5 7e 6f 8e 00 66 00 	vmovdqu 0x6600(%rsi),%ymm9
  408ad9:	00 
  408ada:	c5 2d ef 96 20 64 00 	vpxor  0x6420(%rsi),%ymm10,%ymm10
  408ae1:	00 
  408ae2:	c5 7e 6f 9c 24 20 0b 	vmovdqu 0xb20(%rsp),%ymm11
  408ae9:	00 00 
  408aeb:	c5 fe 7f 64 24 40    	vmovdqu %ymm4,0x40(%rsp)
  408af1:	c5 fe 6f a4 24 80 0c 	vmovdqu 0xc80(%rsp),%ymm4
  408af8:	00 00 
  408afa:	c5 7e 6f bc 24 60 09 	vmovdqu 0x960(%rsp),%ymm15
  408b01:	00 00 
  408b03:	c5 fe 7f 8c 24 00 07 	vmovdqu %ymm1,0x700(%rsp)
  408b0a:	00 00 
  408b0c:	c5 fe 7f 94 24 e0 06 	vmovdqu %ymm2,0x6e0(%rsp)
  408b13:	00 00 
  408b15:	c4 41 65 ef f1       	vpxor  %ymm9,%ymm3,%ymm14
  408b1a:	c4 41 7d ef cb       	vpxor  %ymm11,%ymm0,%ymm9
  408b1f:	c5 25 ef e4          	vpxor  %ymm4,%ymm11,%ymm12
  408b23:	c5 fe 6f 9c 24 40 07 	vmovdqu 0x740(%rsp),%ymm3
  408b2a:	00 00 
  408b2c:	c4 41 05 db d9       	vpand  %ymm9,%ymm15,%ymm11
  408b31:	c4 c1 65 eb c9       	vpor   %ymm9,%ymm3,%ymm1
  408b36:	c5 dd ef d3          	vpxor  %ymm3,%ymm4,%ymm2
  408b3a:	c5 85 ef c9          	vpxor  %ymm1,%ymm15,%ymm1
  408b3e:	c5 25 ef da          	vpxor  %ymm2,%ymm11,%ymm11
  408b42:	c5 ed db d1          	vpand  %ymm1,%ymm2,%ymm2
  408b46:	c5 dd ef e1          	vpxor  %ymm1,%ymm4,%ymm4
  408b4a:	c5 25 ef 8e c0 61 00 	vpxor  0x61c0(%rsi),%ymm11,%ymm9
  408b51:	00 
  408b52:	c5 9d ef d2          	vpxor  %ymm2,%ymm12,%ymm2
  408b56:	c4 41 25 eb e4       	vpor   %ymm12,%ymm11,%ymm12
  408b5b:	c5 dd ef 9e a0 63 00 	vpxor  0x63a0(%rsi),%ymm4,%ymm3
  408b62:	00 
  408b63:	c5 7e 7f 8c 24 e0 0d 	vmovdqu %ymm9,0xde0(%rsp)
  408b6a:	00 00 
  408b6c:	c4 41 75 ef fc       	vpxor  %ymm12,%ymm1,%ymm15
  408b71:	c5 6d ef 9e 20 66 00 	vpxor  0x6620(%rsi),%ymm2,%ymm11
  408b78:	00 
  408b79:	c5 fe 7f 9c 24 c0 0d 	vmovdqu %ymm3,0xdc0(%rsp)
  408b80:	00 00 
  408b82:	c5 7e 6f 64 24 20    	vmovdqu 0x20(%rsp),%ymm12
  408b88:	c5 fe 6f 94 24 60 0c 	vmovdqu 0xc60(%rsp),%ymm2
  408b8f:	00 00 
  408b91:	c5 fe 6f 9c 24 60 07 	vmovdqu 0x760(%rsp),%ymm3
  408b98:	00 00 
  408b9a:	c5 85 ef a6 40 64 00 	vpxor  0x6440(%rsi),%ymm15,%ymm4
  408ba1:	00 
  408ba2:	c4 c1 7d ef cc       	vpxor  %ymm12,%ymm0,%ymm1
  408ba7:	c5 1d ef e2          	vpxor  %ymm2,%ymm12,%ymm12
  408bab:	c5 6d ef fb          	vpxor  %ymm3,%ymm2,%ymm15
  408baf:	c5 65 eb c9          	vpor   %ymm1,%ymm3,%ymm9
  408bb3:	c5 fe 6f 9c 24 20 09 	vmovdqu 0x920(%rsp),%ymm3
  408bba:	00 00 
  408bbc:	c5 e5 db c9          	vpand  %ymm1,%ymm3,%ymm1
  408bc0:	c4 41 65 ef c9       	vpxor  %ymm9,%ymm3,%ymm9
  408bc5:	c4 c1 75 ef cf       	vpxor  %ymm15,%ymm1,%ymm1
  408bca:	c4 c1 6d ef d1       	vpxor  %ymm9,%ymm2,%ymm2
  408bcf:	c4 41 05 db f9       	vpand  %ymm9,%ymm15,%ymm15
  408bd4:	c5 ed ef 9e c0 63 00 	vpxor  0x63c0(%rsi),%ymm2,%ymm3
  408bdb:	00 
  408bdc:	c4 c1 75 eb d4       	vpor   %ymm12,%ymm1,%ymm2
  408be1:	c5 f5 ef 8e e0 61 00 	vpxor  0x61e0(%rsi),%ymm1,%ymm1
  408be8:	00 
  408be9:	c5 fe 7f 9c 24 00 0e 	vmovdqu %ymm3,0xe00(%rsp)
  408bf0:	00 00 
  408bf2:	c4 c1 1d ef df       	vpxor  %ymm15,%ymm12,%ymm3
  408bf7:	c5 35 ef ca          	vpxor  %ymm2,%ymm9,%ymm9
  408bfb:	c5 fe 7f 8c 24 20 0e 	vmovdqu %ymm1,0xe20(%rsp)
  408c02:	00 00 
  408c04:	c5 fe 6f 8c 24 40 0b 	vmovdqu 0xb40(%rsp),%ymm1
  408c0b:	00 00 
  408c0d:	c5 7e 6f bc 24 40 09 	vmovdqu 0x940(%rsp),%ymm15
  408c14:	00 00 
  408c16:	c5 65 ef a6 40 66 00 	vpxor  0x6640(%rsi),%ymm3,%ymm12
  408c1d:	00 
  408c1e:	c5 35 ef 8e 60 64 00 	vpxor  0x6460(%rsi),%ymm9,%ymm9
  408c25:	00 
  408c26:	c5 fd ef d1          	vpxor  %ymm1,%ymm0,%ymm2
  408c2a:	c4 c1 75 ef dd       	vpxor  %ymm13,%ymm1,%ymm3
  408c2f:	c4 c1 15 ef ce       	vpxor  %ymm14,%ymm13,%ymm1
  408c34:	c5 0d eb f2          	vpor   %ymm2,%ymm14,%ymm14
  408c38:	c5 85 db d2          	vpand  %ymm2,%ymm15,%ymm2
  408c3c:	c4 41 05 ef f6       	vpxor  %ymm14,%ymm15,%ymm14
  408c41:	c5 6d ef f9          	vpxor  %ymm1,%ymm2,%ymm15
  408c45:	c4 41 15 ef ee       	vpxor  %ymm14,%ymm13,%ymm13
  408c4a:	c4 c1 75 db ce       	vpand  %ymm14,%ymm1,%ymm1
  408c4f:	c5 95 ef 96 e0 6b 00 	vpxor  0x6be0(%rsi),%ymm13,%ymm2
  408c56:	00 
  408c57:	c5 65 ef e9          	vpxor  %ymm1,%ymm3,%ymm13
  408c5b:	c5 85 eb db          	vpor   %ymm3,%ymm15,%ymm3
  408c5f:	c5 fe 7f 54 24 60    	vmovdqu %ymm2,0x60(%rsp)
  408c65:	c5 95 ef 96 60 6e 00 	vpxor  0x6e60(%rsi),%ymm13,%ymm2
  408c6c:	00 
  408c6d:	c5 0d ef f3          	vpxor  %ymm3,%ymm14,%ymm14
  408c71:	c5 85 ef 9e 00 68 00 	vpxor  0x6800(%rsi),%ymm15,%ymm3
  408c78:	00 
  408c79:	c5 7e 6f ac 24 60 0b 	vmovdqu 0xb60(%rsp),%ymm13
  408c80:	00 00 
  408c82:	c5 fe 7f 94 24 80 00 	vmovdqu %ymm2,0x80(%rsp)
  408c89:	00 00 
  408c8b:	c5 8d ef 8e 80 6c 00 	vpxor  0x6c80(%rsi),%ymm14,%ymm1
  408c92:	00 
  408c93:	c4 c1 7d ef d5       	vpxor  %ymm13,%ymm0,%ymm2
  408c98:	c5 fe 7f 8c 24 e0 05 	vmovdqu %ymm1,0x5e0(%rsp)
  408c9f:	00 00 
  408ca1:	c4 c1 15 ef ca       	vpxor  %ymm10,%ymm13,%ymm1
  408ca6:	c4 41 2d ef eb       	vpxor  %ymm11,%ymm10,%ymm13
  408cab:	c5 25 eb f2          	vpor   %ymm2,%ymm11,%ymm14
  408caf:	c5 7e 6f 9c 24 80 09 	vmovdqu 0x980(%rsp),%ymm11
  408cb6:	00 00 
  408cb8:	c5 a5 db d2          	vpand  %ymm2,%ymm11,%ymm2
  408cbc:	c4 41 25 ef f6       	vpxor  %ymm14,%ymm11,%ymm14
  408cc1:	c4 41 6d ef fd       	vpxor  %ymm13,%ymm2,%ymm15
  408cc6:	c4 c1 15 db d6       	vpand  %ymm14,%ymm13,%ymm2
  408ccb:	c4 41 2d ef d6       	vpxor  %ymm14,%ymm10,%ymm10
  408cd0:	c5 05 ef ae 20 68 00 	vpxor  0x6820(%rsi),%ymm15,%ymm13
  408cd7:	00 
  408cd8:	c5 f5 ef d2          	vpxor  %ymm2,%ymm1,%ymm2
  408cdc:	c5 85 eb c9          	vpor   %ymm1,%ymm15,%ymm1
  408ce0:	c5 2d ef 9e 00 6a 00 	vpxor  0x6a00(%rsi),%ymm10,%ymm11
  408ce7:	00 
  408ce8:	c5 6d ef be 80 6e 00 	vpxor  0x6e80(%rsi),%ymm2,%ymm15
  408cef:	00 
  408cf0:	c5 0d ef d1          	vpxor  %ymm1,%ymm14,%ymm10
  408cf4:	c5 fe 6f 8c 24 80 0b 	vmovdqu 0xb80(%rsp),%ymm1
  408cfb:	00 00 
  408cfd:	c5 7e 7f bc 24 a0 00 	vmovdqu %ymm15,0xa0(%rsp)
  408d04:	00 00 
  408d06:	c5 2d ef b6 a0 6c 00 	vpxor  0x6ca0(%rsi),%ymm10,%ymm14
  408d0d:	00 
  408d0e:	c5 7d ef d1          	vpxor  %ymm1,%ymm0,%ymm10
  408d12:	c4 41 5d ef fc       	vpxor  %ymm12,%ymm4,%ymm15
  408d17:	c5 f5 ef cc          	vpxor  %ymm4,%ymm1,%ymm1
  408d1b:	c5 7e 7f b4 24 00 06 	vmovdqu %ymm14,0x600(%rsp)
  408d22:	00 00 
  408d24:	c4 c1 1d eb d2       	vpor   %ymm10,%ymm12,%ymm2
  408d29:	c5 7e 6f a4 24 a0 09 	vmovdqu 0x9a0(%rsp),%ymm12
  408d30:	00 00 
  408d32:	c4 41 1d db d2       	vpand  %ymm10,%ymm12,%ymm10
  408d37:	c5 1d ef e2          	vpxor  %ymm2,%ymm12,%ymm12
  408d3b:	c4 c1 2d ef d7       	vpxor  %ymm15,%ymm10,%ymm2
  408d40:	c4 c1 5d ef e4       	vpxor  %ymm12,%ymm4,%ymm4
  408d45:	c5 5d ef 96 20 6a 00 	vpxor  0x6a20(%rsi),%ymm4,%ymm10
  408d4c:	00 
  408d4d:	c4 c1 05 db e4       	vpand  %ymm12,%ymm15,%ymm4
  408d52:	c5 75 ef f4          	vpxor  %ymm4,%ymm1,%ymm14
  408d56:	c5 ed eb c9          	vpor   %ymm1,%ymm2,%ymm1
  408d5a:	c5 ed ef 96 40 68 00 	vpxor  0x6840(%rsi),%ymm2,%ymm2
  408d61:	00 
  408d62:	c5 0d ef b6 a0 6e 00 	vpxor  0x6ea0(%rsi),%ymm14,%ymm14
  408d69:	00 
  408d6a:	c5 1d ef e1          	vpxor  %ymm1,%ymm12,%ymm12
  408d6e:	c5 fe 6f 8c 24 a0 0b 	vmovdqu 0xba0(%rsp),%ymm1
  408d75:	00 00 
  408d77:	c5 fe 7f 94 24 c0 02 	vmovdqu %ymm2,0x2c0(%rsp)
  408d7e:	00 00 
  408d80:	c5 7e 7f b4 24 e0 01 	vmovdqu %ymm14,0x1e0(%rsp)
  408d87:	00 00 
  408d89:	c5 7e 6f b4 24 80 07 	vmovdqu 0x780(%rsp),%ymm14
  408d90:	00 00 
  408d92:	c5 1d ef be c0 6c 00 	vpxor  0x6cc0(%rsi),%ymm12,%ymm15
  408d99:	00 
  408d9a:	c5 fd ef d1          	vpxor  %ymm1,%ymm0,%ymm2
  408d9e:	c4 c1 75 ef e1       	vpxor  %ymm9,%ymm1,%ymm4
  408da3:	c4 41 35 ef e6       	vpxor  %ymm14,%ymm9,%ymm12
  408da8:	c5 7e 7f bc 24 20 06 	vmovdqu %ymm15,0x620(%rsp)
  408daf:	00 00 
  408db1:	c5 7e 6f bc 24 c0 09 	vmovdqu 0x9c0(%rsp),%ymm15
  408db8:	00 00 
  408dba:	c5 8d eb ca          	vpor   %ymm2,%ymm14,%ymm1
  408dbe:	c5 85 db d2          	vpand  %ymm2,%ymm15,%ymm2
  408dc2:	c5 85 ef c9          	vpxor  %ymm1,%ymm15,%ymm1
  408dc6:	c4 41 6d ef fc       	vpxor  %ymm12,%ymm2,%ymm15
  408dcb:	c5 1d db e1          	vpand  %ymm1,%ymm12,%ymm12
  408dcf:	c5 35 ef c9          	vpxor  %ymm1,%ymm9,%ymm9
  408dd3:	c4 41 5d ef f4       	vpxor  %ymm12,%ymm4,%ymm14
  408dd8:	c5 85 eb e4          	vpor   %ymm4,%ymm15,%ymm4
  408ddc:	c5 b5 ef 96 40 6a 00 	vpxor  0x6a40(%rsi),%ymm9,%ymm2
  408de3:	00 
  408de4:	c5 0d ef b6 c0 6e 00 	vpxor  0x6ec0(%rsi),%ymm14,%ymm14
  408deb:	00 
  408dec:	c5 75 ef cc          	vpxor  %ymm4,%ymm1,%ymm9
  408df0:	c5 85 ef 8e 60 68 00 	vpxor  0x6860(%rsi),%ymm15,%ymm1
  408df7:	00 
  408df8:	c5 fe 6f a4 24 20 0c 	vmovdqu 0xc20(%rsp),%ymm4
  408dff:	00 00 
  408e01:	c5 7e 7f b4 24 00 02 	vmovdqu %ymm14,0x200(%rsp)
  408e08:	00 00 
  408e0a:	c5 7e 6f b4 24 a0 07 	vmovdqu 0x7a0(%rsp),%ymm14
  408e11:	00 00 
  408e13:	c5 fe 7f 8c 24 e0 02 	vmovdqu %ymm1,0x2e0(%rsp)
  408e1a:	00 00 
  408e1c:	c5 fe 6f 8c 24 c0 0b 	vmovdqu 0xbc0(%rsp),%ymm1
  408e23:	00 00 
  408e25:	c5 fe 7f 94 24 a0 04 	vmovdqu %ymm2,0x4a0(%rsp)
  408e2c:	00 00 
  408e2e:	c5 35 ef be e0 6c 00 	vpxor  0x6ce0(%rsi),%ymm9,%ymm15
  408e35:	00 
  408e36:	c4 41 5d ef e6       	vpxor  %ymm14,%ymm4,%ymm12
  408e3b:	c5 fd ef d1          	vpxor  %ymm1,%ymm0,%ymm2
  408e3f:	c5 75 ef cc          	vpxor  %ymm4,%ymm1,%ymm9
  408e43:	c5 7e 7f bc 24 80 05 	vmovdqu %ymm15,0x580(%rsp)
  408e4a:	00 00 
  408e4c:	c5 7e 6f bc 24 e0 09 	vmovdqu 0x9e0(%rsp),%ymm15
  408e53:	00 00 
  408e55:	c5 8d eb ca          	vpor   %ymm2,%ymm14,%ymm1
  408e59:	c5 85 db d2          	vpand  %ymm2,%ymm15,%ymm2
  408e5d:	c5 85 ef c9          	vpxor  %ymm1,%ymm15,%ymm1
  408e61:	c4 41 6d ef fc       	vpxor  %ymm12,%ymm2,%ymm15
  408e66:	c5 dd ef e1          	vpxor  %ymm1,%ymm4,%ymm4
  408e6a:	c5 1d db e1          	vpand  %ymm1,%ymm12,%ymm12
  408e6e:	c5 dd ef 96 60 6a 00 	vpxor  0x6a60(%rsi),%ymm4,%ymm2
  408e75:	00 
  408e76:	c4 41 35 ef f4       	vpxor  %ymm12,%ymm9,%ymm14
  408e7b:	c4 41 05 eb c9       	vpor   %ymm9,%ymm15,%ymm9
  408e80:	c5 fe 7f 94 24 c0 04 	vmovdqu %ymm2,0x4c0(%rsp)
  408e87:	00 00 
  408e89:	c4 c1 75 ef d1       	vpxor  %ymm9,%ymm1,%ymm2
  408e8e:	c5 8d ef a6 e0 6e 00 	vpxor  0x6ee0(%rsi),%ymm14,%ymm4
  408e95:	00 
  408e96:	c5 85 ef 8e 80 68 00 	vpxor  0x6880(%rsi),%ymm15,%ymm1
  408e9d:	00 
  408e9e:	c5 7e 6f 8c 24 e0 0b 	vmovdqu 0xbe0(%rsp),%ymm9
  408ea5:	00 00 
  408ea7:	c5 7e 6f b4 24 c0 07 	vmovdqu 0x7c0(%rsp),%ymm14
  408eae:	00 00 
  408eb0:	c5 7e 6f bc 24 00 0a 	vmovdqu 0xa00(%rsp),%ymm15
  408eb7:	00 00 
  408eb9:	c5 fe 7f 8c 24 00 03 	vmovdqu %ymm1,0x300(%rsp)
  408ec0:	00 00 
  408ec2:	c5 fe 7f a4 24 c0 00 	vmovdqu %ymm4,0xc0(%rsp)
  408ec9:	00 00 
  408ecb:	c5 fe 6f a4 24 a0 0c 	vmovdqu 0xca0(%rsp),%ymm4
  408ed2:	00 00 
  408ed4:	c5 6d ef a6 00 6d 00 	vpxor  0x6d00(%rsi),%ymm2,%ymm12
  408edb:	00 
  408edc:	c4 c1 7d ef d1       	vpxor  %ymm9,%ymm0,%ymm2
  408ee1:	c5 35 ef cc          	vpxor  %ymm4,%ymm9,%ymm9
  408ee5:	c5 7e 7f a4 24 a0 05 	vmovdqu %ymm12,0x5a0(%rsp)
  408eec:	00 00 
  408eee:	c5 8d eb ca          	vpor   %ymm2,%ymm14,%ymm1
  408ef2:	c4 41 5d ef e6       	vpxor  %ymm14,%ymm4,%ymm12
  408ef7:	c5 85 db d2          	vpand  %ymm2,%ymm15,%ymm2
  408efb:	c5 85 ef c9          	vpxor  %ymm1,%ymm15,%ymm1
  408eff:	c4 41 6d ef fc       	vpxor  %ymm12,%ymm2,%ymm15
  408f04:	c5 dd ef e1          	vpxor  %ymm1,%ymm4,%ymm4
  408f08:	c5 1d db e1          	vpand  %ymm1,%ymm12,%ymm12
  408f0c:	c5 5d ef b6 80 6a 00 	vpxor  0x6a80(%rsi),%ymm4,%ymm14
  408f13:	00 
  408f14:	c5 fe 6f a4 24 20 0d 	vmovdqu 0xd20(%rsp),%ymm4
  408f1b:	00 00 
  408f1d:	c5 7e 7f b4 24 e0 04 	vmovdqu %ymm14,0x4e0(%rsp)
  408f24:	00 00 
  408f26:	c4 41 35 ef f4       	vpxor  %ymm12,%ymm9,%ymm14
  408f2b:	c4 41 05 eb c9       	vpor   %ymm9,%ymm15,%ymm9
  408f30:	c5 05 ef be a0 68 00 	vpxor  0x68a0(%rsi),%ymm15,%ymm15
  408f37:	00 
  408f38:	c5 0d ef a6 00 6f 00 	vpxor  0x6f00(%rsi),%ymm14,%ymm12
  408f3f:	00 
  408f40:	c4 c1 75 ef c9       	vpxor  %ymm9,%ymm1,%ymm1
  408f45:	c5 7e 6f 8c 24 00 0c 	vmovdqu 0xc00(%rsp),%ymm9
  408f4c:	00 00 
  408f4e:	c5 7e 6f b4 24 e0 07 	vmovdqu 0x7e0(%rsp),%ymm14
  408f55:	00 00 
  408f57:	c5 7e 7f bc 24 20 03 	vmovdqu %ymm15,0x320(%rsp)
  408f5e:	00 00 
  408f60:	c5 7e 6f bc 24 20 0a 	vmovdqu 0xa20(%rsp),%ymm15
  408f67:	00 00 
  408f69:	c5 7e 7f a4 24 e0 00 	vmovdqu %ymm12,0xe0(%rsp)
  408f70:	00 00 
  408f72:	c5 f5 ef 96 20 6d 00 	vpxor  0x6d20(%rsi),%ymm1,%ymm2
  408f79:	00 
  408f7a:	c4 c1 7d ef c9       	vpxor  %ymm9,%ymm0,%ymm1
  408f7f:	c5 35 ef cc          	vpxor  %ymm4,%ymm9,%ymm9
  408f83:	c5 fe 7f 94 24 40 06 	vmovdqu %ymm2,0x640(%rsp)
  408f8a:	00 00 
  408f8c:	c5 0d eb e1          	vpor   %ymm1,%ymm14,%ymm12
  408f90:	c4 c1 5d ef d6       	vpxor  %ymm14,%ymm4,%ymm2
  408f95:	c5 85 db c9          	vpand  %ymm1,%ymm15,%ymm1
  408f99:	c4 41 05 ef e4       	vpxor  %ymm12,%ymm15,%ymm12
  408f9e:	c5 7e 6f bc 24 40 0c 	vmovdqu 0xc40(%rsp),%ymm15
  408fa5:	00 00 
  408fa7:	c5 f5 ef ca          	vpxor  %ymm2,%ymm1,%ymm1
  408fab:	c4 c1 6d db d4       	vpand  %ymm12,%ymm2,%ymm2
  408fb0:	c4 c1 5d ef e4       	vpxor  %ymm12,%ymm4,%ymm4
  408fb5:	c5 b5 ef d2          	vpxor  %ymm2,%ymm9,%ymm2
  408fb9:	c4 41 75 eb c9       	vpor   %ymm9,%ymm1,%ymm9
  408fbe:	c5 dd ef a6 a0 6a 00 	vpxor  0x6aa0(%rsi),%ymm4,%ymm4
  408fc5:	00 
  408fc6:	c5 f5 ef 8e c0 68 00 	vpxor  0x68c0(%rsi),%ymm1,%ymm1
  408fcd:	00 
  408fce:	c5 6d ef b6 20 6f 00 	vpxor  0x6f20(%rsi),%ymm2,%ymm14
  408fd5:	00 
  408fd6:	c4 41 1d ef e1       	vpxor  %ymm9,%ymm12,%ymm12
  408fdb:	c4 41 05 ef c8       	vpxor  %ymm8,%ymm15,%ymm9
  408fe0:	c5 fe 6f 94 24 00 08 	vmovdqu 0x800(%rsp),%ymm2
  408fe7:	00 00 
  408fe9:	c5 fe 7f a4 24 00 05 	vmovdqu %ymm4,0x500(%rsp)
  408ff0:	00 00 
  408ff2:	c5 fe 7f 8c 24 40 03 	vmovdqu %ymm1,0x340(%rsp)
  408ff9:	00 00 
  408ffb:	c5 7e 7f b4 24 00 01 	vmovdqu %ymm14,0x100(%rsp)
  409002:	00 00 
  409004:	c4 c1 7d ef e7       	vpxor  %ymm15,%ymm0,%ymm4
  409009:	c5 9d ef 8e 40 6d 00 	vpxor  0x6d40(%rsi),%ymm12,%ymm1
  409010:	00 
  409011:	c5 3d ef fa          	vpxor  %ymm2,%ymm8,%ymm15
  409015:	c5 7e 6f a4 24 40 0a 	vmovdqu 0xa40(%rsp),%ymm12
  40901c:	00 00 
  40901e:	c5 6d eb f4          	vpor   %ymm4,%ymm2,%ymm14
  409022:	c5 9d db e4          	vpand  %ymm4,%ymm12,%ymm4
  409026:	c4 41 1d ef e6       	vpxor  %ymm14,%ymm12,%ymm12
  40902b:	c4 c1 5d ef d7       	vpxor  %ymm15,%ymm4,%ymm2
  409030:	c4 c1 05 db e4       	vpand  %ymm12,%ymm15,%ymm4
  409035:	c4 41 3d ef c4       	vpxor  %ymm12,%ymm8,%ymm8
  40903a:	c5 35 ef f4          	vpxor  %ymm4,%ymm9,%ymm14
  40903e:	c4 41 6d eb c9       	vpor   %ymm9,%ymm2,%ymm9
  409043:	c5 ed ef 96 e0 68 00 	vpxor  0x68e0(%rsi),%ymm2,%ymm2
  40904a:	00 
  40904b:	c5 3d ef 86 c0 6a 00 	vpxor  0x6ac0(%rsi),%ymm8,%ymm8
  409052:	00 
  409053:	c5 0d ef b6 40 6f 00 	vpxor  0x6f40(%rsi),%ymm14,%ymm14
  40905a:	00 
  40905b:	c4 41 1d ef e1       	vpxor  %ymm9,%ymm12,%ymm12
  409060:	c5 fe 7f 94 24 60 03 	vmovdqu %ymm2,0x360(%rsp)
  409067:	00 00 
  409069:	c5 fe 6f 94 24 00 0d 	vmovdqu 0xd00(%rsp),%ymm2
  409070:	00 00 
  409072:	c5 7e 7f 84 24 20 05 	vmovdqu %ymm8,0x520(%rsp)
  409079:	00 00 
  40907b:	c5 7e 6f 84 24 20 08 	vmovdqu 0x820(%rsp),%ymm8
  409082:	00 00 
  409084:	c5 7e 7f b4 24 20 01 	vmovdqu %ymm14,0x120(%rsp)
  40908b:	00 00 
  40908d:	c5 7e 6f b4 24 60 0a 	vmovdqu 0xa60(%rsp),%ymm14
  409094:	00 00 
  409096:	c5 1d ef be 60 6d 00 	vpxor  0x6d60(%rsi),%ymm12,%ymm15
  40909d:	00 
  40909e:	c5 7d ef e2          	vpxor  %ymm2,%ymm0,%ymm12
  4090a2:	c5 6d ef cd          	vpxor  %ymm5,%ymm2,%ymm9
  4090a6:	c4 c1 55 ef e0       	vpxor  %ymm8,%ymm5,%ymm4
  4090ab:	c5 7e 7f bc 24 40 0e 	vmovdqu %ymm15,0xe40(%rsp)
  4090b2:	00 00 
  4090b4:	c4 41 3d eb fc       	vpor   %ymm12,%ymm8,%ymm15
  4090b9:	c4 c1 0d db d4       	vpand  %ymm12,%ymm14,%ymm2
  4090be:	c4 41 0d ef e7       	vpxor  %ymm15,%ymm14,%ymm12
  4090c3:	c5 6d ef c4          	vpxor  %ymm4,%ymm2,%ymm8
  4090c7:	c4 c1 55 ef ec       	vpxor  %ymm12,%ymm5,%ymm5
  4090cc:	c4 c1 5d db e4       	vpand  %ymm12,%ymm4,%ymm4
  4090d1:	c5 d5 ef 96 e0 6a 00 	vpxor  0x6ae0(%rsi),%ymm5,%ymm2
  4090d8:	00 
  4090d9:	c4 c1 3d eb e9       	vpor   %ymm9,%ymm8,%ymm5
  4090de:	c5 3d ef 86 00 69 00 	vpxor  0x6900(%rsi),%ymm8,%ymm8
  4090e5:	00 
  4090e6:	c5 35 ef f4          	vpxor  %ymm4,%ymm9,%ymm14
  4090ea:	c5 fe 7f 94 24 40 05 	vmovdqu %ymm2,0x540(%rsp)
  4090f1:	00 00 
  4090f3:	c5 fe 6f 94 24 c0 0c 	vmovdqu 0xcc0(%rsp),%ymm2
  4090fa:	00 00 
  4090fc:	c5 7e 7f 84 24 80 03 	vmovdqu %ymm8,0x380(%rsp)
  409103:	00 00 
  409105:	c5 7e 6f 84 24 a0 0d 	vmovdqu 0xda0(%rsp),%ymm8
  40910c:	00 00 
  40910e:	c5 1d ef e5          	vpxor  %ymm5,%ymm12,%ymm12
  409112:	c5 0d ef be 60 6f 00 	vpxor  0x6f60(%rsi),%ymm14,%ymm15
  409119:	00 
  40911a:	c5 fe 6f ac 24 80 0a 	vmovdqu 0xa80(%rsp),%ymm5
  409121:	00 00 
  409123:	c5 1d ef 8e 80 6d 00 	vpxor  0x6d80(%rsi),%ymm12,%ymm9
  40912a:	00 
  40912b:	c4 c1 7d ef e0       	vpxor  %ymm8,%ymm0,%ymm4
  409130:	c5 7e 6f a4 24 60 08 	vmovdqu 0x860(%rsp),%ymm12
  409137:	00 00 
  409139:	c5 7e 7f bc 24 40 01 	vmovdqu %ymm15,0x140(%rsp)
  409140:	00 00 
  409142:	c5 7e 7f 8c 24 60 0e 	vmovdqu %ymm9,0xe60(%rsp)
  409149:	00 00 
  40914b:	c5 3d ef fa          	vpxor  %ymm2,%ymm8,%ymm15
  40914f:	c4 41 6d ef f4       	vpxor  %ymm12,%ymm2,%ymm14
  409154:	c5 1d eb cc          	vpor   %ymm4,%ymm12,%ymm9
  409158:	c5 55 db c4          	vpand  %ymm4,%ymm5,%ymm8
  40915c:	c4 41 55 ef c9       	vpxor  %ymm9,%ymm5,%ymm9
  409161:	c4 c1 3d ef ee       	vpxor  %ymm14,%ymm8,%ymm5
  409166:	c4 c1 6d ef d1       	vpxor  %ymm9,%ymm2,%ymm2
  40916b:	c4 41 55 eb e7       	vpor   %ymm15,%ymm5,%ymm12
  409170:	c4 41 0d db c1       	vpand  %ymm9,%ymm14,%ymm8
  409175:	c5 55 ef b6 20 69 00 	vpxor  0x6920(%rsi),%ymm5,%ymm14
  40917c:	00 
  40917d:	c5 ed ef 96 00 6b 00 	vpxor  0x6b00(%rsi),%ymm2,%ymm2
  409184:	00 
  409185:	c4 c1 35 ef e4       	vpxor  %ymm12,%ymm9,%ymm4
  40918a:	c5 7e 6f a4 24 60 0d 	vmovdqu 0xd60(%rsp),%ymm12
  409191:	00 00 
  409193:	c5 fe 6f ac 24 a0 08 	vmovdqu 0x8a0(%rsp),%ymm5
  40919a:	00 00 
  40919c:	c5 fe 7f 94 24 60 05 	vmovdqu %ymm2,0x560(%rsp)
  4091a3:	00 00 
  4091a5:	c5 7e 7f b4 24 a0 03 	vmovdqu %ymm14,0x3a0(%rsp)
  4091ac:	00 00 
  4091ae:	c5 7e 6f b4 24 a0 0a 	vmovdqu 0xaa0(%rsp),%ymm14
  4091b5:	00 00 
  4091b7:	c4 c1 05 ef d0       	vpxor  %ymm8,%ymm15,%ymm2
  4091bc:	c4 41 7d ef cc       	vpxor  %ymm12,%ymm0,%ymm9
  4091c1:	c5 5d ef be a0 6d 00 	vpxor  0x6da0(%rsi),%ymm4,%ymm15
  4091c8:	00 
  4091c9:	c5 fe 6f a4 24 e0 0c 	vmovdqu 0xce0(%rsp),%ymm4
  4091d0:	00 00 
  4091d2:	c5 6d ef 86 80 6f 00 	vpxor  0x6f80(%rsi),%ymm2,%ymm8
  4091d9:	00 
  4091da:	c5 7e 7f bc 24 80 0e 	vmovdqu %ymm15,0xe80(%rsp)
  4091e1:	00 00 
  4091e3:	c4 41 55 eb f9       	vpor   %ymm9,%ymm5,%ymm15
  4091e8:	c5 1d ef e4          	vpxor  %ymm4,%ymm12,%ymm12
  4091ec:	c5 7e 7f 84 24 60 01 	vmovdqu %ymm8,0x160(%rsp)
  4091f3:	00 00 
  4091f5:	c5 5d ef c5          	vpxor  %ymm5,%ymm4,%ymm8
  4091f9:	c4 c1 0d db e9       	vpand  %ymm9,%ymm14,%ymm5
  4091fe:	c4 c1 0d ef d7       	vpxor  %ymm15,%ymm14,%ymm2
  409203:	c4 41 55 ef f8       	vpxor  %ymm8,%ymm5,%ymm15
  409208:	c5 3d db c2          	vpand  %ymm2,%ymm8,%ymm8
  40920c:	c5 dd ef e2          	vpxor  %ymm2,%ymm4,%ymm4
  409210:	c4 41 1d ef c0       	vpxor  %ymm8,%ymm12,%ymm8
  409215:	c4 41 05 eb e4       	vpor   %ymm12,%ymm15,%ymm12
  40921a:	c5 5d ef 8e 20 6b 00 	vpxor  0x6b20(%rsi),%ymm4,%ymm9
  409221:	00 
  409222:	c5 bd ef ae a0 6f 00 	vpxor  0x6fa0(%rsi),%ymm8,%ymm5
  409229:	00 
  40922a:	c4 41 6d ef f4       	vpxor  %ymm12,%ymm2,%ymm14
  40922f:	c5 85 ef 96 40 69 00 	vpxor  0x6940(%rsi),%ymm15,%ymm2
  409236:	00 
  409237:	c5 7e 6f bc 24 80 0d 	vmovdqu 0xd80(%rsp),%ymm15
  40923e:	00 00 
  409240:	c5 7e 6f a4 24 c0 0a 	vmovdqu 0xac0(%rsp),%ymm12
  409247:	00 00 
  409249:	c5 7e 7f 8c 24 c0 05 	vmovdqu %ymm9,0x5c0(%rsp)
  409250:	00 00 
  409252:	c5 fe 7f 94 24 c0 03 	vmovdqu %ymm2,0x3c0(%rsp)
  409259:	00 00 
  40925b:	c5 fe 6f 94 24 c0 08 	vmovdqu 0x8c0(%rsp),%ymm2
  409262:	00 00 
  409264:	c5 fe 7f ac 24 80 01 	vmovdqu %ymm5,0x180(%rsp)
  40926b:	00 00 
  40926d:	c5 8d ef a6 c0 6d 00 	vpxor  0x6dc0(%rsi),%ymm14,%ymm4
  409274:	00 
  409275:	c4 41 7d ef c7       	vpxor  %ymm15,%ymm0,%ymm8
  40927a:	c5 05 ef f6          	vpxor  %ymm6,%ymm15,%ymm14
  40927e:	c5 4d ef ca          	vpxor  %ymm2,%ymm6,%ymm9
  409282:	c5 fe 7f a4 24 a0 0e 	vmovdqu %ymm4,0xea0(%rsp)
  409289:	00 00 
  40928b:	c4 c1 6d eb e0       	vpor   %ymm8,%ymm2,%ymm4
  409290:	c4 41 1d db f8       	vpand  %ymm8,%ymm12,%ymm15
  409295:	c5 9d ef ec          	vpxor  %ymm4,%ymm12,%ymm5
  409299:	c4 c1 05 ef e1       	vpxor  %ymm9,%ymm15,%ymm4
  40929e:	c5 7e 6f bc 24 40 0d 	vmovdqu 0xd40(%rsp),%ymm15
  4092a5:	00 00 
  4092a7:	c5 cd ef f5          	vpxor  %ymm5,%ymm6,%ymm6
  4092ab:	c4 41 5d eb e6       	vpor   %ymm14,%ymm4,%ymm12
  4092b0:	c5 35 db c5          	vpand  %ymm5,%ymm9,%ymm8
  4092b4:	c5 dd ef a6 60 69 00 	vpxor  0x6960(%rsi),%ymm4,%ymm4
  4092bb:	00 
  4092bc:	c5 cd ef 96 40 6b 00 	vpxor  0x6b40(%rsi),%ymm6,%ymm2
  4092c3:	00 
  4092c4:	c4 c1 55 ef f4       	vpxor  %ymm12,%ymm5,%ymm6
  4092c9:	c4 41 0d ef c8       	vpxor  %ymm8,%ymm14,%ymm9
  4092ce:	c5 05 ef e7          	vpxor  %ymm7,%ymm15,%ymm12
  4092d2:	c5 fe 7f 94 24 c0 06 	vmovdqu %ymm2,0x6c0(%rsp)
  4092d9:	00 00 
  4092db:	c5 fe 6f 94 24 e0 08 	vmovdqu 0x8e0(%rsp),%ymm2
  4092e2:	00 00 
  4092e4:	c5 fe 7f a4 24 e0 03 	vmovdqu %ymm4,0x3e0(%rsp)
  4092eb:	00 00 
  4092ed:	c5 cd ef ae e0 6d 00 	vpxor  0x6de0(%rsi),%ymm6,%ymm5
  4092f4:	00 
  4092f5:	c4 c1 7d ef e7       	vpxor  %ymm15,%ymm0,%ymm4
  4092fa:	c5 45 ef c2          	vpxor  %ymm2,%ymm7,%ymm8
  4092fe:	c5 35 ef b6 c0 6f 00 	vpxor  0x6fc0(%rsi),%ymm9,%ymm14
  409305:	00 
  409306:	c5 fe 6f b4 24 e0 0a 	vmovdqu 0xae0(%rsp),%ymm6
  40930d:	00 00 
  40930f:	c5 fe 7f ac 24 60 06 	vmovdqu %ymm5,0x660(%rsp)
  409316:	00 00 
  409318:	c5 7e 6f bc 24 00 09 	vmovdqu 0x900(%rsp),%ymm15
  40931f:	00 00 
  409321:	c5 7e 7f b4 24 a0 01 	vmovdqu %ymm14,0x1a0(%rsp)
  409328:	00 00 
  40932a:	c5 ed eb ec          	vpor   %ymm4,%ymm2,%ymm5
  40932e:	c5 4d db f4          	vpand  %ymm4,%ymm6,%ymm14
  409332:	c5 4d ef cd          	vpxor  %ymm5,%ymm6,%ymm9
  409336:	c4 c1 0d ef d0       	vpxor  %ymm8,%ymm14,%ymm2
  40933b:	c5 7e 6f b4 24 c0 0d 	vmovdqu 0xdc0(%rsp),%ymm14
  409342:	00 00 
  409344:	c4 41 3d db c1       	vpand  %ymm9,%ymm8,%ymm8
  409349:	c4 c1 45 ef f9       	vpxor  %ymm9,%ymm7,%ymm7
  40934e:	c4 c1 1d ef f0       	vpxor  %ymm8,%ymm12,%ymm6
  409353:	c4 41 6d eb e4       	vpor   %ymm12,%ymm2,%ymm12
  409358:	c5 c5 ef be 60 6b 00 	vpxor  0x6b60(%rsi),%ymm7,%ymm7
  40935f:	00 
  409360:	c5 ed ef 96 80 69 00 	vpxor  0x6980(%rsi),%ymm2,%ymm2
  409367:	00 
  409368:	c5 cd ef ae e0 6f 00 	vpxor  0x6fe0(%rsi),%ymm6,%ymm5
  40936f:	00 
  409370:	c4 c1 35 ef e4       	vpxor  %ymm12,%ymm9,%ymm4
  409375:	c4 41 7d ef e6       	vpxor  %ymm14,%ymm0,%ymm12
  40937a:	c5 7e 6f 44 24 40    	vmovdqu 0x40(%rsp),%ymm8
  409380:	c5 fe 7f bc 24 a0 06 	vmovdqu %ymm7,0x6a0(%rsp)
  409387:	00 00 
  409389:	c5 fe 7f 94 24 00 04 	vmovdqu %ymm2,0x400(%rsp)
  409390:	00 00 
  409392:	c5 fe 7f ac 24 c0 01 	vmovdqu %ymm5,0x1c0(%rsp)
  409399:	00 00 
  40939b:	c5 5d ef 8e 00 6c 00 	vpxor  0x6c00(%rsi),%ymm4,%ymm9
  4093a2:	00 
  4093a3:	c4 c1 05 eb f4       	vpor   %ymm12,%ymm15,%ymm6
  4093a8:	c4 c1 0d ef d0       	vpxor  %ymm8,%ymm14,%ymm2
  4093ad:	c4 c1 3d ef ff       	vpxor  %ymm15,%ymm8,%ymm7
  4093b2:	c5 fe 6f a4 24 00 0b 	vmovdqu 0xb00(%rsp),%ymm4
  4093b9:	00 00 
  4093bb:	c4 c1 5d db ec       	vpand  %ymm12,%ymm4,%ymm5
  4093c0:	c5 5d ef f6          	vpxor  %ymm6,%ymm4,%ymm14
  4093c4:	c5 fe 6f a4 24 00 0e 	vmovdqu 0xe00(%rsp),%ymm4
  4093cb:	00 00 
  4093cd:	c5 55 ef e7          	vpxor  %ymm7,%ymm5,%ymm12
  4093d1:	c4 41 3d ef c6       	vpxor  %ymm14,%ymm8,%ymm8
  4093d6:	c4 c1 45 db fe       	vpand  %ymm14,%ymm7,%ymm7
  4093db:	c5 fd ef f4          	vpxor  %ymm4,%ymm0,%ymm6
  4093df:	c5 3d ef be 80 6b 00 	vpxor  0x6b80(%rsi),%ymm8,%ymm15
  4093e6:	00 
  4093e7:	c5 6d ef c7          	vpxor  %ymm7,%ymm2,%ymm8
  4093eb:	c5 9d eb d2          	vpor   %ymm2,%ymm12,%ymm2
  4093ef:	c5 7e 7f bc 24 80 06 	vmovdqu %ymm15,0x680(%rsp)
  4093f6:	00 00 
  4093f8:	c5 8d ef fa          	vpxor  %ymm2,%ymm14,%ymm7
  4093fc:	c5 1d ef b6 a0 69 00 	vpxor  0x69a0(%rsi),%ymm12,%ymm14
  409403:	00 
  409404:	c5 fe 6f 94 24 80 08 	vmovdqu 0x880(%rsp),%ymm2
  40940b:	00 00 
  40940d:	c5 45 ef a6 20 6c 00 	vpxor  0x6c20(%rsi),%ymm7,%ymm12
  409414:	00 
  409415:	c5 fe 6f bc 24 e0 06 	vmovdqu 0x6e0(%rsp),%ymm7
  40941c:	00 00 
  40941e:	c5 7e 7f b4 24 20 04 	vmovdqu %ymm14,0x420(%rsp)
  409425:	00 00 
  409427:	c5 3d ef b6 00 6e 00 	vpxor  0x6e00(%rsi),%ymm8,%ymm14
  40942e:	00 
  40942f:	c5 7e 6f 84 24 e0 0d 	vmovdqu 0xde0(%rsp),%ymm8
  409436:	00 00 
  409438:	c5 5d ef ff          	vpxor  %ymm7,%ymm4,%ymm15
  40943c:	c5 ed eb e6          	vpor   %ymm6,%ymm2,%ymm4
  409440:	c5 c5 ef ea          	vpxor  %ymm2,%ymm7,%ymm5
  409444:	c5 bd db f6          	vpand  %ymm6,%ymm8,%ymm6
  409448:	c5 bd ef e4          	vpxor  %ymm4,%ymm8,%ymm4
  40944c:	c5 4d ef c5          	vpxor  %ymm5,%ymm6,%ymm8
  409450:	c5 c5 ef fc          	vpxor  %ymm4,%ymm7,%ymm7
  409454:	c5 d5 db ec          	vpand  %ymm4,%ymm5,%ymm5
  409458:	c5 c5 ef 96 a0 6b 00 	vpxor  0x6ba0(%rsi),%ymm7,%ymm2
  40945f:	00 
  409460:	c5 bd ef be c0 69 00 	vpxor  0x69c0(%rsi),%ymm8,%ymm7
  409467:	00 
  409468:	c5 fe 7f 94 24 80 04 	vmovdqu %ymm2,0x480(%rsp)
  40946f:	00 00 
  409471:	c5 fe 7f bc 24 80 02 	vmovdqu %ymm7,0x280(%rsp)
  409478:	00 00 
  40947a:	c5 85 ef d5          	vpxor  %ymm5,%ymm15,%ymm2
  40947e:	c4 41 3d eb ff       	vpor   %ymm15,%ymm8,%ymm15
  409483:	c5 fe 6f ac 24 00 07 	vmovdqu 0x700(%rsp),%ymm5
  40948a:	00 00 
  40948c:	c4 c1 5d ef e7       	vpxor  %ymm15,%ymm4,%ymm4
  409491:	c5 7e 6f bc 24 40 08 	vmovdqu 0x840(%rsp),%ymm15
  409498:	00 00 
  40949a:	c5 5d ef 86 40 6c 00 	vpxor  0x6c40(%rsi),%ymm4,%ymm8
  4094a1:	00 
  4094a2:	c5 ed ef a6 20 6e 00 	vpxor  0x6e20(%rsi),%ymm2,%ymm4
  4094a9:	00 
  4094aa:	c4 c1 55 ef f7       	vpxor  %ymm15,%ymm5,%ymm6
  4094af:	c5 fe 6f 94 24 20 07 	vmovdqu 0x720(%rsp),%ymm2
  4094b6:	00 00 
  4094b8:	c5 7e 7f 84 24 c0 0e 	vmovdqu %ymm8,0xec0(%rsp)
  4094bf:	00 00 
  4094c1:	c5 fd ef fa          	vpxor  %ymm2,%ymm0,%ymm7
  4094c5:	c5 6d ef c5          	vpxor  %ymm5,%ymm2,%ymm8
  4094c9:	c5 85 eb d7          	vpor   %ymm7,%ymm15,%ymm2
  4094cd:	c5 7e 6f bc 24 20 0e 	vmovdqu 0xe20(%rsp),%ymm15
  4094d4:	00 00 
  4094d6:	c5 85 ef d2          	vpxor  %ymm2,%ymm15,%ymm2
  4094da:	c5 85 db ff          	vpand  %ymm7,%ymm15,%ymm7
  4094de:	c5 d5 ef ea          	vpxor  %ymm2,%ymm5,%ymm5
  4094e2:	c5 45 ef fe          	vpxor  %ymm6,%ymm7,%ymm15
  4094e6:	c5 cd db f2          	vpand  %ymm2,%ymm6,%ymm6
  4094ea:	c5 d5 ef be c0 6b 00 	vpxor  0x6bc0(%rsi),%ymm5,%ymm7
  4094f1:	00 
  4094f2:	c4 c1 35 ef ee       	vpxor  %ymm14,%ymm9,%ymm5
  4094f7:	c5 fe 7f bc 24 40 04 	vmovdqu %ymm7,0x440(%rsp)
  4094fe:	00 00 
  409500:	c5 bd ef fe          	vpxor  %ymm6,%ymm8,%ymm7
  409504:	c4 41 05 eb c0       	vpor   %ymm8,%ymm15,%ymm8
  409509:	c5 c5 ef be 40 6e 00 	vpxor  0x6e40(%rsi),%ymm7,%ymm7
  409510:	00 
  409511:	c4 c1 6d ef f0       	vpxor  %ymm8,%ymm2,%ymm6
  409516:	c5 85 ef 96 e0 69 00 	vpxor  0x69e0(%rsi),%ymm15,%ymm2
  40951d:	00 
  40951e:	c4 41 7d ef fb       	vpxor  %ymm11,%ymm0,%ymm15
  409523:	c4 41 25 ef d9       	vpxor  %ymm9,%ymm11,%ymm11
  409528:	c5 fe 7f 94 24 40 02 	vmovdqu %ymm2,0x240(%rsp)
  40952f:	00 00 
  409531:	c4 41 0d eb f7       	vpor   %ymm15,%ymm14,%ymm14
  409536:	c5 cd ef 96 60 6c 00 	vpxor  0x6c60(%rsi),%ymm6,%ymm2
  40953d:	00 
  40953e:	c4 41 65 db c7       	vpand  %ymm15,%ymm3,%ymm8
  409543:	c4 c1 65 ef f6       	vpxor  %ymm14,%ymm3,%ymm6
  409548:	c5 3d ef c5          	vpxor  %ymm5,%ymm8,%ymm8
  40954c:	c5 d5 db ee          	vpand  %ymm6,%ymm5,%ymm5
  409550:	c5 b5 ef de          	vpxor  %ymm6,%ymm9,%ymm3
  409554:	c5 25 ef cd          	vpxor  %ymm5,%ymm11,%ymm9
  409558:	c4 41 3d eb db       	vpor   %ymm11,%ymm8,%ymm11
  40955d:	c5 e5 ef 9e e0 73 00 	vpxor  0x73e0(%rsi),%ymm3,%ymm3
  409564:	00 
  409565:	c5 3d ef 86 00 70 00 	vpxor  0x7000(%rsi),%ymm8,%ymm8
  40956c:	00 
  40956d:	c4 41 4d ef db       	vpxor  %ymm11,%ymm6,%ymm11
  409572:	c4 c1 7d ef f2       	vpxor  %ymm10,%ymm0,%ymm6
  409577:	c5 fe 7f 1c 24       	vmovdqu %ymm3,(%rsp)
  40957c:	c5 7e 7f 84 24 60 02 	vmovdqu %ymm8,0x260(%rsp)
  409583:	00 00 
  409585:	c5 25 ef 86 80 74 00 	vpxor  0x7480(%rsi),%ymm11,%ymm8
  40958c:	00 
  40958d:	c5 b5 ef 9e 60 76 00 	vpxor  0x7660(%rsi),%ymm9,%ymm3
  409594:	00 
  409595:	c4 41 2d ef dc       	vpxor  %ymm12,%ymm10,%ymm11
  40959a:	c5 1d ef d4          	vpxor  %ymm4,%ymm12,%ymm10
  40959e:	c5 dd eb e6          	vpor   %ymm6,%ymm4,%ymm4
  4095a2:	c5 15 db f6          	vpand  %ymm6,%ymm13,%ymm14
  4095a6:	c5 fe 7f 9c 24 20 02 	vmovdqu %ymm3,0x220(%rsp)
  4095ad:	00 00 
  4095af:	c5 7e 6f 8c 24 c0 0e 	vmovdqu 0xec0(%rsp),%ymm9
  4095b6:	00 00 
  4095b8:	c5 95 ef dc          	vpxor  %ymm4,%ymm13,%ymm3
  4095bc:	c4 c1 0d ef e2       	vpxor  %ymm10,%ymm14,%ymm4
  4095c1:	c5 2d db d3          	vpand  %ymm3,%ymm10,%ymm10
  4095c5:	c5 1d ef eb          	vpxor  %ymm3,%ymm12,%ymm13
  4095c9:	c5 dd ef ae 20 70 00 	vpxor  0x7020(%rsi),%ymm4,%ymm5
  4095d0:	00 
  4095d1:	c4 41 25 ef d2       	vpxor  %ymm10,%ymm11,%ymm10
  4095d6:	c4 41 5d eb db       	vpor   %ymm11,%ymm4,%ymm11
  4095db:	c5 15 ef a6 00 72 00 	vpxor  0x7200(%rsi),%ymm13,%ymm12
  4095e2:	00 
  4095e3:	c5 fe 7f ac 24 a0 02 	vmovdqu %ymm5,0x2a0(%rsp)
  4095ea:	00 00 
  4095ec:	c5 fe 6f ac 24 80 0e 	vmovdqu 0xe80(%rsp),%ymm5
  4095f3:	00 00 
  4095f5:	c5 fe 6f a4 24 60 0e 	vmovdqu 0xe60(%rsp),%ymm4
  4095fc:	00 00 
  4095fe:	c5 7e 7f a4 24 60 04 	vmovdqu %ymm12,0x460(%rsp)
  409605:	00 00 
  409607:	c5 7e 6f a6 80 76 00 	vmovdqu 0x7680(%rsi),%ymm12
  40960e:	00 
  40960f:	c4 c1 65 ef f3       	vpxor  %ymm11,%ymm3,%ymm6
  409614:	c5 fe 6f 9c 24 40 0e 	vmovdqu 0xe40(%rsp),%ymm3
  40961b:	00 00 
  40961d:	c5 4d ef 9e a0 74 00 	vpxor  0x74a0(%rsi),%ymm6,%ymm11
  409624:	00 
  409625:	c5 fe 6f b4 24 a0 0e 	vmovdqu 0xea0(%rsp),%ymm6
  40962c:	00 00 
  40962e:	c4 41 2d ef d4       	vpxor  %ymm12,%ymm10,%ymm10
  409633:	c5 7e 6f a4 24 a0 04 	vmovdqu 0x4a0(%rsp),%ymm12
  40963a:	00 00 
  40963c:	c5 7e 7f 9c 24 e0 06 	vmovdqu %ymm11,0x6e0(%rsp)
  409643:	00 00 
  409645:	c5 7e 6f b4 24 c0 02 	vmovdqu 0x2c0(%rsp),%ymm14
  40964c:	00 00 
  40964e:	c5 7e 7f 44 24 20    	vmovdqu %ymm8,0x20(%rsp)
  409654:	c5 7e 7f 94 24 00 07 	vmovdqu %ymm10,0x700(%rsp)
  40965b:	00 00 
  40965d:	c4 41 7d ef dc       	vpxor  %ymm12,%ymm0,%ymm11
  409662:	c5 35 ef c7          	vpxor  %ymm7,%ymm9,%ymm8
  409666:	c4 41 1d ef e9       	vpxor  %ymm9,%ymm12,%ymm13
  40966b:	c4 41 45 eb fb       	vpor   %ymm11,%ymm7,%ymm15
  409670:	c4 41 0d db d3       	vpand  %ymm11,%ymm14,%ymm10
  409675:	c4 c1 0d ef ff       	vpxor  %ymm15,%ymm14,%ymm7
  40967a:	c4 41 2d ef e0       	vpxor  %ymm8,%ymm10,%ymm12
  40967f:	c5 7e 6f 94 24 c0 04 	vmovdqu 0x4c0(%rsp),%ymm10
  409686:	00 00 
  409688:	c5 7e 6f b4 24 80 00 	vmovdqu 0x80(%rsp),%ymm14
  40968f:	00 00 
  409691:	c5 3d db c7          	vpand  %ymm7,%ymm8,%ymm8
  409695:	c5 35 ef cf          	vpxor  %ymm7,%ymm9,%ymm9
  409699:	c4 41 7d ef fa       	vpxor  %ymm10,%ymm0,%ymm15
  40969e:	c4 41 15 ef c0       	vpxor  %ymm8,%ymm13,%ymm8
  4096a3:	c4 41 1d eb ed       	vpor   %ymm13,%ymm12,%ymm13
  4096a8:	c5 35 ef 9e 20 72 00 	vpxor  0x7220(%rsi),%ymm9,%ymm11
  4096af:	00 
  4096b0:	c4 41 6d ef ce       	vpxor  %ymm14,%ymm2,%ymm9
  4096b5:	c5 1d ef a6 40 70 00 	vpxor  0x7040(%rsi),%ymm12,%ymm12
  4096bc:	00 
  4096bd:	c4 c1 45 ef fd       	vpxor  %ymm13,%ymm7,%ymm7
  4096c2:	c5 3d ef ae a0 76 00 	vpxor  0x76a0(%rsi),%ymm8,%ymm13
  4096c9:	00 
  4096ca:	c4 41 0d eb c7       	vpor   %ymm15,%ymm14,%ymm8
  4096cf:	c5 c5 ef be c0 74 00 	vpxor  0x74c0(%rsi),%ymm7,%ymm7
  4096d6:	00 
  4096d7:	c5 7e 7f ac 24 00 0e 	vmovdqu %ymm13,0xe00(%rsp)
  4096de:	00 00 
  4096e0:	c5 7e 6f ac 24 e0 02 	vmovdqu 0x2e0(%rsp),%ymm13
  4096e7:	00 00 
  4096e9:	c5 fe 7f bc 24 e0 0d 	vmovdqu %ymm7,0xde0(%rsp)
  4096f0:	00 00 
  4096f2:	c5 ad ef fa          	vpxor  %ymm2,%ymm10,%ymm7
  4096f6:	c4 41 15 db d7       	vpand  %ymm15,%ymm13,%ymm10
  4096fb:	c4 41 15 ef f8       	vpxor  %ymm8,%ymm13,%ymm15
  409700:	c4 41 2d ef f1       	vpxor  %ymm9,%ymm10,%ymm14
  409705:	c4 41 35 db ef       	vpand  %ymm15,%ymm9,%ymm13
  40970a:	c4 c1 6d ef d7       	vpxor  %ymm15,%ymm2,%ymm2
  40970f:	c5 0d ef 86 60 70 00 	vpxor  0x7060(%rsi),%ymm14,%ymm8
  409716:	00 
  409717:	c4 41 45 ef ed       	vpxor  %ymm13,%ymm7,%ymm13
  40971c:	c5 8d eb ff          	vpor   %ymm7,%ymm14,%ymm7
  409720:	c5 6d ef 96 40 72 00 	vpxor  0x7240(%rsi),%ymm2,%ymm10
  409727:	00 
  409728:	c5 fe 6f 94 24 e0 04 	vmovdqu 0x4e0(%rsp),%ymm2
  40972f:	00 00 
  409731:	c5 7e 7f 84 24 20 0e 	vmovdqu %ymm8,0xe20(%rsp)
  409738:	00 00 
  40973a:	c5 05 ef ff          	vpxor  %ymm7,%ymm15,%ymm15
  40973e:	c5 15 ef 8e c0 76 00 	vpxor  0x76c0(%rsi),%ymm13,%ymm9
  409745:	00 
  409746:	c5 7d ef ea          	vpxor  %ymm2,%ymm0,%ymm13
  40974a:	c5 fe 6f bc 24 e0 05 	vmovdqu 0x5e0(%rsp),%ymm7
  409751:	00 00 
  409753:	c5 05 ef b6 e0 74 00 	vpxor  0x74e0(%rsi),%ymm15,%ymm14
  40975a:	00 
  40975b:	c5 7e 7f 8c 24 20 07 	vmovdqu %ymm9,0x720(%rsp)
  409762:	00 00 
  409764:	c5 7e 6f 8c 24 00 03 	vmovdqu 0x300(%rsp),%ymm9
  40976b:	00 00 
  40976d:	c5 6d ef ff          	vpxor  %ymm7,%ymm2,%ymm15
  409771:	c5 7e 7f b4 24 40 0e 	vmovdqu %ymm14,0xe40(%rsp)
  409778:	00 00 
  40977a:	c5 7e 6f b4 24 a0 00 	vmovdqu 0xa0(%rsp),%ymm14
  409781:	00 00 
  409783:	c4 c1 0d eb d5       	vpor   %ymm13,%ymm14,%ymm2
  409788:	c4 41 45 ef c6       	vpxor  %ymm14,%ymm7,%ymm8
  40978d:	c4 41 35 db ed       	vpand  %ymm13,%ymm9,%ymm13
  409792:	c5 35 ef ca          	vpxor  %ymm2,%ymm9,%ymm9
  409796:	c5 fe 6f 94 24 00 06 	vmovdqu 0x600(%rsp),%ymm2
  40979d:	00 00 
  40979f:	c4 41 15 ef f0       	vpxor  %ymm8,%ymm13,%ymm14
  4097a4:	c4 41 3d db c1       	vpand  %ymm9,%ymm8,%ymm8
  4097a9:	c4 c1 45 ef f9       	vpxor  %ymm9,%ymm7,%ymm7
  4097ae:	c4 41 05 ef c0       	vpxor  %ymm8,%ymm15,%ymm8
  4097b3:	c4 41 0d eb ff       	vpor   %ymm15,%ymm14,%ymm15
  4097b8:	c5 45 ef ae 60 72 00 	vpxor  0x7260(%rsi),%ymm7,%ymm13
  4097bf:	00 
  4097c0:	c5 8d ef be 80 70 00 	vpxor  0x7080(%rsi),%ymm14,%ymm7
  4097c7:	00 
  4097c8:	c5 3d ef 86 e0 76 00 	vpxor  0x76e0(%rsi),%ymm8,%ymm8
  4097cf:	00 
  4097d0:	c4 41 35 ef ff       	vpxor  %ymm15,%ymm9,%ymm15
  4097d5:	c5 7e 6f 8c 24 00 05 	vmovdqu 0x500(%rsp),%ymm9
  4097dc:	00 00 
  4097de:	c5 fe 7f bc 24 60 0e 	vmovdqu %ymm7,0xe60(%rsp)
  4097e5:	00 00 
  4097e7:	c5 7e 7f 84 24 40 07 	vmovdqu %ymm8,0x740(%rsp)
  4097ee:	00 00 
  4097f0:	c5 7e 6f 84 24 e0 01 	vmovdqu 0x1e0(%rsp),%ymm8
  4097f7:	00 00 
  4097f9:	c5 05 ef b6 00 75 00 	vpxor  0x7500(%rsi),%ymm15,%ymm14
  409800:	00 
  409801:	c4 c1 7d ef f9       	vpxor  %ymm9,%ymm0,%ymm7
  409806:	c5 7e 6f bc 24 20 03 	vmovdqu 0x320(%rsp),%ymm15
  40980d:	00 00 
  40980f:	c5 7e 7f b4 24 80 0e 	vmovdqu %ymm14,0xe80(%rsp)
  409816:	00 00 
  409818:	c5 35 ef f2          	vpxor  %ymm2,%ymm9,%ymm14
  40981c:	c4 41 6d ef c8       	vpxor  %ymm8,%ymm2,%ymm9
  409821:	c5 3d eb c7          	vpor   %ymm7,%ymm8,%ymm8
  409825:	c5 85 db ff          	vpand  %ymm7,%ymm15,%ymm7
  409829:	c4 41 05 ef c0       	vpxor  %ymm8,%ymm15,%ymm8
  40982e:	c4 41 45 ef f9       	vpxor  %ymm9,%ymm7,%ymm15
  409833:	c4 c1 6d ef d0       	vpxor  %ymm8,%ymm2,%ymm2
  409838:	c4 41 35 db c8       	vpand  %ymm8,%ymm9,%ymm9
  40983d:	c5 ed ef be 80 72 00 	vpxor  0x7280(%rsi),%ymm2,%ymm7
  409844:	00 
  409845:	c5 fe 7f bc 24 a0 0e 	vmovdqu %ymm7,0xea0(%rsp)
  40984c:	00 00 
  40984e:	c4 c1 0d ef f9       	vpxor  %ymm9,%ymm14,%ymm7
  409853:	c4 41 05 eb f6       	vpor   %ymm14,%ymm15,%ymm14
  409858:	c5 7e 6f 8c 24 00 02 	vmovdqu 0x200(%rsp),%ymm9
  40985f:	00 00 
  409861:	c5 c5 ef be 00 77 00 	vpxor  0x7700(%rsi),%ymm7,%ymm7
  409868:	00 
  409869:	c4 c1 3d ef d6       	vpxor  %ymm14,%ymm8,%ymm2
  40986e:	c5 05 ef 86 a0 70 00 	vpxor  0x70a0(%rsi),%ymm15,%ymm8
  409875:	00 
  409876:	c5 7e 6f b4 24 20 05 	vmovdqu 0x520(%rsp),%ymm14
  40987d:	00 00 
  40987f:	c5 fe 7f bc 24 60 07 	vmovdqu %ymm7,0x760(%rsp)
  409886:	00 00 
  409888:	c5 6d ef be 20 75 00 	vpxor  0x7520(%rsi),%ymm2,%ymm15
  40988f:	00 
  409890:	c5 7e 7f 84 24 c0 0e 	vmovdqu %ymm8,0xec0(%rsp)
  409897:	00 00 
  409899:	c4 c1 7d ef d6       	vpxor  %ymm14,%ymm0,%ymm2
  40989e:	c5 7e 7f bc 24 20 0d 	vmovdqu %ymm15,0xd20(%rsp)
  4098a5:	00 00 
  4098a7:	c5 7e 6f bc 24 20 06 	vmovdqu 0x620(%rsp),%ymm15
  4098ae:	00 00 
  4098b0:	c5 b5 eb fa          	vpor   %ymm2,%ymm9,%ymm7
  4098b4:	c4 41 0d ef c7       	vpxor  %ymm15,%ymm14,%ymm8
  4098b9:	c4 41 05 ef f1       	vpxor  %ymm9,%ymm15,%ymm14
  4098be:	c5 7e 6f 8c 24 40 03 	vmovdqu 0x340(%rsp),%ymm9
  4098c5:	00 00 
  4098c7:	c5 b5 db d2          	vpand  %ymm2,%ymm9,%ymm2
  4098cb:	c5 b5 ef ff          	vpxor  %ymm7,%ymm9,%ymm7
  4098cf:	c4 c1 6d ef d6       	vpxor  %ymm14,%ymm2,%ymm2
  4098d4:	c5 0d db f7          	vpand  %ymm7,%ymm14,%ymm14
  4098d8:	c5 05 ef ff          	vpxor  %ymm7,%ymm15,%ymm15
  4098dc:	c4 41 3d ef ce       	vpxor  %ymm14,%ymm8,%ymm9
  4098e1:	c4 41 6d eb c0       	vpor   %ymm8,%ymm2,%ymm8
  4098e6:	c5 ed ef 96 c0 70 00 	vpxor  0x70c0(%rsi),%ymm2,%ymm2
  4098ed:	00 
  4098ee:	c5 05 ef be a0 72 00 	vpxor  0x72a0(%rsi),%ymm15,%ymm15
  4098f5:	00 
  4098f6:	c5 35 ef b6 20 77 00 	vpxor  0x7720(%rsi),%ymm9,%ymm14
  4098fd:	00 
  4098fe:	c4 c1 45 ef f8       	vpxor  %ymm8,%ymm7,%ymm7
  409903:	c5 7e 6f 8c 24 40 05 	vmovdqu 0x540(%rsp),%ymm9
  40990a:	00 00 
  40990c:	c5 fe 7f 94 24 80 09 	vmovdqu %ymm2,0x980(%rsp)
  409913:	00 00 
  409915:	c5 fe 6f 94 24 c0 00 	vmovdqu 0xc0(%rsp),%ymm2
  40991c:	00 00 
  40991e:	c5 7e 7f bc 24 e0 0e 	vmovdqu %ymm15,0xee0(%rsp)
  409925:	00 00 
  409927:	c5 7e 7f b4 24 60 08 	vmovdqu %ymm14,0x860(%rsp)
  40992e:	00 00 
  409930:	c5 7e 6f b4 24 60 03 	vmovdqu 0x360(%rsp),%ymm14
  409937:	00 00 
  409939:	c5 45 ef 86 40 75 00 	vpxor  0x7540(%rsi),%ymm7,%ymm8
  409940:	00 
  409941:	c4 41 7d ef f9       	vpxor  %ymm9,%ymm0,%ymm15
  409946:	c5 fe 6f bc 24 80 05 	vmovdqu 0x580(%rsp),%ymm7
  40994d:	00 00 
  40994f:	c5 7e 7f 84 24 00 0d 	vmovdqu %ymm8,0xd00(%rsp)
  409956:	00 00 
  409958:	c5 45 ef c2          	vpxor  %ymm2,%ymm7,%ymm8
  40995c:	c4 c1 6d eb d7       	vpor   %ymm15,%ymm2,%ymm2
  409961:	c5 35 ef cf          	vpxor  %ymm7,%ymm9,%ymm9
  409965:	c4 41 0d db ff       	vpand  %ymm15,%ymm14,%ymm15
  40996a:	c5 8d ef d2          	vpxor  %ymm2,%ymm14,%ymm2
  40996e:	c4 41 05 ef f0       	vpxor  %ymm8,%ymm15,%ymm14
  409973:	c5 c5 ef fa          	vpxor  %ymm2,%ymm7,%ymm7
  409977:	c5 45 ef be c0 72 00 	vpxor  0x72c0(%rsi),%ymm7,%ymm15
  40997e:	00 
  40997f:	c5 bd db fa          	vpand  %ymm2,%ymm8,%ymm7
  409983:	c5 7e 7f bc 24 a0 0b 	vmovdqu %ymm15,0xba0(%rsp)
  40998a:	00 00 
  40998c:	c5 35 ef c7          	vpxor  %ymm7,%ymm9,%ymm8
  409990:	c4 41 0d eb c9       	vpor   %ymm9,%ymm14,%ymm9
  409995:	c5 0d ef b6 e0 70 00 	vpxor  0x70e0(%rsi),%ymm14,%ymm14
  40999c:	00 
  40999d:	c5 3d ef 86 40 77 00 	vpxor  0x7740(%rsi),%ymm8,%ymm8
  4099a4:	00 
  4099a5:	c4 41 6d ef f9       	vpxor  %ymm9,%ymm2,%ymm15
  4099aa:	c5 7e 7f b4 24 a0 09 	vmovdqu %ymm14,0x9a0(%rsp)
  4099b1:	00 00 
  4099b3:	c5 7e 7f 84 24 80 08 	vmovdqu %ymm8,0x880(%rsp)
  4099ba:	00 00 
  4099bc:	c5 7e 6f 84 24 60 05 	vmovdqu 0x560(%rsp),%ymm8
  4099c3:	00 00 
  4099c5:	c5 85 ef 96 60 75 00 	vpxor  0x7560(%rsi),%ymm15,%ymm2
  4099cc:	00 
  4099cd:	c5 7e 6f bc 24 e0 00 	vmovdqu 0xe0(%rsp),%ymm15
  4099d4:	00 00 
  4099d6:	c4 c1 7d ef f8       	vpxor  %ymm8,%ymm0,%ymm7
  4099db:	c5 fe 7f 94 24 60 0c 	vmovdqu %ymm2,0xc60(%rsp)
  4099e2:	00 00 
  4099e4:	c5 fe 6f 94 24 a0 05 	vmovdqu 0x5a0(%rsp),%ymm2
  4099eb:	00 00 
  4099ed:	c5 3d ef f2          	vpxor  %ymm2,%ymm8,%ymm14
  4099f1:	c4 41 6d ef cf       	vpxor  %ymm15,%ymm2,%ymm9
  4099f6:	c5 05 eb ff          	vpor   %ymm7,%ymm15,%ymm15
  4099fa:	c5 7e 6f 84 24 80 03 	vmovdqu 0x380(%rsp),%ymm8
  409a01:	00 00 
  409a03:	c5 bd db ff          	vpand  %ymm7,%ymm8,%ymm7
  409a07:	c4 41 3d ef ff       	vpxor  %ymm15,%ymm8,%ymm15
  409a0c:	c4 c1 45 ef f9       	vpxor  %ymm9,%ymm7,%ymm7
  409a11:	c4 c1 6d ef d7       	vpxor  %ymm15,%ymm2,%ymm2
  409a16:	c4 41 35 db cf       	vpand  %ymm15,%ymm9,%ymm9
  409a1b:	c5 6d ef 86 e0 72 00 	vpxor  0x72e0(%rsi),%ymm2,%ymm8
  409a22:	00 
  409a23:	c4 41 0d ef c9       	vpxor  %ymm9,%ymm14,%ymm9
  409a28:	c4 41 45 eb f6       	vpor   %ymm14,%ymm7,%ymm14
  409a2d:	c5 c5 ef be 00 71 00 	vpxor  0x7100(%rsi),%ymm7,%ymm7
  409a34:	00 
  409a35:	c5 7e 7f 84 24 c0 0b 	vmovdqu %ymm8,0xbc0(%rsp)
  409a3c:	00 00 
  409a3e:	c5 fe 6f 94 24 00 01 	vmovdqu 0x100(%rsp),%ymm2
  409a45:	00 00 
  409a47:	c4 41 05 ef c6       	vpxor  %ymm14,%ymm15,%ymm8
  409a4c:	c5 35 ef b6 60 77 00 	vpxor  0x7760(%rsi),%ymm9,%ymm14
  409a53:	00 
  409a54:	c5 7e 6f 8c 24 c0 05 	vmovdqu 0x5c0(%rsp),%ymm9
  409a5b:	00 00 
  409a5d:	c5 fe 7f bc 24 c0 09 	vmovdqu %ymm7,0x9c0(%rsp)
  409a64:	00 00 
  409a66:	c5 7e 6f bc 24 40 06 	vmovdqu 0x640(%rsp),%ymm15
  409a6d:	00 00 
  409a6f:	c5 7e 7f b4 24 a0 08 	vmovdqu %ymm14,0x8a0(%rsp)
  409a76:	00 00 
  409a78:	c5 bd ef be 80 75 00 	vpxor  0x7580(%rsi),%ymm8,%ymm7
  409a7f:	00 
  409a80:	c4 41 35 ef c7       	vpxor  %ymm15,%ymm9,%ymm8
  409a85:	c5 fe 7f bc 24 80 0c 	vmovdqu %ymm7,0xc80(%rsp)
  409a8c:	00 00 
  409a8e:	c4 c1 7d ef f9       	vpxor  %ymm9,%ymm0,%ymm7
  409a93:	c5 05 ef ca          	vpxor  %ymm2,%ymm15,%ymm9
  409a97:	c5 6d eb f7          	vpor   %ymm7,%ymm2,%ymm14
  409a9b:	c5 fe 6f 94 24 a0 03 	vmovdqu 0x3a0(%rsp),%ymm2
  409aa2:	00 00 
  409aa4:	c4 41 6d ef f6       	vpxor  %ymm14,%ymm2,%ymm14
  409aa9:	c5 ed db ff          	vpand  %ymm7,%ymm2,%ymm7
  409aad:	c4 41 05 ef fe       	vpxor  %ymm14,%ymm15,%ymm15
  409ab2:	c4 c1 45 ef d1       	vpxor  %ymm9,%ymm7,%ymm2
  409ab7:	c5 85 ef be 00 73 00 	vpxor  0x7300(%rsi),%ymm15,%ymm7
  409abe:	00 
  409abf:	c4 41 35 db fe       	vpand  %ymm14,%ymm9,%ymm15
  409ac4:	c5 fe 7f bc 24 e0 0b 	vmovdqu %ymm7,0xbe0(%rsp)
  409acb:	00 00 
  409acd:	c4 41 3d ef ff       	vpxor  %ymm15,%ymm8,%ymm15
  409ad2:	c4 41 6d eb c0       	vpor   %ymm8,%ymm2,%ymm8
  409ad7:	c5 85 ef be 80 77 00 	vpxor  0x7780(%rsi),%ymm15,%ymm7
  409ade:	00 
  409adf:	c4 41 0d ef c8       	vpxor  %ymm8,%ymm14,%ymm9
  409ae4:	c5 6d ef b6 20 71 00 	vpxor  0x7120(%rsi),%ymm2,%ymm14
  409aeb:	00 
  409aec:	c5 7e 6f 84 24 c0 06 	vmovdqu 0x6c0(%rsp),%ymm8
  409af3:	00 00 
  409af5:	c5 7e 6f bc 24 20 01 	vmovdqu 0x120(%rsp),%ymm15
  409afc:	00 00 
  409afe:	c5 fe 7f bc 24 c0 08 	vmovdqu %ymm7,0x8c0(%rsp)
  409b05:	00 00 
  409b07:	c5 7e 7f b4 24 e0 09 	vmovdqu %ymm14,0x9e0(%rsp)
  409b0e:	00 00 
  409b10:	c5 b5 ef 96 a0 75 00 	vpxor  0x75a0(%rsi),%ymm9,%ymm2
  409b17:	00 
  409b18:	c4 c1 7d ef f8       	vpxor  %ymm8,%ymm0,%ymm7
  409b1d:	c5 3d ef f1          	vpxor  %ymm1,%ymm8,%ymm14
  409b21:	c4 41 75 ef c7       	vpxor  %ymm15,%ymm1,%ymm8
  409b26:	c5 7e 6f 8c 24 c0 03 	vmovdqu 0x3c0(%rsp),%ymm9
  409b2d:	00 00 
  409b2f:	c5 fe 7f 94 24 a0 0c 	vmovdqu %ymm2,0xca0(%rsp)
  409b36:	00 00 
  409b38:	c5 85 eb d7          	vpor   %ymm7,%ymm15,%ymm2
  409b3c:	c5 b5 db ff          	vpand  %ymm7,%ymm9,%ymm7
  409b40:	c5 b5 ef d2          	vpxor  %ymm2,%ymm9,%ymm2
  409b44:	c4 41 45 ef c8       	vpxor  %ymm8,%ymm7,%ymm9
  409b49:	c5 f5 ef ca          	vpxor  %ymm2,%ymm1,%ymm1
  409b4d:	c5 bd db fa          	vpand  %ymm2,%ymm8,%ymm7
  409b51:	c4 41 35 eb c6       	vpor   %ymm14,%ymm9,%ymm8
  409b56:	c5 f5 ef 8e 20 73 00 	vpxor  0x7320(%rsi),%ymm1,%ymm1
  409b5d:	00 
  409b5e:	c5 0d ef ff          	vpxor  %ymm7,%ymm14,%ymm15
  409b62:	c4 c1 6d ef d0       	vpxor  %ymm8,%ymm2,%ymm2
  409b67:	c5 35 ef b6 40 71 00 	vpxor  0x7140(%rsi),%ymm9,%ymm14
  409b6e:	00 
  409b6f:	c5 fe 7f 8c 24 00 0c 	vmovdqu %ymm1,0xc00(%rsp)
  409b76:	00 00 
  409b78:	c5 fe 6f 8c 24 a0 06 	vmovdqu 0x6a0(%rsp),%ymm1
  409b7f:	00 00 
  409b81:	c5 fe 6f bc 24 40 01 	vmovdqu 0x140(%rsp),%ymm7
  409b88:	00 00 
  409b8a:	c5 7e 7f b4 24 00 0a 	vmovdqu %ymm14,0xa00(%rsp)
  409b91:	00 00 
  409b93:	c5 05 ef be a0 77 00 	vpxor  0x77a0(%rsi),%ymm15,%ymm15
  409b9a:	00 
  409b9b:	c5 6d ef 8e c0 75 00 	vpxor  0x75c0(%rsi),%ymm2,%ymm9
  409ba2:	00 
  409ba3:	c5 75 ef f3          	vpxor  %ymm3,%ymm1,%ymm14
  409ba7:	c5 65 ef c7          	vpxor  %ymm7,%ymm3,%ymm8
  409bab:	c5 7e 7f bc 24 e0 08 	vmovdqu %ymm15,0x8e0(%rsp)
  409bb2:	00 00 
  409bb4:	c5 7e 7f 8c 24 c0 0c 	vmovdqu %ymm9,0xcc0(%rsp)
  409bbb:	00 00 
  409bbd:	c5 7e 6f 8c 24 e0 03 	vmovdqu 0x3e0(%rsp),%ymm9
  409bc4:	00 00 
  409bc6:	c5 7d ef f9          	vpxor  %ymm1,%ymm0,%ymm15
  409bca:	c4 c1 45 eb d7       	vpor   %ymm15,%ymm7,%ymm2
  409bcf:	c4 c1 35 db cf       	vpand  %ymm15,%ymm9,%ymm1
  409bd4:	c5 b5 ef fa          	vpxor  %ymm2,%ymm9,%ymm7
  409bd8:	c4 c1 75 ef c8       	vpxor  %ymm8,%ymm1,%ymm1
  409bdd:	c5 3d db c7          	vpand  %ymm7,%ymm8,%ymm8
  409be1:	c5 e5 ef df          	vpxor  %ymm7,%ymm3,%ymm3
  409be5:	c4 41 0d ef c8       	vpxor  %ymm8,%ymm14,%ymm9
  409bea:	c4 41 75 eb f6       	vpor   %ymm14,%ymm1,%ymm14
  409bef:	c5 f5 ef 8e 60 71 00 	vpxor  0x7160(%rsi),%ymm1,%ymm1
  409bf6:	00 
  409bf7:	c5 65 ef be 40 73 00 	vpxor  0x7340(%rsi),%ymm3,%ymm15
  409bfe:	00 
  409bff:	c5 b5 ef 96 c0 77 00 	vpxor  0x77c0(%rsi),%ymm9,%ymm2
  409c06:	00 
  409c07:	c4 c1 45 ef fe       	vpxor  %ymm14,%ymm7,%ymm7
  409c0c:	c5 fe 7f 8c 24 20 0a 	vmovdqu %ymm1,0xa20(%rsp)
  409c13:	00 00 
  409c15:	c5 fe 6f 8c 24 80 06 	vmovdqu 0x680(%rsp),%ymm1
  409c1c:	00 00 
  409c1e:	c5 7e 6f 84 24 60 01 	vmovdqu 0x160(%rsp),%ymm8
  409c25:	00 00 
  409c27:	c5 7e 7f bc 24 20 0c 	vmovdqu %ymm15,0xc20(%rsp)
  409c2e:	00 00 
  409c30:	c5 7e 6f bc 24 00 04 	vmovdqu 0x400(%rsp),%ymm15
  409c37:	00 00 
  409c39:	c5 fe 7f 94 24 80 07 	vmovdqu %ymm2,0x780(%rsp)
  409c40:	00 00 
  409c42:	c5 fe 6f 94 24 80 04 	vmovdqu 0x480(%rsp),%ymm2
  409c49:	00 00 
  409c4b:	c5 7d ef f1          	vpxor  %ymm1,%ymm0,%ymm14
  409c4f:	c5 75 ef cc          	vpxor  %ymm4,%ymm1,%ymm9
  409c53:	c5 c5 ef 9e e0 75 00 	vpxor  0x75e0(%rsi),%ymm7,%ymm3
  409c5a:	00 
  409c5b:	c4 c1 3d eb ce       	vpor   %ymm14,%ymm8,%ymm1
  409c60:	c4 c1 05 db fe       	vpand  %ymm14,%ymm15,%ymm7
  409c65:	c5 fe 7f 9c 24 e0 0c 	vmovdqu %ymm3,0xce0(%rsp)
  409c6c:	00 00 
  409c6e:	c4 c1 5d ef d8       	vpxor  %ymm8,%ymm4,%ymm3
  409c73:	c5 05 ef f9          	vpxor  %ymm1,%ymm15,%ymm15
  409c77:	c5 45 ef f3          	vpxor  %ymm3,%ymm7,%ymm14
  409c7b:	c4 c1 5d ef e7       	vpxor  %ymm15,%ymm4,%ymm4
  409c80:	c4 c1 65 db ff       	vpand  %ymm15,%ymm3,%ymm7
  409c85:	c4 41 0d eb c1       	vpor   %ymm9,%ymm14,%ymm8
  409c8a:	c5 dd ef 8e 60 73 00 	vpxor  0x7360(%rsi),%ymm4,%ymm1
  409c91:	00 
  409c92:	c5 b5 ef df          	vpxor  %ymm7,%ymm9,%ymm3
  409c96:	c5 8d ef a6 80 71 00 	vpxor  0x7180(%rsi),%ymm14,%ymm4
  409c9d:	00 
  409c9e:	c4 41 05 ef f8       	vpxor  %ymm8,%ymm15,%ymm15
  409ca3:	c5 fd ef fa          	vpxor  %ymm2,%ymm0,%ymm7
  409ca7:	c5 65 ef b6 e0 77 00 	vpxor  0x77e0(%rsi),%ymm3,%ymm14
  409cae:	00 
  409caf:	c5 fe 7f 8c 24 40 0c 	vmovdqu %ymm1,0xc40(%rsp)
  409cb6:	00 00 
  409cb8:	c5 fe 6f 8c 24 80 01 	vmovdqu 0x180(%rsp),%ymm1
  409cbf:	00 00 
  409cc1:	c5 fe 7f a4 24 40 0a 	vmovdqu %ymm4,0xa40(%rsp)
  409cc8:	00 00 
  409cca:	c5 7e 7f b4 24 a0 07 	vmovdqu %ymm14,0x7a0(%rsp)
  409cd1:	00 00 
  409cd3:	c5 7e 6f b4 24 20 04 	vmovdqu 0x420(%rsp),%ymm14
  409cda:	00 00 
  409cdc:	c5 05 ef 8e 00 74 00 	vpxor  0x7400(%rsi),%ymm15,%ymm9
  409ce3:	00 
  409ce4:	c5 75 eb ff          	vpor   %ymm7,%ymm1,%ymm15
  409ce8:	c5 55 ef c1          	vpxor  %ymm1,%ymm5,%ymm8
  409cec:	c5 8d db df          	vpand  %ymm7,%ymm14,%ymm3
  409cf0:	c5 ed ef e5          	vpxor  %ymm5,%ymm2,%ymm4
  409cf4:	c4 c1 0d ef cf       	vpxor  %ymm15,%ymm14,%ymm1
  409cf9:	c4 c1 65 ef f8       	vpxor  %ymm8,%ymm3,%ymm7
  409cfe:	c5 fe 6f 9c 24 40 04 	vmovdqu 0x440(%rsp),%ymm3
  409d05:	00 00 
  409d07:	c5 3d db c1          	vpand  %ymm1,%ymm8,%ymm8
  409d0b:	c5 d5 ef e9          	vpxor  %ymm1,%ymm5,%ymm5
  409d0f:	c5 e5 ef d6          	vpxor  %ymm6,%ymm3,%ymm2
  409d13:	c4 41 5d ef f8       	vpxor  %ymm8,%ymm4,%ymm15
  409d18:	c5 c5 eb e4          	vpor   %ymm4,%ymm7,%ymm4
  409d1c:	c5 d5 ef ae 80 73 00 	vpxor  0x7380(%rsi),%ymm5,%ymm5
  409d23:	00 
  409d24:	c5 7e 6f 84 24 80 02 	vmovdqu 0x280(%rsp),%ymm8
  409d2b:	00 00 
  409d2d:	c5 75 ef f4          	vpxor  %ymm4,%ymm1,%ymm14
  409d31:	c5 c5 ef 8e a0 71 00 	vpxor  0x71a0(%rsi),%ymm7,%ymm1
  409d38:	00 
  409d39:	c5 fe 7f ac 24 60 0b 	vmovdqu %ymm5,0xb60(%rsp)
  409d40:	00 00 
  409d42:	c5 fd ef eb          	vpxor  %ymm3,%ymm0,%ymm5
  409d46:	c5 8d ef be 20 74 00 	vpxor  0x7420(%rsi),%ymm14,%ymm7
  409d4d:	00 
  409d4e:	c5 05 ef b6 00 76 00 	vpxor  0x7600(%rsi),%ymm15,%ymm14
  409d55:	00 
  409d56:	c5 fe 7f 8c 24 60 0a 	vmovdqu %ymm1,0xa60(%rsp)
  409d5d:	00 00 
  409d5f:	c5 fe 6f 8c 24 a0 01 	vmovdqu 0x1a0(%rsp),%ymm1
  409d66:	00 00 
  409d68:	c5 3d db fd          	vpand  %ymm5,%ymm8,%ymm15
  409d6c:	c5 f5 eb e5          	vpor   %ymm5,%ymm1,%ymm4
  409d70:	c5 cd ef d9          	vpxor  %ymm1,%ymm6,%ymm3
  409d74:	c5 bd ef e4          	vpxor  %ymm4,%ymm8,%ymm4
  409d78:	c5 05 ef c3          	vpxor  %ymm3,%ymm15,%ymm8
  409d7c:	c5 7e 6f bc 24 c0 01 	vmovdqu 0x1c0(%rsp),%ymm15
  409d83:	00 00 
  409d85:	c5 cd ef f4          	vpxor  %ymm4,%ymm6,%ymm6
  409d89:	c5 e5 db ec          	vpand  %ymm4,%ymm3,%ymm5
  409d8d:	c5 cd ef 8e a0 73 00 	vpxor  0x73a0(%rsi),%ymm6,%ymm1
  409d94:	00 
  409d95:	c5 ed ef dd          	vpxor  %ymm5,%ymm2,%ymm3
  409d99:	c5 bd eb f2          	vpor   %ymm2,%ymm8,%ymm6
  409d9d:	c5 3d ef 86 c0 71 00 	vpxor  0x71c0(%rsi),%ymm8,%ymm8
  409da4:	00 
  409da5:	c5 fe 6f 54 24 60    	vmovdqu 0x60(%rsp),%ymm2
  409dab:	c5 fe 6f ac 24 60 06 	vmovdqu 0x660(%rsp),%ymm5
  409db2:	00 00 
  409db4:	c5 fe 7f 8c 24 40 0b 	vmovdqu %ymm1,0xb40(%rsp)
  409dbb:	00 00 
  409dbd:	c5 7e 7f 84 24 40 09 	vmovdqu %ymm8,0x940(%rsp)
  409dc4:	00 00 
  409dc6:	c5 dd ef e6          	vpxor  %ymm6,%ymm4,%ymm4
  409dca:	c5 fd ef ca          	vpxor  %ymm2,%ymm0,%ymm1
  409dce:	c4 41 55 ef c7       	vpxor  %ymm15,%ymm5,%ymm8
  409dd3:	c5 dd ef b6 40 74 00 	vpxor  0x7440(%rsi),%ymm4,%ymm6
  409dda:	00 
  409ddb:	c5 e5 ef a6 20 76 00 	vpxor  0x7620(%rsi),%ymm3,%ymm4
  409de2:	00 
  409de3:	c5 ed ef dd          	vpxor  %ymm5,%ymm2,%ymm3
  409de7:	c5 85 eb d1          	vpor   %ymm1,%ymm15,%ymm2
  409deb:	c5 7e 6f bc 24 40 02 	vmovdqu 0x240(%rsp),%ymm15
  409df2:	00 00 
  409df4:	c5 85 db c9          	vpand  %ymm1,%ymm15,%ymm1
  409df8:	c5 85 ef d2          	vpxor  %ymm2,%ymm15,%ymm2
  409dfc:	c4 c1 75 ef c8       	vpxor  %ymm8,%ymm1,%ymm1
  409e01:	c5 d5 ef ea          	vpxor  %ymm2,%ymm5,%ymm5
  409e05:	c5 3d db c2          	vpand  %ymm2,%ymm8,%ymm8
  409e09:	c5 55 ef be c0 73 00 	vpxor  0x73c0(%rsi),%ymm5,%ymm15
  409e10:	00 
  409e11:	c4 c1 65 ef e8       	vpxor  %ymm8,%ymm3,%ymm5
  409e16:	c5 f5 eb db          	vpor   %ymm3,%ymm1,%ymm3
  409e1a:	c5 f5 ef 8e e0 71 00 	vpxor  0x71e0(%rsi),%ymm1,%ymm1
  409e21:	00 
  409e22:	c5 7e 7f bc 24 00 0b 	vmovdqu %ymm15,0xb00(%rsp)
  409e29:	00 00 
  409e2b:	c5 7e 6f bc 24 60 02 	vmovdqu 0x260(%rsp),%ymm15
  409e32:	00 00 
  409e34:	c5 ed ef d3          	vpxor  %ymm3,%ymm2,%ymm2
  409e38:	c5 d5 ef ae 40 76 00 	vpxor  0x7640(%rsi),%ymm5,%ymm5
  409e3f:	00 
  409e40:	c5 fe 7f 8c 24 00 09 	vmovdqu %ymm1,0x900(%rsp)
  409e47:	00 00 
  409e49:	c5 fe 6f 8c 24 60 04 	vmovdqu 0x460(%rsp),%ymm1
  409e50:	00 00 
  409e52:	c5 6d ef 86 60 74 00 	vpxor  0x7460(%rsi),%ymm2,%ymm8
  409e59:	00 
  409e5a:	c5 fd ef d1          	vpxor  %ymm1,%ymm0,%ymm2
  409e5e:	c4 c1 75 ef d9       	vpxor  %ymm9,%ymm1,%ymm3
  409e63:	c4 c1 35 ef ce       	vpxor  %ymm14,%ymm9,%ymm1
  409e68:	c5 0d eb f2          	vpor   %ymm2,%ymm14,%ymm14
  409e6c:	c5 85 db d2          	vpand  %ymm2,%ymm15,%ymm2
  409e70:	c4 41 05 ef f6       	vpxor  %ymm14,%ymm15,%ymm14
  409e75:	c5 6d ef f9          	vpxor  %ymm1,%ymm2,%ymm15
  409e79:	c4 c1 75 db ce       	vpand  %ymm14,%ymm1,%ymm1
  409e7e:	c4 41 35 ef ce       	vpxor  %ymm14,%ymm9,%ymm9
  409e83:	c5 e5 ef c9          	vpxor  %ymm1,%ymm3,%ymm1
  409e87:	c5 85 eb db          	vpor   %ymm3,%ymm15,%ymm3
  409e8b:	c5 b5 ef 96 e0 7b 00 	vpxor  0x7be0(%rsi),%ymm9,%ymm2
  409e92:	00 
  409e93:	c5 f5 ef 8e 60 7e 00 	vpxor  0x7e60(%rsi),%ymm1,%ymm1
  409e9a:	00 
  409e9b:	c5 0d ef cb          	vpxor  %ymm3,%ymm14,%ymm9
  409e9f:	c5 05 ef b6 00 78 00 	vpxor  0x7800(%rsi),%ymm15,%ymm14
  409ea6:	00 
  409ea7:	c5 fe 7f 54 24 40    	vmovdqu %ymm2,0x40(%rsp)
  409ead:	c5 fe 7f 8c 24 c0 07 	vmovdqu %ymm1,0x7c0(%rsp)
  409eb4:	00 00 
  409eb6:	c4 c1 7d ef d3       	vpxor  %ymm11,%ymm0,%ymm2
  409ebb:	c5 c5 ef cc          	vpxor  %ymm4,%ymm7,%ymm1
  409ebf:	c5 35 ef be 80 7c 00 	vpxor  0x7c80(%rsi),%ymm9,%ymm15
  409ec6:	00 
  409ec7:	c5 7e 7f b4 24 20 09 	vmovdqu %ymm14,0x920(%rsp)
  409ece:	00 00 
  409ed0:	c5 25 ef f7          	vpxor  %ymm7,%ymm11,%ymm14
  409ed4:	c5 dd eb e2          	vpor   %ymm2,%ymm4,%ymm4
  409ed8:	c5 7e 7f bc 24 a0 0d 	vmovdqu %ymm15,0xda0(%rsp)
  409edf:	00 00 
  409ee1:	c5 7e 6f 9c 24 a0 02 	vmovdqu 0x2a0(%rsp),%ymm11
  409ee8:	00 00 
  409eea:	c5 a5 db d2          	vpand  %ymm2,%ymm11,%ymm2
  409eee:	c5 25 ef dc          	vpxor  %ymm4,%ymm11,%ymm11
  409ef2:	c5 ed ef e1          	vpxor  %ymm1,%ymm2,%ymm4
  409ef6:	c4 c1 45 ef fb       	vpxor  %ymm11,%ymm7,%ymm7
  409efb:	c4 c1 75 db cb       	vpand  %ymm11,%ymm1,%ymm1
  409f00:	c5 c5 ef be 00 7a 00 	vpxor  0x7a00(%rsi),%ymm7,%ymm7
  409f07:	00 
  409f08:	c5 8d ef d1          	vpxor  %ymm1,%ymm14,%ymm2
  409f0c:	c4 c1 7d ef ca       	vpxor  %ymm10,%ymm0,%ymm1
  409f11:	c4 41 5d eb f6       	vpor   %ymm14,%ymm4,%ymm14
  409f16:	c5 2d ef d6          	vpxor  %ymm6,%ymm10,%ymm10
  409f1a:	c5 6d ef be 80 7e 00 	vpxor  0x7e80(%rsi),%ymm2,%ymm15
  409f21:	00 
  409f22:	c5 fe 7f bc 24 20 0b 	vmovdqu %ymm7,0xb20(%rsp)
  409f29:	00 00 
  409f2b:	c5 cd ef fd          	vpxor  %ymm5,%ymm6,%ymm7
  409f2f:	c5 d5 eb e9          	vpor   %ymm1,%ymm5,%ymm5
  409f33:	c4 c1 25 ef de       	vpxor  %ymm14,%ymm11,%ymm3
  409f38:	c5 9d db c9          	vpand  %ymm1,%ymm12,%ymm1
  409f3c:	c5 5d ef 9e 20 78 00 	vpxor  0x7820(%rsi),%ymm4,%ymm11
  409f43:	00 
  409f44:	c5 9d ef d5          	vpxor  %ymm5,%ymm12,%ymm2
  409f48:	c5 65 ef 8e a0 7c 00 	vpxor  0x7ca0(%rsi),%ymm3,%ymm9
  409f4f:	00 
  409f50:	c5 f5 ef df          	vpxor  %ymm7,%ymm1,%ymm3
  409f54:	c5 7e 7f 9c 24 60 09 	vmovdqu %ymm11,0x960(%rsp)
  409f5b:	00 00 
  409f5d:	c5 7e 7f bc 24 e0 07 	vmovdqu %ymm15,0x7e0(%rsp)
  409f64:	00 00 
  409f66:	c5 7e 7f 8c 24 c0 0d 	vmovdqu %ymm9,0xdc0(%rsp)
  409f6d:	00 00 
  409f6f:	c5 4d ef e2          	vpxor  %ymm2,%ymm6,%ymm12
  409f73:	c5 c5 db ea          	vpand  %ymm2,%ymm7,%ymm5
  409f77:	c4 41 15 ef c8       	vpxor  %ymm8,%ymm13,%ymm9
  409f7c:	c5 9d ef 8e 20 7a 00 	vpxor  0x7a20(%rsi),%ymm12,%ymm1
  409f83:	00 
  409f84:	c5 ad ef f5          	vpxor  %ymm5,%ymm10,%ymm6
  409f88:	c4 41 65 eb d2       	vpor   %ymm10,%ymm3,%ymm10
  409f8d:	c5 fe 7f 8c 24 80 0b 	vmovdqu %ymm1,0xb80(%rsp)
  409f94:	00 00 
  409f96:	c5 e5 ef 8e 40 78 00 	vpxor  0x7840(%rsi),%ymm3,%ymm1
  409f9d:	00 
  409f9e:	c4 c1 6d ef fa       	vpxor  %ymm10,%ymm2,%ymm7
  409fa3:	c4 c1 7d ef d5       	vpxor  %ymm13,%ymm0,%ymm2
  409fa8:	c5 cd ef ae a0 7e 00 	vpxor  0x7ea0(%rsi),%ymm6,%ymm5
  409faf:	00 
  409fb0:	c5 7e 6f ac 24 20 02 	vmovdqu 0x220(%rsp),%ymm13
  409fb7:	00 00 
  409fb9:	c5 fe 7f 8c 24 80 0a 	vmovdqu %ymm1,0xa80(%rsp)
  409fc0:	00 00 
  409fc2:	c5 c5 ef 8e c0 7c 00 	vpxor  0x7cc0(%rsi),%ymm7,%ymm1
  409fc9:	00 
  409fca:	c5 fe 6f bc 24 20 0e 	vmovdqu 0xe20(%rsp),%ymm7
  409fd1:	00 00 
  409fd3:	c5 fe 7f ac 24 00 08 	vmovdqu %ymm5,0x800(%rsp)
  409fda:	00 00 
  409fdc:	c5 95 eb ea          	vpor   %ymm2,%ymm13,%ymm5
  409fe0:	c4 c1 3d ef dd       	vpxor  %ymm13,%ymm8,%ymm3
  409fe5:	c5 45 db ea          	vpand  %ymm2,%ymm7,%ymm13
  409fe9:	c5 fe 6f 94 24 00 07 	vmovdqu 0x700(%rsp),%ymm2
  409ff0:	00 00 
  409ff2:	c5 45 ef d5          	vpxor  %ymm5,%ymm7,%ymm10
  409ff6:	c5 15 ef e3          	vpxor  %ymm3,%ymm13,%ymm12
  409ffa:	c4 c1 3d ef f2       	vpxor  %ymm10,%ymm8,%ymm6
  409fff:	c4 c1 65 db e2       	vpand  %ymm10,%ymm3,%ymm4
  40a004:	c4 41 1d eb d9       	vpor   %ymm9,%ymm12,%ymm11
  40a009:	c5 1d ef b6 60 78 00 	vpxor  0x7860(%rsi),%ymm12,%ymm14
  40a010:	00 
  40a011:	c5 4d ef 86 40 7a 00 	vpxor  0x7a40(%rsi),%ymm6,%ymm8
  40a018:	00 
  40a019:	c5 b5 ef ec          	vpxor  %ymm4,%ymm9,%ymm5
  40a01d:	c4 41 2d ef fb       	vpxor  %ymm11,%ymm10,%ymm15
  40a022:	c5 fe 6f b4 24 a0 0e 	vmovdqu 0xea0(%rsp),%ymm6
  40a029:	00 00 
  40a02b:	c5 fe 6f a4 24 60 0e 	vmovdqu 0xe60(%rsp),%ymm4
  40a032:	00 00 
  40a034:	c5 7e 6f 54 24 20    	vmovdqu 0x20(%rsp),%ymm10
  40a03a:	c5 7e 7f 84 24 80 0d 	vmovdqu %ymm8,0xd80(%rsp)
  40a041:	00 00 
  40a043:	c5 7e 7f b4 24 a0 0a 	vmovdqu %ymm14,0xaa0(%rsp)
  40a04a:	00 00 
  40a04c:	c5 fd ef de          	vpxor  %ymm6,%ymm0,%ymm3
  40a050:	c5 55 ef ae c0 7e 00 	vpxor  0x7ec0(%rsi),%ymm5,%ymm13
  40a057:	00 
  40a058:	c5 2d ef f2          	vpxor  %ymm2,%ymm10,%ymm14
  40a05c:	c4 c1 4d ef f2       	vpxor  %ymm10,%ymm6,%ymm6
  40a061:	c5 6d eb c3          	vpor   %ymm3,%ymm2,%ymm8
  40a065:	c5 5d db cb          	vpand  %ymm3,%ymm4,%ymm9
  40a069:	c5 85 ef be e0 7c 00 	vpxor  0x7ce0(%rsi),%ymm15,%ymm7
  40a070:	00 
  40a071:	c5 7e 7f ac 24 20 08 	vmovdqu %ymm13,0x820(%rsp)
  40a078:	00 00 
  40a07a:	c4 c1 5d ef e8       	vpxor  %ymm8,%ymm4,%ymm5
  40a07f:	c4 c1 35 ef d6       	vpxor  %ymm14,%ymm9,%ymm2
  40a084:	c5 7e 6f 8c 24 e0 0e 	vmovdqu 0xee0(%rsp),%ymm9
  40a08b:	00 00 
  40a08d:	c5 2d ef dd          	vpxor  %ymm5,%ymm10,%ymm11
  40a091:	c5 0d db fd          	vpand  %ymm5,%ymm14,%ymm15
  40a095:	c5 6d eb ee          	vpor   %ymm6,%ymm2,%ymm13
  40a099:	c5 7e 6f 94 24 00 0e 	vmovdqu 0xe00(%rsp),%ymm10
  40a0a0:	00 00 
  40a0a2:	c5 25 ef a6 60 7a 00 	vpxor  0x7a60(%rsi),%ymm11,%ymm12
  40a0a9:	00 
  40a0aa:	c4 41 7d ef d9       	vpxor  %ymm9,%ymm0,%ymm11
  40a0af:	c4 c1 4d ef e7       	vpxor  %ymm15,%ymm6,%ymm4
  40a0b4:	c5 ed ef b6 80 78 00 	vpxor  0x7880(%rsi),%ymm2,%ymm6
  40a0bb:	00 
  40a0bc:	c4 c1 55 ef dd       	vpxor  %ymm13,%ymm5,%ymm3
  40a0c1:	c4 41 2d eb f3       	vpor   %ymm11,%ymm10,%ymm14
  40a0c6:	c5 5d ef 86 e0 7e 00 	vpxor  0x7ee0(%rsi),%ymm4,%ymm8
  40a0cd:	00 
  40a0ce:	c5 7e 7f a4 24 60 0d 	vmovdqu %ymm12,0xd60(%rsp)
  40a0d5:	00 00 
  40a0d7:	c5 fe 6f 94 24 e0 06 	vmovdqu 0x6e0(%rsp),%ymm2
  40a0de:	00 00 
  40a0e0:	c5 7e 6f a4 24 c0 0e 	vmovdqu 0xec0(%rsp),%ymm12
  40a0e7:	00 00 
  40a0e9:	c5 fe 7f b4 24 c0 0a 	vmovdqu %ymm6,0xac0(%rsp)
  40a0f0:	00 00 
  40a0f2:	c5 7e 7f 84 24 40 08 	vmovdqu %ymm8,0x840(%rsp)
  40a0f9:	00 00 
  40a0fb:	c5 e5 ef ae 00 7d 00 	vpxor  0x7d00(%rsi),%ymm3,%ymm5
  40a102:	00 
  40a103:	c4 c1 6d ef da       	vpxor  %ymm10,%ymm2,%ymm3
  40a108:	c4 41 1d db fb       	vpand  %ymm11,%ymm12,%ymm15
  40a10d:	c4 c1 1d ef f6       	vpxor  %ymm14,%ymm12,%ymm6
  40a112:	c5 35 ef ea          	vpxor  %ymm2,%ymm9,%ymm13
  40a116:	c5 05 ef c3          	vpxor  %ymm3,%ymm15,%ymm8
  40a11a:	c5 6d ef fe          	vpxor  %ymm6,%ymm2,%ymm15
  40a11e:	c5 e5 db e6          	vpand  %ymm6,%ymm3,%ymm4
  40a122:	c5 fe 6f 94 24 e0 0d 	vmovdqu 0xde0(%rsp),%ymm2
  40a129:	00 00 
  40a12b:	c5 fe 6f 9c 24 40 0e 	vmovdqu 0xe40(%rsp),%ymm3
  40a132:	00 00 
  40a134:	c5 05 ef 96 80 7a 00 	vpxor  0x7a80(%rsi),%ymm15,%ymm10
  40a13b:	00 
  40a13c:	c5 3d ef 8e a0 78 00 	vpxor  0x78a0(%rsi),%ymm8,%ymm9
  40a143:	00 
  40a144:	c5 7e 7f 94 24 40 0d 	vmovdqu %ymm10,0xd40(%rsp)
  40a14b:	00 00 
  40a14d:	c5 7e 7f 8c 24 e0 0a 	vmovdqu %ymm9,0xae0(%rsp)
  40a154:	00 00 
  40a156:	c5 15 ef d4          	vpxor  %ymm4,%ymm13,%ymm10
  40a15a:	c4 41 3d eb ed       	vpor   %ymm13,%ymm8,%ymm13
  40a15f:	c5 7e 6f 86 00 7f 00 	vmovdqu 0x7f00(%rsi),%ymm8
  40a166:	00 
  40a167:	c5 fe 6f a4 24 80 0e 	vmovdqu 0xe80(%rsp),%ymm4
  40a16e:	00 00 
  40a170:	c4 41 4d ef dd       	vpxor  %ymm13,%ymm6,%ymm11
  40a175:	c5 a5 ef b6 20 7d 00 	vpxor  0x7d20(%rsi),%ymm11,%ymm6
  40a17c:	00 
  40a17d:	c5 7e 6f a4 24 a0 0b 	vmovdqu 0xba0(%rsp),%ymm12
  40a184:	00 00 
  40a186:	c5 7e 6f 9c 24 20 07 	vmovdqu 0x720(%rsp),%ymm11
  40a18d:	00 00 
  40a18f:	c5 fe 7f bc 24 e0 0d 	vmovdqu %ymm7,0xde0(%rsp)
  40a196:	00 00 
  40a198:	c5 fe 7f b4 24 20 0e 	vmovdqu %ymm6,0xe20(%rsp)
  40a19f:	00 00 
  40a1a1:	c5 fe 7f ac 24 00 0e 	vmovdqu %ymm5,0xe00(%rsp)
  40a1a8:	00 00 
  40a1aa:	c4 c1 7d ef fc       	vpxor  %ymm12,%ymm0,%ymm7
  40a1af:	c4 c1 2d ef f0       	vpxor  %ymm8,%ymm10,%ymm6
  40a1b4:	c4 41 6d ef cb       	vpxor  %ymm11,%ymm2,%ymm9
  40a1b9:	c5 1d ef ea          	vpxor  %ymm2,%ymm12,%ymm13
  40a1bd:	c5 25 eb d7          	vpor   %ymm7,%ymm11,%ymm10
  40a1c1:	c5 7e 6f 84 24 80 09 	vmovdqu 0x980(%rsp),%ymm8
  40a1c8:	00 00 
  40a1ca:	c5 fe 7f b4 24 40 0e 	vmovdqu %ymm6,0xe40(%rsp)
  40a1d1:	00 00 
  40a1d3:	c5 3d db f7          	vpand  %ymm7,%ymm8,%ymm14
  40a1d7:	c4 41 3d ef fa       	vpxor  %ymm10,%ymm8,%ymm15
  40a1dc:	c5 7e 6f 94 24 c0 0b 	vmovdqu 0xbc0(%rsp),%ymm10
  40a1e3:	00 00 
  40a1e5:	c4 c1 0d ef f1       	vpxor  %ymm9,%ymm14,%ymm6
  40a1ea:	c4 c1 35 db ef       	vpand  %ymm15,%ymm9,%ymm5
  40a1ef:	c4 c1 6d ef d7       	vpxor  %ymm15,%ymm2,%ymm2
  40a1f4:	c5 2d ef cb          	vpxor  %ymm3,%ymm10,%ymm9
  40a1f8:	c5 4d ef a6 c0 78 00 	vpxor  0x78c0(%rsi),%ymm6,%ymm12
  40a1ff:	00 
  40a200:	c5 95 ef fd          	vpxor  %ymm5,%ymm13,%ymm7
  40a204:	c4 41 4d eb ed       	vpor   %ymm13,%ymm6,%ymm13
  40a209:	c5 6d ef 9e a0 7a 00 	vpxor  0x7aa0(%rsi),%ymm2,%ymm11
  40a210:	00 
  40a211:	c5 fe 6f ac 24 40 07 	vmovdqu 0x740(%rsp),%ymm5
  40a218:	00 00 
  40a21a:	c4 c1 05 ef d5       	vpxor  %ymm13,%ymm15,%ymm2
  40a21f:	c4 41 7d ef fa       	vpxor  %ymm10,%ymm0,%ymm15
  40a224:	c5 45 ef 86 20 7f 00 	vpxor  0x7f20(%rsi),%ymm7,%ymm8
  40a22b:	00 
  40a22c:	c5 65 ef f5          	vpxor  %ymm5,%ymm3,%ymm14
  40a230:	c5 6d ef ae 40 7d 00 	vpxor  0x7d40(%rsi),%ymm2,%ymm13
  40a237:	00 
  40a238:	c4 c1 55 eb f7       	vpor   %ymm15,%ymm5,%ymm6
  40a23d:	c5 fe 6f 94 24 a0 09 	vmovdqu 0x9a0(%rsp),%ymm2
  40a244:	00 00 
  40a246:	c5 7e 7f 84 24 80 0e 	vmovdqu %ymm8,0xe80(%rsp)
  40a24d:	00 00 
  40a24f:	c5 7e 7f ac 24 60 0e 	vmovdqu %ymm13,0xe60(%rsp)
  40a256:	00 00 
  40a258:	c4 41 6d db ef       	vpand  %ymm15,%ymm2,%ymm13
  40a25d:	c5 ed ef fe          	vpxor  %ymm6,%ymm2,%ymm7
  40a261:	c5 7e 6f bc 24 c0 09 	vmovdqu 0x9c0(%rsp),%ymm15
  40a268:	00 00 
  40a26a:	c4 41 15 ef c6       	vpxor  %ymm14,%ymm13,%ymm8
  40a26f:	c5 0d db f7          	vpand  %ymm7,%ymm14,%ymm14
  40a273:	c5 e5 ef df          	vpxor  %ymm7,%ymm3,%ymm3
  40a277:	c5 bd ef 96 e0 78 00 	vpxor  0x78e0(%rsi),%ymm8,%ymm2
  40a27e:	00 
  40a27f:	c4 41 35 ef d6       	vpxor  %ymm14,%ymm9,%ymm10
  40a284:	c4 41 3d eb c9       	vpor   %ymm9,%ymm8,%ymm9
  40a289:	c5 65 ef ae c0 7a 00 	vpxor  0x7ac0(%rsi),%ymm3,%ymm13
  40a290:	00 
  40a291:	c5 7e 6f b4 24 e0 0b 	vmovdqu 0xbe0(%rsp),%ymm14
  40a298:	00 00 
  40a29a:	c5 fe 7f 94 24 a0 0e 	vmovdqu %ymm2,0xea0(%rsp)
  40a2a1:	00 00 
  40a2a3:	c4 c1 45 ef f1       	vpxor  %ymm9,%ymm7,%ymm6
  40a2a8:	c5 ad ef be 40 7f 00 	vpxor  0x7f40(%rsi),%ymm10,%ymm7
  40a2af:	00 
  40a2b0:	c4 c1 7d ef ee       	vpxor  %ymm14,%ymm0,%ymm5
  40a2b5:	c5 0d ef d4          	vpxor  %ymm4,%ymm14,%ymm10
  40a2b9:	c5 cd ef 9e 60 7d 00 	vpxor  0x7d60(%rsi),%ymm6,%ymm3
  40a2c0:	00 
  40a2c1:	c5 7e 6f 8c 24 60 07 	vmovdqu 0x760(%rsp),%ymm9
  40a2c8:	00 00 
  40a2ca:	c5 fe 7f 7c 24 60    	vmovdqu %ymm7,0x60(%rsp)
  40a2d0:	c5 85 db f5          	vpand  %ymm5,%ymm15,%ymm6
  40a2d4:	c5 fe 7f 9c 24 00 07 	vmovdqu %ymm3,0x700(%rsp)
  40a2db:	00 00 
  40a2dd:	c4 41 5d ef c1       	vpxor  %ymm9,%ymm4,%ymm8
  40a2e2:	c5 b5 eb d5          	vpor   %ymm5,%ymm9,%ymm2
  40a2e6:	c4 c1 4d ef f8       	vpxor  %ymm8,%ymm6,%ymm7
  40a2eb:	c5 85 ef da          	vpxor  %ymm2,%ymm15,%ymm3
  40a2ef:	c5 7e 6f bc 24 00 0c 	vmovdqu 0xc00(%rsp),%ymm15
  40a2f6:	00 00 
  40a2f8:	c4 c1 45 eb f2       	vpor   %ymm10,%ymm7,%ymm6
  40a2fd:	c5 dd ef e3          	vpxor  %ymm3,%ymm4,%ymm4
  40a301:	c5 bd db d3          	vpand  %ymm3,%ymm8,%ymm2
  40a305:	c5 45 ef 86 00 79 00 	vpxor  0x7900(%rsi),%ymm7,%ymm8
  40a30c:	00 
  40a30d:	c5 dd ef a6 e0 7a 00 	vpxor  0x7ae0(%rsi),%ymm4,%ymm4
  40a314:	00 
  40a315:	c5 2d ef ca          	vpxor  %ymm2,%ymm10,%ymm9
  40a319:	c5 65 ef d6          	vpxor  %ymm6,%ymm3,%ymm10
  40a31d:	c4 c1 7d ef d7       	vpxor  %ymm15,%ymm0,%ymm2
  40a322:	c5 fe 7f a4 24 c0 0e 	vmovdqu %ymm4,0xec0(%rsp)
  40a329:	00 00 
  40a32b:	c5 fe 6f a4 24 60 08 	vmovdqu 0x860(%rsp),%ymm4
  40a332:	00 00 
  40a334:	c5 fe 6f b4 24 e0 09 	vmovdqu 0x9e0(%rsp),%ymm6
  40a33b:	00 00 
  40a33d:	c5 7e 7f 84 24 e0 0e 	vmovdqu %ymm8,0xee0(%rsp)
  40a344:	00 00 
  40a346:	c5 2d ef b6 80 7d 00 	vpxor  0x7d80(%rsi),%ymm10,%ymm14
  40a34d:	00 
  40a34e:	c5 5d eb c2          	vpor   %ymm2,%ymm4,%ymm8
  40a352:	c5 4d db d2          	vpand  %ymm2,%ymm6,%ymm10
  40a356:	c5 b5 ef ae 60 7f 00 	vpxor  0x7f60(%rsi),%ymm9,%ymm5
  40a35d:	00 
  40a35e:	c5 7e 7f b4 24 00 0f 	vmovdqu %ymm14,0xf00(%rsp)
  40a365:	00 00 
  40a367:	c5 7e 6f b4 24 20 0d 	vmovdqu 0xd20(%rsp),%ymm14
  40a36e:	00 00 
  40a370:	c5 fe 7f ac 24 80 00 	vmovdqu %ymm5,0x80(%rsp)
  40a377:	00 00 
  40a379:	c4 c1 05 ef fe       	vpxor  %ymm14,%ymm15,%ymm7
  40a37e:	c5 8d ef dc          	vpxor  %ymm4,%ymm14,%ymm3
  40a382:	c4 41 4d ef f8       	vpxor  %ymm8,%ymm6,%ymm15
  40a387:	c5 ad ef e3          	vpxor  %ymm3,%ymm10,%ymm4
  40a38b:	c4 c1 65 db df       	vpand  %ymm15,%ymm3,%ymm3
  40a390:	c4 41 0d ef cf       	vpxor  %ymm15,%ymm14,%ymm9
  40a395:	c5 7e 6f 94 24 20 0c 	vmovdqu 0xc20(%rsp),%ymm10
  40a39c:	00 00 
  40a39e:	c5 7e 6f b4 24 80 08 	vmovdqu 0x880(%rsp),%ymm14
  40a3a5:	00 00 
  40a3a7:	c5 45 ef c3          	vpxor  %ymm3,%ymm7,%ymm8
  40a3ab:	c5 dd eb ff          	vpor   %ymm7,%ymm4,%ymm7
  40a3af:	c5 b5 ef ae 00 7b 00 	vpxor  0x7b00(%rsi),%ymm9,%ymm5
  40a3b6:	00 
  40a3b7:	c4 41 7d ef ca       	vpxor  %ymm10,%ymm0,%ymm9
  40a3bc:	c5 dd ef 96 20 79 00 	vpxor  0x7920(%rsi),%ymm4,%ymm2
  40a3c3:	00 
  40a3c4:	c5 85 ef f7          	vpxor  %ymm7,%ymm15,%ymm6
  40a3c8:	c5 bd ef be 80 7f 00 	vpxor  0x7f80(%rsi),%ymm8,%ymm7
  40a3cf:	00 
  40a3d0:	c4 41 0d eb f9       	vpor   %ymm9,%ymm14,%ymm15
  40a3d5:	c5 fe 7f ac 24 20 0f 	vmovdqu %ymm5,0xf20(%rsp)
  40a3dc:	00 00 
  40a3de:	c5 fe 6f ac 24 00 0a 	vmovdqu 0xa00(%rsp),%ymm5
  40a3e5:	00 00 
  40a3e7:	c5 fe 7f 94 24 40 0f 	vmovdqu %ymm2,0xf40(%rsp)
  40a3ee:	00 00 
  40a3f0:	c5 fe 7f bc 24 a0 00 	vmovdqu %ymm7,0xa0(%rsp)
  40a3f7:	00 00 
  40a3f9:	c5 cd ef 9e a0 7d 00 	vpxor  0x7da0(%rsi),%ymm6,%ymm3
  40a400:	00 
  40a401:	c4 c1 55 db e1       	vpand  %ymm9,%ymm5,%ymm4
  40a406:	c5 fe 7f 9c 24 c0 06 	vmovdqu %ymm3,0x6c0(%rsp)
  40a40d:	00 00 
  40a40f:	c5 fe 6f 9c 24 00 0d 	vmovdqu 0xd00(%rsp),%ymm3
  40a416:	00 00 
  40a418:	c5 ad ef f3          	vpxor  %ymm3,%ymm10,%ymm6
  40a41c:	c4 c1 65 ef d6       	vpxor  %ymm14,%ymm3,%ymm2
  40a421:	c4 41 55 ef d7       	vpxor  %ymm15,%ymm5,%ymm10
  40a426:	c5 5d ef f2          	vpxor  %ymm2,%ymm4,%ymm14
  40a42a:	c4 c1 6d db d2       	vpand  %ymm10,%ymm2,%ymm2
  40a42f:	c4 c1 65 ef fa       	vpxor  %ymm10,%ymm3,%ymm7
  40a434:	c5 fe 6f 9c 24 a0 08 	vmovdqu 0x8a0(%rsp),%ymm3
  40a43b:	00 00 
  40a43d:	c5 cd ef e2          	vpxor  %ymm2,%ymm6,%ymm4
  40a441:	c5 8d eb f6          	vpor   %ymm6,%ymm14,%ymm6
  40a445:	c5 45 ef 86 20 7b 00 	vpxor  0x7b20(%rsi),%ymm7,%ymm8
  40a44c:	00 
  40a44d:	c5 0d ef 8e 40 79 00 	vpxor  0x7940(%rsi),%ymm14,%ymm9
  40a454:	00 
  40a455:	c5 dd ef 96 a0 7f 00 	vpxor  0x7fa0(%rsi),%ymm4,%ymm2
  40a45c:	00 
  40a45d:	c5 ad ef ee          	vpxor  %ymm6,%ymm10,%ymm5
  40a461:	c5 fe 6f b4 24 40 0c 	vmovdqu 0xc40(%rsp),%ymm6
  40a468:	00 00 
  40a46a:	c5 7e 7f 84 24 60 0f 	vmovdqu %ymm8,0xf60(%rsp)
  40a471:	00 00 
  40a473:	c5 7e 7f 8c 24 c0 02 	vmovdqu %ymm9,0x2c0(%rsp)
  40a47a:	00 00 
  40a47c:	c5 7e 6f 8c 24 60 0c 	vmovdqu 0xc60(%rsp),%ymm9
  40a483:	00 00 
  40a485:	c5 7e 6f 84 24 20 0a 	vmovdqu 0xa20(%rsp),%ymm8
  40a48c:	00 00 
  40a48e:	c5 fe 7f 94 24 c0 00 	vmovdqu %ymm2,0xc0(%rsp)
  40a495:	00 00 
  40a497:	c5 fd ef fe          	vpxor  %ymm6,%ymm0,%ymm7
  40a49b:	c5 55 ef be c0 7d 00 	vpxor  0x7dc0(%rsi),%ymm5,%ymm15
  40a4a2:	00 
  40a4a3:	c4 c1 4d ef e1       	vpxor  %ymm9,%ymm6,%ymm4
  40a4a8:	c5 65 eb d7          	vpor   %ymm7,%ymm3,%ymm10
  40a4ac:	c5 3d db f7          	vpand  %ymm7,%ymm8,%ymm14
  40a4b0:	c5 7e 7f bc 24 40 06 	vmovdqu %ymm15,0x640(%rsp)
  40a4b7:	00 00 
  40a4b9:	c5 35 ef fb          	vpxor  %ymm3,%ymm9,%ymm15
  40a4bd:	c4 c1 3d ef f2       	vpxor  %ymm10,%ymm8,%ymm6
  40a4c2:	c4 c1 0d ef df       	vpxor  %ymm15,%ymm14,%ymm3
  40a4c7:	c5 05 db fe          	vpand  %ymm6,%ymm15,%ymm15
  40a4cb:	c5 b5 ef ee          	vpxor  %ymm6,%ymm9,%ymm5
  40a4cf:	c5 7e 6f 8c 24 60 0b 	vmovdqu 0xb60(%rsp),%ymm9
  40a4d6:	00 00 
  40a4d8:	c4 41 5d ef d7       	vpxor  %ymm15,%ymm4,%ymm10
  40a4dd:	c5 e5 eb e4          	vpor   %ymm4,%ymm3,%ymm4
  40a4e1:	c5 d5 ef 96 40 7b 00 	vpxor  0x7b40(%rsi),%ymm5,%ymm2
  40a4e8:	00 
  40a4e9:	c5 7e 6f bc 24 c0 08 	vmovdqu 0x8c0(%rsp),%ymm15
  40a4f0:	00 00 
  40a4f2:	c5 cd ef fc          	vpxor  %ymm4,%ymm6,%ymm7
  40a4f6:	c4 c1 7d ef e1       	vpxor  %ymm9,%ymm0,%ymm4
  40a4fb:	c5 2d ef b6 c0 7f 00 	vpxor  0x7fc0(%rsi),%ymm10,%ymm14
  40a502:	00 
  40a503:	c5 fe 7f 94 24 60 06 	vmovdqu %ymm2,0x660(%rsp)
  40a50a:	00 00 
  40a50c:	c5 e5 ef 96 60 79 00 	vpxor  0x7960(%rsi),%ymm3,%ymm2
  40a513:	00 
  40a514:	c5 45 ef 86 e0 7d 00 	vpxor  0x7de0(%rsi),%ymm7,%ymm8
  40a51b:	00 
  40a51c:	c5 85 eb f4          	vpor   %ymm4,%ymm15,%ymm6
  40a520:	c5 7e 7f b4 24 e0 00 	vmovdqu %ymm14,0xe0(%rsp)
  40a527:	00 00 
  40a529:	c5 fe 7f 94 24 e0 02 	vmovdqu %ymm2,0x2e0(%rsp)
  40a530:	00 00 
  40a532:	c5 7e 7f 84 24 20 05 	vmovdqu %ymm8,0x520(%rsp)
  40a539:	00 00 
  40a53b:	c5 7e 6f 84 24 80 0c 	vmovdqu 0xc80(%rsp),%ymm8
  40a542:	00 00 
  40a544:	c5 fe 6f 94 24 40 0a 	vmovdqu 0xa40(%rsp),%ymm2
  40a54b:	00 00 
  40a54d:	c4 c1 35 ef e8       	vpxor  %ymm8,%ymm9,%ymm5
  40a552:	c4 c1 3d ef df       	vpxor  %ymm15,%ymm8,%ymm3
  40a557:	c5 ed db fc          	vpand  %ymm4,%ymm2,%ymm7
  40a55b:	c5 6d ef ce          	vpxor  %ymm6,%ymm2,%ymm9
  40a55f:	c5 45 ef fb          	vpxor  %ymm3,%ymm7,%ymm15
  40a563:	c4 c1 65 db d9       	vpand  %ymm9,%ymm3,%ymm3
  40a568:	c4 41 3d ef d1       	vpxor  %ymm9,%ymm8,%ymm10
  40a56d:	c5 7e 6f 84 24 40 0b 	vmovdqu 0xb40(%rsp),%ymm8
  40a574:	00 00 
  40a576:	c5 d5 ef f3          	vpxor  %ymm3,%ymm5,%ymm6
  40a57a:	c5 85 eb ed          	vpor   %ymm5,%ymm15,%ymm5
  40a57e:	c5 85 ef a6 80 79 00 	vpxor  0x7980(%rsi),%ymm15,%ymm4
  40a585:	00 
  40a586:	c5 2d ef b6 60 7b 00 	vpxor  0x7b60(%rsi),%ymm10,%ymm14
  40a58d:	00 
  40a58e:	c5 cd ef be e0 7f 00 	vpxor  0x7fe0(%rsi),%ymm6,%ymm7
  40a595:	00 
  40a596:	c5 b5 ef d5          	vpxor  %ymm5,%ymm9,%ymm2
  40a59a:	c5 fe 6f ac 24 e0 08 	vmovdqu 0x8e0(%rsp),%ymm5
  40a5a1:	00 00 
  40a5a3:	c5 fe 7f a4 24 00 03 	vmovdqu %ymm4,0x300(%rsp)
  40a5aa:	00 00 
  40a5ac:	c5 7e 6f 8c 24 a0 0c 	vmovdqu 0xca0(%rsp),%ymm9
  40a5b3:	00 00 
  40a5b5:	c5 7e 7f b4 24 60 05 	vmovdqu %ymm14,0x560(%rsp)
  40a5bc:	00 00 
  40a5be:	c5 fe 7f bc 24 00 01 	vmovdqu %ymm7,0x100(%rsp)
  40a5c5:	00 00 
  40a5c7:	c4 c1 7d ef e0       	vpxor  %ymm8,%ymm0,%ymm4
  40a5cc:	c5 ed ef 9e 00 7c 00 	vpxor  0x7c00(%rsi),%ymm2,%ymm3
  40a5d3:	00 
  40a5d4:	c4 41 3d ef f1       	vpxor  %ymm9,%ymm8,%ymm14
  40a5d9:	c5 35 ef d5          	vpxor  %ymm5,%ymm9,%ymm10
  40a5dd:	c5 d5 eb f4          	vpor   %ymm4,%ymm5,%ymm6
  40a5e1:	c5 fe 6f 94 24 60 0a 	vmovdqu 0xa60(%rsp),%ymm2
  40a5e8:	00 00 
  40a5ea:	c5 fe 6f ac 24 40 09 	vmovdqu 0x940(%rsp),%ymm5
  40a5f1:	00 00 
  40a5f3:	c5 ed ef f6          	vpxor  %ymm6,%ymm2,%ymm6
  40a5f7:	c5 ed db fc          	vpand  %ymm4,%ymm2,%ymm7
  40a5fb:	c5 35 ef ce          	vpxor  %ymm6,%ymm9,%ymm9
  40a5ff:	c4 41 45 ef c2       	vpxor  %ymm10,%ymm7,%ymm8
  40a604:	c5 2d db d6          	vpand  %ymm6,%ymm10,%ymm10
  40a608:	c5 b5 ef a6 80 7b 00 	vpxor  0x7b80(%rsi),%ymm9,%ymm4
  40a60f:	00 
  40a610:	c4 c1 0d ef fa       	vpxor  %ymm10,%ymm14,%ymm7
  40a615:	c4 41 3d eb f6       	vpor   %ymm14,%ymm8,%ymm14
  40a61a:	c5 fe 7f a4 24 e0 04 	vmovdqu %ymm4,0x4e0(%rsp)
  40a621:	00 00 
  40a623:	c5 7e 6f 94 24 80 07 	vmovdqu 0x780(%rsp),%ymm10
  40a62a:	00 00 
  40a62c:	c5 bd ef a6 a0 79 00 	vpxor  0x79a0(%rsi),%ymm8,%ymm4
  40a633:	00 
  40a634:	c4 c1 4d ef d6       	vpxor  %ymm14,%ymm6,%ymm2
  40a639:	c5 45 ef b6 00 7e 00 	vpxor  0x7e00(%rsi),%ymm7,%ymm14
  40a640:	00 
  40a641:	c5 7e 6f 84 24 00 0b 	vmovdqu 0xb00(%rsp),%ymm8
  40a648:	00 00 
  40a64a:	c5 fe 6f bc 24 c0 0c 	vmovdqu 0xcc0(%rsp),%ymm7
  40a651:	00 00 
  40a653:	c5 fe 7f a4 24 20 03 	vmovdqu %ymm4,0x320(%rsp)
  40a65a:	00 00 
  40a65c:	c5 ed ef b6 20 7c 00 	vpxor  0x7c20(%rsi),%ymm2,%ymm6
  40a663:	00 
  40a664:	c4 41 7d ef c8       	vpxor  %ymm8,%ymm0,%ymm9
  40a669:	c5 bd ef d7          	vpxor  %ymm7,%ymm8,%ymm2
  40a66d:	c4 c1 45 ef e2       	vpxor  %ymm10,%ymm7,%ymm4
  40a672:	c4 41 2d eb f9       	vpor   %ymm9,%ymm10,%ymm15
  40a677:	c4 41 55 db c1       	vpand  %ymm9,%ymm5,%ymm8
  40a67c:	c4 41 55 ef d7       	vpxor  %ymm15,%ymm5,%ymm10
  40a681:	c5 3d ef c4          	vpxor  %ymm4,%ymm8,%ymm8
  40a685:	c4 c1 5d db e2       	vpand  %ymm10,%ymm4,%ymm4
  40a68a:	c4 c1 45 ef fa       	vpxor  %ymm10,%ymm7,%ymm7
  40a68f:	c5 6d ef fc          	vpxor  %ymm4,%ymm2,%ymm15
  40a693:	c5 bd eb d2          	vpor   %ymm2,%ymm8,%ymm2
  40a697:	c5 45 ef 8e a0 7b 00 	vpxor  0x7ba0(%rsi),%ymm7,%ymm9
  40a69e:	00 
  40a69f:	c5 85 ef be 20 7e 00 	vpxor  0x7e20(%rsi),%ymm15,%ymm7
  40a6a6:	00 
  40a6a7:	c5 ad ef ea          	vpxor  %ymm2,%ymm10,%ymm5
  40a6ab:	c5 3d ef 96 c0 79 00 	vpxor  0x79c0(%rsi),%ymm8,%ymm10
  40a6b2:	00 
  40a6b3:	c5 fe 6f 14 24       	vmovdqu (%rsp),%ymm2
  40a6b8:	c5 7e 7f 8c 24 80 04 	vmovdqu %ymm9,0x480(%rsp)
  40a6bf:	00 00 
  40a6c1:	c5 7e 6f 8c 24 e0 0c 	vmovdqu 0xce0(%rsp),%ymm9
  40a6c8:	00 00 
  40a6ca:	c5 7e 6f bc 24 a0 07 	vmovdqu 0x7a0(%rsp),%ymm15
  40a6d1:	00 00 
  40a6d3:	c5 7e 7f 94 24 80 02 	vmovdqu %ymm10,0x280(%rsp)
  40a6da:	00 00 
  40a6dc:	c5 fd ef e2          	vpxor  %ymm2,%ymm0,%ymm4
  40a6e0:	c5 55 ef 86 40 7c 00 	vpxor  0x7c40(%rsi),%ymm5,%ymm8
  40a6e7:	00 
  40a6e8:	c4 c1 6d ef e9       	vpxor  %ymm9,%ymm2,%ymm5
  40a6ed:	c4 41 35 ef d7       	vpxor  %ymm15,%ymm9,%ymm10
  40a6f2:	c5 05 eb fc          	vpor   %ymm4,%ymm15,%ymm15
  40a6f6:	c5 fe 6f 94 24 00 09 	vmovdqu 0x900(%rsp),%ymm2
  40a6fd:	00 00 
  40a6ff:	c5 ed db e4          	vpand  %ymm4,%ymm2,%ymm4
  40a703:	c4 41 6d ef ff       	vpxor  %ymm15,%ymm2,%ymm15
  40a708:	c4 c1 5d ef e2       	vpxor  %ymm10,%ymm4,%ymm4
  40a70d:	c4 41 35 ef cf       	vpxor  %ymm15,%ymm9,%ymm9
  40a712:	c4 41 2d db d7       	vpand  %ymm15,%ymm10,%ymm10
  40a717:	c5 b5 ef 96 c0 7b 00 	vpxor  0x7bc0(%rsi),%ymm9,%ymm2
  40a71e:	00 
  40a71f:	c4 41 55 ef ca       	vpxor  %ymm10,%ymm5,%ymm9
  40a724:	c5 dd eb ed          	vpor   %ymm5,%ymm4,%ymm5
  40a728:	c5 dd ef a6 e0 79 00 	vpxor  0x79e0(%rsi),%ymm4,%ymm4
  40a72f:	00 
  40a730:	c5 fe 7f 94 24 40 04 	vmovdqu %ymm2,0x440(%rsp)
  40a737:	00 00 
  40a739:	c5 85 ef d5          	vpxor  %ymm5,%ymm15,%ymm2
  40a73d:	c5 35 ef 8e 40 7e 00 	vpxor  0x7e40(%rsi),%ymm9,%ymm9
  40a744:	00 
  40a745:	c5 fe 7f a4 24 40 02 	vmovdqu %ymm4,0x240(%rsp)
  40a74c:	00 00 
  40a74e:	c5 fe 6f a4 24 20 0b 	vmovdqu 0xb20(%rsp),%ymm4
  40a755:	00 00 
  40a757:	c5 7e 6f bc 24 20 09 	vmovdqu 0x920(%rsp),%ymm15
  40a75e:	00 00 
  40a760:	c5 6d ef 96 60 7c 00 	vpxor  0x7c60(%rsi),%ymm2,%ymm10
  40a767:	00 
  40a768:	c5 fd ef d4          	vpxor  %ymm4,%ymm0,%ymm2
  40a76c:	c5 dd ef eb          	vpxor  %ymm3,%ymm4,%ymm5
  40a770:	c4 c1 65 ef e6       	vpxor  %ymm14,%ymm3,%ymm4
  40a775:	c5 0d eb f2          	vpor   %ymm2,%ymm14,%ymm14
  40a779:	c5 85 db d2          	vpand  %ymm2,%ymm15,%ymm2
  40a77d:	c4 41 05 ef f6       	vpxor  %ymm14,%ymm15,%ymm14
  40a782:	c5 6d ef fc          	vpxor  %ymm4,%ymm2,%ymm15
  40a786:	c4 c1 65 ef de       	vpxor  %ymm14,%ymm3,%ymm3
  40a78b:	c4 c1 5d db e6       	vpand  %ymm14,%ymm4,%ymm4
  40a790:	c5 e5 ef 96 e0 83 00 	vpxor  0x83e0(%rsi),%ymm3,%ymm2
  40a797:	00 
  40a798:	c5 d5 ef dc          	vpxor  %ymm4,%ymm5,%ymm3
  40a79c:	c5 85 eb ed          	vpor   %ymm5,%ymm15,%ymm5
  40a7a0:	c5 fe 7f 54 24 20    	vmovdqu %ymm2,0x20(%rsp)
  40a7a6:	c5 8d ef e5          	vpxor  %ymm5,%ymm14,%ymm4
  40a7aa:	c5 05 ef b6 00 80 00 	vpxor  0x8000(%rsi),%ymm15,%ymm14
  40a7b1:	00 
  40a7b2:	c5 e5 ef 9e 60 86 00 	vpxor  0x8660(%rsi),%ymm3,%ymm3
  40a7b9:	00 
  40a7ba:	c5 7e 6f bc 24 80 0b 	vmovdqu 0xb80(%rsp),%ymm15
  40a7c1:	00 00 
  40a7c3:	c5 dd ef 96 80 84 00 	vpxor  0x8480(%rsi),%ymm4,%ymm2
  40a7ca:	00 
  40a7cb:	c5 cd ef e7          	vpxor  %ymm7,%ymm6,%ymm4
  40a7cf:	c5 fe 7f 9c 24 a0 01 	vmovdqu %ymm3,0x1a0(%rsp)
  40a7d6:	00 00 
  40a7d8:	c5 7e 7f b4 24 60 02 	vmovdqu %ymm14,0x260(%rsp)
  40a7df:	00 00 
  40a7e1:	c5 fe 7f 94 24 40 05 	vmovdqu %ymm2,0x540(%rsp)
  40a7e8:	00 00 
  40a7ea:	c4 c1 7d ef df       	vpxor  %ymm15,%ymm0,%ymm3
  40a7ef:	c5 85 ef d6          	vpxor  %ymm6,%ymm15,%ymm2
  40a7f3:	c5 45 eb f3          	vpor   %ymm3,%ymm7,%ymm14
  40a7f7:	c5 fe 6f bc 24 60 09 	vmovdqu 0x960(%rsp),%ymm7
  40a7fe:	00 00 
  40a800:	c5 c5 db db          	vpand  %ymm3,%ymm7,%ymm3
  40a804:	c4 41 45 ef fe       	vpxor  %ymm14,%ymm7,%ymm15
  40a809:	c5 e5 ef ec          	vpxor  %ymm4,%ymm3,%ymm5
  40a80d:	c4 c1 5d db e7       	vpand  %ymm15,%ymm4,%ymm4
  40a812:	c4 c1 4d ef f7       	vpxor  %ymm15,%ymm6,%ymm6
  40a817:	c5 d5 ef 9e 20 80 00 	vpxor  0x8020(%rsi),%ymm5,%ymm3
  40a81e:	00 
  40a81f:	c5 ed ef e4          	vpxor  %ymm4,%ymm2,%ymm4
  40a823:	c5 d5 eb d2          	vpor   %ymm2,%ymm5,%ymm2
  40a827:	c5 cd ef b6 00 82 00 	vpxor  0x8200(%rsi),%ymm6,%ymm6
  40a82e:	00 
  40a82f:	c5 fe 7f 9c 24 a0 02 	vmovdqu %ymm3,0x2a0(%rsp)
  40a836:	00 00 
  40a838:	c5 85 ef fa          	vpxor  %ymm2,%ymm15,%ymm7
  40a83c:	c5 dd ef ae 80 86 00 	vpxor  0x8680(%rsi),%ymm4,%ymm5
  40a843:	00 
  40a844:	c5 fe 7f b4 24 60 04 	vmovdqu %ymm6,0x460(%rsp)
  40a84b:	00 00 
  40a84d:	c5 7e 6f bc 24 80 0d 	vmovdqu 0xd80(%rsp),%ymm15
  40a854:	00 00 
  40a856:	c5 45 ef b6 a0 84 00 	vpxor  0x84a0(%rsi),%ymm7,%ymm14
  40a85d:	00 
  40a85e:	c4 c1 3d ef f9       	vpxor  %ymm9,%ymm8,%ymm7
  40a863:	c5 fe 7f ac 24 c0 01 	vmovdqu %ymm5,0x1c0(%rsp)
  40a86a:	00 00 
  40a86c:	c4 c1 7d ef e7       	vpxor  %ymm15,%ymm0,%ymm4
  40a871:	c5 7e 7f b4 24 80 05 	vmovdqu %ymm14,0x580(%rsp)
  40a878:	00 00 
  40a87a:	c4 41 05 ef f0       	vpxor  %ymm8,%ymm15,%ymm14
  40a87f:	c5 b5 eb d4          	vpor   %ymm4,%ymm9,%ymm2
  40a883:	c5 7e 6f 8c 24 80 0a 	vmovdqu 0xa80(%rsp),%ymm9
  40a88a:	00 00 
  40a88c:	c5 7e 6f bc 24 c0 07 	vmovdqu 0x7c0(%rsp),%ymm15
  40a893:	00 00 
  40a895:	c5 b5 db e4          	vpand  %ymm4,%ymm9,%ymm4
  40a899:	c5 b5 ef f2          	vpxor  %ymm2,%ymm9,%ymm6
  40a89d:	c5 dd ef df          	vpxor  %ymm7,%ymm4,%ymm3
  40a8a1:	c5 3d ef c6          	vpxor  %ymm6,%ymm8,%ymm8
  40a8a5:	c5 c5 db d6          	vpand  %ymm6,%ymm7,%ymm2
  40a8a9:	c4 c1 65 eb fe       	vpor   %ymm14,%ymm3,%ymm7
  40a8ae:	c5 bd ef a6 20 82 00 	vpxor  0x8220(%rsi),%ymm8,%ymm4
  40a8b5:	00 
  40a8b6:	c5 8d ef ea          	vpxor  %ymm2,%ymm14,%ymm5
  40a8ba:	c5 7e 6f b4 24 60 0d 	vmovdqu 0xd60(%rsp),%ymm14
  40a8c1:	00 00 
  40a8c3:	c5 4d ef c7          	vpxor  %ymm7,%ymm6,%ymm8
  40a8c7:	c5 e5 ef b6 40 80 00 	vpxor  0x8040(%rsi),%ymm3,%ymm6
  40a8ce:	00 
  40a8cf:	c5 55 ef 8e a0 86 00 	vpxor  0x86a0(%rsi),%ymm5,%ymm9
  40a8d6:	00 
  40a8d7:	c4 c1 0d ef d2       	vpxor  %ymm10,%ymm14,%ymm2
  40a8dc:	c5 bd ef 9e c0 84 00 	vpxor  0x84c0(%rsi),%ymm8,%ymm3
  40a8e3:	00 
  40a8e4:	c5 fe 7f b4 24 40 03 	vmovdqu %ymm6,0x340(%rsp)
  40a8eb:	00 00 
  40a8ed:	c5 fe 7f a4 24 a0 04 	vmovdqu %ymm4,0x4a0(%rsp)
  40a8f4:	00 00 
  40a8f6:	c5 7e 7f 8c 24 e0 01 	vmovdqu %ymm9,0x1e0(%rsp)
  40a8fd:	00 00 
  40a8ff:	c5 fe 7f 9c 24 c0 05 	vmovdqu %ymm3,0x5c0(%rsp)
  40a906:	00 00 
  40a908:	c5 fe 6f 9c 24 a0 0a 	vmovdqu 0xaa0(%rsp),%ymm3
  40a90f:	00 00 
  40a911:	c4 c1 7d ef f6       	vpxor  %ymm14,%ymm0,%ymm6
  40a916:	c4 c1 2d ef e7       	vpxor  %ymm15,%ymm10,%ymm4
  40a91b:	c5 85 eb fe          	vpor   %ymm6,%ymm15,%ymm7
  40a91f:	c5 65 db c6          	vpand  %ymm6,%ymm3,%ymm8
  40a923:	c5 7e 6f bc 24 40 0d 	vmovdqu 0xd40(%rsp),%ymm15
  40a92a:	00 00 
  40a92c:	c5 e5 ef ef          	vpxor  %ymm7,%ymm3,%ymm5
  40a930:	c5 3d ef cc          	vpxor  %ymm4,%ymm8,%ymm9
  40a934:	c5 2d ef d5          	vpxor  %ymm5,%ymm10,%ymm10
  40a938:	c5 dd db e5          	vpand  %ymm5,%ymm4,%ymm4
  40a93c:	c5 b5 ef 9e 60 80 00 	vpxor  0x8060(%rsi),%ymm9,%ymm3
  40a943:	00 
  40a944:	c5 ad ef b6 40 82 00 	vpxor  0x8240(%rsi),%ymm10,%ymm6
  40a94b:	00 
  40a94c:	c5 6d ef d4          	vpxor  %ymm4,%ymm2,%ymm10
  40a950:	c5 b5 eb d2          	vpor   %ymm2,%ymm9,%ymm2
  40a954:	c5 fe 6f a4 24 e0 07 	vmovdqu 0x7e0(%rsp),%ymm4
  40a95b:	00 00 
  40a95d:	c5 fe 7f b4 24 c0 04 	vmovdqu %ymm6,0x4c0(%rsp)
  40a964:	00 00 
  40a966:	c5 fe 6f b4 24 c0 0a 	vmovdqu 0xac0(%rsp),%ymm6
  40a96d:	00 00 
  40a96f:	c5 fe 7f 9c 24 60 03 	vmovdqu %ymm3,0x360(%rsp)
  40a976:	00 00 
  40a978:	c5 d5 ef fa          	vpxor  %ymm2,%ymm5,%ymm7
  40a97c:	c4 c1 7d ef d7       	vpxor  %ymm15,%ymm0,%ymm2
  40a981:	c5 2d ef b6 c0 86 00 	vpxor  0x86c0(%rsi),%ymm10,%ymm14
  40a988:	00 
  40a989:	c5 fe 6f ac 24 a0 0d 	vmovdqu 0xda0(%rsp),%ymm5
  40a990:	00 00 
  40a992:	c5 45 ef 86 e0 84 00 	vpxor  0x84e0(%rsi),%ymm7,%ymm8
  40a999:	00 
  40a99a:	c5 dd eb da          	vpor   %ymm2,%ymm4,%ymm3
  40a99e:	c5 7e 7f b4 24 00 02 	vmovdqu %ymm14,0x200(%rsp)
  40a9a5:	00 00 
  40a9a7:	c5 85 ef fd          	vpxor  %ymm5,%ymm15,%ymm7
  40a9ab:	c5 4d db fa          	vpand  %ymm2,%ymm6,%ymm15
  40a9af:	c5 4d ef f3          	vpxor  %ymm3,%ymm6,%ymm14
  40a9b3:	c5 7e 7f 84 24 00 06 	vmovdqu %ymm8,0x600(%rsp)
  40a9ba:	00 00 
  40a9bc:	c5 55 ef c4          	vpxor  %ymm4,%ymm5,%ymm8
  40a9c0:	c4 41 55 ef ce       	vpxor  %ymm14,%ymm5,%ymm9
  40a9c5:	c4 c1 05 ef e0       	vpxor  %ymm8,%ymm15,%ymm4
  40a9ca:	c4 41 3d db c6       	vpand  %ymm14,%ymm8,%ymm8
  40a9cf:	c5 35 ef 96 60 82 00 	vpxor  0x8260(%rsi),%ymm9,%ymm10
  40a9d6:	00 
  40a9d7:	c4 41 7d ef cb       	vpxor  %ymm11,%ymm0,%ymm9
  40a9dc:	c5 dd ef 96 80 80 00 	vpxor  0x8080(%rsi),%ymm4,%ymm2
  40a9e3:	00 
  40a9e4:	c4 c1 45 ef e8       	vpxor  %ymm8,%ymm7,%ymm5
  40a9e9:	c5 dd eb ff          	vpor   %ymm7,%ymm4,%ymm7
  40a9ed:	c5 7e 6f 84 24 00 08 	vmovdqu 0x800(%rsp),%ymm8
  40a9f4:	00 00 
  40a9f6:	c5 7e 7f 94 24 00 05 	vmovdqu %ymm10,0x500(%rsp)
  40a9fd:	00 00 
  40a9ff:	c5 7e 6f 94 24 e0 0a 	vmovdqu 0xae0(%rsp),%ymm10
  40aa06:	00 00 
  40aa08:	c5 fe 6f a4 24 c0 0d 	vmovdqu 0xdc0(%rsp),%ymm4
  40aa0f:	00 00 
  40aa11:	c5 fe 7f 94 24 80 03 	vmovdqu %ymm2,0x380(%rsp)
  40aa18:	00 00 
  40aa1a:	c5 8d ef f7          	vpxor  %ymm7,%ymm14,%ymm6
  40aa1e:	c4 41 3d eb f1       	vpor   %ymm9,%ymm8,%ymm14
  40aa23:	c4 41 2d db f9       	vpand  %ymm9,%ymm10,%ymm15
  40aa28:	c5 d5 ef be e0 86 00 	vpxor  0x86e0(%rsi),%ymm5,%ymm7
  40aa2f:	00 
  40aa30:	c5 cd ef 9e 00 85 00 	vpxor  0x8500(%rsi),%ymm6,%ymm3
  40aa37:	00 
  40aa38:	c4 c1 2d ef ee       	vpxor  %ymm14,%ymm10,%ymm5
  40aa3d:	c5 25 ef dc          	vpxor  %ymm4,%ymm11,%ymm11
  40aa41:	c5 fe 7f bc 24 20 02 	vmovdqu %ymm7,0x220(%rsp)
  40aa48:	00 00 
  40aa4a:	c5 fe 7f 9c 24 20 06 	vmovdqu %ymm3,0x620(%rsp)
  40aa51:	00 00 
  40aa53:	c5 7e 6f b4 24 40 08 	vmovdqu 0x840(%rsp),%ymm14
  40aa5a:	00 00 
  40aa5c:	c4 c1 5d ef d8       	vpxor  %ymm8,%ymm4,%ymm3
  40aa61:	c5 dd ef d5          	vpxor  %ymm5,%ymm4,%ymm2
  40aa65:	c5 85 ef fb          	vpxor  %ymm3,%ymm15,%ymm7
  40aa69:	c5 65 db fd          	vpand  %ymm5,%ymm3,%ymm15
  40aa6d:	c5 ed ef b6 80 82 00 	vpxor  0x8280(%rsi),%ymm2,%ymm6
  40aa74:	00 
  40aa75:	c4 c1 7d ef dd       	vpxor  %ymm13,%ymm0,%ymm3
  40aa7a:	c5 c5 ef a6 a0 80 00 	vpxor  0x80a0(%rsi),%ymm7,%ymm4
  40aa81:	00 
  40aa82:	c4 41 25 ef c7       	vpxor  %ymm15,%ymm11,%ymm8
  40aa87:	c4 41 45 eb db       	vpor   %ymm11,%ymm7,%ymm11
  40aa8c:	c5 95 ef f9          	vpxor  %ymm1,%ymm13,%ymm7
  40aa90:	c5 7e 6f ac 24 20 08 	vmovdqu 0x820(%rsp),%ymm13
  40aa97:	00 00 
  40aa99:	c5 fe 7f b4 24 a0 05 	vmovdqu %ymm6,0x5a0(%rsp)
  40aaa0:	00 00 
  40aaa2:	c5 fe 7f a4 24 a0 03 	vmovdqu %ymm4,0x3a0(%rsp)
  40aaa9:	00 00 
  40aaab:	c5 bd ef b6 00 87 00 	vpxor  0x8700(%rsi),%ymm8,%ymm6
  40aab2:	00 
  40aab3:	c4 c1 55 ef d3       	vpxor  %ymm11,%ymm5,%ymm2
  40aab8:	c4 c1 75 ef ed       	vpxor  %ymm13,%ymm1,%ymm5
  40aabd:	c5 fe 7f b4 24 20 01 	vmovdqu %ymm6,0x120(%rsp)
  40aac4:	00 00 
  40aac6:	c5 9d db f3          	vpand  %ymm3,%ymm12,%ymm6
  40aaca:	c5 ed ef a6 20 85 00 	vpxor  0x8520(%rsi),%ymm2,%ymm4
  40aad1:	00 
  40aad2:	c5 95 eb d3          	vpor   %ymm3,%ymm13,%ymm2
  40aad6:	c5 7e 6f ac 24 c0 0e 	vmovdqu 0xec0(%rsp),%ymm13
  40aadd:	00 00 
  40aadf:	c5 4d ef c5          	vpxor  %ymm5,%ymm6,%ymm8
  40aae3:	c5 1d ef e2          	vpxor  %ymm2,%ymm12,%ymm12
  40aae7:	c4 41 7d ef fd       	vpxor  %ymm13,%ymm0,%ymm15
  40aaec:	c5 bd eb df          	vpor   %ymm7,%ymm8,%ymm3
  40aaf0:	c4 c1 75 ef cc       	vpxor  %ymm12,%ymm1,%ymm1
  40aaf5:	c4 c1 55 db f4       	vpand  %ymm12,%ymm5,%ymm6
  40aafa:	c5 fe 6f ac 24 e0 0d 	vmovdqu 0xde0(%rsp),%ymm5
  40ab01:	00 00 
  40ab03:	c5 1d ef cb          	vpxor  %ymm3,%ymm12,%ymm9
  40ab07:	c5 f5 ef 96 a0 82 00 	vpxor  0x82a0(%rsi),%ymm1,%ymm2
  40ab0e:	00 
  40ab0f:	c5 bd ef 8e c0 80 00 	vpxor  0x80c0(%rsi),%ymm8,%ymm1
  40ab16:	00 
  40ab17:	c4 41 0d eb e7       	vpor   %ymm15,%ymm14,%ymm12
  40ab1c:	c5 45 ef d6          	vpxor  %ymm6,%ymm7,%ymm10
  40ab20:	c4 c1 55 ef fe       	vpxor  %ymm14,%ymm5,%ymm7
  40ab25:	c5 95 ef f5          	vpxor  %ymm5,%ymm13,%ymm6
  40ab29:	c5 fe 6f 9c 24 a0 0e 	vmovdqu 0xea0(%rsp),%ymm3
  40ab30:	00 00 
  40ab32:	c5 fe 7f 8c 24 c0 03 	vmovdqu %ymm1,0x3c0(%rsp)
  40ab39:	00 00 
  40ab3b:	c5 fe 7f 94 24 e0 05 	vmovdqu %ymm2,0x5e0(%rsp)
  40ab42:	00 00 
  40ab44:	c5 b5 ef 96 40 85 00 	vpxor  0x8540(%rsi),%ymm9,%ymm2
  40ab4b:	00 
  40ab4c:	c4 c1 65 db cf       	vpand  %ymm15,%ymm3,%ymm1
  40ab51:	c4 41 65 ef cc       	vpxor  %ymm12,%ymm3,%ymm9
  40ab56:	c5 2d ef 9e 20 87 00 	vpxor  0x8720(%rsi),%ymm10,%ymm11
  40ab5d:	00 
  40ab5e:	c5 75 ef d7          	vpxor  %ymm7,%ymm1,%ymm10
  40ab62:	c4 41 45 db c1       	vpand  %ymm9,%ymm7,%ymm8
  40ab67:	c4 41 55 ef f1       	vpxor  %ymm9,%ymm5,%ymm14
  40ab6c:	c5 fe 6f 8c 24 20 0f 	vmovdqu 0xf20(%rsp),%ymm1
  40ab73:	00 00 
  40ab75:	c5 7e 7f 9c 24 40 01 	vmovdqu %ymm11,0x140(%rsp)
  40ab7c:	00 00 
  40ab7e:	c5 fe 6f ac 24 40 0e 	vmovdqu 0xe40(%rsp),%ymm5
  40ab85:	00 00 
  40ab87:	c5 2d ef 9e e0 80 00 	vpxor  0x80e0(%rsi),%ymm10,%ymm11
  40ab8e:	00 
  40ab8f:	c4 c1 4d ef d8       	vpxor  %ymm8,%ymm6,%ymm3
  40ab94:	c5 ad eb f6          	vpor   %ymm6,%ymm10,%ymm6
  40ab98:	c5 fd ef f9          	vpxor  %ymm1,%ymm0,%ymm7
  40ab9c:	c5 0d ef be c0 82 00 	vpxor  0x82c0(%rsi),%ymm14,%ymm15
  40aba3:	00 
  40aba4:	c5 65 ef a6 40 87 00 	vpxor  0x8740(%rsi),%ymm3,%ymm12
  40abab:	00 
  40abac:	c5 35 ef ee          	vpxor  %ymm6,%ymm9,%ymm13
  40abb0:	c5 55 eb cf          	vpor   %ymm7,%ymm5,%ymm9
  40abb4:	c5 7e 7f 9c 24 e0 03 	vmovdqu %ymm11,0x3e0(%rsp)
  40abbb:	00 00 
  40abbd:	c5 7e 6f 9c 24 00 0e 	vmovdqu 0xe00(%rsp),%ymm11
  40abc4:	00 00 
  40abc6:	c5 7e 6f 84 24 e0 0e 	vmovdqu 0xee0(%rsp),%ymm8
  40abcd:	00 00 
  40abcf:	c5 7e 7f bc 24 a0 06 	vmovdqu %ymm15,0x6a0(%rsp)
  40abd6:	00 00 
  40abd8:	c5 7e 7f a4 24 60 01 	vmovdqu %ymm12,0x160(%rsp)
  40abdf:	00 00 
  40abe1:	c4 c1 75 ef db       	vpxor  %ymm11,%ymm1,%ymm3
  40abe6:	c4 c1 3d ef c9       	vpxor  %ymm9,%ymm8,%ymm1
  40abeb:	c5 25 ef fd          	vpxor  %ymm5,%ymm11,%ymm15
  40abef:	c5 3d db d7          	vpand  %ymm7,%ymm8,%ymm10
  40abf3:	c5 95 ef b6 60 85 00 	vpxor  0x8560(%rsi),%ymm13,%ymm6
  40abfa:	00 
  40abfb:	c5 25 ef e9          	vpxor  %ymm1,%ymm11,%ymm13
  40abff:	c5 05 db e1          	vpand  %ymm1,%ymm15,%ymm12
  40ac03:	c4 c1 2d ef ef       	vpxor  %ymm15,%ymm10,%ymm5
  40ac08:	c5 7e 6f 9c 24 60 0f 	vmovdqu 0xf60(%rsp),%ymm11
  40ac0f:	00 00 
  40ac11:	c5 7e 6f bc 24 40 0f 	vmovdqu 0xf40(%rsp),%ymm15
  40ac18:	00 00 
  40ac1a:	c5 15 ef b6 e0 82 00 	vpxor  0x82e0(%rsi),%ymm13,%ymm14
  40ac21:	00 
  40ac22:	c5 d5 ef be 00 81 00 	vpxor  0x8100(%rsi),%ymm5,%ymm7
  40ac29:	00 
  40ac2a:	c4 41 65 ef cc       	vpxor  %ymm12,%ymm3,%ymm9
  40ac2f:	c5 d5 eb db          	vpor   %ymm3,%ymm5,%ymm3
  40ac33:	c5 fe 6f ac 24 20 0e 	vmovdqu 0xe20(%rsp),%ymm5
  40ac3a:	00 00 
  40ac3c:	c5 7e 6f ac 24 80 0e 	vmovdqu 0xe80(%rsp),%ymm13
  40ac43:	00 00 
  40ac45:	c5 7e 7f b4 24 80 06 	vmovdqu %ymm14,0x680(%rsp)
  40ac4c:	00 00 
  40ac4e:	c5 fe 7f bc 24 00 04 	vmovdqu %ymm7,0x400(%rsp)
  40ac55:	00 00 
  40ac57:	c4 41 7d ef f3       	vpxor  %ymm11,%ymm0,%ymm14
  40ac5c:	c5 25 ef e5          	vpxor  %ymm5,%ymm11,%ymm12
  40ac60:	c5 75 ef c3          	vpxor  %ymm3,%ymm1,%ymm8
  40ac64:	c5 35 ef 96 60 87 00 	vpxor  0x8760(%rsi),%ymm9,%ymm10
  40ac6b:	00 
  40ac6c:	c4 41 15 eb de       	vpor   %ymm14,%ymm13,%ymm11
  40ac71:	c4 c1 55 ef cd       	vpxor  %ymm13,%ymm5,%ymm1
  40ac76:	c4 41 05 db ee       	vpand  %ymm14,%ymm15,%ymm13
  40ac7b:	c5 bd ef 9e 80 85 00 	vpxor  0x8580(%rsi),%ymm8,%ymm3
  40ac82:	00 
  40ac83:	c4 41 05 ef cb       	vpxor  %ymm11,%ymm15,%ymm9
  40ac88:	c5 7e 7f 94 24 80 01 	vmovdqu %ymm10,0x180(%rsp)
  40ac8f:	00 00 
  40ac91:	c5 15 ef d1          	vpxor  %ymm1,%ymm13,%ymm10
  40ac95:	c4 c1 55 ef f9       	vpxor  %ymm9,%ymm5,%ymm7
  40ac9a:	c4 c1 75 db c9       	vpand  %ymm9,%ymm1,%ymm1
  40ac9f:	c5 fe 6f ac 24 00 0f 	vmovdqu 0xf00(%rsp),%ymm5
  40aca6:	00 00 
  40aca8:	c5 45 ef 86 00 83 00 	vpxor  0x8300(%rsi),%ymm7,%ymm8
  40acaf:	00 
  40acb0:	c5 2d ef b6 20 81 00 	vpxor  0x8120(%rsi),%ymm10,%ymm14
  40acb7:	00 
  40acb8:	c5 7e 7f 84 24 e0 06 	vmovdqu %ymm8,0x6e0(%rsp)
  40acbf:	00 00 
  40acc1:	c5 7e 7f b4 24 20 04 	vmovdqu %ymm14,0x420(%rsp)
  40acc8:	00 00 
  40acca:	c5 1d ef c1          	vpxor  %ymm1,%ymm12,%ymm8
  40acce:	c4 41 2d eb e4       	vpor   %ymm12,%ymm10,%ymm12
  40acd3:	c5 fe 6f 8c 24 60 0e 	vmovdqu 0xe60(%rsp),%ymm1
  40acda:	00 00 
  40acdc:	c4 41 35 ef fc       	vpxor  %ymm12,%ymm9,%ymm15
  40ace1:	c5 7e 6f 8e 80 87 00 	vmovdqu 0x8780(%rsi),%ymm9
  40ace8:	00 
  40ace9:	c5 85 ef be a0 85 00 	vpxor  0x85a0(%rsi),%ymm15,%ymm7
  40acf0:	00 
  40acf1:	c4 41 3d ef c1       	vpxor  %ymm9,%ymm8,%ymm8
  40acf6:	c5 fe 7f 34 24       	vmovdqu %ymm6,(%rsp)
  40acfb:	c5 fe 6f 74 24 60    	vmovdqu 0x60(%rsp),%ymm6
  40ad01:	c5 fe 7f bc 24 e0 0d 	vmovdqu %ymm7,0xde0(%rsp)
  40ad08:	00 00 
  40ad0a:	c5 7e 7f 84 24 00 0e 	vmovdqu %ymm8,0xe00(%rsp)
  40ad11:	00 00 
  40ad13:	c5 7e 6f 84 24 60 06 	vmovdqu 0x660(%rsp),%ymm8
  40ad1a:	00 00 
  40ad1c:	c5 7e 6f ac 24 c0 02 	vmovdqu 0x2c0(%rsp),%ymm13
  40ad23:	00 00 
  40ad25:	c5 fe 7f 9c 24 c0 0d 	vmovdqu %ymm3,0xdc0(%rsp)
  40ad2c:	00 00 
  40ad2e:	c5 75 ef f6          	vpxor  %ymm6,%ymm1,%ymm14
  40ad32:	c4 c1 7d ef f8       	vpxor  %ymm8,%ymm0,%ymm7
  40ad37:	c5 bd ef d9          	vpxor  %ymm1,%ymm8,%ymm3
  40ad3b:	c5 4d eb e7          	vpor   %ymm7,%ymm6,%ymm12
  40ad3f:	c5 15 db d7          	vpand  %ymm7,%ymm13,%ymm10
  40ad43:	c4 41 15 ef cc       	vpxor  %ymm12,%ymm13,%ymm9
  40ad48:	c4 41 2d ef fe       	vpxor  %ymm14,%ymm10,%ymm15
  40ad4d:	c5 7e 6f a4 24 60 05 	vmovdqu 0x560(%rsp),%ymm12
  40ad54:	00 00 
  40ad56:	c5 7e 6f 94 24 80 00 	vmovdqu 0x80(%rsp),%ymm10
  40ad5d:	00 00 
  40ad5f:	c4 41 0d db d9       	vpand  %ymm9,%ymm14,%ymm11
  40ad64:	c5 05 ef 86 40 81 00 	vpxor  0x8140(%rsi),%ymm15,%ymm8
  40ad6b:	00 
  40ad6c:	c4 41 7d ef f4       	vpxor  %ymm12,%ymm0,%ymm14
  40ad71:	c4 c1 75 ef c9       	vpxor  %ymm9,%ymm1,%ymm1
  40ad76:	c4 41 65 ef eb       	vpxor  %ymm11,%ymm3,%ymm13
  40ad7b:	c5 85 eb db          	vpor   %ymm3,%ymm15,%ymm3
  40ad7f:	c5 7e 6f 9c 24 e0 02 	vmovdqu 0x2e0(%rsp),%ymm11
  40ad86:	00 00 
  40ad88:	c5 7e 7f 84 24 20 0e 	vmovdqu %ymm8,0xe20(%rsp)
  40ad8f:	00 00 
  40ad91:	c5 b5 ef f3          	vpxor  %ymm3,%ymm9,%ymm6
  40ad95:	c4 41 2d eb c6       	vpor   %ymm14,%ymm10,%ymm8
  40ad9a:	c5 95 ef 9e a0 87 00 	vpxor  0x87a0(%rsi),%ymm13,%ymm3
  40ada1:	00 
  40ada2:	c5 f5 ef 8e 20 83 00 	vpxor  0x8320(%rsi),%ymm1,%ymm1
  40ada9:	00 
  40adaa:	c5 cd ef be c0 85 00 	vpxor  0x85c0(%rsi),%ymm6,%ymm7
  40adb1:	00 
  40adb2:	c4 c1 25 db f6       	vpand  %ymm14,%ymm11,%ymm6
  40adb7:	c5 fe 7f 9c 24 40 0e 	vmovdqu %ymm3,0xe40(%rsp)
  40adbe:	00 00 
  40adc0:	c5 7e 6f b4 24 e0 04 	vmovdqu 0x4e0(%rsp),%ymm14
  40adc7:	00 00 
  40adc9:	c5 fe 7f bc 24 80 0c 	vmovdqu %ymm7,0xc80(%rsp)
  40add0:	00 00 
  40add2:	c5 fe 6f bc 24 00 07 	vmovdqu 0x700(%rsp),%ymm7
  40add9:	00 00 
  40addb:	c5 1d ef ff          	vpxor  %ymm7,%ymm12,%ymm15
  40addf:	c4 41 45 ef ca       	vpxor  %ymm10,%ymm7,%ymm9
  40ade4:	c4 41 25 ef e0       	vpxor  %ymm8,%ymm11,%ymm12
  40ade9:	c5 0d ef dd          	vpxor  %ymm5,%ymm14,%ymm11
  40aded:	c4 41 4d ef d1       	vpxor  %ymm9,%ymm6,%ymm10
  40adf2:	c4 41 45 ef ec       	vpxor  %ymm12,%ymm7,%ymm13
  40adf7:	c4 41 35 db cc       	vpand  %ymm12,%ymm9,%ymm9
  40adfc:	c5 2d ef 86 60 81 00 	vpxor  0x8160(%rsi),%ymm10,%ymm8
  40ae03:	00 
  40ae04:	c5 95 ef 9e 40 83 00 	vpxor  0x8340(%rsi),%ymm13,%ymm3
  40ae0b:	00 
  40ae0c:	c4 41 05 ef e9       	vpxor  %ymm9,%ymm15,%ymm13
  40ae11:	c4 41 2d eb ff       	vpor   %ymm15,%ymm10,%ymm15
  40ae16:	c5 7e 6f 8c 24 a0 00 	vmovdqu 0xa0(%rsp),%ymm9
  40ae1d:	00 00 
  40ae1f:	c5 7e 7f 84 24 60 0e 	vmovdqu %ymm8,0xe60(%rsp)
  40ae26:	00 00 
  40ae28:	c5 7e 6f 84 24 00 03 	vmovdqu 0x300(%rsp),%ymm8
  40ae2f:	00 00 
  40ae31:	c4 c1 1d ef f7       	vpxor  %ymm15,%ymm12,%ymm6
  40ae36:	c4 41 7d ef fe       	vpxor  %ymm14,%ymm0,%ymm15
  40ae3b:	c5 15 ef a6 c0 87 00 	vpxor  0x87c0(%rsi),%ymm13,%ymm12
  40ae42:	00 
  40ae43:	c5 cd ef be e0 85 00 	vpxor  0x85e0(%rsi),%ymm6,%ymm7
  40ae4a:	00 
  40ae4b:	c4 c1 55 ef f1       	vpxor  %ymm9,%ymm5,%ymm6
  40ae50:	c4 41 3d db ef       	vpand  %ymm15,%ymm8,%ymm13
  40ae55:	c5 7e 7f a4 24 40 07 	vmovdqu %ymm12,0x740(%rsp)
  40ae5c:	00 00 
  40ae5e:	c5 fe 7f bc 24 60 0c 	vmovdqu %ymm7,0xc60(%rsp)
  40ae65:	00 00 
  40ae67:	c4 c1 35 eb ff       	vpor   %ymm15,%ymm9,%ymm7
  40ae6c:	c5 15 ef d6          	vpxor  %ymm6,%ymm13,%ymm10
  40ae70:	c5 7e 6f 8c 24 80 04 	vmovdqu 0x480(%rsp),%ymm9
  40ae77:	00 00 
  40ae79:	c5 7e 6f bc 24 c0 00 	vmovdqu 0xc0(%rsp),%ymm15
  40ae80:	00 00 
  40ae82:	c5 3d ef e7          	vpxor  %ymm7,%ymm8,%ymm12
  40ae86:	c5 ad ef be 80 81 00 	vpxor  0x8180(%rsi),%ymm10,%ymm7
  40ae8d:	00 
  40ae8e:	c4 c1 55 ef ec       	vpxor  %ymm12,%ymm5,%ymm5
  40ae93:	c5 fe 7f bc 24 a0 0e 	vmovdqu %ymm7,0xea0(%rsp)
  40ae9a:	00 00 
  40ae9c:	c5 55 ef 86 60 83 00 	vpxor  0x8360(%rsi),%ymm5,%ymm8
  40aea3:	00 
  40aea4:	c4 c1 4d db ec       	vpand  %ymm12,%ymm6,%ymm5
  40aea9:	c4 c1 2d eb f3       	vpor   %ymm11,%ymm10,%ymm6
  40aeae:	c5 7e 7f 84 24 80 0e 	vmovdqu %ymm8,0xe80(%rsp)
  40aeb5:	00 00 
  40aeb7:	c5 25 ef f5          	vpxor  %ymm5,%ymm11,%ymm14
  40aebb:	c4 41 7d ef c1       	vpxor  %ymm9,%ymm0,%ymm8
  40aec0:	c5 1d ef ee          	vpxor  %ymm6,%ymm12,%ymm13
  40aec4:	c5 fe 6f ac 24 20 03 	vmovdqu 0x320(%rsp),%ymm5
  40aecb:	00 00 
  40aecd:	c5 0d ef 9e e0 87 00 	vpxor  0x87e0(%rsi),%ymm14,%ymm11
  40aed4:	00 
  40aed5:	c4 c1 05 eb f8       	vpor   %ymm8,%ymm15,%ymm7
  40aeda:	c5 95 ef b6 00 84 00 	vpxor  0x8400(%rsi),%ymm13,%ymm6
  40aee1:	00 
  40aee2:	c4 41 55 db e8       	vpand  %ymm8,%ymm5,%ymm13
  40aee7:	c5 7e 6f b4 24 c0 06 	vmovdqu 0x6c0(%rsp),%ymm14
  40aeee:	00 00 
  40aef0:	c5 7e 7f 9c 24 60 07 	vmovdqu %ymm11,0x760(%rsp)
  40aef7:	00 00 
  40aef9:	c5 d5 ef ff          	vpxor  %ymm7,%ymm5,%ymm7
  40aefd:	c5 fe 6f ac 24 40 06 	vmovdqu 0x640(%rsp),%ymm5
  40af04:	00 00 
  40af06:	c4 41 0d ef e7       	vpxor  %ymm15,%ymm14,%ymm12
  40af0b:	c4 41 35 ef d6       	vpxor  %ymm14,%ymm9,%ymm10
  40af10:	c5 0d ef f7          	vpxor  %ymm7,%ymm14,%ymm14
  40af14:	c4 41 15 ef ec       	vpxor  %ymm12,%ymm13,%ymm13
  40af19:	c5 1d db e7          	vpand  %ymm7,%ymm12,%ymm12
  40af1d:	c5 0d ef 9e 80 83 00 	vpxor  0x8380(%rsi),%ymm14,%ymm11
  40af24:	00 
  40af25:	c5 15 ef 8e a0 81 00 	vpxor  0x81a0(%rsi),%ymm13,%ymm9
  40af2c:	00 
  40af2d:	c4 41 2d ef c4       	vpxor  %ymm12,%ymm10,%ymm8
  40af32:	c4 41 15 eb d2       	vpor   %ymm10,%ymm13,%ymm10
  40af37:	c5 7e 6f a4 24 e0 00 	vmovdqu 0xe0(%rsp),%ymm12
  40af3e:	00 00 
  40af40:	c5 7e 7f 8c 24 e0 0e 	vmovdqu %ymm9,0xee0(%rsp)
  40af47:	00 00 
  40af49:	c5 7e 6f 8c 24 80 02 	vmovdqu 0x280(%rsp),%ymm9
  40af50:	00 00 
  40af52:	c5 7e 7f 9c 24 c0 0e 	vmovdqu %ymm11,0xec0(%rsp)
  40af59:	00 00 
  40af5b:	c4 41 45 ef fa       	vpxor  %ymm10,%ymm7,%ymm15
  40af60:	c5 3d ef b6 00 86 00 	vpxor  0x8600(%rsi),%ymm8,%ymm14
  40af67:	00 
  40af68:	c4 41 55 ef dc       	vpxor  %ymm12,%ymm5,%ymm11
  40af6d:	c5 fe 6f bc 24 40 04 	vmovdqu 0x440(%rsp),%ymm7
  40af74:	00 00 
  40af76:	c5 05 ef ae 20 84 00 	vpxor  0x8420(%rsi),%ymm15,%ymm13
  40af7d:	00 
  40af7e:	c5 7d ef d7          	vpxor  %ymm7,%ymm0,%ymm10
  40af82:	c5 45 ef c5          	vpxor  %ymm5,%ymm7,%ymm8
  40af86:	c4 41 1d eb fa       	vpor   %ymm10,%ymm12,%ymm15
  40af8b:	c4 c1 35 db fa       	vpand  %ymm10,%ymm9,%ymm7
  40af90:	c4 41 35 ef d7       	vpxor  %ymm15,%ymm9,%ymm10
  40af95:	c4 41 45 ef e3       	vpxor  %ymm11,%ymm7,%ymm12
  40af9a:	c5 7e 6f 7c 24 40    	vmovdqu 0x40(%rsp),%ymm15
  40afa0:	c4 c1 55 ef ea       	vpxor  %ymm10,%ymm5,%ymm5
  40afa5:	c4 41 25 db da       	vpand  %ymm10,%ymm11,%ymm11
  40afaa:	c5 d5 ef ae a0 83 00 	vpxor  0x83a0(%rsi),%ymm5,%ymm5
  40afb1:	00 
  40afb2:	c4 41 3d ef db       	vpxor  %ymm11,%ymm8,%ymm11
  40afb7:	c4 41 1d eb c0       	vpor   %ymm8,%ymm12,%ymm8
  40afbc:	c5 fe 7f ac 24 00 0f 	vmovdqu %ymm5,0xf00(%rsp)
  40afc3:	00 00 
  40afc5:	c5 9d ef ae c0 81 00 	vpxor  0x81c0(%rsi),%ymm12,%ymm5
  40afcc:	00 
  40afcd:	c4 c1 2d ef f8       	vpxor  %ymm8,%ymm10,%ymm7
  40afd2:	c4 41 7d ef c7       	vpxor  %ymm15,%ymm0,%ymm8
  40afd7:	c5 25 ef 8e 20 86 00 	vpxor  0x8620(%rsi),%ymm11,%ymm9
  40afde:	00 
  40afdf:	c5 fe 7f ac 24 60 09 	vmovdqu %ymm5,0x960(%rsp)
  40afe6:	00 00 
  40afe8:	c5 7e 6f a4 24 20 05 	vmovdqu 0x520(%rsp),%ymm12
  40afef:	00 00 
  40aff1:	c5 fe 6f ac 24 00 01 	vmovdqu 0x100(%rsp),%ymm5
  40aff8:	00 00 
  40affa:	c5 45 ef 96 40 84 00 	vpxor  0x8440(%rsi),%ymm7,%ymm10
  40b001:	00 
  40b002:	c4 41 05 ef dc       	vpxor  %ymm12,%ymm15,%ymm11
  40b007:	c5 9d ef fd          	vpxor  %ymm5,%ymm12,%ymm7
  40b00b:	c4 41 55 eb f8       	vpor   %ymm8,%ymm5,%ymm15
  40b010:	c5 fe 6f ac 24 40 02 	vmovdqu 0x240(%rsp),%ymm5
  40b017:	00 00 
  40b019:	c4 41 55 db c0       	vpand  %ymm8,%ymm5,%ymm8
  40b01e:	c4 41 55 ef ff       	vpxor  %ymm15,%ymm5,%ymm15
  40b023:	c5 3d ef c7          	vpxor  %ymm7,%ymm8,%ymm8
  40b027:	c4 41 1d ef e7       	vpxor  %ymm15,%ymm12,%ymm12
  40b02c:	c4 c1 45 db ff       	vpand  %ymm15,%ymm7,%ymm7
  40b031:	c5 9d ef ae c0 83 00 	vpxor  0x83c0(%rsi),%ymm12,%ymm5
  40b038:	00 
  40b039:	c4 41 3d eb e3       	vpor   %ymm11,%ymm8,%ymm12
  40b03e:	c5 a5 ef ff          	vpxor  %ymm7,%ymm11,%ymm7
  40b042:	c5 3d ef 86 e0 81 00 	vpxor  0x81e0(%rsi),%ymm8,%ymm8
  40b049:	00 
  40b04a:	c5 fe 7f ac 24 20 0b 	vmovdqu %ymm5,0xb20(%rsp)
  40b051:	00 00 
  40b053:	c4 41 05 ef dc       	vpxor  %ymm12,%ymm15,%ymm11
  40b058:	c5 7e 6f bc 24 60 04 	vmovdqu 0x460(%rsp),%ymm15
  40b05f:	00 00 
  40b061:	c5 7e 7f 84 24 20 09 	vmovdqu %ymm8,0x920(%rsp)
  40b068:	00 00 
  40b06a:	c5 25 ef a6 60 84 00 	vpxor  0x8460(%rsi),%ymm11,%ymm12
  40b071:	00 
  40b072:	c5 45 ef 9e 40 86 00 	vpxor  0x8640(%rsi),%ymm7,%ymm11
  40b079:	00 
  40b07a:	c4 c1 7d ef ef       	vpxor  %ymm15,%ymm0,%ymm5
  40b07f:	c5 85 ef fe          	vpxor  %ymm6,%ymm15,%ymm7
  40b083:	c4 41 4d ef c6       	vpxor  %ymm14,%ymm6,%ymm8
  40b088:	c5 7e 6f bc 24 60 02 	vmovdqu 0x260(%rsp),%ymm15
  40b08f:	00 00 
  40b091:	c5 0d eb f5          	vpor   %ymm5,%ymm14,%ymm14
  40b095:	c5 85 db ed          	vpand  %ymm5,%ymm15,%ymm5
  40b099:	c4 41 05 ef f6       	vpxor  %ymm14,%ymm15,%ymm14
  40b09e:	c4 41 55 ef f8       	vpxor  %ymm8,%ymm5,%ymm15
  40b0a3:	c4 c1 4d ef f6       	vpxor  %ymm14,%ymm6,%ymm6
  40b0a8:	c4 41 3d db c6       	vpand  %ymm14,%ymm8,%ymm8
  40b0ad:	c5 cd ef ae e0 8b 00 	vpxor  0x8be0(%rsi),%ymm6,%ymm5
  40b0b4:	00 
  40b0b5:	c5 85 eb f7          	vpor   %ymm7,%ymm15,%ymm6
  40b0b9:	c5 fe 7f ac 24 20 07 	vmovdqu %ymm5,0x720(%rsp)
  40b0c0:	00 00 
  40b0c2:	c4 c1 45 ef e8       	vpxor  %ymm8,%ymm7,%ymm5
  40b0c7:	c5 0d ef f6          	vpxor  %ymm6,%ymm14,%ymm14
  40b0cb:	c5 85 ef be 00 88 00 	vpxor  0x8800(%rsi),%ymm15,%ymm7
  40b0d2:	00 
  40b0d3:	c5 55 ef 86 60 8e 00 	vpxor  0x8e60(%rsi),%ymm5,%ymm8
  40b0da:	00 
  40b0db:	c5 0d ef be 80 8c 00 	vpxor  0x8c80(%rsi),%ymm14,%ymm15
  40b0e2:	00 
  40b0e3:	c5 fe 6f ac 24 a0 04 	vmovdqu 0x4a0(%rsp),%ymm5
  40b0ea:	00 00 
  40b0ec:	c5 fe 7f bc 24 40 09 	vmovdqu %ymm7,0x940(%rsp)
  40b0f3:	00 00 
  40b0f5:	c5 7e 7f 84 24 80 07 	vmovdqu %ymm8,0x780(%rsp)
  40b0fc:	00 00 
  40b0fe:	c5 7e 7f bc 24 20 0c 	vmovdqu %ymm15,0xc20(%rsp)
  40b105:	00 00 
  40b107:	c5 fd ef f5          	vpxor  %ymm5,%ymm0,%ymm6
  40b10b:	c4 41 55 ef c5       	vpxor  %ymm13,%ymm5,%ymm8
  40b110:	c4 41 15 ef f9       	vpxor  %ymm9,%ymm13,%ymm15
  40b115:	c5 b5 eb ee          	vpor   %ymm6,%ymm9,%ymm5
  40b119:	c5 7e 6f 8c 24 a0 02 	vmovdqu 0x2a0(%rsp),%ymm9
  40b120:	00 00 
  40b122:	c5 b5 db fe          	vpand  %ymm6,%ymm9,%ymm7
  40b126:	c5 35 ef cd          	vpxor  %ymm5,%ymm9,%ymm9
  40b12a:	c4 41 45 ef f7       	vpxor  %ymm15,%ymm7,%ymm14
  40b12f:	c4 c1 05 db f1       	vpand  %ymm9,%ymm15,%ymm6
  40b134:	c4 41 15 ef e9       	vpxor  %ymm9,%ymm13,%ymm13
  40b139:	c5 8d ef be 20 88 00 	vpxor  0x8820(%rsi),%ymm14,%ymm7
  40b140:	00 
  40b141:	c5 3d ef fe          	vpxor  %ymm6,%ymm8,%ymm15
  40b145:	c4 41 0d eb c0       	vpor   %ymm8,%ymm14,%ymm8
  40b14a:	c5 95 ef ae 00 8a 00 	vpxor  0x8a00(%rsi),%ymm13,%ymm5
  40b151:	00 
  40b152:	c5 fe 7f bc 24 80 09 	vmovdqu %ymm7,0x980(%rsp)
  40b159:	00 00 
  40b15b:	c4 41 35 ef e8       	vpxor  %ymm8,%ymm9,%ymm13
  40b160:	c4 c1 2d ef fb       	vpxor  %ymm11,%ymm10,%ymm7
  40b165:	c5 05 ef 8e 80 8e 00 	vpxor  0x8e80(%rsi),%ymm15,%ymm9
  40b16c:	00 
  40b16d:	c5 7e 6f 84 24 c0 04 	vmovdqu 0x4c0(%rsp),%ymm8
  40b174:	00 00 
  40b176:	c5 fe 7f ac 24 40 0b 	vmovdqu %ymm5,0xb40(%rsp)
  40b17d:	00 00 
  40b17f:	c5 7e 6f bc 24 a0 01 	vmovdqu 0x1a0(%rsp),%ymm15
  40b186:	00 00 
  40b188:	c5 7e 7f 8c 24 a0 07 	vmovdqu %ymm9,0x7a0(%rsp)
  40b18f:	00 00 
  40b191:	c5 7e 6f 8c 24 00 05 	vmovdqu 0x500(%rsp),%ymm9
  40b198:	00 00 
  40b19a:	c4 c1 7d ef e8       	vpxor  %ymm8,%ymm0,%ymm5
  40b19f:	c5 15 ef b6 a0 8c 00 	vpxor  0x8ca0(%rsi),%ymm13,%ymm14
  40b1a6:	00 
  40b1a7:	c4 41 3d ef ea       	vpxor  %ymm10,%ymm8,%ymm13
  40b1ac:	c5 25 eb c5          	vpor   %ymm5,%ymm11,%ymm8
  40b1b0:	c5 7e 6f 9c 24 40 03 	vmovdqu 0x340(%rsp),%ymm11
  40b1b7:	00 00 
  40b1b9:	c5 7e 7f b4 24 a0 0c 	vmovdqu %ymm14,0xca0(%rsp)
  40b1c0:	00 00 
  40b1c2:	c5 a5 db ed          	vpand  %ymm5,%ymm11,%ymm5
  40b1c6:	c4 41 25 ef c0       	vpxor  %ymm8,%ymm11,%ymm8
  40b1cb:	c5 d5 ef f7          	vpxor  %ymm7,%ymm5,%ymm6
  40b1cf:	c4 c1 45 db f8       	vpand  %ymm8,%ymm7,%ymm7
  40b1d4:	c4 41 2d ef d0       	vpxor  %ymm8,%ymm10,%ymm10
  40b1d9:	c5 15 ef f7          	vpxor  %ymm7,%ymm13,%ymm14
  40b1dd:	c4 41 4d eb ed       	vpor   %ymm13,%ymm6,%ymm13
  40b1e2:	c5 ad ef ae 20 8a 00 	vpxor  0x8a20(%rsi),%ymm10,%ymm5
  40b1e9:	00 
  40b1ea:	c5 fe 6f bc 24 60 03 	vmovdqu 0x360(%rsp),%ymm7
  40b1f1:	00 00 
  40b1f3:	c4 41 3d ef d5       	vpxor  %ymm13,%ymm8,%ymm10
  40b1f8:	c5 4d ef 86 40 88 00 	vpxor  0x8840(%rsi),%ymm6,%ymm8
  40b1ff:	00 
  40b200:	c5 0d ef 9e a0 8e 00 	vpxor  0x8ea0(%rsi),%ymm14,%ymm11
  40b207:	00 
  40b208:	c5 fe 7f ac 24 60 0b 	vmovdqu %ymm5,0xb60(%rsp)
  40b20f:	00 00 
  40b211:	c5 ad ef b6 c0 8c 00 	vpxor  0x8cc0(%rsi),%ymm10,%ymm6
  40b218:	00 
  40b219:	c4 c1 35 ef ec       	vpxor  %ymm12,%ymm9,%ymm5
  40b21e:	c5 7e 7f 84 24 a0 09 	vmovdqu %ymm8,0x9a0(%rsp)
  40b225:	00 00 
  40b227:	c5 7e 7f 9c 24 c0 07 	vmovdqu %ymm11,0x7c0(%rsp)
  40b22e:	00 00 
  40b230:	c5 fe 7f b4 24 20 0d 	vmovdqu %ymm6,0xd20(%rsp)
  40b237:	00 00 
  40b239:	c4 c1 7d ef f1       	vpxor  %ymm9,%ymm0,%ymm6
  40b23e:	c4 41 1d ef c7       	vpxor  %ymm15,%ymm12,%ymm8
  40b243:	c5 7e 6f 8c 24 a0 05 	vmovdqu 0x5a0(%rsp),%ymm9
  40b24a:	00 00 
  40b24c:	c5 05 eb ee          	vpor   %ymm6,%ymm15,%ymm13
  40b250:	c5 45 db d6          	vpand  %ymm6,%ymm7,%ymm10
  40b254:	c5 7e 6f bc 24 c0 01 	vmovdqu 0x1c0(%rsp),%ymm15
  40b25b:	00 00 
  40b25d:	c4 41 45 ef f5       	vpxor  %ymm13,%ymm7,%ymm14
  40b262:	c4 41 2d ef d8       	vpxor  %ymm8,%ymm10,%ymm11
  40b267:	c4 41 1d ef e6       	vpxor  %ymm14,%ymm12,%ymm12
  40b26c:	c4 41 3d db c6       	vpand  %ymm14,%ymm8,%ymm8
  40b271:	c5 a5 ef be 60 88 00 	vpxor  0x8860(%rsi),%ymm11,%ymm7
  40b278:	00 
  40b279:	c5 9d ef b6 40 8a 00 	vpxor  0x8a40(%rsi),%ymm12,%ymm6
  40b280:	00 
  40b281:	c4 41 55 ef e0       	vpxor  %ymm8,%ymm5,%ymm12
  40b286:	c5 a5 eb ed          	vpor   %ymm5,%ymm11,%ymm5
  40b28a:	c5 fe 7f bc 24 c0 09 	vmovdqu %ymm7,0x9c0(%rsp)
  40b291:	00 00 
  40b293:	c5 fe 7f b4 24 80 0b 	vmovdqu %ymm6,0xb80(%rsp)
  40b29a:	00 00 
  40b29c:	c5 fe 6f b4 24 80 03 	vmovdqu 0x380(%rsp),%ymm6
  40b2a3:	00 00 
  40b2a5:	c5 0d ef ed          	vpxor  %ymm5,%ymm14,%ymm13
  40b2a9:	c4 c1 7d ef e9       	vpxor  %ymm9,%ymm0,%ymm5
  40b2ae:	c5 1d ef 96 c0 8e 00 	vpxor  0x8ec0(%rsi),%ymm12,%ymm10
  40b2b5:	00 
  40b2b6:	c5 7e 6f a4 24 40 05 	vmovdqu 0x540(%rsp),%ymm12
  40b2bd:	00 00 
  40b2bf:	c5 4d db f5          	vpand  %ymm5,%ymm6,%ymm14
  40b2c3:	c5 15 ef 86 e0 8c 00 	vpxor  0x8ce0(%rsi),%ymm13,%ymm8
  40b2ca:	00 
  40b2cb:	c5 7e 7f 94 24 e0 07 	vmovdqu %ymm10,0x7e0(%rsp)
  40b2d2:	00 00 
  40b2d4:	c5 05 eb d5          	vpor   %ymm5,%ymm15,%ymm10
  40b2d8:	c4 c1 1d ef ff       	vpxor  %ymm15,%ymm12,%ymm7
  40b2dd:	c4 41 35 ef ec       	vpxor  %ymm12,%ymm9,%ymm13
  40b2e2:	c4 c1 4d ef ea       	vpxor  %ymm10,%ymm6,%ymm5
  40b2e7:	c5 8d ef f7          	vpxor  %ymm7,%ymm14,%ymm6
  40b2eb:	c5 7e 6f b4 24 e0 01 	vmovdqu 0x1e0(%rsp),%ymm14
  40b2f2:	00 00 
  40b2f4:	c5 7e 6f 94 24 80 05 	vmovdqu 0x580(%rsp),%ymm10
  40b2fb:	00 00 
  40b2fd:	c5 c5 db fd          	vpand  %ymm5,%ymm7,%ymm7
  40b301:	c5 1d ef e5          	vpxor  %ymm5,%ymm12,%ymm12
  40b305:	c5 4d ef 8e 80 88 00 	vpxor  0x8880(%rsi),%ymm6,%ymm9
  40b30c:	00 
  40b30d:	c5 95 ef ff          	vpxor  %ymm7,%ymm13,%ymm7
  40b311:	c4 41 4d eb ed       	vpor   %ymm13,%ymm6,%ymm13
  40b316:	c5 1d ef 9e 60 8a 00 	vpxor  0x8a60(%rsi),%ymm12,%ymm11
  40b31d:	00 
  40b31e:	c5 7e 7f 8c 24 e0 09 	vmovdqu %ymm9,0x9e0(%rsp)
  40b325:	00 00 
  40b327:	c5 7e 6f 8c 24 a0 03 	vmovdqu 0x3a0(%rsp),%ymm9
  40b32e:	00 00 
  40b330:	c4 41 55 ef fd       	vpxor  %ymm13,%ymm5,%ymm15
  40b335:	c5 c5 ef b6 e0 8e 00 	vpxor  0x8ee0(%rsi),%ymm7,%ymm6
  40b33c:	00 
  40b33d:	c5 7e 6f ac 24 e0 05 	vmovdqu 0x5e0(%rsp),%ymm13
  40b344:	00 00 
  40b346:	c5 7e 7f 9c 24 a0 0b 	vmovdqu %ymm11,0xba0(%rsp)
  40b34d:	00 00 
  40b34f:	c5 85 ef ae 00 8d 00 	vpxor  0x8d00(%rsi),%ymm15,%ymm5
  40b356:	00 
  40b357:	c5 fe 7f b4 24 00 08 	vmovdqu %ymm6,0x800(%rsp)
  40b35e:	00 00 
  40b360:	c4 41 7d ef dd       	vpxor  %ymm13,%ymm0,%ymm11
  40b365:	c4 41 15 ef e2       	vpxor  %ymm10,%ymm13,%ymm12
  40b36a:	c4 41 2d ef ee       	vpxor  %ymm14,%ymm10,%ymm13
  40b36f:	c4 41 0d eb fb       	vpor   %ymm11,%ymm14,%ymm15
  40b374:	c4 c1 35 db f3       	vpand  %ymm11,%ymm9,%ymm6
  40b379:	c4 c1 35 ef ff       	vpxor  %ymm15,%ymm9,%ymm7
  40b37e:	c4 c1 4d ef f5       	vpxor  %ymm13,%ymm6,%ymm6
  40b383:	c5 7e 6f bc 24 c0 05 	vmovdqu 0x5c0(%rsp),%ymm15
  40b38a:	00 00 
  40b38c:	c5 2d ef d7          	vpxor  %ymm7,%ymm10,%ymm10
  40b390:	c5 15 db ef          	vpand  %ymm7,%ymm13,%ymm13
  40b394:	c5 2d ef 96 80 8a 00 	vpxor  0x8a80(%rsi),%ymm10,%ymm10
  40b39b:	00 
  40b39c:	c4 41 1d ef f5       	vpxor  %ymm13,%ymm12,%ymm14
  40b3a1:	c4 41 4d eb e4       	vpor   %ymm12,%ymm6,%ymm12
  40b3a6:	c5 cd ef b6 a0 88 00 	vpxor  0x88a0(%rsi),%ymm6,%ymm6
  40b3ad:	00 
  40b3ae:	c5 7e 7f 94 24 c0 0b 	vmovdqu %ymm10,0xbc0(%rsp)
  40b3b5:	00 00 
  40b3b7:	c5 7e 6f 94 24 a0 06 	vmovdqu 0x6a0(%rsp),%ymm10
  40b3be:	00 00 
  40b3c0:	c4 c1 45 ef fc       	vpxor  %ymm12,%ymm7,%ymm7
  40b3c5:	c5 0d ef a6 00 8f 00 	vpxor  0x8f00(%rsi),%ymm14,%ymm12
  40b3cc:	00 
  40b3cd:	c5 fe 7f b4 24 00 0a 	vmovdqu %ymm6,0xa00(%rsp)
  40b3d4:	00 00 
  40b3d6:	c5 fe 6f b4 24 00 02 	vmovdqu 0x200(%rsp),%ymm6
  40b3dd:	00 00 
  40b3df:	c5 45 ef ae 20 8d 00 	vpxor  0x8d20(%rsi),%ymm7,%ymm13
  40b3e6:	00 
  40b3e7:	c4 c1 7d ef fa       	vpxor  %ymm10,%ymm0,%ymm7
  40b3ec:	c4 41 2d ef cf       	vpxor  %ymm15,%ymm10,%ymm9
  40b3f1:	c5 05 ef de          	vpxor  %ymm6,%ymm15,%ymm11
  40b3f5:	c5 7e 7f ac 24 c0 0c 	vmovdqu %ymm13,0xcc0(%rsp)
  40b3fc:	00 00 
  40b3fe:	c5 7e 6f ac 24 c0 03 	vmovdqu 0x3c0(%rsp),%ymm13
  40b405:	00 00 
  40b407:	c5 7e 7f a4 24 20 08 	vmovdqu %ymm12,0x820(%rsp)
  40b40e:	00 00 
  40b410:	c5 4d eb e7          	vpor   %ymm7,%ymm6,%ymm12
  40b414:	c5 15 db d7          	vpand  %ymm7,%ymm13,%ymm10
  40b418:	c4 41 15 ef f4       	vpxor  %ymm12,%ymm13,%ymm14
  40b41d:	c4 c1 2d ef f3       	vpxor  %ymm11,%ymm10,%ymm6
  40b422:	c4 41 05 ef fe       	vpxor  %ymm14,%ymm15,%ymm15
  40b427:	c4 41 25 db de       	vpand  %ymm14,%ymm11,%ymm11
  40b42c:	c5 85 ef be a0 8a 00 	vpxor  0x8aa0(%rsi),%ymm15,%ymm7
  40b433:	00 
  40b434:	c4 41 35 ef e3       	vpxor  %ymm11,%ymm9,%ymm12
  40b439:	c4 41 4d eb c9       	vpor   %ymm9,%ymm6,%ymm9
  40b43e:	c5 cd ef b6 c0 88 00 	vpxor  0x88c0(%rsi),%ymm6,%ymm6
  40b445:	00 
  40b446:	c5 fe 7f bc 24 e0 0b 	vmovdqu %ymm7,0xbe0(%rsp)
  40b44d:	00 00 
  40b44f:	c5 7e 6f 9c 24 20 02 	vmovdqu 0x220(%rsp),%ymm11
  40b456:	00 00 
  40b458:	c5 7e 6f bc 24 e0 03 	vmovdqu 0x3e0(%rsp),%ymm15
  40b45f:	00 00 
  40b461:	c5 fe 7f b4 24 20 0a 	vmovdqu %ymm6,0xa20(%rsp)
  40b468:	00 00 
  40b46a:	c4 c1 0d ef f9       	vpxor  %ymm9,%ymm14,%ymm7
  40b46f:	c5 1d ef 96 20 8f 00 	vpxor  0x8f20(%rsi),%ymm12,%ymm10
  40b476:	00 
  40b477:	c5 7e 6f b4 24 80 06 	vmovdqu 0x680(%rsp),%ymm14
  40b47e:	00 00 
  40b480:	c5 45 ef ae 40 8d 00 	vpxor  0x8d40(%rsi),%ymm7,%ymm13
  40b487:	00 
  40b488:	c5 7e 7f 94 24 60 08 	vmovdqu %ymm10,0x860(%rsp)
  40b48f:	00 00 
  40b491:	c5 7e 6f 94 24 00 06 	vmovdqu 0x600(%rsp),%ymm10
  40b498:	00 00 
  40b49a:	c4 41 7d ef ce       	vpxor  %ymm14,%ymm0,%ymm9
  40b49f:	c5 7e 7f ac 24 e0 0c 	vmovdqu %ymm13,0xce0(%rsp)
  40b4a6:	00 00 
  40b4a8:	c4 41 0d ef e2       	vpxor  %ymm10,%ymm14,%ymm12
  40b4ad:	c4 c1 25 eb f1       	vpor   %ymm9,%ymm11,%ymm6
  40b4b2:	c4 41 2d ef eb       	vpxor  %ymm11,%ymm10,%ymm13
  40b4b7:	c4 41 05 db f1       	vpand  %ymm9,%ymm15,%ymm14
  40b4bc:	c5 85 ef fe          	vpxor  %ymm6,%ymm15,%ymm7
  40b4c0:	c4 c1 0d ef f5       	vpxor  %ymm13,%ymm14,%ymm6
  40b4c5:	c5 7e 6f b4 24 20 06 	vmovdqu 0x620(%rsp),%ymm14
  40b4cc:	00 00 
  40b4ce:	c5 15 db ef          	vpand  %ymm7,%ymm13,%ymm13
  40b4d2:	c5 2d ef d7          	vpxor  %ymm7,%ymm10,%ymm10
  40b4d6:	c4 41 1d ef fd       	vpxor  %ymm13,%ymm12,%ymm15
  40b4db:	c4 41 4d eb e4       	vpor   %ymm12,%ymm6,%ymm12
  40b4e0:	c5 2d ef 9e c0 8a 00 	vpxor  0x8ac0(%rsi),%ymm10,%ymm11
  40b4e7:	00 
  40b4e8:	c5 7e 6f ac 24 e0 06 	vmovdqu 0x6e0(%rsp),%ymm13
  40b4ef:	00 00 
  40b4f1:	c4 41 45 ef cc       	vpxor  %ymm12,%ymm7,%ymm9
  40b4f6:	c5 cd ef be e0 88 00 	vpxor  0x88e0(%rsi),%ymm6,%ymm7
  40b4fd:	00 
  40b4fe:	c5 7e 7f 9c 24 00 0c 	vmovdqu %ymm11,0xc00(%rsp)
  40b505:	00 00 
  40b507:	c5 7e 6f 9c 24 20 01 	vmovdqu 0x120(%rsp),%ymm11
  40b50e:	00 00 
  40b510:	c5 b5 ef b6 60 8d 00 	vpxor  0x8d60(%rsi),%ymm9,%ymm6
  40b517:	00 
  40b518:	c4 41 7d ef cd       	vpxor  %ymm13,%ymm0,%ymm9
  40b51d:	c4 41 15 ef d6       	vpxor  %ymm14,%ymm13,%ymm10
  40b522:	c4 41 0d ef e3       	vpxor  %ymm11,%ymm14,%ymm12
  40b527:	c5 fe 7f bc 24 40 0a 	vmovdqu %ymm7,0xa40(%rsp)
  40b52e:	00 00 
  40b530:	c5 85 ef be 40 8f 00 	vpxor  0x8f40(%rsi),%ymm15,%ymm7
  40b537:	00 
  40b538:	c5 7e 6f bc 24 00 04 	vmovdqu 0x400(%rsp),%ymm15
  40b53f:	00 00 
  40b541:	c5 fe 7f bc 24 a0 08 	vmovdqu %ymm7,0x8a0(%rsp)
  40b548:	00 00 
  40b54a:	c4 c1 25 eb f9       	vpor   %ymm9,%ymm11,%ymm7
  40b54f:	c4 41 05 db d9       	vpand  %ymm9,%ymm15,%ymm11
  40b554:	c5 05 ef ef          	vpxor  %ymm7,%ymm15,%ymm13
  40b558:	c4 c1 25 ef fc       	vpxor  %ymm12,%ymm11,%ymm7
  40b55d:	c4 41 0d ef f5       	vpxor  %ymm13,%ymm14,%ymm14
  40b562:	c4 41 1d db e5       	vpand  %ymm13,%ymm12,%ymm12
  40b567:	c5 0d ef b6 e0 8a 00 	vpxor  0x8ae0(%rsi),%ymm14,%ymm14
  40b56e:	00 
  40b56f:	c4 41 2d ef e4       	vpxor  %ymm12,%ymm10,%ymm12
  40b574:	c4 41 45 eb d2       	vpor   %ymm10,%ymm7,%ymm10
  40b579:	c5 c5 ef be 00 89 00 	vpxor  0x8900(%rsi),%ymm7,%ymm7
  40b580:	00 
  40b581:	c5 7e 7f b4 24 40 0c 	vmovdqu %ymm14,0xc40(%rsp)
  40b588:	00 00 
  40b58a:	c4 41 15 ef ea       	vpxor  %ymm10,%ymm13,%ymm13
  40b58f:	c5 1d ef 96 60 8f 00 	vpxor  0x8f60(%rsi),%ymm12,%ymm10
  40b596:	00 
  40b597:	c5 7d ef f1          	vpxor  %ymm1,%ymm0,%ymm14
  40b59b:	c5 75 ef e4          	vpxor  %ymm4,%ymm1,%ymm12
  40b59f:	c5 fe 6f 8c 24 40 01 	vmovdqu 0x140(%rsp),%ymm1
  40b5a6:	00 00 
  40b5a8:	c5 fe 7f bc 24 60 0a 	vmovdqu %ymm7,0xa60(%rsp)
  40b5af:	00 00 
  40b5b1:	c5 7e 7f 94 24 c0 08 	vmovdqu %ymm10,0x8c0(%rsp)
  40b5b8:	00 00 
  40b5ba:	c5 95 ef be 80 8d 00 	vpxor  0x8d80(%rsi),%ymm13,%ymm7
  40b5c1:	00 
  40b5c2:	c5 5d ef e9          	vpxor  %ymm1,%ymm4,%ymm13
  40b5c6:	c4 41 75 eb d6       	vpor   %ymm14,%ymm1,%ymm10
  40b5cb:	c5 fe 6f 8c 24 20 04 	vmovdqu 0x420(%rsp),%ymm1
  40b5d2:	00 00 
  40b5d4:	c4 41 75 db de       	vpand  %ymm14,%ymm1,%ymm11
  40b5d9:	c4 c1 75 ef ca       	vpxor  %ymm10,%ymm1,%ymm1
  40b5de:	c4 41 25 ef fd       	vpxor  %ymm13,%ymm11,%ymm15
  40b5e3:	c5 15 db e9          	vpand  %ymm1,%ymm13,%ymm13
  40b5e7:	c5 dd ef e1          	vpxor  %ymm1,%ymm4,%ymm4
  40b5eb:	c4 41 1d ef cd       	vpxor  %ymm13,%ymm12,%ymm9
  40b5f0:	c4 41 05 eb e4       	vpor   %ymm12,%ymm15,%ymm12
  40b5f5:	c5 dd ef a6 00 8b 00 	vpxor  0x8b00(%rsi),%ymm4,%ymm4
  40b5fc:	00 
  40b5fd:	c5 7e 6f ac 24 20 0e 	vmovdqu 0xe20(%rsp),%ymm13
  40b604:	00 00 
  40b606:	c4 41 75 ef d4       	vpxor  %ymm12,%ymm1,%ymm10
  40b60b:	c5 85 ef 8e 20 89 00 	vpxor  0x8920(%rsi),%ymm15,%ymm1
  40b612:	00 
  40b613:	c5 35 ef be 80 8f 00 	vpxor  0x8f80(%rsi),%ymm9,%ymm15
  40b61a:	00 
  40b61b:	c5 65 ef ca          	vpxor  %ymm2,%ymm3,%ymm9
  40b61f:	c5 fe 7f a4 24 00 0d 	vmovdqu %ymm4,0xd00(%rsp)
  40b626:	00 00 
  40b628:	c5 fe 7f 8c 24 80 0a 	vmovdqu %ymm1,0xa80(%rsp)
  40b62f:	00 00 
  40b631:	c5 7e 7f bc 24 e0 08 	vmovdqu %ymm15,0x8e0(%rsp)
  40b638:	00 00 
  40b63a:	c5 fd ef cb          	vpxor  %ymm3,%ymm0,%ymm1
  40b63e:	c5 ad ef a6 a0 8d 00 	vpxor  0x8da0(%rsi),%ymm10,%ymm4
  40b645:	00 
  40b646:	c5 fe 6f 9c 24 60 01 	vmovdqu 0x160(%rsp),%ymm3
  40b64d:	00 00 
  40b64f:	c5 15 db e1          	vpand  %ymm1,%ymm13,%ymm12
  40b653:	c5 6d ef db          	vpxor  %ymm3,%ymm2,%ymm11
  40b657:	c5 e5 eb d9          	vpor   %ymm1,%ymm3,%ymm3
  40b65b:	c4 41 1d ef f3       	vpxor  %ymm11,%ymm12,%ymm14
  40b660:	c5 95 ef cb          	vpxor  %ymm3,%ymm13,%ymm1
  40b664:	c4 c1 0d eb d9       	vpor   %ymm9,%ymm14,%ymm3
  40b669:	c5 25 db e9          	vpand  %ymm1,%ymm11,%ymm13
  40b66d:	c5 ed ef d1          	vpxor  %ymm1,%ymm2,%ymm2
  40b671:	c5 7e 6f 9c 24 80 0e 	vmovdqu 0xe80(%rsp),%ymm11
  40b678:	00 00 
  40b67a:	c4 41 35 ef d5       	vpxor  %ymm13,%ymm9,%ymm10
  40b67f:	c5 75 ef e3          	vpxor  %ymm3,%ymm1,%ymm12
  40b683:	c5 8d ef 8e 40 89 00 	vpxor  0x8940(%rsi),%ymm14,%ymm1
  40b68a:	00 
  40b68b:	c4 41 7d ef fb       	vpxor  %ymm11,%ymm0,%ymm15
  40b690:	c5 2d ef b6 a0 8f 00 	vpxor  0x8fa0(%rsi),%ymm10,%ymm14
  40b697:	00 
  40b698:	c5 ed ef 96 20 8b 00 	vpxor  0x8b20(%rsi),%ymm2,%ymm2
  40b69f:	00 
  40b6a0:	c5 7e 6f 8c 24 80 01 	vmovdqu 0x180(%rsp),%ymm9
  40b6a7:	00 00 
  40b6a9:	c5 fe 7f 8c 24 a0 0a 	vmovdqu %ymm1,0xaa0(%rsp)
  40b6b0:	00 00 
  40b6b2:	c5 7e 6f 14 24       	vmovdqu (%rsp),%ymm10
  40b6b7:	c5 fe 6f 8c 24 60 0e 	vmovdqu 0xe60(%rsp),%ymm1
  40b6be:	00 00 
  40b6c0:	c5 7e 7f b4 24 00 09 	vmovdqu %ymm14,0x900(%rsp)
  40b6c7:	00 00 
  40b6c9:	c5 fe 7f 94 24 a0 0d 	vmovdqu %ymm2,0xda0(%rsp)
  40b6d0:	00 00 
  40b6d2:	c4 41 35 eb ef       	vpor   %ymm15,%ymm9,%ymm13
  40b6d7:	c4 c1 2d ef d9       	vpxor  %ymm9,%ymm10,%ymm3
  40b6dc:	c4 41 75 db f7       	vpand  %ymm15,%ymm1,%ymm14
  40b6e1:	c5 9d ef 96 c0 8d 00 	vpxor  0x8dc0(%rsi),%ymm12,%ymm2
  40b6e8:	00 
  40b6e9:	c4 41 75 ef ed       	vpxor  %ymm13,%ymm1,%ymm13
  40b6ee:	c4 41 25 ef e2       	vpxor  %ymm10,%ymm11,%ymm12
  40b6f3:	c5 8d ef cb          	vpxor  %ymm3,%ymm14,%ymm1
  40b6f7:	c5 7e 6f b4 24 00 0e 	vmovdqu 0xe00(%rsp),%ymm14
  40b6fe:	00 00 
  40b700:	c4 c1 65 db dd       	vpand  %ymm13,%ymm3,%ymm3
  40b705:	c4 41 2d ef d5       	vpxor  %ymm13,%ymm10,%ymm10
  40b70a:	c5 75 ef 8e 60 89 00 	vpxor  0x8960(%rsi),%ymm1,%ymm9
  40b711:	00 
  40b712:	c5 9d ef db          	vpxor  %ymm3,%ymm12,%ymm3
  40b716:	c4 41 75 eb e4       	vpor   %ymm12,%ymm1,%ymm12
  40b71b:	c5 2d ef 9e 40 8b 00 	vpxor  0x8b40(%rsi),%ymm10,%ymm11
  40b722:	00 
  40b723:	c5 7e 7f 8c 24 c0 0a 	vmovdqu %ymm9,0xac0(%rsp)
  40b72a:	00 00 
  40b72c:	c5 7e 6f 94 24 c0 0d 	vmovdqu 0xdc0(%rsp),%ymm10
  40b733:	00 00 
  40b735:	c5 7e 6f 8c 24 a0 0e 	vmovdqu 0xea0(%rsp),%ymm9
  40b73c:	00 00 
  40b73e:	c5 7e 7f 9c 24 60 0d 	vmovdqu %ymm11,0xd60(%rsp)
  40b745:	00 00 
  40b747:	c4 41 15 ef fc       	vpxor  %ymm12,%ymm13,%ymm15
  40b74c:	c5 65 ef ae c0 8f 00 	vpxor  0x8fc0(%rsi),%ymm3,%ymm13
  40b753:	00 
  40b754:	c5 7e 6f a4 24 c0 0e 	vmovdqu 0xec0(%rsp),%ymm12
  40b75b:	00 00 
  40b75d:	c5 85 ef 8e e0 8d 00 	vpxor  0x8de0(%rsi),%ymm15,%ymm1
  40b764:	00 
  40b765:	c4 41 2d ef fe       	vpxor  %ymm14,%ymm10,%ymm15
  40b76a:	c5 7e 7f ac 24 80 08 	vmovdqu %ymm13,0x880(%rsp)
  40b771:	00 00 
  40b773:	c4 41 7d ef dc       	vpxor  %ymm12,%ymm0,%ymm11
  40b778:	c4 c1 1d ef da       	vpxor  %ymm10,%ymm12,%ymm3
  40b77d:	c4 41 0d eb eb       	vpor   %ymm11,%ymm14,%ymm13
  40b782:	c4 41 35 db f3       	vpand  %ymm11,%ymm9,%ymm14
  40b787:	c5 7e 6f 9c 24 00 0f 	vmovdqu 0xf00(%rsp),%ymm11
  40b78e:	00 00 
  40b790:	c4 41 35 ef e5       	vpxor  %ymm13,%ymm9,%ymm12
  40b795:	c4 41 0d ef ef       	vpxor  %ymm15,%ymm14,%ymm13
  40b79a:	c5 7e 6f 8c 24 e0 0d 	vmovdqu 0xde0(%rsp),%ymm9
  40b7a1:	00 00 
  40b7a3:	c4 41 2d ef d4       	vpxor  %ymm12,%ymm10,%ymm10
  40b7a8:	c4 41 05 db fc       	vpand  %ymm12,%ymm15,%ymm15
  40b7ad:	c5 2d ef 96 60 8b 00 	vpxor  0x8b60(%rsi),%ymm10,%ymm10
  40b7b4:	00 
  40b7b5:	c5 7e 7f 94 24 80 0d 	vmovdqu %ymm10,0xd80(%rsp)
  40b7bc:	00 00 
  40b7be:	c4 41 65 ef d7       	vpxor  %ymm15,%ymm3,%ymm10
  40b7c3:	c5 95 eb db          	vpor   %ymm3,%ymm13,%ymm3
  40b7c7:	c5 15 ef ae 80 89 00 	vpxor  0x8980(%rsi),%ymm13,%ymm13
  40b7ce:	00 
  40b7cf:	c5 7e 6f bc 24 40 0e 	vmovdqu 0xe40(%rsp),%ymm15
  40b7d6:	00 00 
  40b7d8:	c5 1d ef e3          	vpxor  %ymm3,%ymm12,%ymm12
  40b7dc:	c4 c1 7d ef db       	vpxor  %ymm11,%ymm0,%ymm3
  40b7e1:	c5 2d ef b6 e0 8f 00 	vpxor  0x8fe0(%rsi),%ymm10,%ymm14
  40b7e8:	00 
  40b7e9:	c5 7e 7f ac 24 e0 0a 	vmovdqu %ymm13,0xae0(%rsp)
  40b7f0:	00 00 
  40b7f2:	c5 1d ef ae 00 8c 00 	vpxor  0x8c00(%rsi),%ymm12,%ymm13
  40b7f9:	00 
  40b7fa:	c5 05 eb d3          	vpor   %ymm3,%ymm15,%ymm10
  40b7fe:	c5 7e 7f b4 24 40 08 	vmovdqu %ymm14,0x840(%rsp)
  40b805:	00 00 
  40b807:	c5 7e 6f a4 24 e0 0e 	vmovdqu 0xee0(%rsp),%ymm12
  40b80e:	00 00 
  40b810:	c4 41 25 ef f1       	vpxor  %ymm9,%ymm11,%ymm14
  40b815:	c4 41 35 ef df       	vpxor  %ymm15,%ymm9,%ymm11
  40b81a:	c5 9d db db          	vpand  %ymm3,%ymm12,%ymm3
  40b81e:	c4 41 1d ef d2       	vpxor  %ymm10,%ymm12,%ymm10
  40b823:	c4 41 65 ef e3       	vpxor  %ymm11,%ymm3,%ymm12
  40b828:	c4 41 35 ef ca       	vpxor  %ymm10,%ymm9,%ymm9
  40b82d:	c5 b5 ef 9e 80 8b 00 	vpxor  0x8b80(%rsi),%ymm9,%ymm3
  40b834:	00 
  40b835:	c4 41 25 db ca       	vpand  %ymm10,%ymm11,%ymm9
  40b83a:	c4 41 1d eb de       	vpor   %ymm14,%ymm12,%ymm11
  40b83f:	c5 1d ef a6 a0 89 00 	vpxor  0x89a0(%rsi),%ymm12,%ymm12
  40b846:	00 
  40b847:	c5 fe 7f 9c 24 40 0d 	vmovdqu %ymm3,0xd40(%rsp)
  40b84e:	00 00 
  40b850:	c4 41 2d ef d3       	vpxor  %ymm11,%ymm10,%ymm10
  40b855:	c4 c1 0d ef d9       	vpxor  %ymm9,%ymm14,%ymm3
  40b85a:	c5 7e 7f a4 24 00 0b 	vmovdqu %ymm12,0xb00(%rsp)
  40b861:	00 00 
  40b863:	c5 7e 6f 8e 00 8e 00 	vmovdqu 0x8e00(%rsi),%ymm9
  40b86a:	00 
  40b86b:	c5 2d ef 96 20 8c 00 	vpxor  0x8c20(%rsi),%ymm10,%ymm10
  40b872:	00 
  40b873:	c5 7e 6f 9c 24 20 0b 	vmovdqu 0xb20(%rsp),%ymm11
  40b87a:	00 00 
  40b87c:	c5 fe 7f a4 24 c0 06 	vmovdqu %ymm4,0x6c0(%rsp)
  40b883:	00 00 
  40b885:	c5 fe 6f a4 24 80 0c 	vmovdqu 0xc80(%rsp),%ymm4
  40b88c:	00 00 
  40b88e:	c5 7e 6f bc 24 60 09 	vmovdqu 0x960(%rsp),%ymm15
  40b895:	00 00 
  40b897:	c5 fe 7f 8c 24 00 07 	vmovdqu %ymm1,0x700(%rsp)
  40b89e:	00 00 
  40b8a0:	c5 fe 7f 94 24 e0 06 	vmovdqu %ymm2,0x6e0(%rsp)
  40b8a7:	00 00 
  40b8a9:	c4 41 65 ef f1       	vpxor  %ymm9,%ymm3,%ymm14
  40b8ae:	c4 41 7d ef cb       	vpxor  %ymm11,%ymm0,%ymm9
  40b8b3:	c5 25 ef e4          	vpxor  %ymm4,%ymm11,%ymm12
  40b8b7:	c5 fe 6f 9c 24 40 07 	vmovdqu 0x740(%rsp),%ymm3
  40b8be:	00 00 
  40b8c0:	c4 41 05 db d9       	vpand  %ymm9,%ymm15,%ymm11
  40b8c5:	c4 c1 65 eb c9       	vpor   %ymm9,%ymm3,%ymm1
  40b8ca:	c5 dd ef d3          	vpxor  %ymm3,%ymm4,%ymm2
  40b8ce:	c5 85 ef c9          	vpxor  %ymm1,%ymm15,%ymm1
  40b8d2:	c5 25 ef da          	vpxor  %ymm2,%ymm11,%ymm11
  40b8d6:	c5 ed db d1          	vpand  %ymm1,%ymm2,%ymm2
  40b8da:	c5 dd ef e1          	vpxor  %ymm1,%ymm4,%ymm4
  40b8de:	c5 25 ef 8e c0 89 00 	vpxor  0x89c0(%rsi),%ymm11,%ymm9
  40b8e5:	00 
  40b8e6:	c5 9d ef d2          	vpxor  %ymm2,%ymm12,%ymm2
  40b8ea:	c4 41 25 eb e4       	vpor   %ymm12,%ymm11,%ymm12
  40b8ef:	c5 dd ef 9e a0 8b 00 	vpxor  0x8ba0(%rsi),%ymm4,%ymm3
  40b8f6:	00 
  40b8f7:	c5 7e 7f 8c 24 e0 0d 	vmovdqu %ymm9,0xde0(%rsp)
  40b8fe:	00 00 
  40b900:	c4 41 75 ef fc       	vpxor  %ymm12,%ymm1,%ymm15
  40b905:	c5 6d ef 9e 20 8e 00 	vpxor  0x8e20(%rsi),%ymm2,%ymm11
  40b90c:	00 
  40b90d:	c5 fe 7f 9c 24 c0 0d 	vmovdqu %ymm3,0xdc0(%rsp)
  40b914:	00 00 
  40b916:	c5 7e 6f 64 24 20    	vmovdqu 0x20(%rsp),%ymm12
  40b91c:	c5 fe 6f 94 24 60 0c 	vmovdqu 0xc60(%rsp),%ymm2
  40b923:	00 00 
  40b925:	c5 fe 6f 9c 24 60 07 	vmovdqu 0x760(%rsp),%ymm3
  40b92c:	00 00 
  40b92e:	c5 85 ef a6 40 8c 00 	vpxor  0x8c40(%rsi),%ymm15,%ymm4
  40b935:	00 
  40b936:	c4 c1 7d ef cc       	vpxor  %ymm12,%ymm0,%ymm1
  40b93b:	c5 1d ef e2          	vpxor  %ymm2,%ymm12,%ymm12
  40b93f:	c5 6d ef fb          	vpxor  %ymm3,%ymm2,%ymm15
  40b943:	c5 65 eb c9          	vpor   %ymm1,%ymm3,%ymm9
  40b947:	c5 fe 6f 9c 24 20 09 	vmovdqu 0x920(%rsp),%ymm3
  40b94e:	00 00 
  40b950:	c5 e5 db c9          	vpand  %ymm1,%ymm3,%ymm1
  40b954:	c4 41 65 ef c9       	vpxor  %ymm9,%ymm3,%ymm9
  40b959:	c4 c1 75 ef cf       	vpxor  %ymm15,%ymm1,%ymm1
  40b95e:	c4 c1 6d ef d1       	vpxor  %ymm9,%ymm2,%ymm2
  40b963:	c4 41 05 db f9       	vpand  %ymm9,%ymm15,%ymm15
  40b968:	c5 ed ef 9e c0 8b 00 	vpxor  0x8bc0(%rsi),%ymm2,%ymm3
  40b96f:	00 
  40b970:	c4 c1 75 eb d4       	vpor   %ymm12,%ymm1,%ymm2
  40b975:	c5 f5 ef 8e e0 89 00 	vpxor  0x89e0(%rsi),%ymm1,%ymm1
  40b97c:	00 
  40b97d:	c5 fe 7f 9c 24 00 0e 	vmovdqu %ymm3,0xe00(%rsp)
  40b984:	00 00 
  40b986:	c4 c1 1d ef df       	vpxor  %ymm15,%ymm12,%ymm3
  40b98b:	c5 35 ef ca          	vpxor  %ymm2,%ymm9,%ymm9
  40b98f:	c5 fe 7f 8c 24 20 0e 	vmovdqu %ymm1,0xe20(%rsp)
  40b996:	00 00 
  40b998:	c5 fe 6f 8c 24 40 0b 	vmovdqu 0xb40(%rsp),%ymm1
  40b99f:	00 00 
  40b9a1:	c5 7e 6f bc 24 40 09 	vmovdqu 0x940(%rsp),%ymm15
  40b9a8:	00 00 
  40b9aa:	c5 65 ef a6 40 8e 00 	vpxor  0x8e40(%rsi),%ymm3,%ymm12
  40b9b1:	00 
  40b9b2:	c5 35 ef 8e 60 8c 00 	vpxor  0x8c60(%rsi),%ymm9,%ymm9
  40b9b9:	00 
  40b9ba:	c5 fd ef d1          	vpxor  %ymm1,%ymm0,%ymm2
  40b9be:	c4 c1 75 ef dd       	vpxor  %ymm13,%ymm1,%ymm3
  40b9c3:	c4 c1 15 ef ce       	vpxor  %ymm14,%ymm13,%ymm1
  40b9c8:	c5 0d eb f2          	vpor   %ymm2,%ymm14,%ymm14
  40b9cc:	c5 85 db d2          	vpand  %ymm2,%ymm15,%ymm2
  40b9d0:	c4 41 05 ef f6       	vpxor  %ymm14,%ymm15,%ymm14
  40b9d5:	c5 6d ef f9          	vpxor  %ymm1,%ymm2,%ymm15
  40b9d9:	c4 41 15 ef ee       	vpxor  %ymm14,%ymm13,%ymm13
  40b9de:	c4 c1 75 db ce       	vpand  %ymm14,%ymm1,%ymm1
  40b9e3:	c5 95 ef 96 e0 93 00 	vpxor  0x93e0(%rsi),%ymm13,%ymm2
  40b9ea:	00 
  40b9eb:	c5 65 ef e9          	vpxor  %ymm1,%ymm3,%ymm13
  40b9ef:	c5 85 eb db          	vpor   %ymm3,%ymm15,%ymm3
  40b9f3:	c5 fe 7f 14 24       	vmovdqu %ymm2,(%rsp)
  40b9f8:	c5 95 ef 96 60 96 00 	vpxor  0x9660(%rsi),%ymm13,%ymm2
  40b9ff:	00 
  40ba00:	c5 0d ef f3          	vpxor  %ymm3,%ymm14,%ymm14
  40ba04:	c5 85 ef 9e 00 90 00 	vpxor  0x9000(%rsi),%ymm15,%ymm3
  40ba0b:	00 
  40ba0c:	c5 7e 6f ac 24 60 0b 	vmovdqu 0xb60(%rsp),%ymm13
  40ba13:	00 00 
  40ba15:	c5 fe 7f 54 24 60    	vmovdqu %ymm2,0x60(%rsp)
  40ba1b:	c5 8d ef 8e 80 94 00 	vpxor  0x9480(%rsi),%ymm14,%ymm1
  40ba22:	00 
  40ba23:	c4 c1 7d ef d5       	vpxor  %ymm13,%ymm0,%ymm2
  40ba28:	c5 fe 7f 8c 24 c0 05 	vmovdqu %ymm1,0x5c0(%rsp)
  40ba2f:	00 00 
  40ba31:	c4 c1 15 ef ca       	vpxor  %ymm10,%ymm13,%ymm1
  40ba36:	c4 41 2d ef eb       	vpxor  %ymm11,%ymm10,%ymm13
  40ba3b:	c5 25 eb f2          	vpor   %ymm2,%ymm11,%ymm14
  40ba3f:	c5 7e 6f 9c 24 80 09 	vmovdqu 0x980(%rsp),%ymm11
  40ba46:	00 00 
  40ba48:	c5 a5 db d2          	vpand  %ymm2,%ymm11,%ymm2
  40ba4c:	c4 41 25 ef f6       	vpxor  %ymm14,%ymm11,%ymm14
  40ba51:	c4 41 6d ef fd       	vpxor  %ymm13,%ymm2,%ymm15
  40ba56:	c4 c1 15 db d6       	vpand  %ymm14,%ymm13,%ymm2
  40ba5b:	c4 41 2d ef d6       	vpxor  %ymm14,%ymm10,%ymm10
  40ba60:	c5 05 ef ae 20 90 00 	vpxor  0x9020(%rsi),%ymm15,%ymm13
  40ba67:	00 
  40ba68:	c5 f5 ef d2          	vpxor  %ymm2,%ymm1,%ymm2
  40ba6c:	c5 85 eb c9          	vpor   %ymm1,%ymm15,%ymm1
  40ba70:	c5 2d ef 9e 00 92 00 	vpxor  0x9200(%rsi),%ymm10,%ymm11
  40ba77:	00 
  40ba78:	c5 6d ef be 80 96 00 	vpxor  0x9680(%rsi),%ymm2,%ymm15
  40ba7f:	00 
  40ba80:	c5 0d ef d1          	vpxor  %ymm1,%ymm14,%ymm10
  40ba84:	c5 fe 6f 8c 24 80 0b 	vmovdqu 0xb80(%rsp),%ymm1
  40ba8b:	00 00 
  40ba8d:	c5 7e 7f bc 24 80 00 	vmovdqu %ymm15,0x80(%rsp)
  40ba94:	00 00 
  40ba96:	c5 2d ef b6 a0 94 00 	vpxor  0x94a0(%rsi),%ymm10,%ymm14
  40ba9d:	00 
  40ba9e:	c5 7d ef d1          	vpxor  %ymm1,%ymm0,%ymm10
  40baa2:	c4 41 5d ef fc       	vpxor  %ymm12,%ymm4,%ymm15
  40baa7:	c5 f5 ef cc          	vpxor  %ymm4,%ymm1,%ymm1
  40baab:	c5 7e 7f b4 24 e0 05 	vmovdqu %ymm14,0x5e0(%rsp)
  40bab2:	00 00 
  40bab4:	c4 c1 1d eb d2       	vpor   %ymm10,%ymm12,%ymm2
  40bab9:	c5 7e 6f a4 24 a0 09 	vmovdqu 0x9a0(%rsp),%ymm12
  40bac0:	00 00 
  40bac2:	c4 41 1d db d2       	vpand  %ymm10,%ymm12,%ymm10
  40bac7:	c5 1d ef e2          	vpxor  %ymm2,%ymm12,%ymm12
  40bacb:	c4 c1 2d ef d7       	vpxor  %ymm15,%ymm10,%ymm2
  40bad0:	c4 c1 5d ef e4       	vpxor  %ymm12,%ymm4,%ymm4
  40bad5:	c5 5d ef 96 20 92 00 	vpxor  0x9220(%rsi),%ymm4,%ymm10
  40badc:	00 
  40badd:	c4 c1 05 db e4       	vpand  %ymm12,%ymm15,%ymm4
  40bae2:	c5 75 ef f4          	vpxor  %ymm4,%ymm1,%ymm14
  40bae6:	c5 ed eb c9          	vpor   %ymm1,%ymm2,%ymm1
  40baea:	c5 ed ef 96 40 90 00 	vpxor  0x9040(%rsi),%ymm2,%ymm2
  40baf1:	00 
  40baf2:	c5 0d ef b6 a0 96 00 	vpxor  0x96a0(%rsi),%ymm14,%ymm14
  40baf9:	00 
  40bafa:	c5 1d ef e1          	vpxor  %ymm1,%ymm12,%ymm12
  40bafe:	c5 fe 6f 8c 24 a0 0b 	vmovdqu 0xba0(%rsp),%ymm1
  40bb05:	00 00 
  40bb07:	c5 fe 7f 94 24 a0 02 	vmovdqu %ymm2,0x2a0(%rsp)
  40bb0e:	00 00 
  40bb10:	c5 7e 7f b4 24 c0 01 	vmovdqu %ymm14,0x1c0(%rsp)
  40bb17:	00 00 
  40bb19:	c5 7e 6f b4 24 80 07 	vmovdqu 0x780(%rsp),%ymm14
  40bb20:	00 00 
  40bb22:	c5 1d ef be c0 94 00 	vpxor  0x94c0(%rsi),%ymm12,%ymm15
  40bb29:	00 
  40bb2a:	c5 fd ef d1          	vpxor  %ymm1,%ymm0,%ymm2
  40bb2e:	c4 c1 75 ef e1       	vpxor  %ymm9,%ymm1,%ymm4
  40bb33:	c4 41 35 ef e6       	vpxor  %ymm14,%ymm9,%ymm12
  40bb38:	c5 7e 7f bc 24 00 06 	vmovdqu %ymm15,0x600(%rsp)
  40bb3f:	00 00 
  40bb41:	c5 7e 6f bc 24 c0 09 	vmovdqu 0x9c0(%rsp),%ymm15
  40bb48:	00 00 
  40bb4a:	c5 8d eb ca          	vpor   %ymm2,%ymm14,%ymm1
  40bb4e:	c5 85 db d2          	vpand  %ymm2,%ymm15,%ymm2
  40bb52:	c5 85 ef c9          	vpxor  %ymm1,%ymm15,%ymm1
  40bb56:	c4 41 6d ef fc       	vpxor  %ymm12,%ymm2,%ymm15
  40bb5b:	c5 1d db e1          	vpand  %ymm1,%ymm12,%ymm12
  40bb5f:	c5 35 ef c9          	vpxor  %ymm1,%ymm9,%ymm9
  40bb63:	c4 41 5d ef f4       	vpxor  %ymm12,%ymm4,%ymm14
  40bb68:	c5 85 eb e4          	vpor   %ymm4,%ymm15,%ymm4
  40bb6c:	c5 b5 ef 96 40 92 00 	vpxor  0x9240(%rsi),%ymm9,%ymm2
  40bb73:	00 
  40bb74:	c5 0d ef b6 c0 96 00 	vpxor  0x96c0(%rsi),%ymm14,%ymm14
  40bb7b:	00 
  40bb7c:	c5 75 ef cc          	vpxor  %ymm4,%ymm1,%ymm9
  40bb80:	c5 85 ef 8e 60 90 00 	vpxor  0x9060(%rsi),%ymm15,%ymm1
  40bb87:	00 
  40bb88:	c5 fe 6f a4 24 20 0c 	vmovdqu 0xc20(%rsp),%ymm4
  40bb8f:	00 00 
  40bb91:	c5 7e 7f b4 24 e0 01 	vmovdqu %ymm14,0x1e0(%rsp)
  40bb98:	00 00 
  40bb9a:	c5 7e 6f b4 24 a0 07 	vmovdqu 0x7a0(%rsp),%ymm14
  40bba1:	00 00 
  40bba3:	c5 fe 7f 8c 24 c0 02 	vmovdqu %ymm1,0x2c0(%rsp)
  40bbaa:	00 00 
  40bbac:	c5 fe 6f 8c 24 c0 0b 	vmovdqu 0xbc0(%rsp),%ymm1
  40bbb3:	00 00 
  40bbb5:	c5 fe 7f 94 24 80 04 	vmovdqu %ymm2,0x480(%rsp)
  40bbbc:	00 00 
  40bbbe:	c5 35 ef be e0 94 00 	vpxor  0x94e0(%rsi),%ymm9,%ymm15
  40bbc5:	00 
  40bbc6:	c4 41 5d ef e6       	vpxor  %ymm14,%ymm4,%ymm12
  40bbcb:	c5 fd ef d1          	vpxor  %ymm1,%ymm0,%ymm2
  40bbcf:	c5 75 ef cc          	vpxor  %ymm4,%ymm1,%ymm9
  40bbd3:	c5 7e 7f bc 24 60 05 	vmovdqu %ymm15,0x560(%rsp)
  40bbda:	00 00 
  40bbdc:	c5 7e 6f bc 24 e0 09 	vmovdqu 0x9e0(%rsp),%ymm15
  40bbe3:	00 00 
  40bbe5:	c5 8d eb ca          	vpor   %ymm2,%ymm14,%ymm1
  40bbe9:	c5 85 db d2          	vpand  %ymm2,%ymm15,%ymm2
  40bbed:	c5 85 ef c9          	vpxor  %ymm1,%ymm15,%ymm1
  40bbf1:	c4 41 6d ef fc       	vpxor  %ymm12,%ymm2,%ymm15
  40bbf6:	c5 dd ef e1          	vpxor  %ymm1,%ymm4,%ymm4
  40bbfa:	c5 1d db e1          	vpand  %ymm1,%ymm12,%ymm12
  40bbfe:	c5 dd ef 96 60 92 00 	vpxor  0x9260(%rsi),%ymm4,%ymm2
  40bc05:	00 
  40bc06:	c4 41 35 ef f4       	vpxor  %ymm12,%ymm9,%ymm14
  40bc0b:	c4 41 05 eb c9       	vpor   %ymm9,%ymm15,%ymm9
  40bc10:	c5 fe 7f 94 24 a0 04 	vmovdqu %ymm2,0x4a0(%rsp)
  40bc17:	00 00 
  40bc19:	c4 c1 75 ef d1       	vpxor  %ymm9,%ymm1,%ymm2
  40bc1e:	c5 8d ef a6 e0 96 00 	vpxor  0x96e0(%rsi),%ymm14,%ymm4
  40bc25:	00 
  40bc26:	c5 85 ef 8e 80 90 00 	vpxor  0x9080(%rsi),%ymm15,%ymm1
  40bc2d:	00 
  40bc2e:	c5 7e 6f 8c 24 e0 0b 	vmovdqu 0xbe0(%rsp),%ymm9
  40bc35:	00 00 
  40bc37:	c5 7e 6f b4 24 c0 07 	vmovdqu 0x7c0(%rsp),%ymm14
  40bc3e:	00 00 
  40bc40:	c5 7e 6f bc 24 00 0a 	vmovdqu 0xa00(%rsp),%ymm15
  40bc47:	00 00 
  40bc49:	c5 fe 7f 8c 24 e0 02 	vmovdqu %ymm1,0x2e0(%rsp)
  40bc50:	00 00 
  40bc52:	c5 fe 7f a4 24 a0 00 	vmovdqu %ymm4,0xa0(%rsp)
  40bc59:	00 00 
  40bc5b:	c5 fe 6f a4 24 a0 0c 	vmovdqu 0xca0(%rsp),%ymm4
  40bc62:	00 00 
  40bc64:	c5 6d ef a6 00 95 00 	vpxor  0x9500(%rsi),%ymm2,%ymm12
  40bc6b:	00 
  40bc6c:	c4 c1 7d ef d1       	vpxor  %ymm9,%ymm0,%ymm2
  40bc71:	c5 35 ef cc          	vpxor  %ymm4,%ymm9,%ymm9
  40bc75:	c5 7e 7f a4 24 80 05 	vmovdqu %ymm12,0x580(%rsp)
  40bc7c:	00 00 
  40bc7e:	c5 8d eb ca          	vpor   %ymm2,%ymm14,%ymm1
  40bc82:	c4 41 5d ef e6       	vpxor  %ymm14,%ymm4,%ymm12
  40bc87:	c5 85 db d2          	vpand  %ymm2,%ymm15,%ymm2
  40bc8b:	c5 85 ef c9          	vpxor  %ymm1,%ymm15,%ymm1
  40bc8f:	c4 41 6d ef fc       	vpxor  %ymm12,%ymm2,%ymm15
  40bc94:	c5 dd ef e1          	vpxor  %ymm1,%ymm4,%ymm4
  40bc98:	c5 1d db e1          	vpand  %ymm1,%ymm12,%ymm12
  40bc9c:	c5 5d ef b6 80 92 00 	vpxor  0x9280(%rsi),%ymm4,%ymm14
  40bca3:	00 
  40bca4:	c5 fe 6f a4 24 20 0d 	vmovdqu 0xd20(%rsp),%ymm4
  40bcab:	00 00 
  40bcad:	c5 7e 7f b4 24 c0 04 	vmovdqu %ymm14,0x4c0(%rsp)
  40bcb4:	00 00 
  40bcb6:	c4 41 35 ef f4       	vpxor  %ymm12,%ymm9,%ymm14
  40bcbb:	c4 41 05 eb c9       	vpor   %ymm9,%ymm15,%ymm9
  40bcc0:	c5 05 ef be a0 90 00 	vpxor  0x90a0(%rsi),%ymm15,%ymm15
  40bcc7:	00 
  40bcc8:	c5 0d ef a6 00 97 00 	vpxor  0x9700(%rsi),%ymm14,%ymm12
  40bccf:	00 
  40bcd0:	c4 c1 75 ef c9       	vpxor  %ymm9,%ymm1,%ymm1
  40bcd5:	c5 7e 6f 8c 24 00 0c 	vmovdqu 0xc00(%rsp),%ymm9
  40bcdc:	00 00 
  40bcde:	c5 7e 6f b4 24 e0 07 	vmovdqu 0x7e0(%rsp),%ymm14
  40bce5:	00 00 
  40bce7:	c5 7e 7f bc 24 00 03 	vmovdqu %ymm15,0x300(%rsp)
  40bcee:	00 00 
  40bcf0:	c5 7e 6f bc 24 20 0a 	vmovdqu 0xa20(%rsp),%ymm15
  40bcf7:	00 00 
  40bcf9:	c5 7e 7f a4 24 c0 00 	vmovdqu %ymm12,0xc0(%rsp)
  40bd00:	00 00 
  40bd02:	c5 f5 ef 96 20 95 00 	vpxor  0x9520(%rsi),%ymm1,%ymm2
  40bd09:	00 
  40bd0a:	c4 c1 7d ef c9       	vpxor  %ymm9,%ymm0,%ymm1
  40bd0f:	c5 35 ef cc          	vpxor  %ymm4,%ymm9,%ymm9
  40bd13:	c5 fe 7f 94 24 20 06 	vmovdqu %ymm2,0x620(%rsp)
  40bd1a:	00 00 
  40bd1c:	c5 0d eb e1          	vpor   %ymm1,%ymm14,%ymm12
  40bd20:	c4 c1 5d ef d6       	vpxor  %ymm14,%ymm4,%ymm2
  40bd25:	c5 85 db c9          	vpand  %ymm1,%ymm15,%ymm1
  40bd29:	c4 41 05 ef e4       	vpxor  %ymm12,%ymm15,%ymm12
  40bd2e:	c5 7e 6f bc 24 40 0c 	vmovdqu 0xc40(%rsp),%ymm15
  40bd35:	00 00 
  40bd37:	c5 f5 ef ca          	vpxor  %ymm2,%ymm1,%ymm1
  40bd3b:	c4 c1 6d db d4       	vpand  %ymm12,%ymm2,%ymm2
  40bd40:	c4 c1 5d ef e4       	vpxor  %ymm12,%ymm4,%ymm4
  40bd45:	c5 b5 ef d2          	vpxor  %ymm2,%ymm9,%ymm2
  40bd49:	c4 41 75 eb c9       	vpor   %ymm9,%ymm1,%ymm9
  40bd4e:	c5 dd ef a6 a0 92 00 	vpxor  0x92a0(%rsi),%ymm4,%ymm4
  40bd55:	00 
  40bd56:	c5 f5 ef 8e c0 90 00 	vpxor  0x90c0(%rsi),%ymm1,%ymm1
  40bd5d:	00 
  40bd5e:	c5 6d ef b6 20 97 00 	vpxor  0x9720(%rsi),%ymm2,%ymm14
  40bd65:	00 
  40bd66:	c4 41 1d ef e1       	vpxor  %ymm9,%ymm12,%ymm12
  40bd6b:	c4 41 05 ef c8       	vpxor  %ymm8,%ymm15,%ymm9
  40bd70:	c5 fe 6f 94 24 00 08 	vmovdqu 0x800(%rsp),%ymm2
  40bd77:	00 00 
  40bd79:	c5 fe 7f a4 24 e0 04 	vmovdqu %ymm4,0x4e0(%rsp)
  40bd80:	00 00 
  40bd82:	c5 fe 7f 8c 24 20 03 	vmovdqu %ymm1,0x320(%rsp)
  40bd89:	00 00 
  40bd8b:	c5 7e 7f b4 24 e0 00 	vmovdqu %ymm14,0xe0(%rsp)
  40bd92:	00 00 
  40bd94:	c4 c1 7d ef e7       	vpxor  %ymm15,%ymm0,%ymm4
  40bd99:	c5 9d ef 8e 40 95 00 	vpxor  0x9540(%rsi),%ymm12,%ymm1
  40bda0:	00 
  40bda1:	c5 3d ef fa          	vpxor  %ymm2,%ymm8,%ymm15
  40bda5:	c5 7e 6f a4 24 40 0a 	vmovdqu 0xa40(%rsp),%ymm12
  40bdac:	00 00 
  40bdae:	c5 6d eb f4          	vpor   %ymm4,%ymm2,%ymm14
  40bdb2:	c5 9d db e4          	vpand  %ymm4,%ymm12,%ymm4
  40bdb6:	c4 41 1d ef e6       	vpxor  %ymm14,%ymm12,%ymm12
  40bdbb:	c4 c1 5d ef d7       	vpxor  %ymm15,%ymm4,%ymm2
  40bdc0:	c4 c1 05 db e4       	vpand  %ymm12,%ymm15,%ymm4
  40bdc5:	c4 41 3d ef c4       	vpxor  %ymm12,%ymm8,%ymm8
  40bdca:	c5 35 ef f4          	vpxor  %ymm4,%ymm9,%ymm14
  40bdce:	c4 41 6d eb c9       	vpor   %ymm9,%ymm2,%ymm9
  40bdd3:	c5 ed ef 96 e0 90 00 	vpxor  0x90e0(%rsi),%ymm2,%ymm2
  40bdda:	00 
  40bddb:	c5 3d ef 86 c0 92 00 	vpxor  0x92c0(%rsi),%ymm8,%ymm8
  40bde2:	00 
  40bde3:	c5 0d ef b6 40 97 00 	vpxor  0x9740(%rsi),%ymm14,%ymm14
  40bdea:	00 
  40bdeb:	c4 41 1d ef e1       	vpxor  %ymm9,%ymm12,%ymm12
  40bdf0:	c5 fe 7f 94 24 40 03 	vmovdqu %ymm2,0x340(%rsp)
  40bdf7:	00 00 
  40bdf9:	c5 fe 6f 94 24 00 0d 	vmovdqu 0xd00(%rsp),%ymm2
  40be00:	00 00 
  40be02:	c5 7e 7f 84 24 00 05 	vmovdqu %ymm8,0x500(%rsp)
  40be09:	00 00 
  40be0b:	c5 7e 6f 84 24 20 08 	vmovdqu 0x820(%rsp),%ymm8
  40be12:	00 00 
  40be14:	c5 7e 7f b4 24 00 01 	vmovdqu %ymm14,0x100(%rsp)
  40be1b:	00 00 
  40be1d:	c5 7e 6f b4 24 60 0a 	vmovdqu 0xa60(%rsp),%ymm14
  40be24:	00 00 
  40be26:	c5 1d ef be 60 95 00 	vpxor  0x9560(%rsi),%ymm12,%ymm15
  40be2d:	00 
  40be2e:	c5 7d ef e2          	vpxor  %ymm2,%ymm0,%ymm12
  40be32:	c5 6d ef cd          	vpxor  %ymm5,%ymm2,%ymm9
  40be36:	c4 c1 55 ef e0       	vpxor  %ymm8,%ymm5,%ymm4
  40be3b:	c5 7e 7f bc 24 40 0e 	vmovdqu %ymm15,0xe40(%rsp)
  40be42:	00 00 
  40be44:	c4 41 3d eb fc       	vpor   %ymm12,%ymm8,%ymm15
  40be49:	c4 c1 0d db d4       	vpand  %ymm12,%ymm14,%ymm2
  40be4e:	c4 41 0d ef e7       	vpxor  %ymm15,%ymm14,%ymm12
  40be53:	c5 6d ef c4          	vpxor  %ymm4,%ymm2,%ymm8
  40be57:	c4 c1 55 ef ec       	vpxor  %ymm12,%ymm5,%ymm5
  40be5c:	c4 c1 5d db e4       	vpand  %ymm12,%ymm4,%ymm4
  40be61:	c5 d5 ef 96 e0 92 00 	vpxor  0x92e0(%rsi),%ymm5,%ymm2
  40be68:	00 
  40be69:	c4 c1 3d eb e9       	vpor   %ymm9,%ymm8,%ymm5
  40be6e:	c5 3d ef 86 00 91 00 	vpxor  0x9100(%rsi),%ymm8,%ymm8
  40be75:	00 
  40be76:	c5 35 ef f4          	vpxor  %ymm4,%ymm9,%ymm14
  40be7a:	c5 fe 7f 94 24 20 05 	vmovdqu %ymm2,0x520(%rsp)
  40be81:	00 00 
  40be83:	c5 fe 6f 94 24 c0 0c 	vmovdqu 0xcc0(%rsp),%ymm2
  40be8a:	00 00 
  40be8c:	c5 7e 7f 84 24 60 03 	vmovdqu %ymm8,0x360(%rsp)
  40be93:	00 00 
  40be95:	c5 7e 6f 84 24 a0 0d 	vmovdqu 0xda0(%rsp),%ymm8
  40be9c:	00 00 
  40be9e:	c5 1d ef e5          	vpxor  %ymm5,%ymm12,%ymm12
  40bea2:	c5 0d ef be 60 97 00 	vpxor  0x9760(%rsi),%ymm14,%ymm15
  40bea9:	00 
  40beaa:	c5 fe 6f ac 24 80 0a 	vmovdqu 0xa80(%rsp),%ymm5
  40beb1:	00 00 
  40beb3:	c5 1d ef 8e 80 95 00 	vpxor  0x9580(%rsi),%ymm12,%ymm9
  40beba:	00 
  40bebb:	c4 c1 7d ef e0       	vpxor  %ymm8,%ymm0,%ymm4
  40bec0:	c5 7e 6f a4 24 60 08 	vmovdqu 0x860(%rsp),%ymm12
  40bec7:	00 00 
  40bec9:	c5 7e 7f bc 24 20 01 	vmovdqu %ymm15,0x120(%rsp)
  40bed0:	00 00 
  40bed2:	c5 7e 7f 8c 24 60 0e 	vmovdqu %ymm9,0xe60(%rsp)
  40bed9:	00 00 
  40bedb:	c5 3d ef fa          	vpxor  %ymm2,%ymm8,%ymm15
  40bedf:	c4 41 6d ef f4       	vpxor  %ymm12,%ymm2,%ymm14
  40bee4:	c5 1d eb cc          	vpor   %ymm4,%ymm12,%ymm9
  40bee8:	c5 55 db c4          	vpand  %ymm4,%ymm5,%ymm8
  40beec:	c4 41 55 ef c9       	vpxor  %ymm9,%ymm5,%ymm9
  40bef1:	c4 c1 3d ef ee       	vpxor  %ymm14,%ymm8,%ymm5
  40bef6:	c4 c1 6d ef d1       	vpxor  %ymm9,%ymm2,%ymm2
  40befb:	c4 41 55 eb e7       	vpor   %ymm15,%ymm5,%ymm12
  40bf00:	c4 41 0d db c1       	vpand  %ymm9,%ymm14,%ymm8
  40bf05:	c5 55 ef b6 20 91 00 	vpxor  0x9120(%rsi),%ymm5,%ymm14
  40bf0c:	00 
  40bf0d:	c5 ed ef 96 00 93 00 	vpxor  0x9300(%rsi),%ymm2,%ymm2
  40bf14:	00 
  40bf15:	c4 c1 35 ef e4       	vpxor  %ymm12,%ymm9,%ymm4
  40bf1a:	c5 7e 6f a4 24 60 0d 	vmovdqu 0xd60(%rsp),%ymm12
  40bf21:	00 00 
  40bf23:	c5 fe 6f ac 24 a0 08 	vmovdqu 0x8a0(%rsp),%ymm5
  40bf2a:	00 00 
  40bf2c:	c5 fe 7f 94 24 40 05 	vmovdqu %ymm2,0x540(%rsp)
  40bf33:	00 00 
  40bf35:	c5 7e 7f b4 24 80 03 	vmovdqu %ymm14,0x380(%rsp)
  40bf3c:	00 00 
  40bf3e:	c5 7e 6f b4 24 a0 0a 	vmovdqu 0xaa0(%rsp),%ymm14
  40bf45:	00 00 
  40bf47:	c4 c1 05 ef d0       	vpxor  %ymm8,%ymm15,%ymm2
  40bf4c:	c4 41 7d ef cc       	vpxor  %ymm12,%ymm0,%ymm9
  40bf51:	c5 5d ef be a0 95 00 	vpxor  0x95a0(%rsi),%ymm4,%ymm15
  40bf58:	00 
  40bf59:	c5 fe 6f a4 24 e0 0c 	vmovdqu 0xce0(%rsp),%ymm4
  40bf60:	00 00 
  40bf62:	c5 6d ef 86 80 97 00 	vpxor  0x9780(%rsi),%ymm2,%ymm8
  40bf69:	00 
  40bf6a:	c5 7e 7f bc 24 80 0e 	vmovdqu %ymm15,0xe80(%rsp)
  40bf71:	00 00 
  40bf73:	c4 41 55 eb f9       	vpor   %ymm9,%ymm5,%ymm15
  40bf78:	c5 1d ef e4          	vpxor  %ymm4,%ymm12,%ymm12
  40bf7c:	c5 7e 7f 84 24 40 01 	vmovdqu %ymm8,0x140(%rsp)
  40bf83:	00 00 
  40bf85:	c5 5d ef c5          	vpxor  %ymm5,%ymm4,%ymm8
  40bf89:	c4 c1 0d db e9       	vpand  %ymm9,%ymm14,%ymm5
  40bf8e:	c4 c1 0d ef d7       	vpxor  %ymm15,%ymm14,%ymm2
  40bf93:	c4 41 55 ef f8       	vpxor  %ymm8,%ymm5,%ymm15
  40bf98:	c5 3d db c2          	vpand  %ymm2,%ymm8,%ymm8
  40bf9c:	c5 dd ef e2          	vpxor  %ymm2,%ymm4,%ymm4
  40bfa0:	c4 41 1d ef c0       	vpxor  %ymm8,%ymm12,%ymm8
  40bfa5:	c4 41 05 eb e4       	vpor   %ymm12,%ymm15,%ymm12
  40bfaa:	c5 5d ef 8e 20 93 00 	vpxor  0x9320(%rsi),%ymm4,%ymm9
  40bfb1:	00 
  40bfb2:	c5 bd ef ae a0 97 00 	vpxor  0x97a0(%rsi),%ymm8,%ymm5
  40bfb9:	00 
  40bfba:	c4 41 6d ef f4       	vpxor  %ymm12,%ymm2,%ymm14
  40bfbf:	c5 85 ef 96 40 91 00 	vpxor  0x9140(%rsi),%ymm15,%ymm2
  40bfc6:	00 
  40bfc7:	c5 7e 6f bc 24 80 0d 	vmovdqu 0xd80(%rsp),%ymm15
  40bfce:	00 00 
  40bfd0:	c5 7e 6f a4 24 c0 0a 	vmovdqu 0xac0(%rsp),%ymm12
  40bfd7:	00 00 
  40bfd9:	c5 7e 7f 8c 24 a0 05 	vmovdqu %ymm9,0x5a0(%rsp)
  40bfe0:	00 00 
  40bfe2:	c5 fe 7f 94 24 a0 03 	vmovdqu %ymm2,0x3a0(%rsp)
  40bfe9:	00 00 
  40bfeb:	c5 fe 6f 94 24 c0 08 	vmovdqu 0x8c0(%rsp),%ymm2
  40bff2:	00 00 
  40bff4:	c5 fe 7f ac 24 60 01 	vmovdqu %ymm5,0x160(%rsp)
  40bffb:	00 00 
  40bffd:	c5 8d ef a6 c0 95 00 	vpxor  0x95c0(%rsi),%ymm14,%ymm4
  40c004:	00 
  40c005:	c4 41 7d ef c7       	vpxor  %ymm15,%ymm0,%ymm8
  40c00a:	c5 05 ef f6          	vpxor  %ymm6,%ymm15,%ymm14
  40c00e:	c5 4d ef ca          	vpxor  %ymm2,%ymm6,%ymm9
  40c012:	c5 fe 7f a4 24 a0 0e 	vmovdqu %ymm4,0xea0(%rsp)
  40c019:	00 00 
  40c01b:	c4 c1 6d eb e0       	vpor   %ymm8,%ymm2,%ymm4
  40c020:	c4 41 1d db f8       	vpand  %ymm8,%ymm12,%ymm15
  40c025:	c5 9d ef ec          	vpxor  %ymm4,%ymm12,%ymm5
  40c029:	c4 c1 05 ef e1       	vpxor  %ymm9,%ymm15,%ymm4
  40c02e:	c5 7e 6f bc 24 40 0d 	vmovdqu 0xd40(%rsp),%ymm15
  40c035:	00 00 
  40c037:	c5 cd ef f5          	vpxor  %ymm5,%ymm6,%ymm6
  40c03b:	c4 41 5d eb e6       	vpor   %ymm14,%ymm4,%ymm12
  40c040:	c5 35 db c5          	vpand  %ymm5,%ymm9,%ymm8
  40c044:	c5 dd ef a6 60 91 00 	vpxor  0x9160(%rsi),%ymm4,%ymm4
  40c04b:	00 
  40c04c:	c5 cd ef 96 40 93 00 	vpxor  0x9340(%rsi),%ymm6,%ymm2
  40c053:	00 
  40c054:	c4 c1 55 ef f4       	vpxor  %ymm12,%ymm5,%ymm6
  40c059:	c4 41 0d ef c8       	vpxor  %ymm8,%ymm14,%ymm9
  40c05e:	c5 05 ef e7          	vpxor  %ymm7,%ymm15,%ymm12
  40c062:	c5 fe 7f 94 24 a0 06 	vmovdqu %ymm2,0x6a0(%rsp)
  40c069:	00 00 
  40c06b:	c5 fe 6f 94 24 e0 08 	vmovdqu 0x8e0(%rsp),%ymm2
  40c072:	00 00 
  40c074:	c5 fe 7f a4 24 c0 03 	vmovdqu %ymm4,0x3c0(%rsp)
  40c07b:	00 00 
  40c07d:	c5 cd ef ae e0 95 00 	vpxor  0x95e0(%rsi),%ymm6,%ymm5
  40c084:	00 
  40c085:	c4 c1 7d ef e7       	vpxor  %ymm15,%ymm0,%ymm4
  40c08a:	c5 45 ef c2          	vpxor  %ymm2,%ymm7,%ymm8
  40c08e:	c5 35 ef b6 c0 97 00 	vpxor  0x97c0(%rsi),%ymm9,%ymm14
  40c095:	00 
  40c096:	c5 fe 6f b4 24 e0 0a 	vmovdqu 0xae0(%rsp),%ymm6
  40c09d:	00 00 
  40c09f:	c5 fe 7f ac 24 40 06 	vmovdqu %ymm5,0x640(%rsp)
  40c0a6:	00 00 
  40c0a8:	c5 7e 6f bc 24 00 09 	vmovdqu 0x900(%rsp),%ymm15
  40c0af:	00 00 
  40c0b1:	c5 7e 7f b4 24 80 01 	vmovdqu %ymm14,0x180(%rsp)
  40c0b8:	00 00 
  40c0ba:	c5 ed eb ec          	vpor   %ymm4,%ymm2,%ymm5
  40c0be:	c5 4d db f4          	vpand  %ymm4,%ymm6,%ymm14
  40c0c2:	c5 4d ef cd          	vpxor  %ymm5,%ymm6,%ymm9
  40c0c6:	c4 c1 0d ef d0       	vpxor  %ymm8,%ymm14,%ymm2
  40c0cb:	c5 7e 6f b4 24 c0 0d 	vmovdqu 0xdc0(%rsp),%ymm14
  40c0d2:	00 00 
  40c0d4:	c4 41 3d db c1       	vpand  %ymm9,%ymm8,%ymm8
  40c0d9:	c4 c1 45 ef f9       	vpxor  %ymm9,%ymm7,%ymm7
  40c0de:	c4 c1 1d ef f0       	vpxor  %ymm8,%ymm12,%ymm6
  40c0e3:	c4 41 6d eb e4       	vpor   %ymm12,%ymm2,%ymm12
  40c0e8:	c5 c5 ef be 60 93 00 	vpxor  0x9360(%rsi),%ymm7,%ymm7
  40c0ef:	00 
  40c0f0:	c5 ed ef 96 80 91 00 	vpxor  0x9180(%rsi),%ymm2,%ymm2
  40c0f7:	00 
  40c0f8:	c5 cd ef ae e0 97 00 	vpxor  0x97e0(%rsi),%ymm6,%ymm5
  40c0ff:	00 
  40c100:	c4 c1 35 ef e4       	vpxor  %ymm12,%ymm9,%ymm4
  40c105:	c4 41 7d ef e6       	vpxor  %ymm14,%ymm0,%ymm12
  40c10a:	c5 7e 6f 84 24 c0 06 	vmovdqu 0x6c0(%rsp),%ymm8
  40c111:	00 00 
  40c113:	c5 fe 7f bc 24 80 06 	vmovdqu %ymm7,0x680(%rsp)
  40c11a:	00 00 
  40c11c:	c5 fe 7f 94 24 e0 03 	vmovdqu %ymm2,0x3e0(%rsp)
  40c123:	00 00 
  40c125:	c5 fe 7f ac 24 a0 01 	vmovdqu %ymm5,0x1a0(%rsp)
  40c12c:	00 00 
  40c12e:	c5 5d ef 8e 00 94 00 	vpxor  0x9400(%rsi),%ymm4,%ymm9
  40c135:	00 
  40c136:	c4 c1 05 eb f4       	vpor   %ymm12,%ymm15,%ymm6
  40c13b:	c4 c1 0d ef d0       	vpxor  %ymm8,%ymm14,%ymm2
  40c140:	c4 c1 3d ef ff       	vpxor  %ymm15,%ymm8,%ymm7
  40c145:	c5 fe 6f a4 24 00 0b 	vmovdqu 0xb00(%rsp),%ymm4
  40c14c:	00 00 
  40c14e:	c4 c1 5d db ec       	vpand  %ymm12,%ymm4,%ymm5
  40c153:	c5 5d ef f6          	vpxor  %ymm6,%ymm4,%ymm14
  40c157:	c5 fe 6f a4 24 00 0e 	vmovdqu 0xe00(%rsp),%ymm4
  40c15e:	00 00 
  40c160:	c5 55 ef e7          	vpxor  %ymm7,%ymm5,%ymm12
  40c164:	c4 41 3d ef c6       	vpxor  %ymm14,%ymm8,%ymm8
  40c169:	c4 c1 45 db fe       	vpand  %ymm14,%ymm7,%ymm7
  40c16e:	c5 fd ef f4          	vpxor  %ymm4,%ymm0,%ymm6
  40c172:	c5 3d ef be 80 93 00 	vpxor  0x9380(%rsi),%ymm8,%ymm15
  40c179:	00 
  40c17a:	c5 6d ef c7          	vpxor  %ymm7,%ymm2,%ymm8
  40c17e:	c5 9d eb d2          	vpor   %ymm2,%ymm12,%ymm2
  40c182:	c5 7e 7f bc 24 60 06 	vmovdqu %ymm15,0x660(%rsp)
  40c189:	00 00 
  40c18b:	c5 8d ef fa          	vpxor  %ymm2,%ymm14,%ymm7
  40c18f:	c5 1d ef b6 a0 91 00 	vpxor  0x91a0(%rsi),%ymm12,%ymm14
  40c196:	00 
  40c197:	c5 fe 6f 94 24 80 08 	vmovdqu 0x880(%rsp),%ymm2
  40c19e:	00 00 
  40c1a0:	c5 45 ef a6 20 94 00 	vpxor  0x9420(%rsi),%ymm7,%ymm12
  40c1a7:	00 
  40c1a8:	c5 fe 6f bc 24 e0 06 	vmovdqu 0x6e0(%rsp),%ymm7
  40c1af:	00 00 
  40c1b1:	c5 7e 7f b4 24 00 04 	vmovdqu %ymm14,0x400(%rsp)
  40c1b8:	00 00 
  40c1ba:	c5 3d ef b6 00 96 00 	vpxor  0x9600(%rsi),%ymm8,%ymm14
  40c1c1:	00 
  40c1c2:	c5 7e 6f 84 24 e0 0d 	vmovdqu 0xde0(%rsp),%ymm8
  40c1c9:	00 00 
  40c1cb:	c5 5d ef ff          	vpxor  %ymm7,%ymm4,%ymm15
  40c1cf:	c5 ed eb e6          	vpor   %ymm6,%ymm2,%ymm4
  40c1d3:	c5 c5 ef ea          	vpxor  %ymm2,%ymm7,%ymm5
  40c1d7:	c5 bd db f6          	vpand  %ymm6,%ymm8,%ymm6
  40c1db:	c5 bd ef e4          	vpxor  %ymm4,%ymm8,%ymm4
  40c1df:	c5 4d ef c5          	vpxor  %ymm5,%ymm6,%ymm8
  40c1e3:	c5 c5 ef fc          	vpxor  %ymm4,%ymm7,%ymm7
  40c1e7:	c5 d5 db ec          	vpand  %ymm4,%ymm5,%ymm5
  40c1eb:	c5 c5 ef 96 a0 93 00 	vpxor  0x93a0(%rsi),%ymm7,%ymm2
  40c1f2:	00 
  40c1f3:	c5 bd ef be c0 91 00 	vpxor  0x91c0(%rsi),%ymm8,%ymm7
  40c1fa:	00 
  40c1fb:	c5 fe 7f 94 24 60 04 	vmovdqu %ymm2,0x460(%rsp)
  40c202:	00 00 
  40c204:	c5 fe 7f bc 24 60 02 	vmovdqu %ymm7,0x260(%rsp)
  40c20b:	00 00 
  40c20d:	c5 85 ef d5          	vpxor  %ymm5,%ymm15,%ymm2
  40c211:	c4 41 3d eb ff       	vpor   %ymm15,%ymm8,%ymm15
  40c216:	c5 fe 6f ac 24 00 07 	vmovdqu 0x700(%rsp),%ymm5
  40c21d:	00 00 
  40c21f:	c4 c1 5d ef e7       	vpxor  %ymm15,%ymm4,%ymm4
  40c224:	c5 7e 6f bc 24 40 08 	vmovdqu 0x840(%rsp),%ymm15
  40c22b:	00 00 
  40c22d:	c5 5d ef 86 40 94 00 	vpxor  0x9440(%rsi),%ymm4,%ymm8
  40c234:	00 
  40c235:	c5 ed ef a6 20 96 00 	vpxor  0x9620(%rsi),%ymm2,%ymm4
  40c23c:	00 
  40c23d:	c4 c1 55 ef f7       	vpxor  %ymm15,%ymm5,%ymm6
  40c242:	c5 fe 6f 94 24 20 07 	vmovdqu 0x720(%rsp),%ymm2
  40c249:	00 00 
  40c24b:	c5 7e 7f 84 24 c0 0e 	vmovdqu %ymm8,0xec0(%rsp)
  40c252:	00 00 
  40c254:	c5 fd ef fa          	vpxor  %ymm2,%ymm0,%ymm7
  40c258:	c5 6d ef c5          	vpxor  %ymm5,%ymm2,%ymm8
  40c25c:	c5 85 eb d7          	vpor   %ymm7,%ymm15,%ymm2
  40c260:	c5 7e 6f bc 24 20 0e 	vmovdqu 0xe20(%rsp),%ymm15
  40c267:	00 00 
  40c269:	c5 85 ef d2          	vpxor  %ymm2,%ymm15,%ymm2
  40c26d:	c5 85 db ff          	vpand  %ymm7,%ymm15,%ymm7
  40c271:	c5 d5 ef ea          	vpxor  %ymm2,%ymm5,%ymm5
  40c275:	c5 45 ef fe          	vpxor  %ymm6,%ymm7,%ymm15
  40c279:	c5 cd db f2          	vpand  %ymm2,%ymm6,%ymm6
  40c27d:	c5 d5 ef be c0 93 00 	vpxor  0x93c0(%rsi),%ymm5,%ymm7
  40c284:	00 
  40c285:	c4 c1 35 ef ee       	vpxor  %ymm14,%ymm9,%ymm5
  40c28a:	c5 fe 7f bc 24 20 04 	vmovdqu %ymm7,0x420(%rsp)
  40c291:	00 00 
  40c293:	c5 bd ef fe          	vpxor  %ymm6,%ymm8,%ymm7
  40c297:	c4 41 05 eb c0       	vpor   %ymm8,%ymm15,%ymm8
  40c29c:	c5 c5 ef be 40 96 00 	vpxor  0x9640(%rsi),%ymm7,%ymm7
  40c2a3:	00 
  40c2a4:	c4 c1 6d ef f0       	vpxor  %ymm8,%ymm2,%ymm6
  40c2a9:	c5 85 ef 96 e0 91 00 	vpxor  0x91e0(%rsi),%ymm15,%ymm2
  40c2b0:	00 
  40c2b1:	c4 41 7d ef fb       	vpxor  %ymm11,%ymm0,%ymm15
  40c2b6:	c4 41 25 ef d9       	vpxor  %ymm9,%ymm11,%ymm11
  40c2bb:	c5 fe 7f 94 24 20 02 	vmovdqu %ymm2,0x220(%rsp)
  40c2c2:	00 00 
  40c2c4:	c4 41 0d eb f7       	vpor   %ymm15,%ymm14,%ymm14
  40c2c9:	c5 cd ef 96 60 94 00 	vpxor  0x9460(%rsi),%ymm6,%ymm2
  40c2d0:	00 
  40c2d1:	c4 41 65 db c7       	vpand  %ymm15,%ymm3,%ymm8
  40c2d6:	c4 c1 65 ef f6       	vpxor  %ymm14,%ymm3,%ymm6
  40c2db:	c5 3d ef c5          	vpxor  %ymm5,%ymm8,%ymm8
  40c2df:	c5 d5 db ee          	vpand  %ymm6,%ymm5,%ymm5
  40c2e3:	c5 b5 ef de          	vpxor  %ymm6,%ymm9,%ymm3
  40c2e7:	c5 25 ef cd          	vpxor  %ymm5,%ymm11,%ymm9
  40c2eb:	c4 41 3d eb db       	vpor   %ymm11,%ymm8,%ymm11
  40c2f0:	c5 e5 ef 9e e0 9b 00 	vpxor  0x9be0(%rsi),%ymm3,%ymm3
  40c2f7:	00 
  40c2f8:	c5 3d ef 86 00 98 00 	vpxor  0x9800(%rsi),%ymm8,%ymm8
  40c2ff:	00 
  40c300:	c4 41 4d ef db       	vpxor  %ymm11,%ymm6,%ymm11
  40c305:	c4 c1 7d ef f2       	vpxor  %ymm10,%ymm0,%ymm6
  40c30a:	c5 fe 7f 5c 24 40    	vmovdqu %ymm3,0x40(%rsp)
  40c310:	c5 7e 7f 84 24 40 02 	vmovdqu %ymm8,0x240(%rsp)
  40c317:	00 00 
  40c319:	c5 25 ef 86 80 9c 00 	vpxor  0x9c80(%rsi),%ymm11,%ymm8
  40c320:	00 
  40c321:	c5 b5 ef 9e 60 9e 00 	vpxor  0x9e60(%rsi),%ymm9,%ymm3
  40c328:	00 
  40c329:	c4 41 2d ef dc       	vpxor  %ymm12,%ymm10,%ymm11
  40c32e:	c5 1d ef d4          	vpxor  %ymm4,%ymm12,%ymm10
  40c332:	c5 dd eb e6          	vpor   %ymm6,%ymm4,%ymm4
  40c336:	c5 15 db f6          	vpand  %ymm6,%ymm13,%ymm14
  40c33a:	c5 fe 7f 9c 24 00 02 	vmovdqu %ymm3,0x200(%rsp)
  40c341:	00 00 
  40c343:	c5 7e 6f 8c 24 c0 0e 	vmovdqu 0xec0(%rsp),%ymm9
  40c34a:	00 00 
  40c34c:	c5 95 ef dc          	vpxor  %ymm4,%ymm13,%ymm3
  40c350:	c4 c1 0d ef e2       	vpxor  %ymm10,%ymm14,%ymm4
  40c355:	c5 2d db d3          	vpand  %ymm3,%ymm10,%ymm10
  40c359:	c5 1d ef eb          	vpxor  %ymm3,%ymm12,%ymm13
  40c35d:	c5 dd ef ae 20 98 00 	vpxor  0x9820(%rsi),%ymm4,%ymm5
  40c364:	00 
  40c365:	c4 41 25 ef d2       	vpxor  %ymm10,%ymm11,%ymm10
  40c36a:	c4 41 5d eb db       	vpor   %ymm11,%ymm4,%ymm11
  40c36f:	c5 15 ef a6 00 9a 00 	vpxor  0x9a00(%rsi),%ymm13,%ymm12
  40c376:	00 
  40c377:	c5 fe 7f ac 24 80 02 	vmovdqu %ymm5,0x280(%rsp)
  40c37e:	00 00 
  40c380:	c5 fe 6f ac 24 80 0e 	vmovdqu 0xe80(%rsp),%ymm5
  40c387:	00 00 
  40c389:	c5 fe 6f a4 24 60 0e 	vmovdqu 0xe60(%rsp),%ymm4
  40c390:	00 00 
  40c392:	c5 7e 7f a4 24 40 04 	vmovdqu %ymm12,0x440(%rsp)
  40c399:	00 00 
  40c39b:	c5 7e 6f a6 80 9e 00 	vmovdqu 0x9e80(%rsi),%ymm12
  40c3a2:	00 
  40c3a3:	c4 c1 65 ef f3       	vpxor  %ymm11,%ymm3,%ymm6
  40c3a8:	c5 fe 6f 9c 24 40 0e 	vmovdqu 0xe40(%rsp),%ymm3
  40c3af:	00 00 
  40c3b1:	c5 4d ef 9e a0 9c 00 	vpxor  0x9ca0(%rsi),%ymm6,%ymm11
  40c3b8:	00 
  40c3b9:	c5 fe 6f b4 24 a0 0e 	vmovdqu 0xea0(%rsp),%ymm6
  40c3c0:	00 00 
  40c3c2:	c4 41 2d ef ec       	vpxor  %ymm12,%ymm10,%ymm13
  40c3c7:	c5 35 ef f7          	vpxor  %ymm7,%ymm9,%ymm14
  40c3cb:	c5 7e 6f 94 24 80 04 	vmovdqu 0x480(%rsp),%ymm10
  40c3d2:	00 00 
  40c3d4:	c5 7e 7f 84 24 c0 06 	vmovdqu %ymm8,0x6c0(%rsp)
  40c3db:	00 00 
  40c3dd:	c5 7e 7f 9c 24 c0 0d 	vmovdqu %ymm11,0xdc0(%rsp)
  40c3e4:	00 00 
  40c3e6:	c5 7e 7f ac 24 e0 0d 	vmovdqu %ymm13,0xde0(%rsp)
  40c3ed:	00 00 
  40c3ef:	c4 41 7d ef e2       	vpxor  %ymm10,%ymm0,%ymm12
  40c3f4:	c4 41 2d ef d9       	vpxor  %ymm9,%ymm10,%ymm11
  40c3f9:	c4 41 45 eb c4       	vpor   %ymm12,%ymm7,%ymm8
  40c3fe:	c5 fe 6f bc 24 a0 02 	vmovdqu 0x2a0(%rsp),%ymm7
  40c405:	00 00 
  40c407:	c4 41 45 db fc       	vpand  %ymm12,%ymm7,%ymm15
  40c40c:	c4 41 45 ef d0       	vpxor  %ymm8,%ymm7,%ymm10
  40c411:	c4 41 05 ef ee       	vpxor  %ymm14,%ymm15,%ymm13
  40c416:	c4 c1 0d db fa       	vpand  %ymm10,%ymm14,%ymm7
  40c41b:	c4 41 35 ef ca       	vpxor  %ymm10,%ymm9,%ymm9
  40c420:	c5 25 ef c7          	vpxor  %ymm7,%ymm11,%ymm8
  40c424:	c4 41 15 eb db       	vpor   %ymm11,%ymm13,%ymm11
  40c429:	c5 35 ef a6 20 9a 00 	vpxor  0x9a20(%rsi),%ymm9,%ymm12
  40c430:	00 
  40c431:	c5 15 ef ae 40 98 00 	vpxor  0x9840(%rsi),%ymm13,%ymm13
  40c438:	00 
  40c439:	c5 3d ef be a0 9e 00 	vpxor  0x9ea0(%rsi),%ymm8,%ymm15
  40c440:	00 
  40c441:	c4 41 2d ef d3       	vpxor  %ymm11,%ymm10,%ymm10
  40c446:	c5 7e 6f 8c 24 a0 04 	vmovdqu 0x4a0(%rsp),%ymm9
  40c44d:	00 00 
  40c44f:	c5 7e 6f 5c 24 60    	vmovdqu 0x60(%rsp),%ymm11
  40c455:	c5 7e 7f bc 24 20 0e 	vmovdqu %ymm15,0xe20(%rsp)
  40c45c:	00 00 
  40c45e:	c5 2d ef b6 c0 9c 00 	vpxor  0x9cc0(%rsi),%ymm10,%ymm14
  40c465:	00 
  40c466:	c4 41 7d ef d1       	vpxor  %ymm9,%ymm0,%ymm10
  40c46b:	c5 b5 ef fa          	vpxor  %ymm2,%ymm9,%ymm7
  40c46f:	c4 41 6d ef cb       	vpxor  %ymm11,%ymm2,%ymm9
  40c474:	c5 7e 7f b4 24 00 0e 	vmovdqu %ymm14,0xe00(%rsp)
  40c47b:	00 00 
  40c47d:	c5 7e 6f b4 24 c0 02 	vmovdqu 0x2c0(%rsp),%ymm14
  40c484:	00 00 
  40c486:	c4 41 25 eb c2       	vpor   %ymm10,%ymm11,%ymm8
  40c48b:	c4 41 0d db da       	vpand  %ymm10,%ymm14,%ymm11
  40c490:	c4 41 0d ef f8       	vpxor  %ymm8,%ymm14,%ymm15
  40c495:	c4 41 25 ef f1       	vpxor  %ymm9,%ymm11,%ymm14
  40c49a:	c4 41 35 db df       	vpand  %ymm15,%ymm9,%ymm11
  40c49f:	c4 c1 6d ef d7       	vpxor  %ymm15,%ymm2,%ymm2
  40c4a4:	c4 41 45 ef db       	vpxor  %ymm11,%ymm7,%ymm11
  40c4a9:	c5 8d eb ff          	vpor   %ymm7,%ymm14,%ymm7
  40c4ad:	c5 6d ef 96 40 9a 00 	vpxor  0x9a40(%rsi),%ymm2,%ymm10
  40c4b4:	00 
  40c4b5:	c5 0d ef b6 60 98 00 	vpxor  0x9860(%rsi),%ymm14,%ymm14
  40c4bc:	00 
  40c4bd:	c5 25 ef 8e c0 9e 00 	vpxor  0x9ec0(%rsi),%ymm11,%ymm9
  40c4c4:	00 
  40c4c5:	c5 05 ef c7          	vpxor  %ymm7,%ymm15,%ymm8
  40c4c9:	c5 fe 6f 94 24 c0 04 	vmovdqu 0x4c0(%rsp),%ymm2
  40c4d0:	00 00 
  40c4d2:	c5 7e 7f b4 24 40 0e 	vmovdqu %ymm14,0xe40(%rsp)
  40c4d9:	00 00 
  40c4db:	c5 fe 6f bc 24 c0 05 	vmovdqu 0x5c0(%rsp),%ymm7
  40c4e2:	00 00 
  40c4e4:	c5 7e 6f b4 24 80 00 	vmovdqu 0x80(%rsp),%ymm14
  40c4eb:	00 00 
  40c4ed:	c5 7e 7f 8c 24 e0 06 	vmovdqu %ymm9,0x6e0(%rsp)
  40c4f4:	00 00 
  40c4f6:	c5 7e 6f 8c 24 e0 02 	vmovdqu 0x2e0(%rsp),%ymm9
  40c4fd:	00 00 
  40c4ff:	c5 3d ef be e0 9c 00 	vpxor  0x9ce0(%rsi),%ymm8,%ymm15
  40c506:	00 
  40c507:	c5 7d ef da          	vpxor  %ymm2,%ymm0,%ymm11
  40c50b:	c4 41 45 ef c6       	vpxor  %ymm14,%ymm7,%ymm8
  40c510:	c5 7e 7f bc 24 60 0e 	vmovdqu %ymm15,0xe60(%rsp)
  40c517:	00 00 
  40c519:	c5 6d ef ff          	vpxor  %ymm7,%ymm2,%ymm15
  40c51d:	c4 c1 0d eb d3       	vpor   %ymm11,%ymm14,%ymm2
  40c522:	c4 41 35 db db       	vpand  %ymm11,%ymm9,%ymm11
  40c527:	c5 35 ef ca          	vpxor  %ymm2,%ymm9,%ymm9
  40c52b:	c4 41 25 ef f0       	vpxor  %ymm8,%ymm11,%ymm14
  40c530:	c5 fe 6f 94 24 e0 05 	vmovdqu 0x5e0(%rsp),%ymm2
  40c537:	00 00 
  40c539:	c4 c1 45 ef f9       	vpxor  %ymm9,%ymm7,%ymm7
  40c53e:	c4 41 3d db c1       	vpand  %ymm9,%ymm8,%ymm8
  40c543:	c5 45 ef 9e 60 9a 00 	vpxor  0x9a60(%rsi),%ymm7,%ymm11
  40c54a:	00 
  40c54b:	c4 c1 05 ef f8       	vpxor  %ymm8,%ymm15,%ymm7
  40c550:	c4 41 0d eb ff       	vpor   %ymm15,%ymm14,%ymm15
  40c555:	c5 0d ef b6 80 98 00 	vpxor  0x9880(%rsi),%ymm14,%ymm14
  40c55c:	00 
  40c55d:	c5 c5 ef be e0 9e 00 	vpxor  0x9ee0(%rsi),%ymm7,%ymm7
  40c564:	00 
  40c565:	c4 41 35 ef c7       	vpxor  %ymm15,%ymm9,%ymm8
  40c56a:	c5 7e 6f 8c 24 e0 04 	vmovdqu 0x4e0(%rsp),%ymm9
  40c571:	00 00 
  40c573:	c5 7e 7f b4 24 80 0e 	vmovdqu %ymm14,0xe80(%rsp)
  40c57a:	00 00 
  40c57c:	c5 fe 7f bc 24 00 07 	vmovdqu %ymm7,0x700(%rsp)
  40c583:	00 00 
  40c585:	c5 fe 6f bc 24 c0 01 	vmovdqu 0x1c0(%rsp),%ymm7
  40c58c:	00 00 
  40c58e:	c5 3d ef be 00 9d 00 	vpxor  0x9d00(%rsi),%ymm8,%ymm15
  40c595:	00 
  40c596:	c4 41 7d ef c1       	vpxor  %ymm9,%ymm0,%ymm8
  40c59b:	c5 35 ef f2          	vpxor  %ymm2,%ymm9,%ymm14
  40c59f:	c5 6d ef cf          	vpxor  %ymm7,%ymm2,%ymm9
  40c5a3:	c5 7e 7f bc 24 a0 0e 	vmovdqu %ymm15,0xea0(%rsp)
  40c5aa:	00 00 
  40c5ac:	c5 7e 6f bc 24 00 03 	vmovdqu 0x300(%rsp),%ymm15
  40c5b3:	00 00 
  40c5b5:	c4 c1 45 eb f8       	vpor   %ymm8,%ymm7,%ymm7
  40c5ba:	c4 41 05 db c0       	vpand  %ymm8,%ymm15,%ymm8
  40c5bf:	c5 85 ef ff          	vpxor  %ymm7,%ymm15,%ymm7
  40c5c3:	c4 41 3d ef f9       	vpxor  %ymm9,%ymm8,%ymm15
  40c5c8:	c5 ed ef d7          	vpxor  %ymm7,%ymm2,%ymm2
  40c5cc:	c5 35 db cf          	vpand  %ymm7,%ymm9,%ymm9
  40c5d0:	c5 6d ef 86 80 9a 00 	vpxor  0x9a80(%rsi),%ymm2,%ymm8
  40c5d7:	00 
  40c5d8:	c5 7e 7f 84 24 c0 0e 	vmovdqu %ymm8,0xec0(%rsp)
  40c5df:	00 00 
  40c5e1:	c4 41 0d ef c1       	vpxor  %ymm9,%ymm14,%ymm8
  40c5e6:	c4 41 05 eb f6       	vpor   %ymm14,%ymm15,%ymm14
  40c5eb:	c5 7e 6f 8c 24 20 03 	vmovdqu 0x320(%rsp),%ymm9
  40c5f2:	00 00 
  40c5f4:	c4 c1 45 ef d6       	vpxor  %ymm14,%ymm7,%ymm2
  40c5f9:	c5 85 ef be a0 98 00 	vpxor  0x98a0(%rsi),%ymm15,%ymm7
  40c600:	00 
  40c601:	c5 7e 6f b4 24 00 05 	vmovdqu 0x500(%rsp),%ymm14
  40c608:	00 00 
  40c60a:	c5 6d ef be 20 9d 00 	vpxor  0x9d20(%rsi),%ymm2,%ymm15
  40c611:	00 
  40c612:	c5 fe 7f bc 24 e0 0e 	vmovdqu %ymm7,0xee0(%rsp)
  40c619:	00 00 
  40c61b:	c5 bd ef be 00 9f 00 	vpxor  0x9f00(%rsi),%ymm8,%ymm7
  40c622:	00 
  40c623:	c4 c1 7d ef d6       	vpxor  %ymm14,%ymm0,%ymm2
  40c628:	c5 7e 7f bc 24 a0 0d 	vmovdqu %ymm15,0xda0(%rsp)
  40c62f:	00 00 
  40c631:	c5 7e 6f bc 24 00 06 	vmovdqu 0x600(%rsp),%ymm15
  40c638:	00 00 
  40c63a:	c5 7e 6f 84 24 e0 01 	vmovdqu 0x1e0(%rsp),%ymm8
  40c641:	00 00 
  40c643:	c5 fe 7f bc 24 20 07 	vmovdqu %ymm7,0x720(%rsp)
  40c64a:	00 00 
  40c64c:	c4 c1 0d ef ff       	vpxor  %ymm15,%ymm14,%ymm7
  40c651:	c4 41 05 ef f0       	vpxor  %ymm8,%ymm15,%ymm14
  40c656:	c5 3d eb c2          	vpor   %ymm2,%ymm8,%ymm8
  40c65a:	c5 b5 db d2          	vpand  %ymm2,%ymm9,%ymm2
  40c65e:	c4 41 35 ef c0       	vpxor  %ymm8,%ymm9,%ymm8
  40c663:	c4 c1 6d ef d6       	vpxor  %ymm14,%ymm2,%ymm2
  40c668:	c4 41 05 ef f8       	vpxor  %ymm8,%ymm15,%ymm15
  40c66d:	c4 41 0d db f0       	vpand  %ymm8,%ymm14,%ymm14
  40c672:	c5 05 ef 8e a0 9a 00 	vpxor  0x9aa0(%rsi),%ymm15,%ymm9
  40c679:	00 
  40c67a:	c5 7e 7f 8c 24 00 0f 	vmovdqu %ymm9,0xf00(%rsp)
  40c681:	00 00 
  40c683:	c4 41 45 ef ce       	vpxor  %ymm14,%ymm7,%ymm9
  40c688:	c5 ed eb ff          	vpor   %ymm7,%ymm2,%ymm7
  40c68c:	c5 ed ef 96 c0 98 00 	vpxor  0x98c0(%rsi),%ymm2,%ymm2
  40c693:	00 
  40c694:	c5 35 ef b6 20 9f 00 	vpxor  0x9f20(%rsi),%ymm9,%ymm14
  40c69b:	00 
  40c69c:	c5 3d ef c7          	vpxor  %ymm7,%ymm8,%ymm8
  40c6a0:	c5 7e 6f 8c 24 20 05 	vmovdqu 0x520(%rsp),%ymm9
  40c6a7:	00 00 
  40c6a9:	c5 fe 7f 94 24 40 09 	vmovdqu %ymm2,0x940(%rsp)
  40c6b0:	00 00 
  40c6b2:	c5 fe 6f 94 24 a0 00 	vmovdqu 0xa0(%rsp),%ymm2
  40c6b9:	00 00 
  40c6bb:	c5 7e 7f b4 24 20 08 	vmovdqu %ymm14,0x820(%rsp)
  40c6c2:	00 00 
  40c6c4:	c5 7e 6f b4 24 40 03 	vmovdqu 0x340(%rsp),%ymm14
  40c6cb:	00 00 
  40c6cd:	c5 bd ef be 40 9d 00 	vpxor  0x9d40(%rsi),%ymm8,%ymm7
  40c6d4:	00 
  40c6d5:	c4 41 7d ef f9       	vpxor  %ymm9,%ymm0,%ymm15
  40c6da:	c5 7e 6f 84 24 60 05 	vmovdqu 0x560(%rsp),%ymm8
  40c6e1:	00 00 
  40c6e3:	c5 fe 7f bc 24 c0 0c 	vmovdqu %ymm7,0xcc0(%rsp)
  40c6ea:	00 00 
  40c6ec:	c5 bd ef fa          	vpxor  %ymm2,%ymm8,%ymm7
  40c6f0:	c4 c1 6d eb d7       	vpor   %ymm15,%ymm2,%ymm2
  40c6f5:	c4 41 35 ef c8       	vpxor  %ymm8,%ymm9,%ymm9
  40c6fa:	c4 41 0d db ff       	vpand  %ymm15,%ymm14,%ymm15
  40c6ff:	c5 8d ef d2          	vpxor  %ymm2,%ymm14,%ymm2
  40c703:	c5 05 ef ff          	vpxor  %ymm7,%ymm15,%ymm15
  40c707:	c5 3d ef c2          	vpxor  %ymm2,%ymm8,%ymm8
  40c70b:	c5 c5 db fa          	vpand  %ymm2,%ymm7,%ymm7
  40c70f:	c5 3d ef b6 c0 9a 00 	vpxor  0x9ac0(%rsi),%ymm8,%ymm14
  40c716:	00 
  40c717:	c5 7e 7f b4 24 60 0b 	vmovdqu %ymm14,0xb60(%rsp)
  40c71e:	00 00 
  40c720:	c5 35 ef f7          	vpxor  %ymm7,%ymm9,%ymm14
  40c724:	c4 41 05 eb c9       	vpor   %ymm9,%ymm15,%ymm9
  40c729:	c5 05 ef be e0 98 00 	vpxor  0x98e0(%rsi),%ymm15,%ymm15
  40c730:	00 
  40c731:	c5 0d ef b6 40 9f 00 	vpxor  0x9f40(%rsi),%ymm14,%ymm14
  40c738:	00 
  40c739:	c4 c1 6d ef d1       	vpxor  %ymm9,%ymm2,%ymm2
  40c73e:	c5 7e 7f bc 24 60 09 	vmovdqu %ymm15,0x960(%rsp)
  40c745:	00 00 
  40c747:	c5 7e 6f bc 24 40 05 	vmovdqu 0x540(%rsp),%ymm15
  40c74e:	00 00 
  40c750:	c5 7e 7f b4 24 40 08 	vmovdqu %ymm14,0x840(%rsp)
  40c757:	00 00 
  40c759:	c5 ed ef be 60 9d 00 	vpxor  0x9d60(%rsi),%ymm2,%ymm7
  40c760:	00 
  40c761:	c5 fe 6f 94 24 80 05 	vmovdqu 0x580(%rsp),%ymm2
  40c768:	00 00 
  40c76a:	c4 41 7d ef c7       	vpxor  %ymm15,%ymm0,%ymm8
  40c76f:	c5 fe 7f bc 24 20 0c 	vmovdqu %ymm7,0xc20(%rsp)
  40c776:	00 00 
  40c778:	c5 fe 6f bc 24 c0 00 	vmovdqu 0xc0(%rsp),%ymm7
  40c77f:	00 00 
  40c781:	c5 05 ef f2          	vpxor  %ymm2,%ymm15,%ymm14
  40c785:	c5 6d ef cf          	vpxor  %ymm7,%ymm2,%ymm9
  40c789:	c4 41 45 eb f8       	vpor   %ymm8,%ymm7,%ymm15
  40c78e:	c5 fe 6f bc 24 60 03 	vmovdqu 0x360(%rsp),%ymm7
  40c795:	00 00 
  40c797:	c4 41 45 ef ff       	vpxor  %ymm15,%ymm7,%ymm15
  40c79c:	c4 41 45 db c0       	vpand  %ymm8,%ymm7,%ymm8
  40c7a1:	c4 c1 6d ef d7       	vpxor  %ymm15,%ymm2,%ymm2
  40c7a6:	c4 41 3d ef c1       	vpxor  %ymm9,%ymm8,%ymm8
  40c7ab:	c4 41 35 db cf       	vpand  %ymm15,%ymm9,%ymm9
  40c7b0:	c5 ed ef be e0 9a 00 	vpxor  0x9ae0(%rsi),%ymm2,%ymm7
  40c7b7:	00 
  40c7b8:	c5 fe 6f 94 24 e0 00 	vmovdqu 0xe0(%rsp),%ymm2
  40c7bf:	00 00 
  40c7c1:	c5 fe 7f bc 24 80 0b 	vmovdqu %ymm7,0xb80(%rsp)
  40c7c8:	00 00 
  40c7ca:	c4 c1 0d ef f9       	vpxor  %ymm9,%ymm14,%ymm7
  40c7cf:	c4 41 3d eb f6       	vpor   %ymm14,%ymm8,%ymm14
  40c7d4:	c5 3d ef 86 00 99 00 	vpxor  0x9900(%rsi),%ymm8,%ymm8
  40c7db:	00 
  40c7dc:	c5 7e 6f 8c 24 a0 05 	vmovdqu 0x5a0(%rsp),%ymm9
  40c7e3:	00 00 
  40c7e5:	c4 41 05 ef fe       	vpxor  %ymm14,%ymm15,%ymm15
  40c7ea:	c5 c5 ef be 60 9f 00 	vpxor  0x9f60(%rsi),%ymm7,%ymm7
  40c7f1:	00 
  40c7f2:	c5 7e 7f 84 24 80 09 	vmovdqu %ymm8,0x980(%rsp)
  40c7f9:	00 00 
  40c7fb:	c5 05 ef b6 80 9d 00 	vpxor  0x9d80(%rsi),%ymm15,%ymm14
  40c802:	00 
  40c803:	c4 41 7d ef c1       	vpxor  %ymm9,%ymm0,%ymm8
  40c808:	c5 fe 7f bc 24 60 08 	vmovdqu %ymm7,0x860(%rsp)
  40c80f:	00 00 
  40c811:	c5 7e 6f bc 24 20 06 	vmovdqu 0x620(%rsp),%ymm15
  40c818:	00 00 
  40c81a:	c5 7e 7f b4 24 40 0c 	vmovdqu %ymm14,0xc40(%rsp)
  40c821:	00 00 
  40c823:	c4 41 6d eb f0       	vpor   %ymm8,%ymm2,%ymm14
  40c828:	c4 c1 35 ef ff       	vpxor  %ymm15,%ymm9,%ymm7
  40c82d:	c5 05 ef ca          	vpxor  %ymm2,%ymm15,%ymm9
  40c831:	c5 fe 6f 94 24 80 03 	vmovdqu 0x380(%rsp),%ymm2
  40c838:	00 00 
  40c83a:	c4 41 6d db c0       	vpand  %ymm8,%ymm2,%ymm8
  40c83f:	c4 41 6d ef f6       	vpxor  %ymm14,%ymm2,%ymm14
  40c844:	c4 c1 3d ef d1       	vpxor  %ymm9,%ymm8,%ymm2
  40c849:	c4 41 05 ef c6       	vpxor  %ymm14,%ymm15,%ymm8
  40c84e:	c4 41 35 db fe       	vpand  %ymm14,%ymm9,%ymm15
  40c853:	c5 3d ef 86 00 9b 00 	vpxor  0x9b00(%rsi),%ymm8,%ymm8
  40c85a:	00 
  40c85b:	c4 41 45 ef cf       	vpxor  %ymm15,%ymm7,%ymm9
  40c860:	c5 ed eb ff          	vpor   %ymm7,%ymm2,%ymm7
  40c864:	c5 7e 7f 84 24 a0 0b 	vmovdqu %ymm8,0xba0(%rsp)
  40c86b:	00 00 
  40c86d:	c5 8d ef ff          	vpxor  %ymm7,%ymm14,%ymm7
  40c871:	c5 6d ef b6 20 99 00 	vpxor  0x9920(%rsi),%ymm2,%ymm14
  40c878:	00 
  40c879:	c5 35 ef 8e 80 9f 00 	vpxor  0x9f80(%rsi),%ymm9,%ymm9
  40c880:	00 
  40c881:	c5 c5 ef 96 a0 9d 00 	vpxor  0x9da0(%rsi),%ymm7,%ymm2
  40c888:	00 
  40c889:	c5 fe 6f bc 24 a0 06 	vmovdqu 0x6a0(%rsp),%ymm7
  40c890:	00 00 
  40c892:	c5 7e 7f 8c 24 80 08 	vmovdqu %ymm9,0x880(%rsp)
  40c899:	00 00 
  40c89b:	c5 7e 6f 8c 24 00 01 	vmovdqu 0x100(%rsp),%ymm9
  40c8a2:	00 00 
  40c8a4:	c5 7e 7f b4 24 a0 09 	vmovdqu %ymm14,0x9a0(%rsp)
  40c8ab:	00 00 
  40c8ad:	c5 fe 7f 94 24 60 0c 	vmovdqu %ymm2,0xc60(%rsp)
  40c8b4:	00 00 
  40c8b6:	c5 fe 6f 94 24 a0 03 	vmovdqu 0x3a0(%rsp),%ymm2
  40c8bd:	00 00 
  40c8bf:	c5 7d ef f7          	vpxor  %ymm7,%ymm0,%ymm14
  40c8c3:	c5 45 ef f9          	vpxor  %ymm1,%ymm7,%ymm15
  40c8c7:	c4 41 75 ef c1       	vpxor  %ymm9,%ymm1,%ymm8
  40c8cc:	c4 c1 35 eb fe       	vpor   %ymm14,%ymm9,%ymm7
  40c8d1:	c4 41 6d db f6       	vpand  %ymm14,%ymm2,%ymm14
  40c8d6:	c5 ed ef ff          	vpxor  %ymm7,%ymm2,%ymm7
  40c8da:	c4 c1 0d ef d0       	vpxor  %ymm8,%ymm14,%ymm2
  40c8df:	c5 f5 ef cf          	vpxor  %ymm7,%ymm1,%ymm1
  40c8e3:	c5 3d db c7          	vpand  %ymm7,%ymm8,%ymm8
  40c8e7:	c5 75 ef b6 20 9b 00 	vpxor  0x9b20(%rsi),%ymm1,%ymm14
  40c8ee:	00 
  40c8ef:	c4 c1 6d eb cf       	vpor   %ymm15,%ymm2,%ymm1
  40c8f4:	c4 41 05 ef c8       	vpxor  %ymm8,%ymm15,%ymm9
  40c8f9:	c5 7e 7f b4 24 c0 0b 	vmovdqu %ymm14,0xbc0(%rsp)
  40c900:	00 00 
  40c902:	c5 7e 6f b4 24 20 01 	vmovdqu 0x120(%rsp),%ymm14
  40c909:	00 00 
  40c90b:	c5 45 ef f9          	vpxor  %ymm1,%ymm7,%ymm15
  40c90f:	c5 ed ef be 40 99 00 	vpxor  0x9940(%rsi),%ymm2,%ymm7
  40c916:	00 
  40c917:	c5 35 ef 8e a0 9f 00 	vpxor  0x9fa0(%rsi),%ymm9,%ymm9
  40c91e:	00 
  40c91f:	c4 c1 65 ef ce       	vpxor  %ymm14,%ymm3,%ymm1
  40c924:	c5 85 ef 96 c0 9d 00 	vpxor  0x9dc0(%rsi),%ymm15,%ymm2
  40c92b:	00 
  40c92c:	c5 fe 7f bc 24 c0 09 	vmovdqu %ymm7,0x9c0(%rsp)
  40c933:	00 00 
  40c935:	c5 fe 6f bc 24 80 06 	vmovdqu 0x680(%rsp),%ymm7
  40c93c:	00 00 
  40c93e:	c5 7e 7f 8c 24 a0 08 	vmovdqu %ymm9,0x8a0(%rsp)
  40c945:	00 00 
  40c947:	c5 fe 7f 94 24 80 0c 	vmovdqu %ymm2,0xc80(%rsp)
  40c94e:	00 00 
  40c950:	c5 7d ef c7          	vpxor  %ymm7,%ymm0,%ymm8
  40c954:	c5 45 ef fb          	vpxor  %ymm3,%ymm7,%ymm15
  40c958:	c5 fe 6f bc 24 c0 03 	vmovdqu 0x3c0(%rsp),%ymm7
  40c95f:	00 00 
  40c961:	c4 41 0d eb f0       	vpor   %ymm8,%ymm14,%ymm14
  40c966:	c4 41 45 db c8       	vpand  %ymm8,%ymm7,%ymm9
  40c96b:	c4 41 45 ef c6       	vpxor  %ymm14,%ymm7,%ymm8
  40c970:	c5 35 ef f1          	vpxor  %ymm1,%ymm9,%ymm14
  40c974:	c4 c1 65 ef d8       	vpxor  %ymm8,%ymm3,%ymm3
  40c979:	c5 e5 ef be 40 9b 00 	vpxor  0x9b40(%rsi),%ymm3,%ymm7
  40c980:	00 
  40c981:	c4 c1 75 db d8       	vpand  %ymm8,%ymm1,%ymm3
  40c986:	c4 c1 0d eb cf       	vpor   %ymm15,%ymm14,%ymm1
  40c98b:	c5 0d ef b6 60 99 00 	vpxor  0x9960(%rsi),%ymm14,%ymm14
  40c992:	00 
  40c993:	c5 fe 7f bc 24 e0 0b 	vmovdqu %ymm7,0xbe0(%rsp)
  40c99a:	00 00 
  40c99c:	c5 fe 6f bc 24 60 06 	vmovdqu 0x660(%rsp),%ymm7
  40c9a3:	00 00 
  40c9a5:	c5 3d ef c1          	vpxor  %ymm1,%ymm8,%ymm8
  40c9a9:	c5 05 ef cb          	vpxor  %ymm3,%ymm15,%ymm9
  40c9ad:	c5 fe 6f 9c 24 40 01 	vmovdqu 0x140(%rsp),%ymm3
  40c9b4:	00 00 
  40c9b6:	c5 7e 7f b4 24 e0 09 	vmovdqu %ymm14,0x9e0(%rsp)
  40c9bd:	00 00 
  40c9bf:	c5 7d ef f7          	vpxor  %ymm7,%ymm0,%ymm14
  40c9c3:	c5 3d ef be e0 9d 00 	vpxor  0x9de0(%rsi),%ymm8,%ymm15
  40c9ca:	00 
  40c9cb:	c5 c5 ef fc          	vpxor  %ymm4,%ymm7,%ymm7
  40c9cf:	c5 b5 ef 96 c0 9f 00 	vpxor  0x9fc0(%rsi),%ymm9,%ymm2
  40c9d6:	00 
  40c9d7:	c4 c1 65 eb ce       	vpor   %ymm14,%ymm3,%ymm1
  40c9dc:	c5 5d ef cb          	vpxor  %ymm3,%ymm4,%ymm9
  40c9e0:	c5 7e 6f 84 24 e0 03 	vmovdqu 0x3e0(%rsp),%ymm8
  40c9e7:	00 00 
  40c9e9:	c5 7e 7f bc 24 a0 0c 	vmovdqu %ymm15,0xca0(%rsp)
  40c9f0:	00 00 
  40c9f2:	c5 fe 7f 94 24 40 07 	vmovdqu %ymm2,0x740(%rsp)
  40c9f9:	00 00 
  40c9fb:	c5 fe 6f 94 24 60 04 	vmovdqu 0x460(%rsp),%ymm2
  40ca02:	00 00 
  40ca04:	c4 41 3d db fe       	vpand  %ymm14,%ymm8,%ymm15
  40ca09:	c5 bd ef c9          	vpxor  %ymm1,%ymm8,%ymm1
  40ca0d:	c4 41 05 ef f1       	vpxor  %ymm9,%ymm15,%ymm14
  40ca12:	c5 dd ef e1          	vpxor  %ymm1,%ymm4,%ymm4
  40ca16:	c5 b5 db d9          	vpand  %ymm1,%ymm9,%ymm3
  40ca1a:	c5 dd ef a6 60 9b 00 	vpxor  0x9b60(%rsi),%ymm4,%ymm4
  40ca21:	00 
  40ca22:	c5 45 ef fb          	vpxor  %ymm3,%ymm7,%ymm15
  40ca26:	c5 8d eb ff          	vpor   %ymm7,%ymm14,%ymm7
  40ca2a:	c5 0d ef b6 80 99 00 	vpxor  0x9980(%rsi),%ymm14,%ymm14
  40ca31:	00 
  40ca32:	c5 ed ef dd          	vpxor  %ymm5,%ymm2,%ymm3
  40ca36:	c5 fe 7f a4 24 00 0c 	vmovdqu %ymm4,0xc00(%rsp)
  40ca3d:	00 00 
  40ca3f:	c5 fe 6f a4 24 60 01 	vmovdqu 0x160(%rsp),%ymm4
  40ca46:	00 00 
  40ca48:	c5 7e 7f b4 24 00 0a 	vmovdqu %ymm14,0xa00(%rsp)
  40ca4f:	00 00 
  40ca51:	c5 75 ef c7          	vpxor  %ymm7,%ymm1,%ymm8
  40ca55:	c5 85 ef 8e e0 9f 00 	vpxor  0x9fe0(%rsi),%ymm15,%ymm1
  40ca5c:	00 
  40ca5d:	c5 7d ef f2          	vpxor  %ymm2,%ymm0,%ymm14
  40ca61:	c5 d5 ef fc          	vpxor  %ymm4,%ymm5,%ymm7
  40ca65:	c5 3d ef 8e 00 9c 00 	vpxor  0x9c00(%rsi),%ymm8,%ymm9
  40ca6c:	00 
  40ca6d:	c5 7e 6f 84 24 00 04 	vmovdqu 0x400(%rsp),%ymm8
  40ca74:	00 00 
  40ca76:	c5 fe 7f 8c 24 60 07 	vmovdqu %ymm1,0x760(%rsp)
  40ca7d:	00 00 
  40ca7f:	c5 fe 6f 94 24 80 01 	vmovdqu 0x180(%rsp),%ymm2
  40ca86:	00 00 
  40ca88:	c4 c1 5d eb ce       	vpor   %ymm14,%ymm4,%ymm1
  40ca8d:	c4 41 3d db fe       	vpand  %ymm14,%ymm8,%ymm15
  40ca92:	c5 bd ef e1          	vpxor  %ymm1,%ymm8,%ymm4
  40ca96:	c5 05 ef c7          	vpxor  %ymm7,%ymm15,%ymm8
  40ca9a:	c5 7e 6f bc 24 20 04 	vmovdqu 0x420(%rsp),%ymm15
  40caa1:	00 00 
  40caa3:	c5 c5 db fc          	vpand  %ymm4,%ymm7,%ymm7
  40caa7:	c5 d5 ef ec          	vpxor  %ymm4,%ymm5,%ymm5
  40caab:	c5 e5 ef cf          	vpxor  %ymm7,%ymm3,%ymm1
  40caaf:	c5 bd eb db          	vpor   %ymm3,%ymm8,%ymm3
  40cab3:	c5 d5 ef ae 80 9b 00 	vpxor  0x9b80(%rsi),%ymm5,%ymm5
  40caba:	00 
  40cabb:	c5 85 ef fe          	vpxor  %ymm6,%ymm15,%ymm7
  40cabf:	c5 5d ef f3          	vpxor  %ymm3,%ymm4,%ymm14
  40cac3:	c5 bd ef a6 a0 99 00 	vpxor  0x99a0(%rsi),%ymm8,%ymm4
  40caca:	00 
  40cacb:	c5 fe 7f ac 24 20 0b 	vmovdqu %ymm5,0xb20(%rsp)
  40cad2:	00 00 
  40cad4:	c5 fe 6f 9c 24 60 02 	vmovdqu 0x260(%rsp),%ymm3
  40cadb:	00 00 
  40cadd:	c4 c1 7d ef ef       	vpxor  %ymm15,%ymm0,%ymm5
  40cae2:	c5 0d ef 86 20 9c 00 	vpxor  0x9c20(%rsi),%ymm14,%ymm8
  40cae9:	00 
  40caea:	c5 75 ef b6 00 9e 00 	vpxor  0x9e00(%rsi),%ymm1,%ymm14
  40caf1:	00 
  40caf2:	c5 fe 7f a4 24 20 0a 	vmovdqu %ymm4,0xa20(%rsp)
  40caf9:	00 00 
  40cafb:	c5 ed eb cd          	vpor   %ymm5,%ymm2,%ymm1
  40caff:	c5 cd ef e2          	vpxor  %ymm2,%ymm6,%ymm4
  40cb03:	c5 65 db fd          	vpand  %ymm5,%ymm3,%ymm15
  40cb07:	c5 e5 ef e9          	vpxor  %ymm1,%ymm3,%ymm5
  40cb0b:	c5 85 ef d4          	vpxor  %ymm4,%ymm15,%ymm2
  40cb0f:	c5 7e 6f bc 24 a0 01 	vmovdqu 0x1a0(%rsp),%ymm15
  40cb16:	00 00 
  40cb18:	c5 dd db e5          	vpand  %ymm5,%ymm4,%ymm4
  40cb1c:	c5 cd ef f5          	vpxor  %ymm5,%ymm6,%ymm6
  40cb20:	c5 c5 ef e4          	vpxor  %ymm4,%ymm7,%ymm4
  40cb24:	c5 ed eb ff          	vpor   %ymm7,%ymm2,%ymm7
  40cb28:	c5 cd ef b6 a0 9b 00 	vpxor  0x9ba0(%rsi),%ymm6,%ymm6
  40cb2f:	00 
  40cb30:	c5 dd ef a6 20 9e 00 	vpxor  0x9e20(%rsi),%ymm4,%ymm4
  40cb37:	00 
  40cb38:	c5 d5 ef df          	vpxor  %ymm7,%ymm5,%ymm3
  40cb3c:	c5 ed ef ae c0 99 00 	vpxor  0x99c0(%rsi),%ymm2,%ymm5
  40cb43:	00 
  40cb44:	c5 fe 6f 14 24       	vmovdqu (%rsp),%ymm2
  40cb49:	c5 fe 7f b4 24 00 0b 	vmovdqu %ymm6,0xb00(%rsp)
  40cb50:	00 00 
  40cb52:	c5 e5 ef b6 40 9c 00 	vpxor  0x9c40(%rsi),%ymm3,%ymm6
  40cb59:	00 
  40cb5a:	c5 fe 6f 9c 24 40 06 	vmovdqu 0x640(%rsp),%ymm3
  40cb61:	00 00 
  40cb63:	c5 fe 7f ac 24 00 09 	vmovdqu %ymm5,0x900(%rsp)
  40cb6a:	00 00 
  40cb6c:	c5 fd ef fa          	vpxor  %ymm2,%ymm0,%ymm7
  40cb70:	c5 ed ef cb          	vpxor  %ymm3,%ymm2,%ymm1
  40cb74:	c4 c1 65 ef ef       	vpxor  %ymm15,%ymm3,%ymm5
  40cb79:	c5 85 eb d7          	vpor   %ymm7,%ymm15,%ymm2
  40cb7d:	c5 7e 6f bc 24 20 02 	vmovdqu 0x220(%rsp),%ymm15
  40cb84:	00 00 
  40cb86:	c5 85 ef d2          	vpxor  %ymm2,%ymm15,%ymm2
  40cb8a:	c5 85 db ff          	vpand  %ymm7,%ymm15,%ymm7
  40cb8e:	c5 7e 6f bc 24 40 02 	vmovdqu 0x240(%rsp),%ymm15
  40cb95:	00 00 
  40cb97:	c5 e5 ef da          	vpxor  %ymm2,%ymm3,%ymm3
  40cb9b:	c5 c5 ef fd          	vpxor  %ymm5,%ymm7,%ymm7
  40cb9f:	c5 d5 db ea          	vpand  %ymm2,%ymm5,%ymm5
  40cba3:	c5 e5 ef 9e c0 9b 00 	vpxor  0x9bc0(%rsi),%ymm3,%ymm3
  40cbaa:	00 
  40cbab:	c5 f5 ef ed          	vpxor  %ymm5,%ymm1,%ymm5
  40cbaf:	c5 c5 eb c9          	vpor   %ymm1,%ymm7,%ymm1
  40cbb3:	c5 c5 ef be e0 99 00 	vpxor  0x99e0(%rsi),%ymm7,%ymm7
  40cbba:	00 
  40cbbb:	c5 fe 7f 9c 24 c0 0a 	vmovdqu %ymm3,0xac0(%rsp)
  40cbc2:	00 00 
  40cbc4:	c5 fe 6f 9c 24 40 04 	vmovdqu 0x440(%rsp),%ymm3
  40cbcb:	00 00 
  40cbcd:	c5 ed ef d1          	vpxor  %ymm1,%ymm2,%ymm2
  40cbd1:	c4 c1 35 ef ce       	vpxor  %ymm14,%ymm9,%ymm1
  40cbd6:	c5 d5 ef ae 40 9e 00 	vpxor  0x9e40(%rsi),%ymm5,%ymm5
  40cbdd:	00 
  40cbde:	c5 fe 7f bc 24 c0 08 	vmovdqu %ymm7,0x8c0(%rsp)
  40cbe5:	00 00 
  40cbe7:	c5 ed ef be 60 9c 00 	vpxor  0x9c60(%rsi),%ymm2,%ymm7
  40cbee:	00 
  40cbef:	c5 fd ef d3          	vpxor  %ymm3,%ymm0,%ymm2
  40cbf3:	c4 c1 65 ef d9       	vpxor  %ymm9,%ymm3,%ymm3
  40cbf8:	c5 0d eb f2          	vpor   %ymm2,%ymm14,%ymm14
  40cbfc:	c5 85 db d2          	vpand  %ymm2,%ymm15,%ymm2
  40cc00:	c4 41 05 ef f6       	vpxor  %ymm14,%ymm15,%ymm14
  40cc05:	c5 6d ef f9          	vpxor  %ymm1,%ymm2,%ymm15
  40cc09:	c4 c1 75 db ce       	vpand  %ymm14,%ymm1,%ymm1
  40cc0e:	c4 41 35 ef ce       	vpxor  %ymm14,%ymm9,%ymm9
  40cc13:	c5 e5 ef c9          	vpxor  %ymm1,%ymm3,%ymm1
  40cc17:	c5 85 eb db          	vpor   %ymm3,%ymm15,%ymm3
  40cc1b:	c5 b5 ef 96 e0 a3 00 	vpxor  0xa3e0(%rsi),%ymm9,%ymm2
  40cc22:	00 
  40cc23:	c5 0d ef cb          	vpxor  %ymm3,%ymm14,%ymm9
  40cc27:	c5 f5 ef 9e 60 a6 00 	vpxor  0xa660(%rsi),%ymm1,%ymm3
  40cc2e:	00 
  40cc2f:	c5 05 ef b6 00 a0 00 	vpxor  0xa000(%rsi),%ymm15,%ymm14
  40cc36:	00 
  40cc37:	c4 c1 7d ef cc       	vpxor  %ymm12,%ymm0,%ymm1
  40cc3c:	c5 35 ef be 80 a4 00 	vpxor  0xa480(%rsi),%ymm9,%ymm15
  40cc43:	00 
  40cc44:	c5 fe 7f 9c 24 80 07 	vmovdqu %ymm3,0x780(%rsp)
  40cc4b:	00 00 
  40cc4d:	c5 7e 7f b4 24 e0 08 	vmovdqu %ymm14,0x8e0(%rsp)
  40cc54:	00 00 
  40cc56:	c5 fe 7f 54 24 20    	vmovdqu %ymm2,0x20(%rsp)
  40cc5c:	c5 7e 7f bc 24 e0 0c 	vmovdqu %ymm15,0xce0(%rsp)
  40cc63:	00 00 
  40cc65:	c4 c1 1d ef d8       	vpxor  %ymm8,%ymm12,%ymm3
  40cc6a:	c5 3d ef f4          	vpxor  %ymm4,%ymm8,%ymm14
  40cc6e:	c5 dd eb e1          	vpor   %ymm1,%ymm4,%ymm4
  40cc72:	c4 41 7d ef fa       	vpxor  %ymm10,%ymm0,%ymm15
  40cc77:	c5 7e 6f a4 24 80 02 	vmovdqu 0x280(%rsp),%ymm12
  40cc7e:	00 00 
  40cc80:	c5 9d db c9          	vpand  %ymm1,%ymm12,%ymm1
  40cc84:	c5 9d ef e4          	vpxor  %ymm4,%ymm12,%ymm4
  40cc88:	c4 41 75 ef e6       	vpxor  %ymm14,%ymm1,%ymm12
  40cc8d:	c5 3d ef c4          	vpxor  %ymm4,%ymm8,%ymm8
  40cc91:	c5 8d db d4          	vpand  %ymm4,%ymm14,%ymm2
  40cc95:	c5 bd ef 8e 00 a2 00 	vpxor  0xa200(%rsi),%ymm8,%ymm1
  40cc9c:	00 
  40cc9d:	c5 65 ef c2          	vpxor  %ymm2,%ymm3,%ymm8
  40cca1:	c5 9d eb db          	vpor   %ymm3,%ymm12,%ymm3
  40cca5:	c5 1d ef a6 20 a0 00 	vpxor  0xa020(%rsi),%ymm12,%ymm12
  40ccac:	00 
  40ccad:	c5 fe 7f 8c 24 e0 0a 	vmovdqu %ymm1,0xae0(%rsp)
  40ccb4:	00 00 
  40ccb6:	c5 dd ef e3          	vpxor  %ymm3,%ymm4,%ymm4
  40ccba:	c5 cd ef cd          	vpxor  %ymm5,%ymm6,%ymm1
  40ccbe:	c5 3d ef b6 80 a6 00 	vpxor  0xa680(%rsi),%ymm8,%ymm14
  40ccc5:	00 
  40ccc6:	c5 7e 7f a4 24 20 09 	vmovdqu %ymm12,0x920(%rsp)
  40cccd:	00 00 
  40cccf:	c5 5d ef 8e a0 a4 00 	vpxor  0xa4a0(%rsi),%ymm4,%ymm9
  40ccd6:	00 
  40ccd7:	c5 ad ef e6          	vpxor  %ymm6,%ymm10,%ymm4
  40ccdb:	c4 41 55 eb d7       	vpor   %ymm15,%ymm5,%ymm10
  40cce0:	c4 c1 15 db ef       	vpand  %ymm15,%ymm13,%ymm5
  40cce5:	c5 7e 7f b4 24 a0 07 	vmovdqu %ymm14,0x7a0(%rsp)
  40ccec:	00 00 
  40ccee:	c5 7e 7f 8c 24 60 0d 	vmovdqu %ymm9,0xd60(%rsp)
  40ccf5:	00 00 
  40ccf7:	c4 c1 15 ef d2       	vpxor  %ymm10,%ymm13,%ymm2
  40ccfc:	c5 d5 ef d9          	vpxor  %ymm1,%ymm5,%ymm3
  40cd00:	c4 41 7d ef f3       	vpxor  %ymm11,%ymm0,%ymm14
  40cd05:	c5 4d ef ea          	vpxor  %ymm2,%ymm6,%ymm13
  40cd09:	c5 f5 db f2          	vpand  %ymm2,%ymm1,%ymm6
  40cd0d:	c5 65 ef 86 40 a0 00 	vpxor  0xa040(%rsi),%ymm3,%ymm8
  40cd14:	00 
  40cd15:	c5 95 ef ae 20 a2 00 	vpxor  0xa220(%rsi),%ymm13,%ymm5
  40cd1c:	00 
  40cd1d:	c5 5d ef e6          	vpxor  %ymm6,%ymm4,%ymm12
  40cd21:	c5 a5 ef f7          	vpxor  %ymm7,%ymm11,%ymm6
  40cd25:	c5 e5 eb e4          	vpor   %ymm4,%ymm3,%ymm4
  40cd29:	c5 7e 6f 9c 24 00 02 	vmovdqu 0x200(%rsp),%ymm11
  40cd30:	00 00 
  40cd32:	c5 fe 7f ac 24 40 0b 	vmovdqu %ymm5,0xb40(%rsp)
  40cd39:	00 00 
  40cd3b:	c5 fe 6f ac 24 40 0e 	vmovdqu 0xe40(%rsp),%ymm5
  40cd42:	00 00 
  40cd44:	c5 7e 7f 84 24 40 0a 	vmovdqu %ymm8,0xa40(%rsp)
  40cd4b:	00 00 
  40cd4d:	c5 6d ef cc          	vpxor  %ymm4,%ymm2,%ymm9
  40cd51:	c4 c1 25 eb e6       	vpor   %ymm14,%ymm11,%ymm4
  40cd56:	c4 c1 45 ef d3       	vpxor  %ymm11,%ymm7,%ymm2
  40cd5b:	c4 41 55 db de       	vpand  %ymm14,%ymm5,%ymm11
  40cd60:	c5 35 ef 96 c0 a4 00 	vpxor  0xa4c0(%rsi),%ymm9,%ymm10
  40cd67:	00 
  40cd68:	c5 55 ef c4          	vpxor  %ymm4,%ymm5,%ymm8
  40cd6c:	c5 1d ef ae a0 a6 00 	vpxor  0xa6a0(%rsi),%ymm12,%ymm13
  40cd73:	00 
  40cd74:	c5 7e 7f 94 24 80 0d 	vmovdqu %ymm10,0xd80(%rsp)
  40cd7b:	00 00 
  40cd7d:	c4 c1 45 ef f8       	vpxor  %ymm8,%ymm7,%ymm7
  40cd82:	c5 25 ef d2          	vpxor  %ymm2,%ymm11,%ymm10
  40cd86:	c4 c1 6d db d8       	vpand  %ymm8,%ymm2,%ymm3
  40cd8b:	c5 7e 6f 9c 24 c0 0e 	vmovdqu 0xec0(%rsp),%ymm11
  40cd92:	00 00 
  40cd94:	c5 7e 7f ac 24 c0 07 	vmovdqu %ymm13,0x7c0(%rsp)
  40cd9b:	00 00 
  40cd9d:	c5 c5 ef 8e 40 a2 00 	vpxor  0xa240(%rsi),%ymm7,%ymm1
  40cda4:	00 
  40cda5:	c5 2d eb ce          	vpor   %ymm6,%ymm10,%ymm9
  40cda9:	c4 c1 7d ef d3       	vpxor  %ymm11,%ymm0,%ymm2
  40cdae:	c5 4d ef fb          	vpxor  %ymm3,%ymm6,%ymm15
  40cdb2:	c5 2d ef a6 60 a0 00 	vpxor  0xa060(%rsi),%ymm10,%ymm12
  40cdb9:	00 
  40cdba:	c4 41 3d ef e9       	vpxor  %ymm9,%ymm8,%ymm13
  40cdbf:	c5 fe 7f 8c 24 40 0d 	vmovdqu %ymm1,0xd40(%rsp)
  40cdc6:	00 00 
  40cdc8:	c5 fe 6f 8c 24 e0 0d 	vmovdqu 0xde0(%rsp),%ymm1
  40cdcf:	00 00 
  40cdd1:	c5 7e 6f 84 24 c0 06 	vmovdqu 0x6c0(%rsp),%ymm8
  40cdd8:	00 00 
  40cdda:	c5 fe 6f 9c 24 80 0e 	vmovdqu 0xe80(%rsp),%ymm3
  40cde1:	00 00 
  40cde3:	c5 7e 7f a4 24 60 0a 	vmovdqu %ymm12,0xa60(%rsp)
  40cdea:	00 00 
  40cdec:	c5 f5 eb f2          	vpor   %ymm2,%ymm1,%ymm6
  40cdf0:	c5 85 ef a6 c0 a6 00 	vpxor  0xa6c0(%rsi),%ymm15,%ymm4
  40cdf7:	00 
  40cdf8:	c5 3d ef e1          	vpxor  %ymm1,%ymm8,%ymm12
  40cdfc:	c5 e5 db fa          	vpand  %ymm2,%ymm3,%ymm7
  40ce00:	c5 65 ef fe          	vpxor  %ymm6,%ymm3,%ymm15
  40ce04:	c5 95 ef ae e0 a4 00 	vpxor  0xa4e0(%rsi),%ymm13,%ymm5
  40ce0b:	00 
  40ce0c:	c4 41 25 ef f0       	vpxor  %ymm8,%ymm11,%ymm14
  40ce11:	c4 41 45 ef dc       	vpxor  %ymm12,%ymm7,%ymm11
  40ce16:	c4 41 1d db ef       	vpand  %ymm15,%ymm12,%ymm13
  40ce1b:	c4 41 3d ef cf       	vpxor  %ymm15,%ymm8,%ymm9
  40ce20:	c5 fe 6f 9c 24 00 0f 	vmovdqu 0xf00(%rsp),%ymm3
  40ce27:	00 00 
  40ce29:	c5 fe 6f b4 24 20 0e 	vmovdqu 0xe20(%rsp),%ymm6
  40ce30:	00 00 
  40ce32:	c5 7e 6f 84 24 e0 0e 	vmovdqu 0xee0(%rsp),%ymm8
  40ce39:	00 00 
  40ce3b:	c5 7e 6f a4 24 c0 0d 	vmovdqu 0xdc0(%rsp),%ymm12
  40ce42:	00 00 
  40ce44:	c5 fe 7f a4 24 e0 07 	vmovdqu %ymm4,0x7e0(%rsp)
  40ce4b:	00 00 
  40ce4d:	c4 c1 0d ef cd       	vpxor  %ymm13,%ymm14,%ymm1
  40ce52:	c5 fd ef fb          	vpxor  %ymm3,%ymm0,%ymm7
  40ce56:	c4 c1 25 eb e6       	vpor   %ymm14,%ymm11,%ymm4
  40ce5b:	c5 35 ef 96 60 a2 00 	vpxor  0xa260(%rsi),%ymm9,%ymm10
  40ce62:	00 
  40ce63:	c5 f5 ef 96 e0 a6 00 	vpxor  0xa6e0(%rsi),%ymm1,%ymm2
  40ce6a:	00 
  40ce6b:	c5 4d eb cf          	vpor   %ymm7,%ymm6,%ymm9
  40ce6f:	c5 9d ef ce          	vpxor  %ymm6,%ymm12,%ymm1
  40ce73:	c5 25 ef b6 80 a0 00 	vpxor  0xa080(%rsi),%ymm11,%ymm14
  40ce7a:	00 
  40ce7b:	c4 41 65 ef dc       	vpxor  %ymm12,%ymm3,%ymm11
  40ce80:	c5 05 ef fc          	vpxor  %ymm4,%ymm15,%ymm15
  40ce84:	c5 fe 7f 94 24 00 08 	vmovdqu %ymm2,0x800(%rsp)
  40ce8b:	00 00 
  40ce8d:	c5 7e 7f 94 24 20 0d 	vmovdqu %ymm10,0xd20(%rsp)
  40ce94:	00 00 
  40ce96:	c5 7e 7f b4 24 80 0a 	vmovdqu %ymm14,0xa80(%rsp)
  40ce9d:	00 00 
  40ce9f:	c4 c1 3d ef d1       	vpxor  %ymm9,%ymm8,%ymm2
  40cea4:	c5 3d db d7          	vpand  %ymm7,%ymm8,%ymm10
  40cea8:	c5 85 ef a6 00 a5 00 	vpxor  0xa500(%rsi),%ymm15,%ymm4
  40ceaf:	00 
  40ceb0:	c5 1d ef ea          	vpxor  %ymm2,%ymm12,%ymm13
  40ceb4:	c5 ad ef d9          	vpxor  %ymm1,%ymm10,%ymm3
  40ceb8:	c5 15 ef a6 80 a2 00 	vpxor  0xa280(%rsi),%ymm13,%ymm12
  40cebf:	00 
  40cec0:	c5 75 db ea          	vpand  %ymm2,%ymm1,%ymm13
  40cec4:	c5 e5 ef b6 a0 a0 00 	vpxor  0xa0a0(%rsi),%ymm3,%ymm6
  40cecb:	00 
  40cecc:	c5 fe 6f 8c 24 00 0e 	vmovdqu 0xe00(%rsp),%ymm1
  40ced3:	00 00 
  40ced5:	c5 7e 7f a4 24 00 0d 	vmovdqu %ymm12,0xd00(%rsp)
  40cedc:	00 00 
  40cede:	c4 41 25 ef c5       	vpxor  %ymm13,%ymm11,%ymm8
  40cee3:	c4 41 65 eb db       	vpor   %ymm11,%ymm3,%ymm11
  40cee8:	c5 fe 7f b4 24 a0 0a 	vmovdqu %ymm6,0xaa0(%rsp)
  40ceef:	00 00 
  40cef1:	c5 fe 6f 9c 24 a0 0e 	vmovdqu 0xea0(%rsp),%ymm3
  40cef8:	00 00 
  40cefa:	c4 c1 6d ef fb       	vpxor  %ymm11,%ymm2,%ymm7
  40ceff:	c5 fe 6f 94 24 60 0e 	vmovdqu 0xe60(%rsp),%ymm2
  40cf06:	00 00 
  40cf08:	c5 c5 ef b6 20 a5 00 	vpxor  0xa520(%rsi),%ymm7,%ymm6
  40cf0f:	00 
  40cf10:	c5 fe 6f be 00 a7 00 	vmovdqu 0xa700(%rsi),%ymm7
  40cf17:	00 
  40cf18:	c5 7e 6f 94 24 60 0b 	vmovdqu 0xb60(%rsp),%ymm10
  40cf1f:	00 00 
  40cf21:	c5 fe 7f a4 24 e0 0d 	vmovdqu %ymm4,0xde0(%rsp)
  40cf28:	00 00 
  40cf2a:	c5 fe 6f a4 24 e0 06 	vmovdqu 0x6e0(%rsp),%ymm4
  40cf31:	00 00 
  40cf33:	c5 fe 7f b4 24 00 0e 	vmovdqu %ymm6,0xe00(%rsp)
  40cf3a:	00 00 
  40cf3c:	c5 fe 7f ac 24 c0 0d 	vmovdqu %ymm5,0xdc0(%rsp)
  40cf43:	00 00 
  40cf45:	c4 41 7d ef ca       	vpxor  %ymm10,%ymm0,%ymm9
  40cf4a:	c5 3d ef df          	vpxor  %ymm7,%ymm8,%ymm11
  40cf4e:	c5 f5 ef fc          	vpxor  %ymm4,%ymm1,%ymm7
  40cf52:	c5 2d ef e1          	vpxor  %ymm1,%ymm10,%ymm12
  40cf56:	c4 c1 5d eb f1       	vpor   %ymm9,%ymm4,%ymm6
  40cf5b:	c5 7e 6f 84 24 40 09 	vmovdqu 0x940(%rsp),%ymm8
  40cf62:	00 00 
  40cf64:	c5 7e 7f 9c 24 20 0e 	vmovdqu %ymm11,0xe20(%rsp)
  40cf6b:	00 00 
  40cf6d:	c5 bd ef ee          	vpxor  %ymm6,%ymm8,%ymm5
  40cf71:	c4 41 3d db e9       	vpand  %ymm9,%ymm8,%ymm13
  40cf76:	c5 fe 6f b4 24 80 0b 	vmovdqu 0xb80(%rsp),%ymm6
  40cf7d:	00 00 
  40cf7f:	c5 75 ef dd          	vpxor  %ymm5,%ymm1,%ymm11
  40cf83:	c5 15 ef f7          	vpxor  %ymm7,%ymm13,%ymm14
  40cf87:	c5 c5 db cd          	vpand  %ymm5,%ymm7,%ymm1
  40cf8b:	c5 fd ef fe          	vpxor  %ymm6,%ymm0,%ymm7
  40cf8f:	c5 25 ef 96 a0 a2 00 	vpxor  0xa2a0(%rsi),%ymm11,%ymm10
  40cf96:	00 
  40cf97:	c5 4d ef ea          	vpxor  %ymm2,%ymm6,%ymm13
  40cf9b:	c5 1d ef c9          	vpxor  %ymm1,%ymm12,%ymm9
  40cf9f:	c4 41 0d eb e4       	vpor   %ymm12,%ymm14,%ymm12
  40cfa4:	c5 7e 6f 9c 24 00 07 	vmovdqu 0x700(%rsp),%ymm11
  40cfab:	00 00 
  40cfad:	c5 fe 6f 8c 24 60 09 	vmovdqu 0x960(%rsp),%ymm1
  40cfb4:	00 00 
  40cfb6:	c4 41 55 ef fc       	vpxor  %ymm12,%ymm5,%ymm15
  40cfbb:	c5 0d ef a6 c0 a0 00 	vpxor  0xa0c0(%rsi),%ymm14,%ymm12
  40cfc2:	00 
  40cfc3:	c5 a5 eb ef          	vpor   %ymm7,%ymm11,%ymm5
  40cfc7:	c5 35 ef 86 20 a7 00 	vpxor  0xa720(%rsi),%ymm9,%ymm8
  40cfce:	00 
  40cfcf:	c5 85 ef a6 40 a5 00 	vpxor  0xa540(%rsi),%ymm15,%ymm4
  40cfd6:	00 
  40cfd7:	c4 41 6d ef fb       	vpxor  %ymm11,%ymm2,%ymm15
  40cfdc:	c5 75 db f7          	vpand  %ymm7,%ymm1,%ymm14
  40cfe0:	c5 75 ef cd          	vpxor  %ymm5,%ymm1,%ymm9
  40cfe4:	c5 7e 7f 84 24 60 0e 	vmovdqu %ymm8,0xe60(%rsp)
  40cfeb:	00 00 
  40cfed:	c5 fe 7f a4 24 40 0e 	vmovdqu %ymm4,0xe40(%rsp)
  40cff4:	00 00 
  40cff6:	c4 41 0d ef c7       	vpxor  %ymm15,%ymm14,%ymm8
  40cffb:	c4 c1 6d ef d1       	vpxor  %ymm9,%ymm2,%ymm2
  40d000:	c4 c1 05 db e1       	vpand  %ymm9,%ymm15,%ymm4
  40d005:	c5 7e 6f b4 24 a0 0b 	vmovdqu 0xba0(%rsp),%ymm14
  40d00c:	00 00 
  40d00e:	c5 6d ef 9e c0 a2 00 	vpxor  0xa2c0(%rsi),%ymm2,%ymm11
  40d015:	00 
  40d016:	c4 c1 3d eb d5       	vpor   %ymm13,%ymm8,%ymm2
  40d01b:	c5 95 ef cc          	vpxor  %ymm4,%ymm13,%ymm1
  40d01f:	c5 bd ef b6 e0 a0 00 	vpxor  0xa0e0(%rsi),%ymm8,%ymm6
  40d026:	00 
  40d027:	c5 fe 6f a4 24 20 07 	vmovdqu 0x720(%rsp),%ymm4
  40d02e:	00 00 
  40d030:	c5 35 ef ea          	vpxor  %ymm2,%ymm9,%ymm13
  40d034:	c4 c1 7d ef d6       	vpxor  %ymm14,%ymm0,%ymm2
  40d039:	c5 f5 ef ae 40 a7 00 	vpxor  0xa740(%rsi),%ymm1,%ymm5
  40d040:	00 
  40d041:	c5 65 ef fc          	vpxor  %ymm4,%ymm3,%ymm15
  40d045:	c5 95 ef be 60 a5 00 	vpxor  0xa560(%rsi),%ymm13,%ymm7
  40d04c:	00 
  40d04d:	c5 5d eb c2          	vpor   %ymm2,%ymm4,%ymm8
  40d051:	c5 7e 6f 8c 24 80 09 	vmovdqu 0x980(%rsp),%ymm9
  40d058:	00 00 
  40d05a:	c5 fe 7f b4 24 80 0e 	vmovdqu %ymm6,0xe80(%rsp)
  40d061:	00 00 
  40d063:	c5 fe 7f bc 24 a0 0e 	vmovdqu %ymm7,0xea0(%rsp)
  40d06a:	00 00 
  40d06c:	c5 fe 7f 6c 24 60    	vmovdqu %ymm5,0x60(%rsp)
  40d072:	c5 b5 db f2          	vpand  %ymm2,%ymm9,%ymm6
  40d076:	c4 c1 35 ef d0       	vpxor  %ymm8,%ymm9,%ymm2
  40d07b:	c5 8d ef fb          	vpxor  %ymm3,%ymm14,%ymm7
  40d07f:	c4 41 4d ef c7       	vpxor  %ymm15,%ymm6,%ymm8
  40d084:	c5 e5 ef da          	vpxor  %ymm2,%ymm3,%ymm3
  40d088:	c5 85 db e2          	vpand  %ymm2,%ymm15,%ymm4
  40d08c:	c5 3d eb cf          	vpor   %ymm7,%ymm8,%ymm9
  40d090:	c5 65 ef ae e0 a2 00 	vpxor  0xa2e0(%rsi),%ymm3,%ymm13
  40d097:	00 
  40d098:	c5 c5 ef ec          	vpxor  %ymm4,%ymm7,%ymm5
  40d09c:	c5 bd ef b6 00 a1 00 	vpxor  0xa100(%rsi),%ymm8,%ymm6
  40d0a3:	00 
  40d0a4:	c4 c1 6d ef f9       	vpxor  %ymm9,%ymm2,%ymm7
  40d0a9:	c5 fe 6f 9c 24 c0 0b 	vmovdqu 0xbc0(%rsp),%ymm3
  40d0b0:	00 00 
  40d0b2:	c5 fe 6f a4 24 20 08 	vmovdqu 0x820(%rsp),%ymm4
  40d0b9:	00 00 
  40d0bb:	c5 7e 6f 8c 24 a0 09 	vmovdqu 0x9a0(%rsp),%ymm9
  40d0c2:	00 00 
  40d0c4:	c5 fe 7f b4 24 c0 0e 	vmovdqu %ymm6,0xec0(%rsp)
  40d0cb:	00 00 
  40d0cd:	c5 fd ef d3          	vpxor  %ymm3,%ymm0,%ymm2
  40d0d1:	c5 55 ef b6 60 a7 00 	vpxor  0xa760(%rsi),%ymm5,%ymm14
  40d0d8:	00 
  40d0d9:	c5 c5 ef 8e 80 a5 00 	vpxor  0xa580(%rsi),%ymm7,%ymm1
  40d0e0:	00 
  40d0e1:	c5 fe 6f ac 24 a0 0d 	vmovdqu 0xda0(%rsp),%ymm5
  40d0e8:	00 00 
  40d0ea:	c5 dd eb fa          	vpor   %ymm2,%ymm4,%ymm7
  40d0ee:	c5 fe 7f 8c 24 e0 0e 	vmovdqu %ymm1,0xee0(%rsp)
  40d0f5:	00 00 
  40d0f7:	c5 7e 7f b4 24 80 00 	vmovdqu %ymm14,0x80(%rsp)
  40d0fe:	00 00 
  40d100:	c5 55 ef c4          	vpxor  %ymm4,%ymm5,%ymm8
  40d104:	c5 b5 db ca          	vpand  %ymm2,%ymm9,%ymm1
  40d108:	c5 35 ef ff          	vpxor  %ymm7,%ymm9,%ymm15
  40d10c:	c5 e5 ef f5          	vpxor  %ymm5,%ymm3,%ymm6
  40d110:	c4 c1 75 ef e0       	vpxor  %ymm8,%ymm1,%ymm4
  40d115:	c4 41 3d db c7       	vpand  %ymm15,%ymm8,%ymm8
  40d11a:	c4 41 55 ef f7       	vpxor  %ymm15,%ymm5,%ymm14
  40d11f:	c5 fe 6f 8c 24 e0 0b 	vmovdqu 0xbe0(%rsp),%ymm1
  40d126:	00 00 
  40d128:	c5 fe 6f ac 24 40 08 	vmovdqu 0x840(%rsp),%ymm5
  40d12f:	00 00 
  40d131:	c4 c1 4d ef f8       	vpxor  %ymm8,%ymm6,%ymm7
  40d136:	c5 dd eb f6          	vpor   %ymm6,%ymm4,%ymm6
  40d13a:	c5 8d ef 9e 00 a3 00 	vpxor  0xa300(%rsi),%ymm14,%ymm3
  40d141:	00 
  40d142:	c5 7d ef f1          	vpxor  %ymm1,%ymm0,%ymm14
  40d146:	c5 dd ef 96 20 a1 00 	vpxor  0xa120(%rsi),%ymm4,%ymm2
  40d14d:	00 
  40d14e:	c5 05 ef ce          	vpxor  %ymm6,%ymm15,%ymm9
  40d152:	c5 c5 ef b6 80 a7 00 	vpxor  0xa780(%rsi),%ymm7,%ymm6
  40d159:	00 
  40d15a:	c4 41 55 eb fe       	vpor   %ymm14,%ymm5,%ymm15
  40d15f:	c5 fe 7f 9c 24 00 0f 	vmovdqu %ymm3,0xf00(%rsp)
  40d166:	00 00 
  40d168:	c5 fe 6f 9c 24 c0 09 	vmovdqu 0x9c0(%rsp),%ymm3
  40d16f:	00 00 
  40d171:	c5 fe 7f 94 24 20 0f 	vmovdqu %ymm2,0xf20(%rsp)
  40d178:	00 00 
  40d17a:	c5 fe 7f b4 24 a0 00 	vmovdqu %ymm6,0xa0(%rsp)
  40d181:	00 00 
  40d183:	c5 35 ef 86 a0 a5 00 	vpxor  0xa5a0(%rsi),%ymm9,%ymm8
  40d18a:	00 
  40d18b:	c4 c1 65 db e6       	vpand  %ymm14,%ymm3,%ymm4
  40d190:	c5 7e 7f 84 24 40 0f 	vmovdqu %ymm8,0xf40(%rsp)
  40d197:	00 00 
  40d199:	c5 7e 6f 84 24 c0 0c 	vmovdqu 0xcc0(%rsp),%ymm8
  40d1a0:	00 00 
  40d1a2:	c4 41 75 ef c8       	vpxor  %ymm8,%ymm1,%ymm9
  40d1a7:	c5 bd ef d5          	vpxor  %ymm5,%ymm8,%ymm2
  40d1ab:	c4 c1 65 ef cf       	vpxor  %ymm15,%ymm3,%ymm1
  40d1b0:	c5 dd ef ea          	vpxor  %ymm2,%ymm4,%ymm5
  40d1b4:	c5 ed db d1          	vpand  %ymm1,%ymm2,%ymm2
  40d1b8:	c5 bd ef f1          	vpxor  %ymm1,%ymm8,%ymm6
  40d1bc:	c5 7e 6f 84 24 60 08 	vmovdqu 0x860(%rsp),%ymm8
  40d1c3:	00 00 
  40d1c5:	c5 b5 ef e2          	vpxor  %ymm2,%ymm9,%ymm4
  40d1c9:	c4 41 55 eb c9       	vpor   %ymm9,%ymm5,%ymm9
  40d1ce:	c5 cd ef be 20 a3 00 	vpxor  0xa320(%rsi),%ymm6,%ymm7
  40d1d5:	00 
  40d1d6:	c5 55 ef b6 40 a1 00 	vpxor  0xa140(%rsi),%ymm5,%ymm14
  40d1dd:	00 
  40d1de:	c5 dd ef 96 a0 a7 00 	vpxor  0xa7a0(%rsi),%ymm4,%ymm2
  40d1e5:	00 
  40d1e6:	c4 c1 75 ef d9       	vpxor  %ymm9,%ymm1,%ymm3
  40d1eb:	c5 7e 6f 8c 24 00 0c 	vmovdqu 0xc00(%rsp),%ymm9
  40d1f2:	00 00 
  40d1f4:	c5 fe 7f bc 24 60 0f 	vmovdqu %ymm7,0xf60(%rsp)
  40d1fb:	00 00 
  40d1fd:	c5 7e 7f b4 24 c0 02 	vmovdqu %ymm14,0x2c0(%rsp)
  40d204:	00 00 
  40d206:	c5 7e 6f b4 24 20 0c 	vmovdqu 0xc20(%rsp),%ymm14
  40d20d:	00 00 
  40d20f:	c5 fe 6f bc 24 e0 09 	vmovdqu 0x9e0(%rsp),%ymm7
  40d216:	00 00 
  40d218:	c5 fe 7f 94 24 c0 00 	vmovdqu %ymm2,0xc0(%rsp)
  40d21f:	00 00 
  40d221:	c4 c1 7d ef f1       	vpxor  %ymm9,%ymm0,%ymm6
  40d226:	c5 65 ef be c0 a5 00 	vpxor  0xa5c0(%rsi),%ymm3,%ymm15
  40d22d:	00 
  40d22e:	c4 c1 35 ef e6       	vpxor  %ymm14,%ymm9,%ymm4
  40d233:	c5 bd eb ce          	vpor   %ymm6,%ymm8,%ymm1
  40d237:	c5 c5 db ee          	vpand  %ymm6,%ymm7,%ymm5
  40d23b:	c5 7e 7f bc 24 40 06 	vmovdqu %ymm15,0x640(%rsp)
  40d242:	00 00 
  40d244:	c5 45 ef c9          	vpxor  %ymm1,%ymm7,%ymm9
  40d248:	c4 41 0d ef f8       	vpxor  %ymm8,%ymm14,%ymm15
  40d24d:	c4 c1 0d ef d9       	vpxor  %ymm9,%ymm14,%ymm3
  40d252:	c4 41 55 ef c7       	vpxor  %ymm15,%ymm5,%ymm8
  40d257:	c4 41 05 db f9       	vpand  %ymm9,%ymm15,%ymm15
  40d25c:	c5 7e 6f b4 24 20 0b 	vmovdqu 0xb20(%rsp),%ymm14
  40d263:	00 00 
  40d265:	c5 e5 ef 96 40 a3 00 	vpxor  0xa340(%rsi),%ymm3,%ymm2
  40d26c:	00 
  40d26d:	c4 c1 5d ef cf       	vpxor  %ymm15,%ymm4,%ymm1
  40d272:	c5 bd eb e4          	vpor   %ymm4,%ymm8,%ymm4
  40d276:	c5 7e 6f bc 24 80 08 	vmovdqu 0x880(%rsp),%ymm15
  40d27d:	00 00 
  40d27f:	c5 fe 7f 94 24 a0 06 	vmovdqu %ymm2,0x6a0(%rsp)
  40d286:	00 00 
  40d288:	c5 b5 ef f4          	vpxor  %ymm4,%ymm9,%ymm6
  40d28c:	c5 bd ef 96 60 a1 00 	vpxor  0xa160(%rsi),%ymm8,%ymm2
  40d293:	00 
  40d294:	c4 c1 7d ef e6       	vpxor  %ymm14,%ymm0,%ymm4
  40d299:	c5 f5 ef ae c0 a7 00 	vpxor  0xa7c0(%rsi),%ymm1,%ymm5
  40d2a0:	00 
  40d2a1:	c5 cd ef be e0 a5 00 	vpxor  0xa5e0(%rsi),%ymm6,%ymm7
  40d2a8:	00 
  40d2a9:	c5 fe 7f 94 24 e0 02 	vmovdqu %ymm2,0x2e0(%rsp)
  40d2b0:	00 00 
  40d2b2:	c5 fe 6f b4 24 40 0c 	vmovdqu 0xc40(%rsp),%ymm6
  40d2b9:	00 00 
  40d2bb:	c5 fe 6f 94 24 00 0a 	vmovdqu 0xa00(%rsp),%ymm2
  40d2c2:	00 00 
  40d2c4:	c5 fe 7f bc 24 40 05 	vmovdqu %ymm7,0x540(%rsp)
  40d2cb:	00 00 
  40d2cd:	c5 fe 7f ac 24 e0 00 	vmovdqu %ymm5,0xe0(%rsp)
  40d2d4:	00 00 
  40d2d6:	c5 05 eb cc          	vpor   %ymm4,%ymm15,%ymm9
  40d2da:	c5 8d ef de          	vpxor  %ymm6,%ymm14,%ymm3
  40d2de:	c4 c1 4d ef cf       	vpxor  %ymm15,%ymm6,%ymm1
  40d2e3:	c5 6d db c4          	vpand  %ymm4,%ymm2,%ymm8
  40d2e7:	c4 41 6d ef f1       	vpxor  %ymm9,%ymm2,%ymm14
  40d2ec:	c5 3d ef f9          	vpxor  %ymm1,%ymm8,%ymm15
  40d2f0:	c4 c1 75 db ce       	vpand  %ymm14,%ymm1,%ymm1
  40d2f5:	c4 c1 4d ef fe       	vpxor  %ymm14,%ymm6,%ymm7
  40d2fa:	c5 fe 6f b4 24 00 0b 	vmovdqu 0xb00(%rsp),%ymm6
  40d301:	00 00 
  40d303:	c5 65 ef c9          	vpxor  %ymm1,%ymm3,%ymm9
  40d307:	c5 85 eb db          	vpor   %ymm3,%ymm15,%ymm3
  40d30b:	c5 85 ef a6 80 a1 00 	vpxor  0xa180(%rsi),%ymm15,%ymm4
  40d312:	00 
  40d313:	c5 c5 ef ae 60 a3 00 	vpxor  0xa360(%rsi),%ymm7,%ymm5
  40d31a:	00 
  40d31b:	c5 35 ef 86 e0 a7 00 	vpxor  0xa7e0(%rsi),%ymm9,%ymm8
  40d322:	00 
  40d323:	c5 8d ef d3          	vpxor  %ymm3,%ymm14,%ymm2
  40d327:	c5 fe 6f 9c 24 a0 08 	vmovdqu 0x8a0(%rsp),%ymm3
  40d32e:	00 00 
  40d330:	c5 fe 7f a4 24 00 03 	vmovdqu %ymm4,0x300(%rsp)
  40d337:	00 00 
  40d339:	c5 7e 6f b4 24 60 0c 	vmovdqu 0xc60(%rsp),%ymm14
  40d340:	00 00 
  40d342:	c5 7e 7f 84 24 00 01 	vmovdqu %ymm8,0x100(%rsp)
  40d349:	00 00 
  40d34b:	c5 fe 7f ac 24 60 05 	vmovdqu %ymm5,0x560(%rsp)
  40d352:	00 00 
  40d354:	c5 fd ef e6          	vpxor  %ymm6,%ymm0,%ymm4
  40d358:	c5 ed ef 8e 00 a4 00 	vpxor  0xa400(%rsi),%ymm2,%ymm1
  40d35f:	00 
  40d360:	c5 8d ef fb          	vpxor  %ymm3,%ymm14,%ymm7
  40d364:	c4 c1 4d ef ee       	vpxor  %ymm14,%ymm6,%ymm5
  40d369:	c5 65 eb cc          	vpor   %ymm4,%ymm3,%ymm9
  40d36d:	c5 fe 6f 94 24 20 0a 	vmovdqu 0xa20(%rsp),%ymm2
  40d374:	00 00 
  40d376:	c5 fe 6f 9c 24 00 09 	vmovdqu 0x900(%rsp),%ymm3
  40d37d:	00 00 
  40d37f:	c5 6d db c4          	vpand  %ymm4,%ymm2,%ymm8
  40d383:	c4 41 6d ef c9       	vpxor  %ymm9,%ymm2,%ymm9
  40d388:	c5 bd ef f7          	vpxor  %ymm7,%ymm8,%ymm6
  40d38c:	c4 c1 45 db f9       	vpand  %ymm9,%ymm7,%ymm7
  40d391:	c4 41 0d ef f1       	vpxor  %ymm9,%ymm14,%ymm14
  40d396:	c5 55 ef c7          	vpxor  %ymm7,%ymm5,%ymm8
  40d39a:	c5 cd eb ed          	vpor   %ymm5,%ymm6,%ymm5
  40d39e:	c5 8d ef a6 80 a3 00 	vpxor  0xa380(%rsi),%ymm14,%ymm4
  40d3a5:	00 
  40d3a6:	c5 3d ef b6 00 a6 00 	vpxor  0xa600(%rsi),%ymm8,%ymm14
  40d3ad:	00 
  40d3ae:	c5 b5 ef d5          	vpxor  %ymm5,%ymm9,%ymm2
  40d3b2:	c5 7e 6f 8c 24 c0 0a 	vmovdqu 0xac0(%rsp),%ymm9
  40d3b9:	00 00 
  40d3bb:	c5 fe 7f a4 24 00 05 	vmovdqu %ymm4,0x500(%rsp)
  40d3c2:	00 00 
  40d3c4:	c5 7e 6f 84 24 80 0c 	vmovdqu 0xc80(%rsp),%ymm8
  40d3cb:	00 00 
  40d3cd:	c5 cd ef a6 a0 a1 00 	vpxor  0xa1a0(%rsi),%ymm6,%ymm4
  40d3d4:	00 
  40d3d5:	c4 c1 7d ef f9       	vpxor  %ymm9,%ymm0,%ymm7
  40d3da:	c5 ed ef ae 20 a4 00 	vpxor  0xa420(%rsi),%ymm2,%ymm5
  40d3e1:	00 
  40d3e2:	c4 c1 35 ef d0       	vpxor  %ymm8,%ymm9,%ymm2
  40d3e7:	c5 fe 6f b4 24 40 07 	vmovdqu 0x740(%rsp),%ymm6
  40d3ee:	00 00 
  40d3f0:	c5 fe 7f a4 24 20 03 	vmovdqu %ymm4,0x320(%rsp)
  40d3f7:	00 00 
  40d3f9:	c5 65 db cf          	vpand  %ymm7,%ymm3,%ymm9
  40d3fd:	c5 4d eb ff          	vpor   %ymm7,%ymm6,%ymm15
  40d401:	c5 bd ef e6          	vpxor  %ymm6,%ymm8,%ymm4
  40d405:	c4 c1 65 ef ff       	vpxor  %ymm15,%ymm3,%ymm7
  40d40a:	c5 35 ef cc          	vpxor  %ymm4,%ymm9,%ymm9
  40d40e:	c5 dd db e7          	vpand  %ymm7,%ymm4,%ymm4
  40d412:	c5 3d ef c7          	vpxor  %ymm7,%ymm8,%ymm8
  40d416:	c5 6d ef fc          	vpxor  %ymm4,%ymm2,%ymm15
  40d41a:	c5 b5 eb d2          	vpor   %ymm2,%ymm9,%ymm2
  40d41e:	c5 bd ef b6 a0 a3 00 	vpxor  0xa3a0(%rsi),%ymm8,%ymm6
  40d425:	00 
  40d426:	c5 7e 6f 84 24 a0 0c 	vmovdqu 0xca0(%rsp),%ymm8
  40d42d:	00 00 
  40d42f:	c5 c5 ef da          	vpxor  %ymm2,%ymm7,%ymm3
  40d433:	c5 b5 ef be c0 a1 00 	vpxor  0xa1c0(%rsi),%ymm9,%ymm7
  40d43a:	00 
  40d43b:	c5 fe 6f 54 24 40    	vmovdqu 0x40(%rsp),%ymm2
  40d441:	c5 fe 7f b4 24 80 04 	vmovdqu %ymm6,0x480(%rsp)
  40d448:	00 00 
  40d44a:	c5 85 ef b6 20 a6 00 	vpxor  0xa620(%rsi),%ymm15,%ymm6
  40d451:	00 
  40d452:	c5 7e 6f bc 24 60 07 	vmovdqu 0x760(%rsp),%ymm15
  40d459:	00 00 
  40d45b:	c5 fe 7f bc 24 80 02 	vmovdqu %ymm7,0x280(%rsp)
  40d462:	00 00 
  40d464:	c5 fd ef e2          	vpxor  %ymm2,%ymm0,%ymm4
  40d468:	c5 e5 ef be 40 a4 00 	vpxor  0xa440(%rsi),%ymm3,%ymm7
  40d46f:	00 
  40d470:	c4 c1 6d ef d8       	vpxor  %ymm8,%ymm2,%ymm3
  40d475:	c4 41 3d ef cf       	vpxor  %ymm15,%ymm8,%ymm9
  40d47a:	c5 05 eb fc          	vpor   %ymm4,%ymm15,%ymm15
  40d47e:	c5 fe 6f 94 24 c0 08 	vmovdqu 0x8c0(%rsp),%ymm2
  40d485:	00 00 
  40d487:	c5 ed db e4          	vpand  %ymm4,%ymm2,%ymm4
  40d48b:	c4 41 6d ef ff       	vpxor  %ymm15,%ymm2,%ymm15
  40d490:	c4 c1 5d ef e1       	vpxor  %ymm9,%ymm4,%ymm4
  40d495:	c4 41 3d ef c7       	vpxor  %ymm15,%ymm8,%ymm8
  40d49a:	c4 41 35 db cf       	vpand  %ymm15,%ymm9,%ymm9
  40d49f:	c5 bd ef 96 c0 a3 00 	vpxor  0xa3c0(%rsi),%ymm8,%ymm2
  40d4a6:	00 
  40d4a7:	c4 41 65 ef c1       	vpxor  %ymm9,%ymm3,%ymm8
  40d4ac:	c5 dd eb db          	vpor   %ymm3,%ymm4,%ymm3
  40d4b0:	c5 dd ef a6 e0 a1 00 	vpxor  0xa1e0(%rsi),%ymm4,%ymm4
  40d4b7:	00 
  40d4b8:	c5 fe 7f 94 24 40 04 	vmovdqu %ymm2,0x440(%rsp)
  40d4bf:	00 00 
  40d4c1:	c5 85 ef d3          	vpxor  %ymm3,%ymm15,%ymm2
  40d4c5:	c5 3d ef 86 40 a6 00 	vpxor  0xa640(%rsi),%ymm8,%ymm8
  40d4cc:	00 
  40d4cd:	c5 fe 7f a4 24 40 02 	vmovdqu %ymm4,0x240(%rsp)
  40d4d4:	00 00 
  40d4d6:	c5 fe 6f a4 24 e0 0a 	vmovdqu 0xae0(%rsp),%ymm4
  40d4dd:	00 00 
  40d4df:	c5 7e 6f bc 24 e0 08 	vmovdqu 0x8e0(%rsp),%ymm15
  40d4e6:	00 00 
  40d4e8:	c5 6d ef 8e 60 a4 00 	vpxor  0xa460(%rsi),%ymm2,%ymm9
  40d4ef:	00 
  40d4f0:	c5 fd ef d4          	vpxor  %ymm4,%ymm0,%ymm2
  40d4f4:	c5 dd ef d9          	vpxor  %ymm1,%ymm4,%ymm3
  40d4f8:	c4 c1 75 ef e6       	vpxor  %ymm14,%ymm1,%ymm4
  40d4fd:	c5 0d eb f2          	vpor   %ymm2,%ymm14,%ymm14
  40d501:	c5 85 db d2          	vpand  %ymm2,%ymm15,%ymm2
  40d505:	c4 41 05 ef f6       	vpxor  %ymm14,%ymm15,%ymm14
  40d50a:	c5 6d ef fc          	vpxor  %ymm4,%ymm2,%ymm15
  40d50e:	c4 c1 75 ef ce       	vpxor  %ymm14,%ymm1,%ymm1
  40d513:	c4 c1 5d db e6       	vpand  %ymm14,%ymm4,%ymm4
  40d518:	c5 f5 ef 96 e0 ab 00 	vpxor  0xabe0(%rsi),%ymm1,%ymm2
  40d51f:	00 
  40d520:	c5 85 eb cb          	vpor   %ymm3,%ymm15,%ymm1
  40d524:	c5 fe 7f 14 24       	vmovdqu %ymm2,(%rsp)
  40d529:	c5 e5 ef d4          	vpxor  %ymm4,%ymm3,%ymm2
  40d52d:	c5 8d ef d9          	vpxor  %ymm1,%ymm14,%ymm3
  40d531:	c5 05 ef b6 00 a8 00 	vpxor  0xa800(%rsi),%ymm15,%ymm14
  40d538:	00 
  40d539:	c5 ed ef a6 60 ae 00 	vpxor  0xae60(%rsi),%ymm2,%ymm4
  40d540:	00 
  40d541:	c5 65 ef be 80 ac 00 	vpxor  0xac80(%rsi),%ymm3,%ymm15
  40d548:	00 
  40d549:	c5 fe 6f 94 24 40 0b 	vmovdqu 0xb40(%rsp),%ymm2
  40d550:	00 00 
  40d552:	c5 7e 7f b4 24 60 02 	vmovdqu %ymm14,0x260(%rsp)
  40d559:	00 00 
  40d55b:	c5 fe 7f a4 24 20 01 	vmovdqu %ymm4,0x120(%rsp)
  40d562:	00 00 
  40d564:	c5 7e 7f bc 24 20 05 	vmovdqu %ymm15,0x520(%rsp)
  40d56b:	00 00 
  40d56d:	c5 fd ef ca          	vpxor  %ymm2,%ymm0,%ymm1
  40d571:	c5 ed ef e5          	vpxor  %ymm5,%ymm2,%ymm4
  40d575:	c5 55 ef fe          	vpxor  %ymm6,%ymm5,%ymm15
  40d579:	c5 cd eb d1          	vpor   %ymm1,%ymm6,%ymm2
  40d57d:	c5 fe 6f b4 24 20 09 	vmovdqu 0x920(%rsp),%ymm6
  40d584:	00 00 
  40d586:	c5 cd db c9          	vpand  %ymm1,%ymm6,%ymm1
  40d58a:	c5 cd ef da          	vpxor  %ymm2,%ymm6,%ymm3
  40d58e:	c4 41 75 ef f7       	vpxor  %ymm15,%ymm1,%ymm14
  40d593:	c5 85 db f3          	vpand  %ymm3,%ymm15,%ymm6
  40d597:	c5 d5 ef eb          	vpxor  %ymm3,%ymm5,%ymm5
  40d59b:	c5 8d ef 8e 20 a8 00 	vpxor  0xa820(%rsi),%ymm14,%ymm1
  40d5a2:	00 
  40d5a3:	c5 5d ef fe          	vpxor  %ymm6,%ymm4,%ymm15
  40d5a7:	c5 8d eb e4          	vpor   %ymm4,%ymm14,%ymm4
  40d5ab:	c5 d5 ef 96 00 aa 00 	vpxor  0xaa00(%rsi),%ymm5,%ymm2
  40d5b2:	00 
  40d5b3:	c5 fe 7f 8c 24 a0 02 	vmovdqu %ymm1,0x2a0(%rsp)
  40d5ba:	00 00 
  40d5bc:	c5 e5 ef ec          	vpxor  %ymm4,%ymm3,%ymm5
  40d5c0:	c4 c1 45 ef c8       	vpxor  %ymm8,%ymm7,%ymm1
  40d5c5:	c5 05 ef b6 80 ae 00 	vpxor  0xae80(%rsi),%ymm15,%ymm14
  40d5cc:	00 
  40d5cd:	c5 fe 6f a4 24 40 0d 	vmovdqu 0xd40(%rsp),%ymm4
  40d5d4:	00 00 
  40d5d6:	c5 fe 7f 94 24 60 04 	vmovdqu %ymm2,0x460(%rsp)
  40d5dd:	00 00 
  40d5df:	c5 7e 6f bc 24 80 07 	vmovdqu 0x780(%rsp),%ymm15
  40d5e6:	00 00 
  40d5e8:	c5 7e 7f b4 24 40 01 	vmovdqu %ymm14,0x140(%rsp)
  40d5ef:	00 00 
  40d5f1:	c5 7e 6f b4 24 20 0d 	vmovdqu 0xd20(%rsp),%ymm14
  40d5f8:	00 00 
  40d5fa:	c5 fd ef d4          	vpxor  %ymm4,%ymm0,%ymm2
  40d5fe:	c5 d5 ef 9e a0 ac 00 	vpxor  0xaca0(%rsi),%ymm5,%ymm3
  40d605:	00 
  40d606:	c5 dd ef ef          	vpxor  %ymm7,%ymm4,%ymm5
  40d60a:	c5 bd eb e2          	vpor   %ymm2,%ymm8,%ymm4
  40d60e:	c5 7e 6f 84 24 40 0a 	vmovdqu 0xa40(%rsp),%ymm8
  40d615:	00 00 
  40d617:	c5 fe 7f 9c 24 80 05 	vmovdqu %ymm3,0x580(%rsp)
  40d61e:	00 00 
  40d620:	c5 bd db f2          	vpand  %ymm2,%ymm8,%ymm6
  40d624:	c5 3d ef c4          	vpxor  %ymm4,%ymm8,%ymm8
  40d628:	c5 cd ef f1          	vpxor  %ymm1,%ymm6,%ymm6
  40d62c:	c4 c1 45 ef f8       	vpxor  %ymm8,%ymm7,%ymm7
  40d631:	c4 c1 75 db d0       	vpand  %ymm8,%ymm1,%ymm2
  40d636:	c5 c5 ef a6 20 aa 00 	vpxor  0xaa20(%rsi),%ymm7,%ymm4
  40d63d:	00 
  40d63e:	c5 cd eb fd          	vpor   %ymm5,%ymm6,%ymm7
  40d642:	c5 d5 ef da          	vpxor  %ymm2,%ymm5,%ymm3
  40d646:	c4 c1 0d ef d1       	vpxor  %ymm9,%ymm14,%ymm2
  40d64b:	c5 fe 7f a4 24 a0 04 	vmovdqu %ymm4,0x4a0(%rsp)
  40d652:	00 00 
  40d654:	c5 bd ef cf          	vpxor  %ymm7,%ymm8,%ymm1
  40d658:	c5 4d ef 86 40 a8 00 	vpxor  0xa840(%rsi),%ymm6,%ymm8
  40d65f:	00 
  40d660:	c4 c1 35 ef e7       	vpxor  %ymm15,%ymm9,%ymm4
  40d665:	c5 e5 ef ae a0 ae 00 	vpxor  0xaea0(%rsi),%ymm3,%ymm5
  40d66c:	00 
  40d66d:	c5 f5 ef b6 c0 ac 00 	vpxor  0xacc0(%rsi),%ymm1,%ymm6
  40d674:	00 
  40d675:	c5 7e 7f 84 24 40 03 	vmovdqu %ymm8,0x340(%rsp)
  40d67c:	00 00 
  40d67e:	c4 41 7d ef c6       	vpxor  %ymm14,%ymm0,%ymm8
  40d683:	c5 fe 7f b4 24 c0 05 	vmovdqu %ymm6,0x5c0(%rsp)
  40d68a:	00 00 
  40d68c:	c5 fe 6f b4 24 60 0a 	vmovdqu 0xa60(%rsp),%ymm6
  40d693:	00 00 
  40d695:	c5 fe 7f ac 24 80 01 	vmovdqu %ymm5,0x180(%rsp)
  40d69c:	00 00 
  40d69e:	c4 c1 05 eb f8       	vpor   %ymm8,%ymm15,%ymm7
  40d6a3:	c5 7e 6f bc 24 00 0d 	vmovdqu 0xd00(%rsp),%ymm15
  40d6aa:	00 00 
  40d6ac:	c4 c1 4d db c8       	vpand  %ymm8,%ymm6,%ymm1
  40d6b1:	c5 cd ef ef          	vpxor  %ymm7,%ymm6,%ymm5
  40d6b5:	c5 f5 ef dc          	vpxor  %ymm4,%ymm1,%ymm3
  40d6b9:	c5 dd db e5          	vpand  %ymm5,%ymm4,%ymm4
  40d6bd:	c5 35 ef cd          	vpxor  %ymm5,%ymm9,%ymm9
  40d6c1:	c5 65 ef 86 60 a8 00 	vpxor  0xa860(%rsi),%ymm3,%ymm8
  40d6c8:	00 
  40d6c9:	c5 ed ef cc          	vpxor  %ymm4,%ymm2,%ymm1
  40d6cd:	c5 e5 eb d2          	vpor   %ymm2,%ymm3,%ymm2
  40d6d1:	c5 35 ef 8e 40 aa 00 	vpxor  0xaa40(%rsi),%ymm9,%ymm9
  40d6d8:	00 
  40d6d9:	c5 fe 6f a4 24 a0 07 	vmovdqu 0x7a0(%rsp),%ymm4
  40d6e0:	00 00 
  40d6e2:	c5 7e 7f 84 24 60 03 	vmovdqu %ymm8,0x360(%rsp)
  40d6e9:	00 00 
  40d6eb:	c5 d5 ef f2          	vpxor  %ymm2,%ymm5,%ymm6
  40d6ef:	c4 c1 7d ef d7       	vpxor  %ymm15,%ymm0,%ymm2
  40d6f4:	c5 75 ef b6 c0 ae 00 	vpxor  0xaec0(%rsi),%ymm1,%ymm14
  40d6fb:	00 
  40d6fc:	c5 7e 7f 8c 24 c0 04 	vmovdqu %ymm9,0x4c0(%rsp)
  40d703:	00 00 
  40d705:	c5 7e 6f 8c 24 80 0a 	vmovdqu 0xa80(%rsp),%ymm9
  40d70c:	00 00 
  40d70e:	c5 cd ef be e0 ac 00 	vpxor  0xace0(%rsi),%ymm6,%ymm7
  40d715:	00 
  40d716:	c5 5d eb c2          	vpor   %ymm2,%ymm4,%ymm8
  40d71a:	c5 7e 7f b4 24 a0 01 	vmovdqu %ymm14,0x1a0(%rsp)
  40d721:	00 00 
  40d723:	c5 b5 db f2          	vpand  %ymm2,%ymm9,%ymm6
  40d727:	c5 fe 7f bc 24 00 06 	vmovdqu %ymm7,0x600(%rsp)
  40d72e:	00 00 
  40d730:	c5 fe 6f bc 24 e0 0c 	vmovdqu 0xce0(%rsp),%ymm7
  40d737:	00 00 
  40d739:	c5 85 ef cf          	vpxor  %ymm7,%ymm15,%ymm1
  40d73d:	c5 c5 ef ec          	vpxor  %ymm4,%ymm7,%ymm5
  40d741:	c4 41 35 ef f8       	vpxor  %ymm8,%ymm9,%ymm15
  40d746:	c5 cd ef e5          	vpxor  %ymm5,%ymm6,%ymm4
  40d74a:	c4 c1 55 db ef       	vpand  %ymm15,%ymm5,%ymm5
  40d74f:	c4 c1 45 ef df       	vpxor  %ymm15,%ymm7,%ymm3
  40d754:	c5 dd ef 96 80 a8 00 	vpxor  0xa880(%rsi),%ymm4,%ymm2
  40d75b:	00 
  40d75c:	c5 f5 ef f5          	vpxor  %ymm5,%ymm1,%ymm6
  40d760:	c5 65 ef b6 60 aa 00 	vpxor  0xaa60(%rsi),%ymm3,%ymm14
  40d767:	00 
  40d768:	c5 dd eb c9          	vpor   %ymm1,%ymm4,%ymm1
  40d76c:	c5 fe 6f 9c 24 60 0d 	vmovdqu 0xd60(%rsp),%ymm3
  40d773:	00 00 
  40d775:	c5 fe 6f a4 24 a0 0a 	vmovdqu 0xaa0(%rsp),%ymm4
  40d77c:	00 00 
  40d77e:	c5 fe 7f 94 24 80 03 	vmovdqu %ymm2,0x380(%rsp)
  40d785:	00 00 
  40d787:	c5 7e 7f b4 24 e0 04 	vmovdqu %ymm14,0x4e0(%rsp)
  40d78e:	00 00 
  40d790:	c5 cd ef be e0 ae 00 	vpxor  0xaee0(%rsi),%ymm6,%ymm7
  40d797:	00 
  40d798:	c5 05 ef c9          	vpxor  %ymm1,%ymm15,%ymm9
  40d79c:	c4 c1 7d ef ca       	vpxor  %ymm10,%ymm0,%ymm1
  40d7a1:	c5 fe 7f bc 24 c0 01 	vmovdqu %ymm7,0x1c0(%rsp)
  40d7a8:	00 00 
  40d7aa:	c5 ad ef fb          	vpxor  %ymm3,%ymm10,%ymm7
  40d7ae:	c5 35 ef 86 00 ad 00 	vpxor  0xad00(%rsi),%ymm9,%ymm8
  40d7b5:	00 
  40d7b6:	c5 5d db c9          	vpand  %ymm1,%ymm4,%ymm9
  40d7ba:	c5 7e 6f 94 24 c0 07 	vmovdqu 0x7c0(%rsp),%ymm10
  40d7c1:	00 00 
  40d7c3:	c5 7e 7f 84 24 60 06 	vmovdqu %ymm8,0x660(%rsp)
  40d7ca:	00 00 
  40d7cc:	c5 ad eb d1          	vpor   %ymm1,%ymm10,%ymm2
  40d7d0:	c4 c1 65 ef ea       	vpxor  %ymm10,%ymm3,%ymm5
  40d7d5:	c5 fe 6f 8c 24 80 0d 	vmovdqu 0xd80(%rsp),%ymm1
  40d7dc:	00 00 
  40d7de:	c5 5d ef f2          	vpxor  %ymm2,%ymm4,%ymm14
  40d7e2:	c5 35 ef fd          	vpxor  %ymm5,%ymm9,%ymm15
  40d7e6:	c4 41 65 ef c6       	vpxor  %ymm14,%ymm3,%ymm8
  40d7eb:	c4 41 55 db d6       	vpand  %ymm14,%ymm5,%ymm10
  40d7f0:	c5 85 ef a6 a0 a8 00 	vpxor  0xa8a0(%rsi),%ymm15,%ymm4
  40d7f7:	00 
  40d7f8:	c5 bd ef b6 80 aa 00 	vpxor  0xaa80(%rsi),%ymm8,%ymm6
  40d7ff:	00 
  40d800:	c4 41 45 ef ca       	vpxor  %ymm10,%ymm7,%ymm9
  40d805:	c5 85 eb ff          	vpor   %ymm7,%ymm15,%ymm7
  40d809:	c5 25 ef d1          	vpxor  %ymm1,%ymm11,%ymm10
  40d80d:	c5 fe 7f b4 24 a0 05 	vmovdqu %ymm6,0x5a0(%rsp)
  40d814:	00 00 
  40d816:	c5 fe 7f a4 24 a0 03 	vmovdqu %ymm4,0x3a0(%rsp)
  40d81d:	00 00 
  40d81f:	c4 c1 7d ef f3       	vpxor  %ymm11,%ymm0,%ymm6
  40d824:	c5 8d ef d7          	vpxor  %ymm7,%ymm14,%ymm2
  40d828:	c4 c1 7d ef fd       	vpxor  %ymm13,%ymm0,%ymm7
  40d82d:	c5 35 ef 86 00 af 00 	vpxor  0xaf00(%rsi),%ymm9,%ymm8
  40d834:	00 
  40d835:	c5 1d db ce          	vpand  %ymm6,%ymm12,%ymm9
  40d839:	c5 ed ef a6 20 ad 00 	vpxor  0xad20(%rsi),%ymm2,%ymm4
  40d840:	00 
  40d841:	c5 7e 6f 9c 24 e0 07 	vmovdqu 0x7e0(%rsp),%ymm11
  40d848:	00 00 
  40d84a:	c5 7e 7f 84 24 e0 01 	vmovdqu %ymm8,0x1e0(%rsp)
  40d851:	00 00 
  40d853:	c5 7e 6f b4 24 c0 0d 	vmovdqu 0xdc0(%rsp),%ymm14
  40d85a:	00 00 
  40d85c:	c5 a5 eb d6          	vpor   %ymm6,%ymm11,%ymm2
  40d860:	c4 41 75 ef c3       	vpxor  %ymm11,%ymm1,%ymm8
  40d865:	c5 9d ef f2          	vpxor  %ymm2,%ymm12,%ymm6
  40d869:	c4 41 35 ef d8       	vpxor  %ymm8,%ymm9,%ymm11
  40d86e:	c5 75 ef e6          	vpxor  %ymm6,%ymm1,%ymm12
  40d872:	c5 3d db ce          	vpand  %ymm6,%ymm8,%ymm9
  40d876:	c5 9d ef 96 a0 aa 00 	vpxor  0xaaa0(%rsi),%ymm12,%ymm2
  40d87d:	00 
  40d87e:	c4 c1 2d ef d9       	vpxor  %ymm9,%ymm10,%ymm3
  40d883:	c4 41 25 eb e2       	vpor   %ymm10,%ymm11,%ymm12
  40d888:	c5 25 ef 96 c0 a8 00 	vpxor  0xa8c0(%rsi),%ymm11,%ymm10
  40d88f:	00 
  40d890:	c4 41 15 ef de       	vpxor  %ymm14,%ymm13,%ymm11
  40d895:	c5 e5 ef ae 20 af 00 	vpxor  0xaf20(%rsi),%ymm3,%ymm5
  40d89c:	00 
  40d89d:	c4 c1 4d ef cc       	vpxor  %ymm12,%ymm6,%ymm1
  40d8a2:	c5 7e 6f ac 24 00 08 	vmovdqu 0x800(%rsp),%ymm13
  40d8a9:	00 00 
  40d8ab:	c5 7e 6f 8c 24 80 0e 	vmovdqu 0xe80(%rsp),%ymm9
  40d8b2:	00 00 
  40d8b4:	c5 fe 7f ac 24 00 02 	vmovdqu %ymm5,0x200(%rsp)
  40d8bb:	00 00 
  40d8bd:	c5 fe 7f 94 24 e0 05 	vmovdqu %ymm2,0x5e0(%rsp)
  40d8c4:	00 00 
  40d8c6:	c5 7e 7f 94 24 c0 03 	vmovdqu %ymm10,0x3c0(%rsp)
  40d8cd:	00 00 
  40d8cf:	c5 15 eb c7          	vpor   %ymm7,%ymm13,%ymm8
  40d8d3:	c5 f5 ef 96 40 ad 00 	vpxor  0xad40(%rsi),%ymm1,%ymm2
  40d8da:	00 
  40d8db:	c4 c1 0d ef cd       	vpxor  %ymm13,%ymm14,%ymm1
  40d8e0:	c5 b5 db f7          	vpand  %ymm7,%ymm9,%ymm6
  40d8e4:	c4 c1 35 ef e8       	vpxor  %ymm8,%ymm9,%ymm5
  40d8e9:	c5 4d ef d1          	vpxor  %ymm1,%ymm6,%ymm10
  40d8ed:	c5 0d ef ed          	vpxor  %ymm5,%ymm14,%ymm13
  40d8f1:	c5 f5 db dd          	vpand  %ymm5,%ymm1,%ymm3
  40d8f5:	c5 fe 6f 8c 24 20 0e 	vmovdqu 0xe20(%rsp),%ymm1
  40d8fc:	00 00 
  40d8fe:	c5 15 ef a6 c0 aa 00 	vpxor  0xaac0(%rsi),%ymm13,%ymm12
  40d905:	00 
  40d906:	c5 25 ef c3          	vpxor  %ymm3,%ymm11,%ymm8
  40d90a:	c4 41 2d eb db       	vpor   %ymm11,%ymm10,%ymm11
  40d90f:	c5 2d ef be e0 a8 00 	vpxor  0xa8e0(%rsi),%ymm10,%ymm15
  40d916:	00 
  40d917:	c5 7e 6f ac 24 00 0f 	vmovdqu 0xf00(%rsp),%ymm13
  40d91e:	00 00 
  40d920:	c5 7e 7f a4 24 20 06 	vmovdqu %ymm12,0x620(%rsp)
  40d927:	00 00 
  40d929:	c4 41 55 ef cb       	vpxor  %ymm11,%ymm5,%ymm9
  40d92e:	c5 bd ef b6 40 af 00 	vpxor  0xaf40(%rsi),%ymm8,%ymm6
  40d935:	00 
  40d936:	c4 c1 7d ef dd       	vpxor  %ymm13,%ymm0,%ymm3
  40d93b:	c5 7e 6f 9c 24 e0 0d 	vmovdqu 0xde0(%rsp),%ymm11
  40d942:	00 00 
  40d944:	c5 fe 6f ac 24 c0 0e 	vmovdqu 0xec0(%rsp),%ymm5
  40d94b:	00 00 
  40d94d:	c5 fe 7f b4 24 20 02 	vmovdqu %ymm6,0x220(%rsp)
  40d954:	00 00 
  40d956:	c5 7e 7f bc 24 e0 03 	vmovdqu %ymm15,0x3e0(%rsp)
  40d95d:	00 00 
  40d95f:	c5 f5 eb fb          	vpor   %ymm3,%ymm1,%ymm7
  40d963:	c4 41 15 ef e3       	vpxor  %ymm11,%ymm13,%ymm12
  40d968:	c5 25 ef c1          	vpxor  %ymm1,%ymm11,%ymm8
  40d96c:	c5 55 db d3          	vpand  %ymm3,%ymm5,%ymm10
  40d970:	c5 55 ef ef          	vpxor  %ymm7,%ymm5,%ymm13
  40d974:	c5 35 ef 8e 60 ad 00 	vpxor  0xad60(%rsi),%ymm9,%ymm9
  40d97b:	00 
  40d97c:	c5 fe 6f ac 24 60 0f 	vmovdqu 0xf60(%rsp),%ymm5
  40d983:	00 00 
  40d985:	c5 fe 6f bc 24 60 0e 	vmovdqu 0xe60(%rsp),%ymm7
  40d98c:	00 00 
  40d98e:	c4 41 25 ef f5       	vpxor  %ymm13,%ymm11,%ymm14
  40d993:	c4 c1 2d ef c8       	vpxor  %ymm8,%ymm10,%ymm1
  40d998:	c4 c1 3d db f5       	vpand  %ymm13,%ymm8,%ymm6
  40d99d:	c5 7d ef d5          	vpxor  %ymm5,%ymm0,%ymm10
  40d9a1:	c5 0d ef be e0 aa 00 	vpxor  0xaae0(%rsi),%ymm14,%ymm15
  40d9a8:	00 
  40d9a9:	c5 75 ef 86 00 a9 00 	vpxor  0xa900(%rsi),%ymm1,%ymm8
  40d9b0:	00 
  40d9b1:	c5 9d ef de          	vpxor  %ymm6,%ymm12,%ymm3
  40d9b5:	c4 41 75 eb e4       	vpor   %ymm12,%ymm1,%ymm12
  40d9ba:	c5 7e 7f bc 24 c0 06 	vmovdqu %ymm15,0x6c0(%rsp)
  40d9c1:	00 00 
  40d9c3:	c5 7e 6f bc 24 00 0e 	vmovdqu 0xe00(%rsp),%ymm15
  40d9ca:	00 00 
  40d9cc:	c5 7e 6f 9c 24 20 0f 	vmovdqu 0xf20(%rsp),%ymm11
  40d9d3:	00 00 
  40d9d5:	c5 7e 7f 84 24 00 04 	vmovdqu %ymm8,0x400(%rsp)
  40d9dc:	00 00 
  40d9de:	c4 c1 15 ef f4       	vpxor  %ymm12,%ymm13,%ymm6
  40d9e3:	c4 41 45 eb e2       	vpor   %ymm10,%ymm7,%ymm12
  40d9e8:	c4 41 25 db f2       	vpand  %ymm10,%ymm11,%ymm14
  40d9ed:	c5 65 ef ae 60 af 00 	vpxor  0xaf60(%rsi),%ymm3,%ymm13
  40d9f4:	00 
  40d9f5:	c5 4d ef 86 80 ad 00 	vpxor  0xad80(%rsi),%ymm6,%ymm8
  40d9fc:	00 
  40d9fd:	c5 85 ef f7          	vpxor  %ymm7,%ymm15,%ymm6
  40da01:	c4 c1 25 ef cc       	vpxor  %ymm12,%ymm11,%ymm1
  40da06:	c5 7e 7f ac 24 60 01 	vmovdqu %ymm13,0x160(%rsp)
  40da0d:	00 00 
  40da0f:	c5 7e 6f 9e 80 af 00 	vmovdqu 0xaf80(%rsi),%ymm11
  40da16:	00 
  40da17:	c4 41 55 ef ef       	vpxor  %ymm15,%ymm5,%ymm13
  40da1c:	c5 8d ef de          	vpxor  %ymm6,%ymm14,%ymm3
  40da20:	c5 cd db f1          	vpand  %ymm1,%ymm6,%ymm6
  40da24:	c5 05 ef f9          	vpxor  %ymm1,%ymm15,%ymm15
  40da28:	c5 e5 ef ae 20 a9 00 	vpxor  0xa920(%rsi),%ymm3,%ymm5
  40da2f:	00 
  40da30:	c5 95 ef f6          	vpxor  %ymm6,%ymm13,%ymm6
  40da34:	c4 41 65 eb ed       	vpor   %ymm13,%ymm3,%ymm13
  40da39:	c5 05 ef b6 00 ab 00 	vpxor  0xab00(%rsi),%ymm15,%ymm14
  40da40:	00 
  40da41:	c5 fe 7f ac 24 20 04 	vmovdqu %ymm5,0x420(%rsp)
  40da48:	00 00 
  40da4a:	c5 fe 6f 9c 24 a0 0e 	vmovdqu 0xea0(%rsp),%ymm3
  40da51:	00 00 
  40da53:	c5 fe 6f ac 24 e0 0e 	vmovdqu 0xee0(%rsp),%ymm5
  40da5a:	00 00 
  40da5c:	c5 7e 7f b4 24 80 06 	vmovdqu %ymm14,0x680(%rsp)
  40da63:	00 00 
  40da65:	c4 c1 75 ef fd       	vpxor  %ymm13,%ymm1,%ymm7
  40da6a:	c5 fe 6f 8c 24 40 0e 	vmovdqu 0xe40(%rsp),%ymm1
  40da71:	00 00 
  40da73:	c5 45 ef 96 a0 ad 00 	vpxor  0xada0(%rsi),%ymm7,%ymm10
  40da7a:	00 
  40da7b:	c5 fe 6f bc 24 40 0f 	vmovdqu 0xf40(%rsp),%ymm7
  40da82:	00 00 
  40da84:	c5 7e 7f 84 24 a0 0d 	vmovdqu %ymm8,0xda0(%rsp)
  40da8b:	00 00 
  40da8d:	c5 7e 7f 8c 24 80 0d 	vmovdqu %ymm9,0xd80(%rsp)
  40da94:	00 00 
  40da96:	c5 7e 7f 94 24 c0 0d 	vmovdqu %ymm10,0xdc0(%rsp)
  40da9d:	00 00 
  40da9f:	c4 41 4d ef c3       	vpxor  %ymm11,%ymm6,%ymm8
  40daa4:	c5 fe 6f 74 24 60    	vmovdqu 0x60(%rsp),%ymm6
  40daaa:	c5 7e 6f 9c 24 c0 02 	vmovdqu 0x2c0(%rsp),%ymm11
  40dab1:	00 00 
  40dab3:	c5 7e 7f 84 24 e0 0d 	vmovdqu %ymm8,0xde0(%rsp)
  40daba:	00 00 
  40dabc:	c5 7e 6f 84 24 a0 06 	vmovdqu 0x6a0(%rsp),%ymm8
  40dac3:	00 00 
  40dac5:	c5 75 ef fe          	vpxor  %ymm6,%ymm1,%ymm15
  40dac9:	c4 41 7d ef e8       	vpxor  %ymm8,%ymm0,%ymm13
  40dace:	c5 3d ef f1          	vpxor  %ymm1,%ymm8,%ymm14
  40dad2:	c4 41 4d eb e5       	vpor   %ymm13,%ymm6,%ymm12
  40dad7:	c4 41 25 db d5       	vpand  %ymm13,%ymm11,%ymm10
  40dadc:	c4 41 25 ef cc       	vpxor  %ymm12,%ymm11,%ymm9
  40dae1:	c4 41 2d ef d7       	vpxor  %ymm15,%ymm10,%ymm10
  40dae6:	c5 7e 6f a4 24 60 05 	vmovdqu 0x560(%rsp),%ymm12
  40daed:	00 00 
  40daef:	c4 41 05 db f9       	vpand  %ymm9,%ymm15,%ymm15
  40daf4:	c4 c1 75 ef c9       	vpxor  %ymm9,%ymm1,%ymm1
  40daf9:	c4 41 0d ef ef       	vpxor  %ymm15,%ymm14,%ymm13
  40dafe:	c4 41 2d eb f6       	vpor   %ymm14,%ymm10,%ymm14
  40db03:	c5 f5 ef 8e 20 ab 00 	vpxor  0xab20(%rsi),%ymm1,%ymm1
  40db0a:	00 
  40db0b:	c5 15 ef 9e a0 af 00 	vpxor  0xafa0(%rsi),%ymm13,%ymm11
  40db12:	00 
  40db13:	c4 41 35 ef c6       	vpxor  %ymm14,%ymm9,%ymm8
  40db18:	c5 2d ef 8e 40 a9 00 	vpxor  0xa940(%rsi),%ymm10,%ymm9
  40db1f:	00 
  40db20:	c4 41 7d ef d4       	vpxor  %ymm12,%ymm0,%ymm10
  40db25:	c5 7e 6f b4 24 e0 02 	vmovdqu 0x2e0(%rsp),%ymm14
  40db2c:	00 00 
  40db2e:	c5 7e 7f 9c 24 40 0e 	vmovdqu %ymm11,0xe40(%rsp)
  40db35:	00 00 
  40db37:	c5 7e 7f 8c 24 00 0e 	vmovdqu %ymm9,0xe00(%rsp)
  40db3e:	00 00 
  40db40:	c5 7e 6f 8c 24 80 00 	vmovdqu 0x80(%rsp),%ymm9
  40db47:	00 00 
  40db49:	c5 bd ef b6 c0 ad 00 	vpxor  0xadc0(%rsi),%ymm8,%ymm6
  40db50:	00 
  40db51:	c5 1d ef db          	vpxor  %ymm3,%ymm12,%ymm11
  40db55:	c4 41 0d db c2       	vpand  %ymm10,%ymm14,%ymm8
  40db5a:	c4 41 35 eb fa       	vpor   %ymm10,%ymm9,%ymm15
  40db5f:	c4 41 65 ef e1       	vpxor  %ymm9,%ymm3,%ymm12
  40db64:	c5 fe 7f b4 24 20 0e 	vmovdqu %ymm6,0xe20(%rsp)
  40db6b:	00 00 
  40db6d:	c4 c1 0d ef f7       	vpxor  %ymm15,%ymm14,%ymm6
  40db72:	c4 41 3d ef ec       	vpxor  %ymm12,%ymm8,%ymm13
  40db77:	c5 7e 6f bc 24 00 05 	vmovdqu 0x500(%rsp),%ymm15
  40db7e:	00 00 
  40db80:	c5 1d db e6          	vpand  %ymm6,%ymm12,%ymm12
  40db84:	c5 e5 ef de          	vpxor  %ymm6,%ymm3,%ymm3
  40db88:	c5 05 ef c5          	vpxor  %ymm5,%ymm15,%ymm8
  40db8c:	c4 41 25 ef d4       	vpxor  %ymm12,%ymm11,%ymm10
  40db91:	c4 41 15 eb db       	vpor   %ymm11,%ymm13,%ymm11
  40db96:	c5 e5 ef 9e 40 ab 00 	vpxor  0xab40(%rsi),%ymm3,%ymm3
  40db9d:	00 
  40db9e:	c5 2d ef b6 c0 af 00 	vpxor  0xafc0(%rsi),%ymm10,%ymm14
  40dba5:	00 
  40dba6:	c4 41 4d ef cb       	vpxor  %ymm11,%ymm6,%ymm9
  40dbab:	c5 95 ef b6 60 a9 00 	vpxor  0xa960(%rsi),%ymm13,%ymm6
  40dbb2:	00 
  40dbb3:	c5 7e 6f 9c 24 00 03 	vmovdqu 0x300(%rsp),%ymm11
  40dbba:	00 00 
  40dbbc:	c5 7e 7f b4 24 e0 06 	vmovdqu %ymm14,0x6e0(%rsp)
  40dbc3:	00 00 
  40dbc5:	c5 7e 6f 94 24 80 04 	vmovdqu 0x480(%rsp),%ymm10
  40dbcc:	00 00 
  40dbce:	c5 fe 7f b4 24 60 0e 	vmovdqu %ymm6,0xe60(%rsp)
  40dbd5:	00 00 
  40dbd7:	c5 fe 6f b4 24 a0 00 	vmovdqu 0xa0(%rsp),%ymm6
  40dbde:	00 00 
  40dbe0:	c5 35 ef ae e0 ad 00 	vpxor  0xade0(%rsi),%ymm9,%ymm13
  40dbe7:	00 
  40dbe8:	c5 7e 7f ac 24 e0 0c 	vmovdqu %ymm13,0xce0(%rsp)
  40dbef:	00 00 
  40dbf1:	c4 41 7d ef ef       	vpxor  %ymm15,%ymm0,%ymm13
  40dbf6:	c5 55 ef fe          	vpxor  %ymm6,%ymm5,%ymm15
  40dbfa:	c4 41 4d eb e5       	vpor   %ymm13,%ymm6,%ymm12
  40dbff:	c4 41 25 db cd       	vpand  %ymm13,%ymm11,%ymm9
  40dc04:	c4 c1 25 ef f4       	vpxor  %ymm12,%ymm11,%ymm6
  40dc09:	c4 41 35 ef f7       	vpxor  %ymm15,%ymm9,%ymm14
  40dc0e:	c5 05 db ee          	vpand  %ymm6,%ymm15,%ymm13
  40dc12:	c5 d5 ef ee          	vpxor  %ymm6,%ymm5,%ymm5
  40dc16:	c4 41 7d ef fa       	vpxor  %ymm10,%ymm0,%ymm15
  40dc1b:	c4 41 3d ef e5       	vpxor  %ymm13,%ymm8,%ymm12
  40dc20:	c4 41 0d eb c0       	vpor   %ymm8,%ymm14,%ymm8
  40dc25:	c5 d5 ef ae 60 ab 00 	vpxor  0xab60(%rsi),%ymm5,%ymm5
  40dc2c:	00 
  40dc2d:	c5 2d ef ef          	vpxor  %ymm7,%ymm10,%ymm13
  40dc31:	c5 1d ef 8e e0 af 00 	vpxor  0xafe0(%rsi),%ymm12,%ymm9
  40dc38:	00 
  40dc39:	c4 41 4d ef d8       	vpxor  %ymm8,%ymm6,%ymm11
  40dc3e:	c5 8d ef b6 80 a9 00 	vpxor  0xa980(%rsi),%ymm14,%ymm6
  40dc45:	00 
  40dc46:	c5 7e 6f b4 24 c0 00 	vmovdqu 0xc0(%rsp),%ymm14
  40dc4d:	00 00 
  40dc4f:	c5 7e 6f 84 24 20 03 	vmovdqu 0x320(%rsp),%ymm8
  40dc56:	00 00 
  40dc58:	c5 7e 7f 8c 24 00 07 	vmovdqu %ymm9,0x700(%rsp)
  40dc5f:	00 00 
  40dc61:	c5 fe 7f b4 24 a0 0e 	vmovdqu %ymm6,0xea0(%rsp)
  40dc68:	00 00 
  40dc6a:	c5 fe 7f ac 24 80 0e 	vmovdqu %ymm5,0xe80(%rsp)
  40dc71:	00 00 
  40dc73:	c5 7e 6f 94 24 40 04 	vmovdqu 0x440(%rsp),%ymm10
  40dc7a:	00 00 
  40dc7c:	c5 a5 ef b6 00 ac 00 	vpxor  0xac00(%rsi),%ymm11,%ymm6
  40dc83:	00 
  40dc84:	c4 41 0d eb df       	vpor   %ymm15,%ymm14,%ymm11
  40dc89:	c4 c1 45 ef ee       	vpxor  %ymm14,%ymm7,%ymm5
  40dc8e:	c4 41 3d db e7       	vpand  %ymm15,%ymm8,%ymm12
  40dc93:	c5 7e 6f bc 24 e0 00 	vmovdqu 0xe0(%rsp),%ymm15
  40dc9a:	00 00 
  40dc9c:	c4 41 3d ef cb       	vpxor  %ymm11,%ymm8,%ymm9
  40dca1:	c5 1d ef c5          	vpxor  %ymm5,%ymm12,%ymm8
  40dca5:	c4 c1 45 ef f9       	vpxor  %ymm9,%ymm7,%ymm7
  40dcaa:	c4 c1 55 db e9       	vpand  %ymm9,%ymm5,%ymm5
  40dcaf:	c5 c5 ef be 80 ab 00 	vpxor  0xab80(%rsi),%ymm7,%ymm7
  40dcb6:	00 
  40dcb7:	c5 15 ef e5          	vpxor  %ymm5,%ymm13,%ymm12
  40dcbb:	c4 41 3d eb ed       	vpor   %ymm13,%ymm8,%ymm13
  40dcc0:	c5 3d ef 86 a0 a9 00 	vpxor  0xa9a0(%rsi),%ymm8,%ymm8
  40dcc7:	00 
  40dcc8:	c5 fe 7f bc 24 c0 0e 	vmovdqu %ymm7,0xec0(%rsp)
  40dccf:	00 00 
  40dcd1:	c5 fe 6f ac 24 80 02 	vmovdqu 0x280(%rsp),%ymm5
  40dcd8:	00 00 
  40dcda:	c4 c1 7d ef fa       	vpxor  %ymm10,%ymm0,%ymm7
  40dcdf:	c4 41 35 ef dd       	vpxor  %ymm13,%ymm9,%ymm11
  40dce4:	c5 1d ef b6 00 ae 00 	vpxor  0xae00(%rsi),%ymm12,%ymm14
  40dceb:	00 
  40dcec:	c5 7e 7f 84 24 e0 0e 	vmovdqu %ymm8,0xee0(%rsp)
  40dcf3:	00 00 
  40dcf5:	c5 7e 6f 84 24 40 06 	vmovdqu 0x640(%rsp),%ymm8
  40dcfc:	00 00 
  40dcfe:	c5 05 eb ef          	vpor   %ymm7,%ymm15,%ymm13
  40dd02:	c5 25 ef 8e 20 ac 00 	vpxor  0xac20(%rsi),%ymm11,%ymm9
  40dd09:	00 
  40dd0a:	c4 41 3d ef e7       	vpxor  %ymm15,%ymm8,%ymm12
  40dd0f:	c5 55 db ff          	vpand  %ymm7,%ymm5,%ymm15
  40dd13:	c4 41 55 ef dd       	vpxor  %ymm13,%ymm5,%ymm11
  40dd18:	c4 41 2d ef d0       	vpxor  %ymm8,%ymm10,%ymm10
  40dd1d:	c5 fe 6f 6c 24 20    	vmovdqu 0x20(%rsp),%ymm5
  40dd23:	c4 41 05 ef ec       	vpxor  %ymm12,%ymm15,%ymm13
  40dd28:	c4 41 3d ef c3       	vpxor  %ymm11,%ymm8,%ymm8
  40dd2d:	c4 41 1d db e3       	vpand  %ymm11,%ymm12,%ymm12
  40dd32:	c5 7e 6f bc 24 00 01 	vmovdqu 0x100(%rsp),%ymm15
  40dd39:	00 00 
  40dd3b:	c5 3d ef 86 a0 ab 00 	vpxor  0xaba0(%rsi),%ymm8,%ymm8
  40dd42:	00 
  40dd43:	c4 c1 2d ef fc       	vpxor  %ymm12,%ymm10,%ymm7
  40dd48:	c4 41 15 eb d2       	vpor   %ymm10,%ymm13,%ymm10
  40dd4d:	c5 7e 7f 84 24 00 0f 	vmovdqu %ymm8,0xf00(%rsp)
  40dd54:	00 00 
  40dd56:	c4 41 25 ef c2       	vpxor  %ymm10,%ymm11,%ymm8
  40dd5b:	c5 15 ef 9e c0 a9 00 	vpxor  0xa9c0(%rsi),%ymm13,%ymm11
  40dd62:	00 
  40dd63:	c5 45 ef 96 20 ae 00 	vpxor  0xae20(%rsi),%ymm7,%ymm10
  40dd6a:	00 
  40dd6b:	c5 7e 6f ac 24 40 05 	vmovdqu 0x540(%rsp),%ymm13
  40dd72:	00 00 
  40dd74:	c5 fe 6f bc 24 40 02 	vmovdqu 0x240(%rsp),%ymm7
  40dd7b:	00 00 
  40dd7d:	c5 7e 7f 9c 24 00 09 	vmovdqu %ymm11,0x900(%rsp)
  40dd84:	00 00 
  40dd86:	c5 3d ef 9e 40 ac 00 	vpxor  0xac40(%rsi),%ymm8,%ymm11
  40dd8d:	00 
  40dd8e:	c5 7d ef c5          	vpxor  %ymm5,%ymm0,%ymm8
  40dd92:	c4 41 55 ef e5       	vpxor  %ymm13,%ymm5,%ymm12
  40dd97:	c4 c1 15 ef ef       	vpxor  %ymm15,%ymm13,%ymm5
  40dd9c:	c4 41 05 eb f8       	vpor   %ymm8,%ymm15,%ymm15
  40dda1:	c4 41 45 db c0       	vpand  %ymm8,%ymm7,%ymm8
  40dda6:	c4 41 45 ef ff       	vpxor  %ymm15,%ymm7,%ymm15
  40ddab:	c5 3d ef c5          	vpxor  %ymm5,%ymm8,%ymm8
  40ddaf:	c4 41 15 ef ef       	vpxor  %ymm15,%ymm13,%ymm13
  40ddb4:	c4 c1 55 db ef       	vpand  %ymm15,%ymm5,%ymm5
  40ddb9:	c5 95 ef be c0 ab 00 	vpxor  0xabc0(%rsi),%ymm13,%ymm7
  40ddc0:	00 
  40ddc1:	c5 9d ef ed          	vpxor  %ymm5,%ymm12,%ymm5
  40ddc5:	c4 41 3d eb e4       	vpor   %ymm12,%ymm8,%ymm12
  40ddca:	c5 3d ef 86 e0 a9 00 	vpxor  0xa9e0(%rsi),%ymm8,%ymm8
  40ddd1:	00 
  40ddd2:	c5 fe 7f bc 24 c0 0a 	vmovdqu %ymm7,0xac0(%rsp)
  40ddd9:	00 00 
  40dddb:	c4 c1 05 ef fc       	vpxor  %ymm12,%ymm15,%ymm7
  40dde0:	c5 55 ef a6 40 ae 00 	vpxor  0xae40(%rsi),%ymm5,%ymm12
  40dde7:	00 
  40dde8:	c5 7e 7f 84 24 c0 08 	vmovdqu %ymm8,0x8c0(%rsp)
  40ddef:	00 00 
  40ddf1:	c5 7e 6f bc 24 60 04 	vmovdqu 0x460(%rsp),%ymm15
  40ddf8:	00 00 
  40ddfa:	c5 45 ef ae 60 ac 00 	vpxor  0xac60(%rsi),%ymm7,%ymm13
  40de01:	00 
  40de02:	c4 41 4d ef c6       	vpxor  %ymm14,%ymm6,%ymm8
  40de07:	c4 c1 7d ef ff       	vpxor  %ymm15,%ymm0,%ymm7
  40de0c:	c5 85 ef ee          	vpxor  %ymm6,%ymm15,%ymm5
  40de10:	c5 7e 6f bc 24 60 02 	vmovdqu 0x260(%rsp),%ymm15
  40de17:	00 00 
  40de19:	c5 0d eb f7          	vpor   %ymm7,%ymm14,%ymm14
  40de1d:	c5 85 db ff          	vpand  %ymm7,%ymm15,%ymm7
  40de21:	c4 41 05 ef f6       	vpxor  %ymm14,%ymm15,%ymm14
  40de26:	c4 41 35 ef fa       	vpxor  %ymm10,%ymm9,%ymm15
  40de2b:	c4 c1 45 ef f8       	vpxor  %ymm8,%ymm7,%ymm7
  40de30:	c4 c1 4d ef f6       	vpxor  %ymm14,%ymm6,%ymm6
  40de35:	c4 41 3d db c6       	vpand  %ymm14,%ymm8,%ymm8
  40de3a:	c5 cd ef b6 e0 b3 00 	vpxor  0xb3e0(%rsi),%ymm6,%ymm6
  40de41:	00 
  40de42:	c4 41 55 ef c0       	vpxor  %ymm8,%ymm5,%ymm8
  40de47:	c5 c5 eb ed          	vpor   %ymm5,%ymm7,%ymm5
  40de4b:	c5 fe 7f 74 24 40    	vmovdqu %ymm6,0x40(%rsp)
  40de51:	c5 8d ef f5          	vpxor  %ymm5,%ymm14,%ymm6
  40de55:	c5 45 ef b6 00 b0 00 	vpxor  0xb000(%rsi),%ymm7,%ymm14
  40de5c:	00 
  40de5d:	c5 3d ef 86 60 b6 00 	vpxor  0xb660(%rsi),%ymm8,%ymm8
  40de64:	00 
  40de65:	c5 fe 6f ac 24 a0 04 	vmovdqu 0x4a0(%rsp),%ymm5
  40de6c:	00 00 
  40de6e:	c5 cd ef be 80 b4 00 	vpxor  0xb480(%rsi),%ymm6,%ymm7
  40de75:	00 
  40de76:	c5 7e 7f b4 24 e0 08 	vmovdqu %ymm14,0x8e0(%rsp)
  40de7d:	00 00 
  40de7f:	c5 7e 7f 84 24 20 07 	vmovdqu %ymm8,0x720(%rsp)
  40de86:	00 00 
  40de88:	c5 7d ef f5          	vpxor  %ymm5,%ymm0,%ymm14
  40de8c:	c5 fe 7f bc 24 00 0d 	vmovdqu %ymm7,0xd00(%rsp)
  40de93:	00 00 
  40de95:	c4 c1 55 ef f9       	vpxor  %ymm9,%ymm5,%ymm7
  40de9a:	c4 41 2d eb c6       	vpor   %ymm14,%ymm10,%ymm8
  40de9f:	c5 7e 6f 94 24 a0 02 	vmovdqu 0x2a0(%rsp),%ymm10
  40dea6:	00 00 
  40dea8:	c4 c1 2d db f6       	vpand  %ymm14,%ymm10,%ymm6
  40dead:	c4 41 2d ef f0       	vpxor  %ymm8,%ymm10,%ymm14
  40deb2:	c4 41 4d ef c7       	vpxor  %ymm15,%ymm6,%ymm8
  40deb7:	c4 c1 05 db ee       	vpand  %ymm14,%ymm15,%ymm5
  40debc:	c4 41 35 ef ce       	vpxor  %ymm14,%ymm9,%ymm9
  40dec1:	c5 7e 6f bc 24 c0 04 	vmovdqu 0x4c0(%rsp),%ymm15
  40dec8:	00 00 
  40deca:	c5 45 ef d5          	vpxor  %ymm5,%ymm7,%ymm10
  40dece:	c5 bd eb ff          	vpor   %ymm7,%ymm8,%ymm7
  40ded2:	c5 3d ef 86 20 b0 00 	vpxor  0xb020(%rsi),%ymm8,%ymm8
  40ded9:	00 
  40deda:	c5 b5 ef b6 00 b2 00 	vpxor  0xb200(%rsi),%ymm9,%ymm6
  40dee1:	00 
  40dee2:	c5 0d ef cf          	vpxor  %ymm7,%ymm14,%ymm9
  40dee6:	c4 c1 7d ef ff       	vpxor  %ymm15,%ymm0,%ymm7
  40deeb:	c5 2d ef b6 80 b6 00 	vpxor  0xb680(%rsi),%ymm10,%ymm14
  40def2:	00 
  40def3:	c4 41 05 ef d3       	vpxor  %ymm11,%ymm15,%ymm10
  40def8:	c5 7e 7f 84 24 20 09 	vmovdqu %ymm8,0x920(%rsp)
  40deff:	00 00 
  40df01:	c5 fe 7f b4 24 e0 0a 	vmovdqu %ymm6,0xae0(%rsp)
  40df08:	00 00 
  40df0a:	c5 7e 7f b4 24 40 07 	vmovdqu %ymm14,0x740(%rsp)
  40df11:	00 00 
  40df13:	c5 7e 6f b4 24 e0 04 	vmovdqu 0x4e0(%rsp),%ymm14
  40df1a:	00 00 
  40df1c:	c5 7e 6f bc 24 20 01 	vmovdqu 0x120(%rsp),%ymm15
  40df23:	00 00 
  40df25:	c5 9d eb f7          	vpor   %ymm7,%ymm12,%ymm6
  40df29:	c5 35 ef 86 a0 b4 00 	vpxor  0xb4a0(%rsi),%ymm9,%ymm8
  40df30:	00 
  40df31:	c4 41 25 ef cc       	vpxor  %ymm12,%ymm11,%ymm9
  40df36:	c5 7e 6f a4 24 40 03 	vmovdqu 0x340(%rsp),%ymm12
  40df3d:	00 00 
  40df3f:	c5 9d db ff          	vpand  %ymm7,%ymm12,%ymm7
  40df43:	c5 9d ef f6          	vpxor  %ymm6,%ymm12,%ymm6
  40df47:	c4 c1 45 ef f9       	vpxor  %ymm9,%ymm7,%ymm7
  40df4c:	c5 25 ef de          	vpxor  %ymm6,%ymm11,%ymm11
  40df50:	c4 41 45 eb e2       	vpor   %ymm10,%ymm7,%ymm12
  40df55:	c5 c5 ef be 40 b0 00 	vpxor  0xb040(%rsi),%ymm7,%ymm7
  40df5c:	00 
  40df5d:	c5 a5 ef ae 20 b2 00 	vpxor  0xb220(%rsi),%ymm11,%ymm5
  40df64:	00 
  40df65:	c5 35 db de          	vpand  %ymm6,%ymm9,%ymm11
  40df69:	c4 c1 4d ef f4       	vpxor  %ymm12,%ymm6,%ymm6
  40df6e:	c4 41 0d ef e5       	vpxor  %ymm13,%ymm14,%ymm12
  40df73:	c5 fe 7f bc 24 40 09 	vmovdqu %ymm7,0x940(%rsp)
  40df7a:	00 00 
  40df7c:	c5 fe 7f ac 24 00 0b 	vmovdqu %ymm5,0xb00(%rsp)
  40df83:	00 00 
  40df85:	c5 fe 6f ac 24 60 03 	vmovdqu 0x360(%rsp),%ymm5
  40df8c:	00 00 
  40df8e:	c4 41 2d ef cb       	vpxor  %ymm11,%ymm10,%ymm9
  40df93:	c4 41 15 ef df       	vpxor  %ymm15,%ymm13,%ymm11
  40df98:	c5 cd ef be c0 b4 00 	vpxor  0xb4c0(%rsi),%ymm6,%ymm7
  40df9f:	00 
  40dfa0:	c4 c1 7d ef f6       	vpxor  %ymm14,%ymm0,%ymm6
  40dfa5:	c5 35 ef 96 a0 b6 00 	vpxor  0xb6a0(%rsi),%ymm9,%ymm10
  40dfac:	00 
  40dfad:	c5 7e 6f b4 24 a0 05 	vmovdqu 0x5a0(%rsp),%ymm14
  40dfb4:	00 00 
  40dfb6:	c5 05 eb ce          	vpor   %ymm6,%ymm15,%ymm9
  40dfba:	c5 7e 7f 94 24 60 07 	vmovdqu %ymm10,0x760(%rsp)
  40dfc1:	00 00 
  40dfc3:	c5 7e 6f bc 24 40 01 	vmovdqu 0x140(%rsp),%ymm15
  40dfca:	00 00 
  40dfcc:	c5 55 db d6          	vpand  %ymm6,%ymm5,%ymm10
  40dfd0:	c4 c1 55 ef e9       	vpxor  %ymm9,%ymm5,%ymm5
  40dfd5:	c4 c1 2d ef f3       	vpxor  %ymm11,%ymm10,%ymm6
  40dfda:	c5 25 db dd          	vpand  %ymm5,%ymm11,%ymm11
  40dfde:	c5 15 ef ed          	vpxor  %ymm5,%ymm13,%ymm13
  40dfe2:	c4 41 1d ef cb       	vpxor  %ymm11,%ymm12,%ymm9
  40dfe7:	c4 41 4d eb e4       	vpor   %ymm12,%ymm6,%ymm12
  40dfec:	c5 cd ef b6 60 b0 00 	vpxor  0xb060(%rsi),%ymm6,%ymm6
  40dff3:	00 
  40dff4:	c5 15 ef ae 40 b2 00 	vpxor  0xb240(%rsi),%ymm13,%ymm13
  40dffb:	00 
  40dffc:	c5 35 ef 96 c0 b6 00 	vpxor  0xb6c0(%rsi),%ymm9,%ymm10
  40e003:	00 
  40e004:	c4 c1 55 ef ec       	vpxor  %ymm12,%ymm5,%ymm5
  40e009:	c5 fe 7f b4 24 60 09 	vmovdqu %ymm6,0x960(%rsp)
  40e010:	00 00 
  40e012:	c5 7e 7f ac 24 40 0b 	vmovdqu %ymm13,0xb40(%rsp)
  40e019:	00 00 
  40e01b:	c5 7e 6f 8c 24 20 05 	vmovdqu 0x520(%rsp),%ymm9
  40e022:	00 00 
  40e024:	c5 7e 6f ac 24 80 03 	vmovdqu 0x380(%rsp),%ymm13
  40e02b:	00 00 
  40e02d:	c5 7e 7f 94 24 80 07 	vmovdqu %ymm10,0x780(%rsp)
  40e034:	00 00 
  40e036:	c5 d5 ef b6 e0 b4 00 	vpxor  0xb4e0(%rsi),%ymm5,%ymm6
  40e03d:	00 
  40e03e:	c4 c1 7d ef ee       	vpxor  %ymm14,%ymm0,%ymm5
  40e043:	c4 41 0d ef e1       	vpxor  %ymm9,%ymm14,%ymm12
  40e048:	c4 41 35 ef df       	vpxor  %ymm15,%ymm9,%ymm11
  40e04d:	c5 05 eb d5          	vpor   %ymm5,%ymm15,%ymm10
  40e051:	c5 15 db f5          	vpand  %ymm5,%ymm13,%ymm14
  40e055:	c4 41 15 ef ea       	vpxor  %ymm10,%ymm13,%ymm13
  40e05a:	c4 c1 0d ef eb       	vpxor  %ymm11,%ymm14,%ymm5
  40e05f:	c4 41 35 ef cd       	vpxor  %ymm13,%ymm9,%ymm9
  40e064:	c4 41 25 db dd       	vpand  %ymm13,%ymm11,%ymm11
  40e069:	c5 35 ef be 60 b2 00 	vpxor  0xb260(%rsi),%ymm9,%ymm15
  40e070:	00 
  40e071:	c4 41 1d ef db       	vpxor  %ymm11,%ymm12,%ymm11
  40e076:	c4 41 55 eb e4       	vpor   %ymm12,%ymm5,%ymm12
  40e07b:	c5 d5 ef ae 80 b0 00 	vpxor  0xb080(%rsi),%ymm5,%ymm5
  40e082:	00 
  40e083:	c5 7e 6f 8c 24 e0 05 	vmovdqu 0x5e0(%rsp),%ymm9
  40e08a:	00 00 
  40e08c:	c5 7e 7f bc 24 20 0b 	vmovdqu %ymm15,0xb20(%rsp)
  40e093:	00 00 
  40e095:	c5 7e 6f bc 24 80 05 	vmovdqu 0x580(%rsp),%ymm15
  40e09c:	00 00 
  40e09e:	c5 fe 7f ac 24 80 09 	vmovdqu %ymm5,0x980(%rsp)
  40e0a5:	00 00 
  40e0a7:	c4 41 15 ef ec       	vpxor  %ymm12,%ymm13,%ymm13
  40e0ac:	c5 25 ef a6 e0 b6 00 	vpxor  0xb6e0(%rsi),%ymm11,%ymm12
  40e0b3:	00 
  40e0b4:	c4 41 7d ef d1       	vpxor  %ymm9,%ymm0,%ymm10
  40e0b9:	c5 7e 6f 9c 24 80 01 	vmovdqu 0x180(%rsp),%ymm11
  40e0c0:	00 00 
  40e0c2:	c5 95 ef ae 00 b5 00 	vpxor  0xb500(%rsi),%ymm13,%ymm5
  40e0c9:	00 
  40e0ca:	c4 41 35 ef ef       	vpxor  %ymm15,%ymm9,%ymm13
  40e0cf:	c5 7e 7f a4 24 a0 07 	vmovdqu %ymm12,0x7a0(%rsp)
  40e0d6:	00 00 
  40e0d8:	c5 7e 6f a4 24 a0 03 	vmovdqu 0x3a0(%rsp),%ymm12
  40e0df:	00 00 
  40e0e1:	c4 41 25 eb ca       	vpor   %ymm10,%ymm11,%ymm9
  40e0e6:	c4 41 05 ef f3       	vpxor  %ymm11,%ymm15,%ymm14
  40e0eb:	c4 41 1d db d2       	vpand  %ymm10,%ymm12,%ymm10
  40e0f0:	c4 41 1d ef c9       	vpxor  %ymm9,%ymm12,%ymm9
  40e0f5:	c4 41 2d ef e6       	vpxor  %ymm14,%ymm10,%ymm12
  40e0fa:	c4 41 05 ef f9       	vpxor  %ymm9,%ymm15,%ymm15
  40e0ff:	c4 41 0d db f1       	vpand  %ymm9,%ymm14,%ymm14
  40e104:	c5 05 ef 9e 80 b2 00 	vpxor  0xb280(%rsi),%ymm15,%ymm11
  40e10b:	00 
  40e10c:	c5 7e 6f bc 24 c0 05 	vmovdqu 0x5c0(%rsp),%ymm15
  40e113:	00 00 
  40e115:	c5 7e 7f 9c 24 60 0b 	vmovdqu %ymm11,0xb60(%rsp)
  40e11c:	00 00 
  40e11e:	c4 41 15 ef de       	vpxor  %ymm14,%ymm13,%ymm11
  40e123:	c4 41 1d eb ed       	vpor   %ymm13,%ymm12,%ymm13
  40e128:	c5 1d ef a6 a0 b0 00 	vpxor  0xb0a0(%rsi),%ymm12,%ymm12
  40e12f:	00 
  40e130:	c5 7e 6f b4 24 20 06 	vmovdqu 0x620(%rsp),%ymm14
  40e137:	00 00 
  40e139:	c4 41 35 ef cd       	vpxor  %ymm13,%ymm9,%ymm9
  40e13e:	c5 25 ef 9e 00 b7 00 	vpxor  0xb700(%rsi),%ymm11,%ymm11
  40e145:	00 
  40e146:	c5 7e 7f a4 24 a0 09 	vmovdqu %ymm12,0x9a0(%rsp)
  40e14d:	00 00 
  40e14f:	c5 7e 6f a4 24 a0 01 	vmovdqu 0x1a0(%rsp),%ymm12
  40e156:	00 00 
  40e158:	c5 35 ef 96 20 b5 00 	vpxor  0xb520(%rsi),%ymm9,%ymm10
  40e15f:	00 
  40e160:	c4 41 0d ef ef       	vpxor  %ymm15,%ymm14,%ymm13
  40e165:	c5 7e 6f 8c 24 c0 03 	vmovdqu 0x3c0(%rsp),%ymm9
  40e16c:	00 00 
  40e16e:	c5 7e 7f 9c 24 c0 07 	vmovdqu %ymm11,0x7c0(%rsp)
  40e175:	00 00 
  40e177:	c5 7e 7f 94 24 60 0c 	vmovdqu %ymm10,0xc60(%rsp)
  40e17e:	00 00 
  40e180:	c4 41 7d ef d6       	vpxor  %ymm14,%ymm0,%ymm10
  40e185:	c4 41 05 ef f4       	vpxor  %ymm12,%ymm15,%ymm14
  40e18a:	c4 41 1d eb da       	vpor   %ymm10,%ymm12,%ymm11
  40e18f:	c4 41 35 db d2       	vpand  %ymm10,%ymm9,%ymm10
  40e194:	c4 41 35 ef cb       	vpxor  %ymm11,%ymm9,%ymm9
  40e199:	c4 41 2d ef e6       	vpxor  %ymm14,%ymm10,%ymm12
  40e19e:	c4 41 05 ef f9       	vpxor  %ymm9,%ymm15,%ymm15
  40e1a3:	c4 41 0d db d1       	vpand  %ymm9,%ymm14,%ymm10
  40e1a8:	c5 05 ef 9e a0 b2 00 	vpxor  0xb2a0(%rsi),%ymm15,%ymm11
  40e1af:	00 
  40e1b0:	c5 7e 7f 9c 24 a0 0b 	vmovdqu %ymm11,0xba0(%rsp)
  40e1b7:	00 00 
  40e1b9:	c4 41 15 ef da       	vpxor  %ymm10,%ymm13,%ymm11
  40e1be:	c4 41 1d eb ed       	vpor   %ymm13,%ymm12,%ymm13
  40e1c3:	c5 1d ef a6 c0 b0 00 	vpxor  0xb0c0(%rsi),%ymm12,%ymm12
  40e1ca:	00 
  40e1cb:	c5 25 ef be 20 b7 00 	vpxor  0xb720(%rsi),%ymm11,%ymm15
  40e1d2:	00 
  40e1d3:	c4 41 35 ef cd       	vpxor  %ymm13,%ymm9,%ymm9
  40e1d8:	c5 7e 6f ac 24 c0 06 	vmovdqu 0x6c0(%rsp),%ymm13
  40e1df:	00 00 
  40e1e1:	c5 7e 6f 9c 24 c0 01 	vmovdqu 0x1c0(%rsp),%ymm11
  40e1e8:	00 00 
  40e1ea:	c5 7e 7f a4 24 c0 09 	vmovdqu %ymm12,0x9c0(%rsp)
  40e1f1:	00 00 
  40e1f3:	c5 7e 6f a4 24 e0 03 	vmovdqu 0x3e0(%rsp),%ymm12
  40e1fa:	00 00 
  40e1fc:	c5 7e 7f bc 24 e0 07 	vmovdqu %ymm15,0x7e0(%rsp)
  40e203:	00 00 
  40e205:	c5 7e 6f bc 24 00 06 	vmovdqu 0x600(%rsp),%ymm15
  40e20c:	00 00 
  40e20e:	c4 41 7d ef d5       	vpxor  %ymm13,%ymm0,%ymm10
  40e213:	c5 35 ef b6 40 b5 00 	vpxor  0xb540(%rsi),%ymm9,%ymm14
  40e21a:	00 
  40e21b:	c4 41 15 ef ef       	vpxor  %ymm15,%ymm13,%ymm13
  40e220:	c4 41 25 eb ca       	vpor   %ymm10,%ymm11,%ymm9
  40e225:	c4 41 1d db d2       	vpand  %ymm10,%ymm12,%ymm10
  40e22a:	c5 7e 7f b4 24 40 0c 	vmovdqu %ymm14,0xc40(%rsp)
  40e231:	00 00 
  40e233:	c4 41 1d ef c9       	vpxor  %ymm9,%ymm12,%ymm9
  40e238:	c4 41 05 ef f3       	vpxor  %ymm11,%ymm15,%ymm14
  40e23d:	c4 41 05 ef f9       	vpxor  %ymm9,%ymm15,%ymm15
  40e242:	c4 41 2d ef e6       	vpxor  %ymm14,%ymm10,%ymm12
  40e247:	c4 41 0d db f1       	vpand  %ymm9,%ymm14,%ymm14
  40e24c:	c5 05 ef 9e c0 b2 00 	vpxor  0xb2c0(%rsi),%ymm15,%ymm11
  40e253:	00 
  40e254:	c5 7e 6f bc 24 60 06 	vmovdqu 0x660(%rsp),%ymm15
  40e25b:	00 00 
  40e25d:	c5 7e 7f 9c 24 a0 0c 	vmovdqu %ymm11,0xca0(%rsp)
  40e264:	00 00 
  40e266:	c4 41 15 ef de       	vpxor  %ymm14,%ymm13,%ymm11
  40e26b:	c4 41 1d eb ed       	vpor   %ymm13,%ymm12,%ymm13
  40e270:	c5 1d ef a6 e0 b0 00 	vpxor  0xb0e0(%rsi),%ymm12,%ymm12
  40e277:	00 
  40e278:	c5 7e 6f b4 24 80 06 	vmovdqu 0x680(%rsp),%ymm14
  40e27f:	00 00 
  40e281:	c4 41 35 ef cd       	vpxor  %ymm13,%ymm9,%ymm9
  40e286:	c5 25 ef 9e 40 b7 00 	vpxor  0xb740(%rsi),%ymm11,%ymm11
  40e28d:	00 
  40e28e:	c5 7e 7f a4 24 e0 09 	vmovdqu %ymm12,0x9e0(%rsp)
  40e295:	00 00 
  40e297:	c5 7e 6f a4 24 e0 01 	vmovdqu 0x1e0(%rsp),%ymm12
  40e29e:	00 00 
  40e2a0:	c5 35 ef 96 60 b5 00 	vpxor  0xb560(%rsi),%ymm9,%ymm10
  40e2a7:	00 
  40e2a8:	c4 41 0d ef ef       	vpxor  %ymm15,%ymm14,%ymm13
  40e2ad:	c5 7e 6f 8c 24 00 04 	vmovdqu 0x400(%rsp),%ymm9
  40e2b4:	00 00 
  40e2b6:	c5 7e 7f 9c 24 00 08 	vmovdqu %ymm11,0x800(%rsp)
  40e2bd:	00 00 
  40e2bf:	c5 7e 7f 94 24 00 0c 	vmovdqu %ymm10,0xc00(%rsp)
  40e2c6:	00 00 
  40e2c8:	c4 41 7d ef d6       	vpxor  %ymm14,%ymm0,%ymm10
  40e2cd:	c4 41 05 ef f4       	vpxor  %ymm12,%ymm15,%ymm14
  40e2d2:	c4 41 1d eb da       	vpor   %ymm10,%ymm12,%ymm11
  40e2d7:	c4 41 35 db d2       	vpand  %ymm10,%ymm9,%ymm10
  40e2dc:	c4 41 35 ef cb       	vpxor  %ymm11,%ymm9,%ymm9
  40e2e1:	c4 41 2d ef e6       	vpxor  %ymm14,%ymm10,%ymm12
  40e2e6:	c4 41 05 ef f9       	vpxor  %ymm9,%ymm15,%ymm15
  40e2eb:	c4 41 0d db d1       	vpand  %ymm9,%ymm14,%ymm10
  40e2f0:	c5 05 ef 9e e0 b2 00 	vpxor  0xb2e0(%rsi),%ymm15,%ymm11
  40e2f7:	00 
  40e2f8:	c5 7e 7f 9c 24 20 0d 	vmovdqu %ymm11,0xd20(%rsp)
  40e2ff:	00 00 
  40e301:	c4 41 15 ef da       	vpxor  %ymm10,%ymm13,%ymm11
  40e306:	c4 41 1d eb ed       	vpor   %ymm13,%ymm12,%ymm13
  40e30b:	c5 1d ef a6 00 b1 00 	vpxor  0xb100(%rsi),%ymm12,%ymm12
  40e312:	00 
  40e313:	c5 25 ef be 60 b7 00 	vpxor  0xb760(%rsi),%ymm11,%ymm15
  40e31a:	00 
  40e31b:	c4 41 35 ef cd       	vpxor  %ymm13,%ymm9,%ymm9
  40e320:	c5 75 ef ec          	vpxor  %ymm4,%ymm1,%ymm13
  40e324:	c5 7e 6f 9c 24 00 02 	vmovdqu 0x200(%rsp),%ymm11
  40e32b:	00 00 
  40e32d:	c5 7e 7f a4 24 00 0a 	vmovdqu %ymm12,0xa00(%rsp)
  40e334:	00 00 
  40e336:	c5 7e 7f bc 24 20 08 	vmovdqu %ymm15,0x820(%rsp)
  40e33d:	00 00 
  40e33f:	c5 7e 6f bc 24 80 0e 	vmovdqu 0xe80(%rsp),%ymm15
  40e346:	00 00 
  40e348:	c5 7d ef e1          	vpxor  %ymm1,%ymm0,%ymm12
  40e34c:	c4 c1 5d ef cb       	vpxor  %ymm11,%ymm4,%ymm1
  40e351:	c5 35 ef b6 80 b5 00 	vpxor  0xb580(%rsi),%ymm9,%ymm14
  40e358:	00 
  40e359:	c5 7e 6f 8c 24 20 04 	vmovdqu 0x420(%rsp),%ymm9
  40e360:	00 00 
  40e362:	c4 41 25 eb d4       	vpor   %ymm12,%ymm11,%ymm10
  40e367:	c5 7e 7f b4 24 20 0c 	vmovdqu %ymm14,0xc20(%rsp)
  40e36e:	00 00 
  40e370:	c4 41 35 db f4       	vpand  %ymm12,%ymm9,%ymm14
  40e375:	c4 41 35 ef d2       	vpxor  %ymm10,%ymm9,%ymm10
  40e37a:	c5 0d ef c9          	vpxor  %ymm1,%ymm14,%ymm9
  40e37e:	c4 c1 75 db ca       	vpand  %ymm10,%ymm1,%ymm1
  40e383:	c4 c1 5d ef e2       	vpxor  %ymm10,%ymm4,%ymm4
  40e388:	c5 35 ef 9e 20 b1 00 	vpxor  0xb120(%rsi),%ymm9,%ymm11
  40e38f:	00 
  40e390:	c5 15 ef f1          	vpxor  %ymm1,%ymm13,%ymm14
  40e394:	c4 41 35 eb ed       	vpor   %ymm13,%ymm9,%ymm13
  40e399:	c5 fd ef cb          	vpxor  %ymm3,%ymm0,%ymm1
  40e39d:	c5 dd ef a6 00 b3 00 	vpxor  0xb300(%rsi),%ymm4,%ymm4
  40e3a4:	00 
  40e3a5:	c5 7e 7f 9c 24 40 0a 	vmovdqu %ymm11,0xa40(%rsp)
  40e3ac:	00 00 
  40e3ae:	c4 41 2d ef e5       	vpxor  %ymm13,%ymm10,%ymm12
  40e3b3:	c5 0d ef 96 80 b7 00 	vpxor  0xb780(%rsi),%ymm14,%ymm10
  40e3ba:	00 
  40e3bb:	c5 fe 7f a4 24 60 0d 	vmovdqu %ymm4,0xd60(%rsp)
  40e3c2:	00 00 
  40e3c4:	c5 1d ef 8e a0 b5 00 	vpxor  0xb5a0(%rsi),%ymm12,%ymm9
  40e3cb:	00 
  40e3cc:	c5 65 ef e2          	vpxor  %ymm2,%ymm3,%ymm12
  40e3d0:	c5 7e 7f 94 24 40 08 	vmovdqu %ymm10,0x840(%rsp)
  40e3d7:	00 00 
  40e3d9:	c5 fe 6f 9c 24 20 02 	vmovdqu 0x220(%rsp),%ymm3
  40e3e0:	00 00 
  40e3e2:	c5 7e 7f 8c 24 e0 0b 	vmovdqu %ymm9,0xbe0(%rsp)
  40e3e9:	00 00 
  40e3eb:	c5 ed ef e3          	vpxor  %ymm3,%ymm2,%ymm4
  40e3ef:	c5 65 eb e9          	vpor   %ymm1,%ymm3,%ymm13
  40e3f3:	c5 fe 6f 9c 24 00 0e 	vmovdqu 0xe00(%rsp),%ymm3
  40e3fa:	00 00 
  40e3fc:	c5 65 db d9          	vpand  %ymm1,%ymm3,%ymm11
  40e400:	c4 41 65 ef cd       	vpxor  %ymm13,%ymm3,%ymm9
  40e405:	c5 25 ef d4          	vpxor  %ymm4,%ymm11,%ymm10
  40e409:	c4 c1 5d db d9       	vpand  %ymm9,%ymm4,%ymm3
  40e40e:	c4 c1 6d ef d1       	vpxor  %ymm9,%ymm2,%ymm2
  40e413:	c4 c1 2d eb cc       	vpor   %ymm12,%ymm10,%ymm1
  40e418:	c5 ad ef a6 40 b1 00 	vpxor  0xb140(%rsi),%ymm10,%ymm4
  40e41f:	00 
  40e420:	c5 1d ef f3          	vpxor  %ymm3,%ymm12,%ymm14
  40e424:	c5 ed ef 96 20 b3 00 	vpxor  0xb320(%rsi),%ymm2,%ymm2
  40e42b:	00 
  40e42c:	c5 35 ef e9          	vpxor  %ymm1,%ymm9,%ymm13
  40e430:	c5 fe 6f 9c 24 60 01 	vmovdqu 0x160(%rsp),%ymm3
  40e437:	00 00 
  40e439:	c5 fe 7f a4 24 a0 0a 	vmovdqu %ymm4,0xaa0(%rsp)
  40e440:	00 00 
  40e442:	c5 7e 6f 8c 24 80 0d 	vmovdqu 0xd80(%rsp),%ymm9
  40e449:	00 00 
  40e44b:	c5 fe 7f 94 24 80 0c 	vmovdqu %ymm2,0xc80(%rsp)
  40e452:	00 00 
  40e454:	c5 15 ef 9e c0 b5 00 	vpxor  0xb5c0(%rsi),%ymm13,%ymm11
  40e45b:	00 
  40e45c:	c4 c1 7d ef e7       	vpxor  %ymm15,%ymm0,%ymm4
  40e461:	c4 c1 05 ef c9       	vpxor  %ymm9,%ymm15,%ymm1
  40e466:	c5 0d ef a6 a0 b7 00 	vpxor  0xb7a0(%rsi),%ymm14,%ymm12
  40e46d:	00 
  40e46e:	c5 b5 ef d3          	vpxor  %ymm3,%ymm9,%ymm2
  40e472:	c5 7e 6f ac 24 60 0e 	vmovdqu 0xe60(%rsp),%ymm13
  40e479:	00 00 
  40e47b:	c5 7e 7f 9c 24 c0 0b 	vmovdqu %ymm11,0xbc0(%rsp)
  40e482:	00 00 
  40e484:	c5 7e 7f a4 24 a0 08 	vmovdqu %ymm12,0x8a0(%rsp)
  40e48b:	00 00 
  40e48d:	c5 65 eb dc          	vpor   %ymm4,%ymm3,%ymm11
  40e491:	c5 15 db fc          	vpand  %ymm4,%ymm13,%ymm15
  40e495:	c4 41 15 ef f3       	vpxor  %ymm11,%ymm13,%ymm14
  40e49a:	c5 85 ef da          	vpxor  %ymm2,%ymm15,%ymm3
  40e49e:	c4 c1 6d db d6       	vpand  %ymm14,%ymm2,%ymm2
  40e4a3:	c4 41 35 ef d6       	vpxor  %ymm14,%ymm9,%ymm10
  40e4a8:	c5 7e 6f 8c 24 c0 0e 	vmovdqu 0xec0(%rsp),%ymm9
  40e4af:	00 00 
  40e4b1:	c5 75 ef ea          	vpxor  %ymm2,%ymm1,%ymm13
  40e4b5:	c5 e5 eb c9          	vpor   %ymm1,%ymm3,%ymm1
  40e4b9:	c5 2d ef a6 40 b3 00 	vpxor  0xb340(%rsi),%ymm10,%ymm12
  40e4c0:	00 
  40e4c1:	c5 e5 ef 96 60 b1 00 	vpxor  0xb160(%rsi),%ymm3,%ymm2
  40e4c8:	00 
  40e4c9:	c5 15 ef 9e c0 b7 00 	vpxor  0xb7c0(%rsi),%ymm13,%ymm11
  40e4d0:	00 
  40e4d1:	c5 8d ef c9          	vpxor  %ymm1,%ymm14,%ymm1
  40e4d5:	c5 7e 6f 94 24 e0 0d 	vmovdqu 0xde0(%rsp),%ymm10
  40e4dc:	00 00 
  40e4de:	c5 7e 7f a4 24 40 0d 	vmovdqu %ymm12,0xd40(%rsp)
  40e4e5:	00 00 
  40e4e7:	c5 7e 6f b4 24 a0 0e 	vmovdqu 0xea0(%rsp),%ymm14
  40e4ee:	00 00 
  40e4f0:	c5 fe 7f 94 24 80 0a 	vmovdqu %ymm2,0xa80(%rsp)
  40e4f7:	00 00 
  40e4f9:	c5 7e 7f 9c 24 60 08 	vmovdqu %ymm11,0x860(%rsp)
  40e500:	00 00 
  40e502:	c5 f5 ef a6 e0 b5 00 	vpxor  0xb5e0(%rsi),%ymm1,%ymm4
  40e509:	00 
  40e50a:	c4 41 7d ef e1       	vpxor  %ymm9,%ymm0,%ymm12
  40e50f:	c5 fe 7f a4 24 80 0b 	vmovdqu %ymm4,0xb80(%rsp)
  40e516:	00 00 
  40e518:	c5 fe 6f a4 24 a0 0d 	vmovdqu 0xda0(%rsp),%ymm4
  40e51f:	00 00 
  40e521:	c4 41 2d eb fc       	vpor   %ymm12,%ymm10,%ymm15
  40e526:	c4 c1 0d db cc       	vpand  %ymm12,%ymm14,%ymm1
  40e52b:	c5 b5 ef dc          	vpxor  %ymm4,%ymm9,%ymm3
  40e52f:	c4 c1 5d ef d2       	vpxor  %ymm10,%ymm4,%ymm2
  40e534:	c4 41 0d ef cf       	vpxor  %ymm15,%ymm14,%ymm9
  40e539:	c5 75 ef d2          	vpxor  %ymm2,%ymm1,%ymm10
  40e53d:	c4 c1 6d db d1       	vpand  %ymm9,%ymm2,%ymm2
  40e542:	c4 41 5d ef e9       	vpxor  %ymm9,%ymm4,%ymm13
  40e547:	c5 fe 6f 8c 24 00 0f 	vmovdqu 0xf00(%rsp),%ymm1
  40e54e:	00 00 
  40e550:	c5 fe 6f a4 24 40 0e 	vmovdqu 0xe40(%rsp),%ymm4
  40e557:	00 00 
  40e559:	c5 65 ef fa          	vpxor  %ymm2,%ymm3,%ymm15
  40e55d:	c5 ad eb db          	vpor   %ymm3,%ymm10,%ymm3
  40e561:	c5 15 ef 9e 60 b3 00 	vpxor  0xb360(%rsi),%ymm13,%ymm11
  40e568:	00 
  40e569:	c5 7d ef e9          	vpxor  %ymm1,%ymm0,%ymm13
  40e56d:	c5 2d ef a6 80 b1 00 	vpxor  0xb180(%rsi),%ymm10,%ymm12
  40e574:	00 
  40e575:	c5 35 ef f3          	vpxor  %ymm3,%ymm9,%ymm14
  40e579:	c5 85 ef 9e e0 b7 00 	vpxor  0xb7e0(%rsi),%ymm15,%ymm3
  40e580:	00 
  40e581:	c4 41 5d eb d5       	vpor   %ymm13,%ymm4,%ymm10
  40e586:	c5 7e 6f 8c 24 e0 0e 	vmovdqu 0xee0(%rsp),%ymm9
  40e58d:	00 00 
  40e58f:	c5 7e 7f 9c 24 c0 0c 	vmovdqu %ymm11,0xcc0(%rsp)
  40e596:	00 00 
  40e598:	c5 fe 7f 9c 24 80 08 	vmovdqu %ymm3,0x880(%rsp)
  40e59f:	00 00 
  40e5a1:	c5 fe 6f 9c 24 c0 0d 	vmovdqu 0xdc0(%rsp),%ymm3
  40e5a8:	00 00 
  40e5aa:	c5 7e 7f a4 24 60 0a 	vmovdqu %ymm12,0xa60(%rsp)
  40e5b1:	00 00 
  40e5b3:	c4 41 35 db e5       	vpand  %ymm13,%ymm9,%ymm12
  40e5b8:	c4 41 35 ef ea       	vpxor  %ymm10,%ymm9,%ymm13
  40e5bd:	c5 75 ef db          	vpxor  %ymm3,%ymm1,%ymm11
  40e5c1:	c5 e5 ef cc          	vpxor  %ymm4,%ymm3,%ymm1
  40e5c5:	c5 8d ef 96 00 b4 00 	vpxor  0xb400(%rsi),%ymm14,%ymm2
  40e5cc:	00 
  40e5cd:	c4 41 65 ef f5       	vpxor  %ymm13,%ymm3,%ymm14
  40e5d2:	c5 9d ef e1          	vpxor  %ymm1,%ymm12,%ymm4
  40e5d6:	c4 41 75 db fd       	vpand  %ymm13,%ymm1,%ymm15
  40e5db:	c5 8d ef 9e 80 b3 00 	vpxor  0xb380(%rsi),%ymm14,%ymm3
  40e5e2:	00 
  40e5e3:	c4 c1 25 ef cf       	vpxor  %ymm15,%ymm11,%ymm1
  40e5e8:	c4 41 5d eb db       	vpor   %ymm11,%ymm4,%ymm11
  40e5ed:	c5 dd ef a6 a0 b1 00 	vpxor  0xb1a0(%rsi),%ymm4,%ymm4
  40e5f4:	00 
  40e5f5:	c4 41 15 ef cb       	vpxor  %ymm11,%ymm13,%ymm9
  40e5fa:	c5 fe 7f a4 24 20 0a 	vmovdqu %ymm4,0xa20(%rsp)
  40e601:	00 00 
  40e603:	c5 fe 6f a6 00 b6 00 	vmovdqu 0xb600(%rsi),%ymm4
  40e60a:	00 
  40e60b:	c5 35 ef 96 20 b4 00 	vpxor  0xb420(%rsi),%ymm9,%ymm10
  40e612:	00 
  40e613:	c5 7e 6f 8c 24 20 0e 	vmovdqu 0xe20(%rsp),%ymm9
  40e61a:	00 00 
  40e61c:	c5 7e 6f a4 24 c0 0a 	vmovdqu 0xac0(%rsp),%ymm12
  40e623:	00 00 
  40e625:	c5 7e 6f 9c 24 e0 06 	vmovdqu 0x6e0(%rsp),%ymm11
  40e62c:	00 00 
  40e62e:	c5 7e 6f bc 24 00 09 	vmovdqu 0x900(%rsp),%ymm15
  40e635:	00 00 
  40e637:	c5 fe 7f 9c 24 a0 0d 	vmovdqu %ymm3,0xda0(%rsp)
  40e63e:	00 00 
  40e640:	c4 41 7d ef ec       	vpxor  %ymm12,%ymm0,%ymm13
  40e645:	c5 75 ef f4          	vpxor  %ymm4,%ymm1,%ymm14
  40e649:	c4 c1 1d ef d9       	vpxor  %ymm9,%ymm12,%ymm3
  40e64e:	c4 c1 35 ef e3       	vpxor  %ymm11,%ymm9,%ymm4
  40e653:	c4 c1 25 eb cd       	vpor   %ymm13,%ymm11,%ymm1
  40e658:	c4 41 05 db e5       	vpand  %ymm13,%ymm15,%ymm12
  40e65d:	c5 85 ef c9          	vpxor  %ymm1,%ymm15,%ymm1
  40e661:	c5 1d ef dc          	vpxor  %ymm4,%ymm12,%ymm11
  40e665:	c5 7e 6f bc 24 c0 08 	vmovdqu 0x8c0(%rsp),%ymm15
  40e66c:	00 00 
  40e66e:	c5 dd db e1          	vpand  %ymm1,%ymm4,%ymm4
  40e672:	c5 35 ef c9          	vpxor  %ymm1,%ymm9,%ymm9
  40e676:	c5 65 ef ec          	vpxor  %ymm4,%ymm3,%ymm13
  40e67a:	c5 a5 eb db          	vpor   %ymm3,%ymm11,%ymm3
  40e67e:	c5 35 ef 8e a0 b3 00 	vpxor  0xb3a0(%rsi),%ymm9,%ymm9
  40e685:	00 
  40e686:	c5 fe 6f 24 24       	vmovdqu (%rsp),%ymm4
  40e68b:	c5 75 ef e3          	vpxor  %ymm3,%ymm1,%ymm12
  40e68f:	c5 a5 ef 8e c0 b1 00 	vpxor  0xb1c0(%rsi),%ymm11,%ymm1
  40e696:	00 
  40e697:	c5 15 ef 9e 20 b6 00 	vpxor  0xb620(%rsi),%ymm13,%ymm11
  40e69e:	00 
  40e69f:	c5 fe 6f 9c 24 e0 0c 	vmovdqu 0xce0(%rsp),%ymm3
  40e6a6:	00 00 
  40e6a8:	c5 7e 6f ac 24 00 07 	vmovdqu 0x700(%rsp),%ymm13
  40e6af:	00 00 
  40e6b1:	c5 fe 7f 8c 24 e0 0d 	vmovdqu %ymm1,0xde0(%rsp)
  40e6b8:	00 00 
  40e6ba:	c5 7e 7f 8c 24 c0 0d 	vmovdqu %ymm9,0xdc0(%rsp)
  40e6c1:	00 00 
  40e6c3:	c5 fd ef cc          	vpxor  %ymm4,%ymm0,%ymm1
  40e6c7:	c5 1d ef 8e 40 b4 00 	vpxor  0xb440(%rsi),%ymm12,%ymm9
  40e6ce:	00 
  40e6cf:	c5 5d ef e3          	vpxor  %ymm3,%ymm4,%ymm12
  40e6d3:	c4 c1 65 ef e5       	vpxor  %ymm13,%ymm3,%ymm4
  40e6d8:	c5 15 eb e9          	vpor   %ymm1,%ymm13,%ymm13
  40e6dc:	c5 85 db c9          	vpand  %ymm1,%ymm15,%ymm1
  40e6e0:	c4 41 05 ef ed       	vpxor  %ymm13,%ymm15,%ymm13
  40e6e5:	c5 75 ef fc          	vpxor  %ymm4,%ymm1,%ymm15
  40e6e9:	c4 c1 65 ef dd       	vpxor  %ymm13,%ymm3,%ymm3
  40e6ee:	c4 c1 5d db e5       	vpand  %ymm13,%ymm4,%ymm4
  40e6f3:	c5 e5 ef 8e c0 b3 00 	vpxor  0xb3c0(%rsi),%ymm3,%ymm1
  40e6fa:	00 
  40e6fb:	c4 c1 05 eb dc       	vpor   %ymm12,%ymm15,%ymm3
  40e700:	c5 fe 7f 8c 24 00 0e 	vmovdqu %ymm1,0xe00(%rsp)
  40e707:	00 00 
  40e709:	c5 9d ef cc          	vpxor  %ymm4,%ymm12,%ymm1
  40e70d:	c5 05 ef a6 e0 b1 00 	vpxor  0xb1e0(%rsi),%ymm15,%ymm12
  40e714:	00 
  40e715:	c5 95 ef e3          	vpxor  %ymm3,%ymm13,%ymm4
  40e719:	c5 7e 6f bc 24 e0 0a 	vmovdqu 0xae0(%rsp),%ymm15
  40e720:	00 00 
  40e722:	c5 7e 7f a4 24 20 0e 	vmovdqu %ymm12,0xe20(%rsp)
  40e729:	00 00 
  40e72b:	c5 5d ef ae 60 b4 00 	vpxor  0xb460(%rsi),%ymm4,%ymm13
  40e732:	00 
  40e733:	c4 c1 7d ef df       	vpxor  %ymm15,%ymm0,%ymm3
  40e738:	c5 85 ef e2          	vpxor  %ymm2,%ymm15,%ymm4
  40e73c:	c5 75 ef a6 40 b6 00 	vpxor  0xb640(%rsi),%ymm1,%ymm12
  40e743:	00 
  40e744:	c4 c1 6d ef ce       	vpxor  %ymm14,%ymm2,%ymm1
  40e749:	c5 0d eb f3          	vpor   %ymm3,%ymm14,%ymm14
  40e74d:	c5 7e 6f bc 24 e0 08 	vmovdqu 0x8e0(%rsp),%ymm15
  40e754:	00 00 
  40e756:	c4 41 05 ef f6       	vpxor  %ymm14,%ymm15,%ymm14
  40e75b:	c5 85 db db          	vpand  %ymm3,%ymm15,%ymm3
  40e75f:	c4 c1 6d ef d6       	vpxor  %ymm14,%ymm2,%ymm2
  40e764:	c5 e5 ef d9          	vpxor  %ymm1,%ymm3,%ymm3
  40e768:	c4 c1 75 db ce       	vpand  %ymm14,%ymm1,%ymm1
  40e76d:	c5 ed ef 96 e0 bb 00 	vpxor  0xbbe0(%rsi),%ymm2,%ymm2
  40e774:	00 
  40e775:	c5 5d ef f9          	vpxor  %ymm1,%ymm4,%ymm15
  40e779:	c5 e5 eb e4          	vpor   %ymm4,%ymm3,%ymm4
  40e77d:	c5 fe 7f 54 24 20    	vmovdqu %ymm2,0x20(%rsp)
  40e783:	c5 e5 ef 96 00 b8 00 	vpxor  0xb800(%rsi),%ymm3,%ymm2
  40e78a:	00 
  40e78b:	c5 0d ef f4          	vpxor  %ymm4,%ymm14,%ymm14
  40e78f:	c5 85 ef a6 60 be 00 	vpxor  0xbe60(%rsi),%ymm15,%ymm4
  40e796:	00 
  40e797:	c5 fe 6f 9c 24 00 0b 	vmovdqu 0xb00(%rsp),%ymm3
  40e79e:	00 00 
  40e7a0:	c5 8d ef 8e 80 bc 00 	vpxor  0xbc80(%rsi),%ymm14,%ymm1
  40e7a7:	00 
  40e7a8:	c5 fe 7f a4 24 a0 00 	vmovdqu %ymm4,0xa0(%rsp)
  40e7af:	00 00 
  40e7b1:	c5 7d ef f3          	vpxor  %ymm3,%ymm0,%ymm14
  40e7b5:	c4 c1 65 ef e2       	vpxor  %ymm10,%ymm3,%ymm4
  40e7ba:	c5 fe 7f 8c 24 20 05 	vmovdqu %ymm1,0x520(%rsp)
  40e7c1:	00 00 
  40e7c3:	c4 c1 2d ef cb       	vpxor  %ymm11,%ymm10,%ymm1
  40e7c8:	c4 c1 25 eb de       	vpor   %ymm14,%ymm11,%ymm3
  40e7cd:	c5 7e 6f 9c 24 20 09 	vmovdqu 0x920(%rsp),%ymm11
  40e7d4:	00 00 
  40e7d6:	c4 41 25 db f6       	vpand  %ymm14,%ymm11,%ymm14
  40e7db:	c5 a5 ef db          	vpxor  %ymm3,%ymm11,%ymm3
  40e7df:	c5 0d ef f1          	vpxor  %ymm1,%ymm14,%ymm14
  40e7e3:	c5 f5 db cb          	vpand  %ymm3,%ymm1,%ymm1
  40e7e7:	c5 2d ef d3          	vpxor  %ymm3,%ymm10,%ymm10
  40e7eb:	c5 dd ef c9          	vpxor  %ymm1,%ymm4,%ymm1
  40e7ef:	c5 8d eb e4          	vpor   %ymm4,%ymm14,%ymm4
  40e7f3:	c5 2d ef 9e 00 ba 00 	vpxor  0xba00(%rsi),%ymm10,%ymm11
  40e7fa:	00 
  40e7fb:	c5 0d ef b6 20 b8 00 	vpxor  0xb820(%rsi),%ymm14,%ymm14
  40e802:	00 
  40e803:	c5 75 ef be 80 be 00 	vpxor  0xbe80(%rsi),%ymm1,%ymm15
  40e80a:	00 
  40e80b:	c5 e5 ef dc          	vpxor  %ymm4,%ymm3,%ymm3
  40e80f:	c5 fe 6f 8c 24 40 0b 	vmovdqu 0xb40(%rsp),%ymm1
  40e816:	00 00 
  40e818:	c5 7e 7f bc 24 c0 00 	vmovdqu %ymm15,0xc0(%rsp)
  40e81f:	00 00 
  40e821:	c5 65 ef 96 a0 bc 00 	vpxor  0xbca0(%rsi),%ymm3,%ymm10
  40e828:	00 
  40e829:	c4 c1 75 ef d9       	vpxor  %ymm9,%ymm1,%ymm3
  40e82e:	c5 7e 7f 94 24 40 06 	vmovdqu %ymm10,0x640(%rsp)
  40e835:	00 00 
  40e837:	c5 7d ef d1          	vpxor  %ymm1,%ymm0,%ymm10
  40e83b:	c4 c1 35 ef cc       	vpxor  %ymm12,%ymm9,%ymm1
  40e840:	c4 c1 1d eb e2       	vpor   %ymm10,%ymm12,%ymm4
  40e845:	c5 7e 6f a4 24 40 09 	vmovdqu 0x940(%rsp),%ymm12
  40e84c:	00 00 
  40e84e:	c4 41 1d db d2       	vpand  %ymm10,%ymm12,%ymm10
  40e853:	c5 9d ef e4          	vpxor  %ymm4,%ymm12,%ymm4
  40e857:	c5 2d ef f9          	vpxor  %ymm1,%ymm10,%ymm15
  40e85b:	c5 f5 db cc          	vpand  %ymm4,%ymm1,%ymm1
  40e85f:	c5 35 ef cc          	vpxor  %ymm4,%ymm9,%ymm9
  40e863:	c5 65 ef e1          	vpxor  %ymm1,%ymm3,%ymm12
  40e867:	c5 85 eb db          	vpor   %ymm3,%ymm15,%ymm3
  40e86b:	c5 35 ef 96 20 ba 00 	vpxor  0xba20(%rsi),%ymm9,%ymm10
  40e872:	00 
  40e873:	c5 1d ef a6 a0 be 00 	vpxor  0xbea0(%rsi),%ymm12,%ymm12
  40e87a:	00 
  40e87b:	c5 5d ef cb          	vpxor  %ymm3,%ymm4,%ymm9
  40e87f:	c5 85 ef a6 40 b8 00 	vpxor  0xb840(%rsi),%ymm15,%ymm4
  40e886:	00 
  40e887:	c5 7e 7f a4 24 e0 00 	vmovdqu %ymm12,0xe0(%rsp)
  40e88e:	00 00 
  40e890:	c5 7e 6f a4 24 20 07 	vmovdqu 0x720(%rsp),%ymm12
  40e897:	00 00 
  40e899:	c5 fe 7f a4 24 60 02 	vmovdqu %ymm4,0x260(%rsp)
  40e8a0:	00 00 
  40e8a2:	c5 fe 6f a4 24 20 0b 	vmovdqu 0xb20(%rsp),%ymm4
  40e8a9:	00 00 
  40e8ab:	c5 35 ef be c0 bc 00 	vpxor  0xbcc0(%rsi),%ymm9,%ymm15
  40e8b2:	00 
  40e8b3:	c4 c1 15 ef dc       	vpxor  %ymm12,%ymm13,%ymm3
  40e8b8:	c5 fd ef cc          	vpxor  %ymm4,%ymm0,%ymm1
  40e8bc:	c4 41 5d ef cd       	vpxor  %ymm13,%ymm4,%ymm9
  40e8c1:	c5 7e 7f bc 24 c0 06 	vmovdqu %ymm15,0x6c0(%rsp)
  40e8c8:	00 00 
  40e8ca:	c5 7e 6f bc 24 60 09 	vmovdqu 0x960(%rsp),%ymm15
  40e8d1:	00 00 
  40e8d3:	c5 9d eb e1          	vpor   %ymm1,%ymm12,%ymm4
  40e8d7:	c5 85 db c9          	vpand  %ymm1,%ymm15,%ymm1
  40e8db:	c5 85 ef e4          	vpxor  %ymm4,%ymm15,%ymm4
  40e8df:	c5 f5 ef cb          	vpxor  %ymm3,%ymm1,%ymm1
  40e8e3:	c5 e5 db dc          	vpand  %ymm4,%ymm3,%ymm3
  40e8e7:	c5 15 ef ec          	vpxor  %ymm4,%ymm13,%ymm13
  40e8eb:	c5 35 ef fb          	vpxor  %ymm3,%ymm9,%ymm15
  40e8ef:	c4 41 75 eb c9       	vpor   %ymm9,%ymm1,%ymm9
  40e8f4:	c5 15 ef a6 40 ba 00 	vpxor  0xba40(%rsi),%ymm13,%ymm12
  40e8fb:	00 
  40e8fc:	c5 f5 ef 8e 60 b8 00 	vpxor  0xb860(%rsi),%ymm1,%ymm1
  40e903:	00 
  40e904:	c5 05 ef ae c0 be 00 	vpxor  0xbec0(%rsi),%ymm15,%ymm13
  40e90b:	00 
  40e90c:	c4 c1 5d ef e1       	vpxor  %ymm9,%ymm4,%ymm4
  40e911:	c5 7e 6f bc 24 60 0b 	vmovdqu 0xb60(%rsp),%ymm15
  40e918:	00 00 
  40e91a:	c5 7e 7f a4 24 80 04 	vmovdqu %ymm12,0x480(%rsp)
  40e921:	00 00 
  40e923:	c5 7e 7f ac 24 00 01 	vmovdqu %ymm13,0x100(%rsp)
  40e92a:	00 00 
  40e92c:	c5 7e 6f a4 24 00 0d 	vmovdqu 0xd00(%rsp),%ymm12
  40e933:	00 00 
  40e935:	c5 7e 6f ac 24 40 07 	vmovdqu 0x740(%rsp),%ymm13
  40e93c:	00 00 
  40e93e:	c5 fe 7f 8c 24 40 02 	vmovdqu %ymm1,0x240(%rsp)
  40e945:	00 00 
  40e947:	c5 dd ef 8e e0 bc 00 	vpxor  0xbce0(%rsi),%ymm4,%ymm1
  40e94e:	00 
  40e94f:	c4 c1 7d ef e7       	vpxor  %ymm15,%ymm0,%ymm4
  40e954:	c4 41 05 ef cc       	vpxor  %ymm12,%ymm15,%ymm9
  40e959:	c4 c1 1d ef dd       	vpxor  %ymm13,%ymm12,%ymm3
  40e95e:	c5 15 eb fc          	vpor   %ymm4,%ymm13,%ymm15
  40e962:	c5 7e 6f ac 24 80 09 	vmovdqu 0x980(%rsp),%ymm13
  40e969:	00 00 
  40e96b:	c4 41 15 ef ff       	vpxor  %ymm15,%ymm13,%ymm15
  40e970:	c5 95 db e4          	vpand  %ymm4,%ymm13,%ymm4
  40e974:	c4 41 1d ef e7       	vpxor  %ymm15,%ymm12,%ymm12
  40e979:	c5 5d ef eb          	vpxor  %ymm3,%ymm4,%ymm13
  40e97d:	c4 c1 65 db df       	vpand  %ymm15,%ymm3,%ymm3
  40e982:	c5 9d ef a6 60 ba 00 	vpxor  0xba60(%rsi),%ymm12,%ymm4
  40e989:	00 
  40e98a:	c5 7e 6f a4 24 a0 0b 	vmovdqu 0xba0(%rsp),%ymm12
  40e991:	00 00 
  40e993:	c5 fe 7f a4 24 a0 04 	vmovdqu %ymm4,0x4a0(%rsp)
  40e99a:	00 00 
  40e99c:	c5 b5 ef e3          	vpxor  %ymm3,%ymm9,%ymm4
  40e9a0:	c4 41 15 eb c9       	vpor   %ymm9,%ymm13,%ymm9
  40e9a5:	c5 dd ef a6 e0 be 00 	vpxor  0xbee0(%rsi),%ymm4,%ymm4
  40e9ac:	00 
  40e9ad:	c4 c1 05 ef d9       	vpxor  %ymm9,%ymm15,%ymm3
  40e9b2:	c5 15 ef be 80 b8 00 	vpxor  0xb880(%rsi),%ymm13,%ymm15
  40e9b9:	00 
  40e9ba:	c4 41 1d ef e8       	vpxor  %ymm8,%ymm12,%ymm13
  40e9bf:	c5 fe 7f a4 24 20 01 	vmovdqu %ymm4,0x120(%rsp)
  40e9c6:	00 00 
  40e9c8:	c5 fe 6f a4 24 60 07 	vmovdqu 0x760(%rsp),%ymm4
  40e9cf:	00 00 
  40e9d1:	c5 7e 7f bc 24 80 02 	vmovdqu %ymm15,0x280(%rsp)
  40e9d8:	00 00 
  40e9da:	c5 65 ef 8e 00 bd 00 	vpxor  0xbd00(%rsi),%ymm3,%ymm9
  40e9e1:	00 
  40e9e2:	c5 fe 6f 9c 24 a0 09 	vmovdqu 0x9a0(%rsp),%ymm3
  40e9e9:	00 00 
  40e9eb:	c5 7e 7f 8c 24 40 0e 	vmovdqu %ymm9,0xe40(%rsp)
  40e9f2:	00 00 
  40e9f4:	c4 41 7d ef cc       	vpxor  %ymm12,%ymm0,%ymm9
  40e9f9:	c5 3d ef e4          	vpxor  %ymm4,%ymm8,%ymm12
  40e9fd:	c4 41 5d eb f9       	vpor   %ymm9,%ymm4,%ymm15
  40ea02:	c4 41 65 db c9       	vpand  %ymm9,%ymm3,%ymm9
  40ea07:	c4 c1 65 ef df       	vpxor  %ymm15,%ymm3,%ymm3
  40ea0c:	c4 c1 35 ef e4       	vpxor  %ymm12,%ymm9,%ymm4
  40ea11:	c5 7e 6f bc 24 a0 0c 	vmovdqu 0xca0(%rsp),%ymm15
  40ea18:	00 00 
  40ea1a:	c5 3d ef c3          	vpxor  %ymm3,%ymm8,%ymm8
  40ea1e:	c5 1d db e3          	vpand  %ymm3,%ymm12,%ymm12
  40ea22:	c5 3d ef 8e 80 ba 00 	vpxor  0xba80(%rsi),%ymm8,%ymm9
  40ea29:	00 
  40ea2a:	c4 41 15 ef c4       	vpxor  %ymm12,%ymm13,%ymm8
  40ea2f:	c4 41 5d eb ed       	vpor   %ymm13,%ymm4,%ymm13
  40ea34:	c5 dd ef a6 a0 b8 00 	vpxor  0xb8a0(%rsi),%ymm4,%ymm4
  40ea3b:	00 
  40ea3c:	c5 05 ef e7          	vpxor  %ymm7,%ymm15,%ymm12
  40ea40:	c5 3d ef 86 00 bf 00 	vpxor  0xbf00(%rsi),%ymm8,%ymm8
  40ea47:	00 
  40ea48:	c4 c1 65 ef dd       	vpxor  %ymm13,%ymm3,%ymm3
  40ea4d:	c5 fe 7f a4 24 a0 02 	vmovdqu %ymm4,0x2a0(%rsp)
  40ea54:	00 00 
  40ea56:	c5 fe 6f a4 24 80 07 	vmovdqu 0x780(%rsp),%ymm4
  40ea5d:	00 00 
  40ea5f:	c5 7e 7f 8c 24 c0 04 	vmovdqu %ymm9,0x4c0(%rsp)
  40ea66:	00 00 
  40ea68:	c5 7e 7f 84 24 e0 01 	vmovdqu %ymm8,0x1e0(%rsp)
  40ea6f:	00 00 
  40ea71:	c5 7e 6f 84 24 c0 09 	vmovdqu 0x9c0(%rsp),%ymm8
  40ea78:	00 00 
  40ea7a:	c5 65 ef 8e 20 bd 00 	vpxor  0xbd20(%rsi),%ymm3,%ymm9
  40ea81:	00 
  40ea82:	c4 c1 7d ef df       	vpxor  %ymm15,%ymm0,%ymm3
  40ea87:	c5 7e 7f 8c 24 60 0e 	vmovdqu %ymm9,0xe60(%rsp)
  40ea8e:	00 00 
  40ea90:	c5 5d eb eb          	vpor   %ymm3,%ymm4,%ymm13
  40ea94:	c5 45 ef cc          	vpxor  %ymm4,%ymm7,%ymm9
  40ea98:	c5 3d db fb          	vpand  %ymm3,%ymm8,%ymm15
  40ea9c:	c4 c1 3d ef dd       	vpxor  %ymm13,%ymm8,%ymm3
  40eaa1:	c4 c1 05 ef e1       	vpxor  %ymm9,%ymm15,%ymm4
  40eaa6:	c5 35 db cb          	vpand  %ymm3,%ymm9,%ymm9
  40eaaa:	c5 c5 ef fb          	vpxor  %ymm3,%ymm7,%ymm7
  40eaae:	c4 41 1d ef f9       	vpxor  %ymm9,%ymm12,%ymm15
  40eab3:	c4 41 5d eb e4       	vpor   %ymm12,%ymm4,%ymm12
  40eab8:	c5 dd ef a6 c0 b8 00 	vpxor  0xb8c0(%rsi),%ymm4,%ymm4
  40eabf:	00 
  40eac0:	c5 45 ef 86 a0 ba 00 	vpxor  0xbaa0(%rsi),%ymm7,%ymm8
  40eac7:	00 
  40eac8:	c5 85 ef be 20 bf 00 	vpxor  0xbf20(%rsi),%ymm15,%ymm7
  40eacf:	00 
  40ead0:	c4 c1 65 ef dc       	vpxor  %ymm12,%ymm3,%ymm3
  40ead5:	c5 fe 7f a4 24 00 03 	vmovdqu %ymm4,0x300(%rsp)
  40eadc:	00 00 
  40eade:	c5 fe 6f a4 24 20 0d 	vmovdqu 0xd20(%rsp),%ymm4
  40eae5:	00 00 
  40eae7:	c5 7e 6f 8c 24 a0 07 	vmovdqu 0x7a0(%rsp),%ymm9
  40eaee:	00 00 
  40eaf0:	c5 7e 7f 84 24 00 05 	vmovdqu %ymm8,0x500(%rsp)
  40eaf7:	00 00 
  40eaf9:	c5 7e 6f 84 24 e0 09 	vmovdqu 0x9e0(%rsp),%ymm8
  40eb00:	00 00 
  40eb02:	c5 fe 7f bc 24 00 02 	vmovdqu %ymm7,0x200(%rsp)
  40eb09:	00 00 
  40eb0b:	c5 7d ef e4          	vpxor  %ymm4,%ymm0,%ymm12
  40eb0f:	c5 65 ef ae 40 bd 00 	vpxor  0xbd40(%rsi),%ymm3,%ymm13
  40eb16:	00 
  40eb17:	c5 dd ef fe          	vpxor  %ymm6,%ymm4,%ymm7
  40eb1b:	c4 41 4d ef f9       	vpxor  %ymm9,%ymm6,%ymm15
  40eb20:	c4 c1 35 eb e4       	vpor   %ymm12,%ymm9,%ymm4
  40eb25:	c4 c1 3d db dc       	vpand  %ymm12,%ymm8,%ymm3
  40eb2a:	c5 7e 7f ac 24 80 0e 	vmovdqu %ymm13,0xe80(%rsp)
  40eb31:	00 00 
  40eb33:	c5 3d ef ec          	vpxor  %ymm4,%ymm8,%ymm13
  40eb37:	c4 41 65 ef c7       	vpxor  %ymm15,%ymm3,%ymm8
  40eb3c:	c4 c1 4d ef f5       	vpxor  %ymm13,%ymm6,%ymm6
  40eb41:	c4 c1 05 db dd       	vpand  %ymm13,%ymm15,%ymm3
  40eb46:	c5 3d eb cf          	vpor   %ymm7,%ymm8,%ymm9
  40eb4a:	c5 3d ef a6 e0 b8 00 	vpxor  0xb8e0(%rsi),%ymm8,%ymm12
  40eb51:	00 
  40eb52:	c5 cd ef a6 c0 ba 00 	vpxor  0xbac0(%rsi),%ymm6,%ymm4
  40eb59:	00 
  40eb5a:	c5 45 ef fb          	vpxor  %ymm3,%ymm7,%ymm15
  40eb5e:	c4 c1 15 ef f1       	vpxor  %ymm9,%ymm13,%ymm6
  40eb63:	c5 fe 6f bc 24 60 0d 	vmovdqu 0xd60(%rsp),%ymm7
  40eb6a:	00 00 
  40eb6c:	c5 fe 7f a4 24 e0 05 	vmovdqu %ymm4,0x5e0(%rsp)
  40eb73:	00 00 
  40eb75:	c5 fe 6f a4 24 c0 07 	vmovdqu 0x7c0(%rsp),%ymm4
  40eb7c:	00 00 
  40eb7e:	c5 7e 7f a4 24 20 03 	vmovdqu %ymm12,0x320(%rsp)
  40eb85:	00 00 
  40eb87:	c5 4d ef 86 60 bd 00 	vpxor  0xbd60(%rsi),%ymm6,%ymm8
  40eb8e:	00 
  40eb8f:	c5 fd ef df          	vpxor  %ymm7,%ymm0,%ymm3
  40eb93:	c5 55 ef cc          	vpxor  %ymm4,%ymm5,%ymm9
  40eb97:	c5 05 ef ae 40 bf 00 	vpxor  0xbf40(%rsi),%ymm15,%ymm13
  40eb9e:	00 
  40eb9f:	c5 45 ef e5          	vpxor  %ymm5,%ymm7,%ymm12
  40eba3:	c5 fe 6f b4 24 00 0a 	vmovdqu 0xa00(%rsp),%ymm6
  40ebaa:	00 00 
  40ebac:	c5 7e 7f 84 24 a0 0e 	vmovdqu %ymm8,0xea0(%rsp)
  40ebb3:	00 00 
  40ebb5:	c5 7e 7f ac 24 20 02 	vmovdqu %ymm13,0x220(%rsp)
  40ebbc:	00 00 
  40ebbe:	c5 fe 6f bc 24 60 0c 	vmovdqu 0xc60(%rsp),%ymm7
  40ebc5:	00 00 
  40ebc7:	c5 5d eb c3          	vpor   %ymm3,%ymm4,%ymm8
  40ebcb:	c5 4d db eb          	vpand  %ymm3,%ymm6,%ymm13
  40ebcf:	c4 c1 4d ef e0       	vpxor  %ymm8,%ymm6,%ymm4
  40ebd4:	c4 c1 15 ef d9       	vpxor  %ymm9,%ymm13,%ymm3
  40ebd9:	c5 35 db cc          	vpand  %ymm4,%ymm9,%ymm9
  40ebdd:	c5 d5 ef ec          	vpxor  %ymm4,%ymm5,%ymm5
  40ebe1:	c4 41 1d ef e9       	vpxor  %ymm9,%ymm12,%ymm13
  40ebe6:	c4 41 65 eb e4       	vpor   %ymm12,%ymm3,%ymm12
  40ebeb:	c5 d5 ef b6 e0 ba 00 	vpxor  0xbae0(%rsi),%ymm5,%ymm6
  40ebf2:	00 
  40ebf3:	c5 fe 6f ac 24 80 0c 	vmovdqu 0xc80(%rsp),%ymm5
  40ebfa:	00 00 
  40ebfc:	c5 7e 6f 8c 24 40 0a 	vmovdqu 0xa40(%rsp),%ymm9
  40ec03:	00 00 
  40ec05:	c4 41 5d ef c4       	vpxor  %ymm12,%ymm4,%ymm8
  40ec0a:	c5 e5 ef a6 00 b9 00 	vpxor  0xb900(%rsi),%ymm3,%ymm4
  40ec11:	00 
  40ec12:	c5 15 ef be 60 bf 00 	vpxor  0xbf60(%rsi),%ymm13,%ymm15
  40ec19:	00 
  40ec1a:	c5 fe 7f b4 24 a0 05 	vmovdqu %ymm6,0x5a0(%rsp)
  40ec21:	00 00 
  40ec23:	c5 bd ef 9e 80 bd 00 	vpxor  0xbd80(%rsi),%ymm8,%ymm3
  40ec2a:	00 
  40ec2b:	c5 fe 7f a4 24 40 03 	vmovdqu %ymm4,0x340(%rsp)
  40ec32:	00 00 
  40ec34:	c5 fe 6f a4 24 e0 07 	vmovdqu 0x7e0(%rsp),%ymm4
  40ec3b:	00 00 
  40ec3d:	c5 7e 7f bc 24 c0 01 	vmovdqu %ymm15,0x1c0(%rsp)
  40ec44:	00 00 
  40ec46:	c5 fe 7f 9c 24 c0 0e 	vmovdqu %ymm3,0xec0(%rsp)
  40ec4d:	00 00 
  40ec4f:	c5 fd ef dd          	vpxor  %ymm5,%ymm0,%ymm3
  40ec53:	c5 45 ef ec          	vpxor  %ymm4,%ymm7,%ymm13
  40ec57:	c5 55 ef ff          	vpxor  %ymm7,%ymm5,%ymm15
  40ec5b:	c5 fe 6f ac 24 00 08 	vmovdqu 0x800(%rsp),%ymm5
  40ec62:	00 00 
  40ec64:	c5 5d eb e3          	vpor   %ymm3,%ymm4,%ymm12
  40ec68:	c5 35 db c3          	vpand  %ymm3,%ymm9,%ymm8
  40ec6c:	c4 c1 35 ef f4       	vpxor  %ymm12,%ymm9,%ymm6
  40ec71:	c4 41 3d ef c5       	vpxor  %ymm13,%ymm8,%ymm8
  40ec76:	c5 c5 ef fe          	vpxor  %ymm6,%ymm7,%ymm7
  40ec7a:	c4 41 3d eb cf       	vpor   %ymm15,%ymm8,%ymm9
  40ec7f:	c5 95 db de          	vpand  %ymm6,%ymm13,%ymm3
  40ec83:	c5 3d ef a6 20 b9 00 	vpxor  0xb920(%rsi),%ymm8,%ymm12
  40ec8a:	00 
  40ec8b:	c5 c5 ef a6 00 bb 00 	vpxor  0xbb00(%rsi),%ymm7,%ymm4
  40ec92:	00 
  40ec93:	c4 c1 4d ef f1       	vpxor  %ymm9,%ymm6,%ymm6
  40ec98:	c5 05 ef eb          	vpxor  %ymm3,%ymm15,%ymm13
  40ec9c:	c5 fe 6f bc 24 40 0d 	vmovdqu 0xd40(%rsp),%ymm7
  40eca3:	00 00 
  40eca5:	c5 fe 7f a4 24 40 05 	vmovdqu %ymm4,0x540(%rsp)
  40ecac:	00 00 
  40ecae:	c5 7e 7f a4 24 60 03 	vmovdqu %ymm12,0x360(%rsp)
  40ecb5:	00 00 
  40ecb7:	c5 7e 6f a4 24 40 0c 	vmovdqu 0xc40(%rsp),%ymm12
  40ecbe:	00 00 
  40ecc0:	c5 4d ef 86 a0 bd 00 	vpxor  0xbda0(%rsi),%ymm6,%ymm8
  40ecc7:	00 
  40ecc8:	c5 fd ef e7          	vpxor  %ymm7,%ymm0,%ymm4
  40eccc:	c5 15 ef be 80 bf 00 	vpxor  0xbf80(%rsi),%ymm13,%ymm15
  40ecd3:	00 
  40ecd4:	c5 9d ef dd          	vpxor  %ymm5,%ymm12,%ymm3
  40ecd8:	c4 41 45 ef cc       	vpxor  %ymm12,%ymm7,%ymm9
  40ecdd:	c5 fe 6f b4 24 a0 0a 	vmovdqu 0xaa0(%rsp),%ymm6
  40ece4:	00 00 
  40ece6:	c5 7e 7f 84 24 80 0d 	vmovdqu %ymm8,0xd80(%rsp)
  40eced:	00 00 
  40ecef:	c5 7e 7f bc 24 a0 01 	vmovdqu %ymm15,0x1a0(%rsp)
  40ecf6:	00 00 
  40ecf8:	c5 55 eb c4          	vpor   %ymm4,%ymm5,%ymm8
  40ecfc:	c5 4d db ec          	vpand  %ymm4,%ymm6,%ymm13
  40ed00:	c4 c1 4d ef e8       	vpxor  %ymm8,%ymm6,%ymm5
  40ed05:	c5 95 ef e3          	vpxor  %ymm3,%ymm13,%ymm4
  40ed09:	c5 fe 6f b4 24 20 08 	vmovdqu 0x820(%rsp),%ymm6
  40ed10:	00 00 
  40ed12:	c5 e5 db dd          	vpand  %ymm5,%ymm3,%ymm3
  40ed16:	c5 1d ef e5          	vpxor  %ymm5,%ymm12,%ymm12
  40ed1a:	c5 dd ef be 40 b9 00 	vpxor  0xb940(%rsi),%ymm4,%ymm7
  40ed21:	00 
  40ed22:	c5 b5 ef db          	vpxor  %ymm3,%ymm9,%ymm3
  40ed26:	c4 41 5d eb c9       	vpor   %ymm9,%ymm4,%ymm9
  40ed2b:	c5 1d ef be 20 bb 00 	vpxor  0xbb20(%rsi),%ymm12,%ymm15
  40ed32:	00 
  40ed33:	c5 7e 6f a4 24 c0 0c 	vmovdqu 0xcc0(%rsp),%ymm12
  40ed3a:	00 00 
  40ed3c:	c5 fe 7f bc 24 a0 03 	vmovdqu %ymm7,0x3a0(%rsp)
  40ed43:	00 00 
  40ed45:	c5 fe 6f bc 24 00 0c 	vmovdqu 0xc00(%rsp),%ymm7
  40ed4c:	00 00 
  40ed4e:	c5 7e 7f bc 24 60 05 	vmovdqu %ymm15,0x560(%rsp)
  40ed55:	00 00 
  40ed57:	c4 c1 55 ef e9       	vpxor  %ymm9,%ymm5,%ymm5
  40ed5c:	c4 41 7d ef c4       	vpxor  %ymm12,%ymm0,%ymm8
  40ed61:	c5 45 ef ee          	vpxor  %ymm6,%ymm7,%ymm13
  40ed65:	c5 1d ef ff          	vpxor  %ymm7,%ymm12,%ymm15
  40ed69:	c5 d5 ef a6 c0 bd 00 	vpxor  0xbdc0(%rsi),%ymm5,%ymm4
  40ed70:	00 
  40ed71:	c5 65 ef 8e a0 bf 00 	vpxor  0xbfa0(%rsi),%ymm3,%ymm9
  40ed78:	00 
  40ed79:	c5 fe 6f ac 24 80 0a 	vmovdqu 0xa80(%rsp),%ymm5
  40ed80:	00 00 
  40ed82:	c5 fe 7f a4 24 a0 06 	vmovdqu %ymm4,0x6a0(%rsp)
  40ed89:	00 00 
  40ed8b:	c5 7e 7f 8c 24 80 01 	vmovdqu %ymm9,0x180(%rsp)
  40ed92:	00 00 
  40ed94:	c4 c1 4d eb e0       	vpor   %ymm8,%ymm6,%ymm4
  40ed99:	c4 c1 55 db d8       	vpand  %ymm8,%ymm5,%ymm3
  40ed9e:	c5 d5 ef f4          	vpxor  %ymm4,%ymm5,%ymm6
  40eda2:	c4 41 65 ef c5       	vpxor  %ymm13,%ymm3,%ymm8
  40eda7:	c5 c5 ef fe          	vpxor  %ymm6,%ymm7,%ymm7
  40edab:	c5 15 db ee          	vpand  %ymm6,%ymm13,%ymm13
  40edaf:	c5 c5 ef a6 40 bb 00 	vpxor  0xbb40(%rsi),%ymm7,%ymm4
  40edb6:	00 
  40edb7:	c4 41 05 ef e5       	vpxor  %ymm13,%ymm15,%ymm12
  40edbc:	c4 41 3d eb ff       	vpor   %ymm15,%ymm8,%ymm15
  40edc1:	c5 7e 6f ac 24 40 08 	vmovdqu 0x840(%rsp),%ymm13
  40edc8:	00 00 
  40edca:	c5 fe 7f a4 24 80 05 	vmovdqu %ymm4,0x580(%rsp)
  40edd1:	00 00 
  40edd3:	c5 fe 6f bc 24 60 0a 	vmovdqu 0xa60(%rsp),%ymm7
  40edda:	00 00 
  40eddc:	c5 bd ef a6 60 b9 00 	vpxor  0xb960(%rsi),%ymm8,%ymm4
  40ede3:	00 
  40ede4:	c4 c1 4d ef df       	vpxor  %ymm15,%ymm6,%ymm3
  40ede9:	c5 9d ef b6 c0 bf 00 	vpxor  0xbfc0(%rsi),%ymm12,%ymm6
  40edf0:	00 
  40edf1:	c5 7e 6f 84 24 a0 0d 	vmovdqu 0xda0(%rsp),%ymm8
  40edf8:	00 00 
  40edfa:	c5 7e 6f a4 24 20 0c 	vmovdqu 0xc20(%rsp),%ymm12
  40ee01:	00 00 
  40ee03:	c5 fe 7f a4 24 e0 03 	vmovdqu %ymm4,0x3e0(%rsp)
  40ee0a:	00 00 
  40ee0c:	c5 fe 7f b4 24 60 01 	vmovdqu %ymm6,0x160(%rsp)
  40ee13:	00 00 
  40ee15:	c4 41 7d ef f8       	vpxor  %ymm8,%ymm0,%ymm15
  40ee1a:	c5 65 ef 8e e0 bd 00 	vpxor  0xbde0(%rsi),%ymm3,%ymm9
  40ee21:	00 
  40ee22:	c4 c1 1d ef dd       	vpxor  %ymm13,%ymm12,%ymm3
  40ee27:	c4 c1 15 eb ef       	vpor   %ymm15,%ymm13,%ymm5
  40ee2c:	c4 c1 45 db e7       	vpand  %ymm15,%ymm7,%ymm4
  40ee31:	c5 7e 7f 8c 24 00 06 	vmovdqu %ymm9,0x600(%rsp)
  40ee38:	00 00 
  40ee3a:	c5 45 ef ed          	vpxor  %ymm5,%ymm7,%ymm13
  40ee3e:	c4 41 3d ef cc       	vpxor  %ymm12,%ymm8,%ymm9
  40ee43:	c5 dd ef e3          	vpxor  %ymm3,%ymm4,%ymm4
  40ee47:	c5 fe 6f ac 24 c0 0d 	vmovdqu 0xdc0(%rsp),%ymm5
  40ee4e:	00 00 
  40ee50:	c4 41 1d ef e5       	vpxor  %ymm13,%ymm12,%ymm12
  40ee55:	c4 c1 65 db dd       	vpand  %ymm13,%ymm3,%ymm3
  40ee5a:	c5 5d ef 86 80 b9 00 	vpxor  0xb980(%rsi),%ymm4,%ymm8
  40ee61:	00 
  40ee62:	c5 9d ef b6 60 bb 00 	vpxor  0xbb60(%rsi),%ymm12,%ymm6
  40ee69:	00 
  40ee6a:	c5 35 ef fb          	vpxor  %ymm3,%ymm9,%ymm15
  40ee6e:	c4 41 5d eb c9       	vpor   %ymm9,%ymm4,%ymm9
  40ee73:	c5 7e 6f a4 24 a0 08 	vmovdqu 0x8a0(%rsp),%ymm12
  40ee7a:	00 00 
  40ee7c:	c5 fe 7f b4 24 c0 05 	vmovdqu %ymm6,0x5c0(%rsp)
  40ee83:	00 00 
  40ee85:	c5 7e 7f 84 24 20 04 	vmovdqu %ymm8,0x420(%rsp)
  40ee8c:	00 00 
  40ee8e:	c5 7e 6f 84 24 20 0a 	vmovdqu 0xa20(%rsp),%ymm8
  40ee95:	00 00 
  40ee97:	c5 fd ef f5          	vpxor  %ymm5,%ymm0,%ymm6
  40ee9b:	c4 41 15 ef e9       	vpxor  %ymm9,%ymm13,%ymm13
  40eea0:	c5 85 ef be e0 bf 00 	vpxor  0xbfe0(%rsi),%ymm15,%ymm7
  40eea7:	00 
  40eea8:	c5 7e 6f 8c 24 e0 0b 	vmovdqu 0xbe0(%rsp),%ymm9
  40eeaf:	00 00 
  40eeb1:	c5 1d eb fe          	vpor   %ymm6,%ymm12,%ymm15
  40eeb5:	c5 15 ef ae 00 bc 00 	vpxor  0xbc00(%rsi),%ymm13,%ymm13
  40eebc:	00 
  40eebd:	c5 fe 7f bc 24 40 01 	vmovdqu %ymm7,0x140(%rsp)
  40eec4:	00 00 
  40eec6:	c4 c1 35 ef e4       	vpxor  %ymm12,%ymm9,%ymm4
  40eecb:	c5 bd db fe          	vpand  %ymm6,%ymm8,%ymm7
  40eecf:	c4 41 3d ef ff       	vpxor  %ymm15,%ymm8,%ymm15
  40eed4:	c4 c1 55 ef d9       	vpxor  %ymm9,%ymm5,%ymm3
  40eed9:	c5 7e 6f 84 24 00 0e 	vmovdqu 0xe00(%rsp),%ymm8
  40eee0:	00 00 
  40eee2:	c5 45 ef e4          	vpxor  %ymm4,%ymm7,%ymm12
  40eee6:	c4 41 35 ef cf       	vpxor  %ymm15,%ymm9,%ymm9
  40eeeb:	c4 c1 5d db e7       	vpand  %ymm15,%ymm4,%ymm4
  40eef0:	c4 c1 7d ef f0       	vpxor  %ymm8,%ymm0,%ymm6
  40eef5:	c5 fe 6f bc 24 c0 0b 	vmovdqu 0xbc0(%rsp),%ymm7
  40eefc:	00 00 
  40eefe:	c5 b5 ef ae 80 bb 00 	vpxor  0xbb80(%rsi),%ymm9,%ymm5
  40ef05:	00 
  40ef06:	c5 65 ef cc          	vpxor  %ymm4,%ymm3,%ymm9
  40ef0a:	c5 9d eb db          	vpor   %ymm3,%ymm12,%ymm3
  40ef0e:	c5 9d ef a6 a0 b9 00 	vpxor  0xb9a0(%rsi),%ymm12,%ymm4
  40ef15:	00 
  40ef16:	c5 fe 7f ac 24 20 06 	vmovdqu %ymm5,0x620(%rsp)
  40ef1d:	00 00 
  40ef1f:	c5 85 ef db          	vpxor  %ymm3,%ymm15,%ymm3
  40ef23:	c5 35 ef be 00 be 00 	vpxor  0xbe00(%rsi),%ymm9,%ymm15
  40ef2a:	00 
  40ef2b:	c5 bd ef ef          	vpxor  %ymm7,%ymm8,%ymm5
  40ef2f:	c5 fe 7f a4 24 00 04 	vmovdqu %ymm4,0x400(%rsp)
  40ef36:	00 00 
  40ef38:	c5 fe 6f a4 24 60 08 	vmovdqu 0x860(%rsp),%ymm4
  40ef3f:	00 00 
  40ef41:	c5 65 ef a6 20 bc 00 	vpxor  0xbc20(%rsi),%ymm3,%ymm12
  40ef48:	00 
  40ef49:	c5 fe 6f 9c 24 e0 0d 	vmovdqu 0xde0(%rsp),%ymm3
  40ef50:	00 00 
  40ef52:	c5 5d eb ce          	vpor   %ymm6,%ymm4,%ymm9
  40ef56:	c5 45 ef c4          	vpxor  %ymm4,%ymm7,%ymm8
  40ef5a:	c5 e5 db f6          	vpand  %ymm6,%ymm3,%ymm6
  40ef5e:	c4 41 65 ef c9       	vpxor  %ymm9,%ymm3,%ymm9
  40ef63:	c4 c1 4d ef d8       	vpxor  %ymm8,%ymm6,%ymm3
  40ef68:	c4 c1 45 ef f9       	vpxor  %ymm9,%ymm7,%ymm7
  40ef6d:	c4 c1 3d db f1       	vpand  %ymm9,%ymm8,%ymm6
  40ef72:	c5 7e 6f 44 24 40    	vmovdqu 0x40(%rsp),%ymm8
  40ef78:	c5 c5 ef a6 a0 bb 00 	vpxor  0xbba0(%rsi),%ymm7,%ymm4
  40ef7f:	00 
  40ef80:	c5 fe 6f bc 24 80 0b 	vmovdqu 0xb80(%rsp),%ymm7
  40ef87:	00 00 
  40ef89:	c5 fe 7f a4 24 60 06 	vmovdqu %ymm4,0x660(%rsp)
  40ef90:	00 00 
  40ef92:	c5 d5 ef e6          	vpxor  %ymm6,%ymm5,%ymm4
  40ef96:	c5 e5 eb ed          	vpor   %ymm5,%ymm3,%ymm5
  40ef9a:	c5 e5 ef 9e c0 b9 00 	vpxor  0xb9c0(%rsi),%ymm3,%ymm3
  40efa1:	00 
  40efa2:	c5 35 ef cd          	vpxor  %ymm5,%ymm9,%ymm9
  40efa6:	c4 c1 7d ef e8       	vpxor  %ymm8,%ymm0,%ymm5
  40efab:	c5 3d ef c7          	vpxor  %ymm7,%ymm8,%ymm8
  40efaf:	c5 fe 7f 9c 24 c0 03 	vmovdqu %ymm3,0x3c0(%rsp)
  40efb6:	00 00 
  40efb8:	c5 fe 6f 9c 24 20 0e 	vmovdqu 0xe20(%rsp),%ymm3
  40efbf:	00 00 
  40efc1:	c5 b5 ef b6 40 bc 00 	vpxor  0xbc40(%rsi),%ymm9,%ymm6
  40efc8:	00 
  40efc9:	c5 5d ef 8e 20 be 00 	vpxor  0xbe20(%rsi),%ymm4,%ymm9
  40efd0:	00 
  40efd1:	c5 fe 6f a4 24 80 08 	vmovdqu 0x880(%rsp),%ymm4
  40efd8:	00 00 
  40efda:	c5 fe 7f b4 24 e0 0e 	vmovdqu %ymm6,0xee0(%rsp)
  40efe1:	00 00 
  40efe3:	c5 c5 ef f4          	vpxor  %ymm4,%ymm7,%ymm6
  40efe7:	c5 dd eb e5          	vpor   %ymm5,%ymm4,%ymm4
  40efeb:	c5 e5 db ed          	vpand  %ymm5,%ymm3,%ymm5
  40efef:	c5 e5 ef e4          	vpxor  %ymm4,%ymm3,%ymm4
  40eff3:	c5 d5 ef ee          	vpxor  %ymm6,%ymm5,%ymm5
  40eff7:	c5 c5 ef fc          	vpxor  %ymm4,%ymm7,%ymm7
  40effb:	c5 cd db f4          	vpand  %ymm4,%ymm6,%ymm6
  40efff:	c5 c5 ef 9e c0 bb 00 	vpxor  0xbbc0(%rsi),%ymm7,%ymm3
  40f006:	00 
  40f007:	c5 bd ef fe          	vpxor  %ymm6,%ymm8,%ymm7
  40f00b:	c4 41 55 eb c0       	vpor   %ymm8,%ymm5,%ymm8
  40f010:	c5 d5 ef ae e0 b9 00 	vpxor  0xb9e0(%rsi),%ymm5,%ymm5
  40f017:	00 
  40f018:	c4 c1 25 ef f5       	vpxor  %ymm13,%ymm11,%ymm6
  40f01d:	c5 fe 7f 9c 24 80 06 	vmovdqu %ymm3,0x680(%rsp)
  40f024:	00 00 
  40f026:	c4 c1 5d ef d8       	vpxor  %ymm8,%ymm4,%ymm3
  40f02b:	c4 41 15 ef c7       	vpxor  %ymm15,%ymm13,%ymm8
  40f030:	c5 fe 7f ac 24 80 03 	vmovdqu %ymm5,0x380(%rsp)
  40f037:	00 00 
  40f039:	c4 c1 7d ef eb       	vpxor  %ymm11,%ymm0,%ymm5
  40f03e:	c5 e5 ef a6 60 bc 00 	vpxor  0xbc60(%rsi),%ymm3,%ymm4
  40f045:	00 
  40f046:	c5 c5 ef 9e 40 be 00 	vpxor  0xbe40(%rsi),%ymm7,%ymm3
  40f04d:	00 
  40f04e:	c5 05 eb dd          	vpor   %ymm5,%ymm15,%ymm11
  40f052:	c5 6d db fd          	vpand  %ymm5,%ymm2,%ymm15
  40f056:	c4 41 6d ef db       	vpxor  %ymm11,%ymm2,%ymm11
  40f05b:	c4 c1 05 ef d0       	vpxor  %ymm8,%ymm15,%ymm2
  40f060:	c4 c1 3d db fb       	vpand  %ymm11,%ymm8,%ymm7
  40f065:	c4 41 15 ef eb       	vpxor  %ymm11,%ymm13,%ymm13
  40f06a:	c5 4d ef c7          	vpxor  %ymm7,%ymm6,%ymm8
  40f06e:	c5 ed eb f6          	vpor   %ymm6,%ymm2,%ymm6
  40f072:	c5 ed ef 96 00 c0 00 	vpxor  0xc000(%rsi),%ymm2,%ymm2
  40f079:	00 
  40f07a:	c5 95 ef ae e0 c3 00 	vpxor  0xc3e0(%rsi),%ymm13,%ymm5
  40f081:	00 
  40f082:	c4 41 1d ef e9       	vpxor  %ymm9,%ymm12,%ymm13
  40f087:	c5 25 ef de          	vpxor  %ymm6,%ymm11,%ymm11
  40f08b:	c4 c1 7d ef f2       	vpxor  %ymm10,%ymm0,%ymm6
  40f090:	c4 41 2d ef d4       	vpxor  %ymm12,%ymm10,%ymm10
  40f095:	c5 fe 7f 94 24 e0 02 	vmovdqu %ymm2,0x2e0(%rsp)
  40f09c:	00 00 
  40f09e:	c5 fe 7f 6c 24 60    	vmovdqu %ymm5,0x60(%rsp)
  40f0a4:	c5 a5 ef 96 80 c4 00 	vpxor  0xc480(%rsi),%ymm11,%ymm2
  40f0ab:	00 
  40f0ac:	c5 35 eb ce          	vpor   %ymm6,%ymm9,%ymm9
  40f0b0:	c5 8d db fe          	vpand  %ymm6,%ymm14,%ymm7
  40f0b4:	c5 bd ef ae 60 c6 00 	vpxor  0xc660(%rsi),%ymm8,%ymm5
  40f0bb:	00 
  40f0bc:	c5 fe 7f 94 24 60 04 	vmovdqu %ymm2,0x460(%rsp)
  40f0c3:	00 00 
  40f0c5:	c5 7e 6f 84 24 c0 0e 	vmovdqu 0xec0(%rsp),%ymm8
  40f0cc:	00 00 
  40f0ce:	c4 c1 0d ef d1       	vpxor  %ymm9,%ymm14,%ymm2
  40f0d3:	c5 fe 7f ac 24 80 00 	vmovdqu %ymm5,0x80(%rsp)
  40f0da:	00 00 
  40f0dc:	c4 c1 45 ef ed       	vpxor  %ymm13,%ymm7,%ymm5
  40f0e1:	c5 1d ef f2          	vpxor  %ymm2,%ymm12,%ymm14
  40f0e5:	c5 15 db e2          	vpand  %ymm2,%ymm13,%ymm12
  40f0e9:	c5 0d ef 8e 00 c2 00 	vpxor  0xc200(%rsi),%ymm14,%ymm9
  40f0f0:	00 
  40f0f1:	c5 7e 7f 8c 24 e0 04 	vmovdqu %ymm9,0x4e0(%rsp)
  40f0f8:	00 00 
  40f0fa:	c4 41 2d ef cc       	vpxor  %ymm12,%ymm10,%ymm9
  40f0ff:	c4 41 55 eb d2       	vpor   %ymm10,%ymm5,%ymm10
  40f104:	c5 7e 6f a4 24 e0 0e 	vmovdqu 0xee0(%rsp),%ymm12
  40f10b:	00 00 
  40f10d:	c4 c1 6d ef f2       	vpxor  %ymm10,%ymm2,%ymm6
  40f112:	c5 d5 ef 96 20 c0 00 	vpxor  0xc020(%rsi),%ymm5,%ymm2
  40f119:	00 
  40f11a:	c5 7e 6f 96 80 c6 00 	vmovdqu 0xc680(%rsi),%ymm10
  40f121:	00 
  40f122:	c5 fe 6f ac 24 60 0e 	vmovdqu 0xe60(%rsp),%ymm5
  40f129:	00 00 
  40f12b:	c5 cd ef be a0 c4 00 	vpxor  0xc4a0(%rsi),%ymm6,%ymm7
  40f132:	00 
  40f133:	c5 fe 7f 94 24 c0 02 	vmovdqu %ymm2,0x2c0(%rsp)
  40f13a:	00 00 
  40f13c:	c5 fe 6f b4 24 80 0e 	vmovdqu 0xe80(%rsp),%ymm6
  40f143:	00 00 
  40f145:	c5 fe 6f 94 24 40 0e 	vmovdqu 0xe40(%rsp),%ymm2
  40f14c:	00 00 
  40f14e:	c5 fe 7f bc 24 40 04 	vmovdqu %ymm7,0x440(%rsp)
  40f155:	00 00 
  40f157:	c5 fe 6f bc 24 a0 0e 	vmovdqu 0xea0(%rsp),%ymm7
  40f15e:	00 00 
  40f160:	c5 7e 6f b4 24 80 04 	vmovdqu 0x480(%rsp),%ymm14
  40f167:	00 00 
  40f169:	c4 41 35 ef ea       	vpxor  %ymm10,%ymm9,%ymm13
  40f16e:	c5 1d ef cb          	vpxor  %ymm3,%ymm12,%ymm9
  40f172:	c4 41 7d ef fe       	vpxor  %ymm14,%ymm0,%ymm15
  40f177:	c4 41 0d ef dc       	vpxor  %ymm12,%ymm14,%ymm11
  40f17c:	c5 7e 7f ac 24 00 0b 	vmovdqu %ymm13,0xb00(%rsp)
  40f183:	00 00 
  40f185:	c4 41 65 eb d7       	vpor   %ymm15,%ymm3,%ymm10
  40f18a:	c5 fe 6f 9c 24 60 02 	vmovdqu 0x260(%rsp),%ymm3
  40f191:	00 00 
  40f193:	c4 41 65 db ef       	vpand  %ymm15,%ymm3,%ymm13
  40f198:	c4 41 65 ef d2       	vpxor  %ymm10,%ymm3,%ymm10
  40f19d:	c4 41 15 ef e9       	vpxor  %ymm9,%ymm13,%ymm13
  40f1a2:	c4 41 35 db ca       	vpand  %ymm10,%ymm9,%ymm9
  40f1a7:	c4 41 1d ef e2       	vpxor  %ymm10,%ymm12,%ymm12
  40f1ac:	c4 41 25 ef c9       	vpxor  %ymm9,%ymm11,%ymm9
  40f1b1:	c4 41 15 eb db       	vpor   %ymm11,%ymm13,%ymm11
  40f1b6:	c5 1d ef a6 20 c2 00 	vpxor  0xc220(%rsi),%ymm12,%ymm12
  40f1bd:	00 
  40f1be:	c5 15 ef ae 40 c0 00 	vpxor  0xc040(%rsi),%ymm13,%ymm13
  40f1c5:	00 
  40f1c6:	c5 b5 ef 9e a0 c6 00 	vpxor  0xc6a0(%rsi),%ymm9,%ymm3
  40f1cd:	00 
  40f1ce:	c4 41 2d ef f3       	vpxor  %ymm11,%ymm10,%ymm14
  40f1d3:	c5 7e 6f 94 24 a0 04 	vmovdqu 0x4a0(%rsp),%ymm10
  40f1da:	00 00 
  40f1dc:	c5 7e 6f 8c 24 a0 00 	vmovdqu 0xa0(%rsp),%ymm9
  40f1e3:	00 00 
  40f1e5:	c5 fe 7f 9c 24 80 07 	vmovdqu %ymm3,0x780(%rsp)
  40f1ec:	00 00 
  40f1ee:	c5 0d ef be c0 c4 00 	vpxor  0xc4c0(%rsi),%ymm14,%ymm15
  40f1f5:	00 
  40f1f6:	c4 41 7d ef da       	vpxor  %ymm10,%ymm0,%ymm11
  40f1fb:	c5 7e 6f b4 24 40 02 	vmovdqu 0x240(%rsp),%ymm14
  40f202:	00 00 
  40f204:	c5 7e 7f bc 24 20 0a 	vmovdqu %ymm15,0xa20(%rsp)
  40f20b:	00 00 
  40f20d:	c4 c1 35 eb db       	vpor   %ymm11,%ymm9,%ymm3
  40f212:	c5 2d ef fc          	vpxor  %ymm4,%ymm10,%ymm15
  40f216:	c4 41 5d ef d1       	vpxor  %ymm9,%ymm4,%ymm10
  40f21b:	c4 41 0d db db       	vpand  %ymm11,%ymm14,%ymm11
  40f220:	c5 8d ef db          	vpxor  %ymm3,%ymm14,%ymm3
  40f224:	c4 41 25 ef f2       	vpxor  %ymm10,%ymm11,%ymm14
  40f229:	c5 dd ef e3          	vpxor  %ymm3,%ymm4,%ymm4
  40f22d:	c5 2d db d3          	vpand  %ymm3,%ymm10,%ymm10
  40f231:	c5 5d ef 9e 40 c2 00 	vpxor  0xc240(%rsi),%ymm4,%ymm11
  40f238:	00 
  40f239:	c4 41 05 ef ca       	vpxor  %ymm10,%ymm15,%ymm9
  40f23e:	c4 c1 0d eb e7       	vpor   %ymm15,%ymm14,%ymm4
  40f243:	c5 0d ef b6 60 c0 00 	vpxor  0xc060(%rsi),%ymm14,%ymm14
  40f24a:	00 
  40f24b:	c5 35 ef 8e c0 c6 00 	vpxor  0xc6c0(%rsi),%ymm9,%ymm9
  40f252:	00 
  40f253:	c5 65 ef fc          	vpxor  %ymm4,%ymm3,%ymm15
  40f257:	c5 7e 7f b4 24 20 0b 	vmovdqu %ymm14,0xb20(%rsp)
  40f25e:	00 00 
  40f260:	c5 7e 7f 8c 24 60 07 	vmovdqu %ymm9,0x760(%rsp)
  40f267:	00 00 
  40f269:	c5 7e 6f 8c 24 c0 04 	vmovdqu 0x4c0(%rsp),%ymm9
  40f270:	00 00 
  40f272:	c5 85 ef 9e e0 c4 00 	vpxor  0xc4e0(%rsi),%ymm15,%ymm3
  40f279:	00 
  40f27a:	c5 7e 6f bc 24 c0 00 	vmovdqu 0xc0(%rsp),%ymm15
  40f281:	00 00 
  40f283:	c4 41 7d ef d1       	vpxor  %ymm9,%ymm0,%ymm10
  40f288:	c5 fe 7f 9c 24 00 0a 	vmovdqu %ymm3,0xa00(%rsp)
  40f28f:	00 00 
  40f291:	c5 fe 6f 9c 24 20 05 	vmovdqu 0x520(%rsp),%ymm3
  40f298:	00 00 
  40f29a:	c5 35 ef f3          	vpxor  %ymm3,%ymm9,%ymm14
  40f29e:	c4 c1 65 ef e7       	vpxor  %ymm15,%ymm3,%ymm4
  40f2a3:	c4 41 05 eb ca       	vpor   %ymm10,%ymm15,%ymm9
  40f2a8:	c5 7e 6f bc 24 80 02 	vmovdqu 0x280(%rsp),%ymm15
  40f2af:	00 00 
  40f2b1:	c4 41 05 db d2       	vpand  %ymm10,%ymm15,%ymm10
  40f2b6:	c4 41 05 ef c9       	vpxor  %ymm9,%ymm15,%ymm9
  40f2bb:	c5 2d ef fc          	vpxor  %ymm4,%ymm10,%ymm15
  40f2bf:	c4 41 65 ef d1       	vpxor  %ymm9,%ymm3,%ymm10
  40f2c4:	c4 c1 5d db e1       	vpand  %ymm9,%ymm4,%ymm4
  40f2c9:	c5 ad ef 9e 60 c2 00 	vpxor  0xc260(%rsi),%ymm10,%ymm3
  40f2d0:	00 
  40f2d1:	c5 8d ef e4          	vpxor  %ymm4,%ymm14,%ymm4
  40f2d5:	c4 41 05 eb f6       	vpor   %ymm14,%ymm15,%ymm14
  40f2da:	c5 05 ef 96 80 c0 00 	vpxor  0xc080(%rsi),%ymm15,%ymm10
  40f2e1:	00 
  40f2e2:	c5 fe 7f 9c 24 40 0b 	vmovdqu %ymm3,0xb40(%rsp)
  40f2e9:	00 00 
  40f2eb:	c5 fe 6f 9c 24 00 05 	vmovdqu 0x500(%rsp),%ymm3
  40f2f2:	00 00 
  40f2f4:	c5 7e 6f bc 24 40 06 	vmovdqu 0x640(%rsp),%ymm15
  40f2fb:	00 00 
  40f2fd:	c5 7e 7f 94 24 60 0b 	vmovdqu %ymm10,0xb60(%rsp)
  40f304:	00 00 
  40f306:	c5 dd ef a6 e0 c6 00 	vpxor  0xc6e0(%rsi),%ymm4,%ymm4
  40f30d:	00 
  40f30e:	c4 41 35 ef ce       	vpxor  %ymm14,%ymm9,%ymm9
  40f313:	c5 7d ef d3          	vpxor  %ymm3,%ymm0,%ymm10
  40f317:	c5 fe 7f a4 24 40 07 	vmovdqu %ymm4,0x740(%rsp)
  40f31e:	00 00 
  40f320:	c5 fe 6f a4 24 e0 00 	vmovdqu 0xe0(%rsp),%ymm4
  40f327:	00 00 
  40f329:	c5 35 ef b6 00 c5 00 	vpxor  0xc500(%rsi),%ymm9,%ymm14
  40f330:	00 
  40f331:	c4 41 65 ef cf       	vpxor  %ymm15,%ymm3,%ymm9
  40f336:	c5 fe 6f 9c 24 a0 02 	vmovdqu 0x2a0(%rsp),%ymm3
  40f33d:	00 00 
  40f33f:	c5 7e 7f b4 24 e0 09 	vmovdqu %ymm14,0x9e0(%rsp)
  40f346:	00 00 
  40f348:	c5 05 ef f4          	vpxor  %ymm4,%ymm15,%ymm14
  40f34c:	c4 c1 5d eb e2       	vpor   %ymm10,%ymm4,%ymm4
  40f351:	c4 41 65 db d2       	vpand  %ymm10,%ymm3,%ymm10
  40f356:	c5 e5 ef e4          	vpxor  %ymm4,%ymm3,%ymm4
  40f35a:	c4 41 2d ef d6       	vpxor  %ymm14,%ymm10,%ymm10
  40f35f:	c5 0d db f4          	vpand  %ymm4,%ymm14,%ymm14
  40f363:	c5 05 ef fc          	vpxor  %ymm4,%ymm15,%ymm15
  40f367:	c4 c1 35 ef de       	vpxor  %ymm14,%ymm9,%ymm3
  40f36c:	c4 41 2d eb c9       	vpor   %ymm9,%ymm10,%ymm9
  40f371:	c5 2d ef 96 a0 c0 00 	vpxor  0xc0a0(%rsi),%ymm10,%ymm10
  40f378:	00 
  40f379:	c5 05 ef be 80 c2 00 	vpxor  0xc280(%rsi),%ymm15,%ymm15
  40f380:	00 
  40f381:	c5 e5 ef 9e 00 c7 00 	vpxor  0xc700(%rsi),%ymm3,%ymm3
  40f388:	00 
  40f389:	c4 c1 5d ef e1       	vpxor  %ymm9,%ymm4,%ymm4
  40f38e:	c5 7e 6f 8c 24 e0 05 	vmovdqu 0x5e0(%rsp),%ymm9
  40f395:	00 00 
  40f397:	c5 7e 7f 94 24 60 08 	vmovdqu %ymm10,0x860(%rsp)
  40f39e:	00 00 
  40f3a0:	c5 7e 6f b4 24 00 01 	vmovdqu 0x100(%rsp),%ymm14
  40f3a7:	00 00 
  40f3a9:	c5 7e 7f bc 24 80 0b 	vmovdqu %ymm15,0xb80(%rsp)
  40f3b0:	00 00 
  40f3b2:	c5 7e 6f bc 24 00 03 	vmovdqu 0x300(%rsp),%ymm15
  40f3b9:	00 00 
  40f3bb:	c5 fe 7f 9c 24 00 07 	vmovdqu %ymm3,0x700(%rsp)
  40f3c2:	00 00 
  40f3c4:	c5 5d ef 96 20 c5 00 	vpxor  0xc520(%rsi),%ymm4,%ymm10
  40f3cb:	00 
  40f3cc:	c5 fe 6f a4 24 c0 06 	vmovdqu 0x6c0(%rsp),%ymm4
  40f3d3:	00 00 
  40f3d5:	c5 7e 7f 94 24 40 0a 	vmovdqu %ymm10,0xa40(%rsp)
  40f3dc:	00 00 
  40f3de:	c4 41 7d ef d1       	vpxor  %ymm9,%ymm0,%ymm10
  40f3e3:	c5 b5 ef dc          	vpxor  %ymm4,%ymm9,%ymm3
  40f3e7:	c4 41 5d ef ce       	vpxor  %ymm14,%ymm4,%ymm9
  40f3ec:	c4 41 0d eb f2       	vpor   %ymm10,%ymm14,%ymm14
  40f3f1:	c4 41 05 db d2       	vpand  %ymm10,%ymm15,%ymm10
  40f3f6:	c4 41 05 ef f6       	vpxor  %ymm14,%ymm15,%ymm14
  40f3fb:	c4 41 2d ef f9       	vpxor  %ymm9,%ymm10,%ymm15
  40f400:	c4 41 5d ef d6       	vpxor  %ymm14,%ymm4,%ymm10
  40f405:	c4 41 35 db ce       	vpand  %ymm14,%ymm9,%ymm9
  40f40a:	c5 ad ef a6 a0 c2 00 	vpxor  0xc2a0(%rsi),%ymm10,%ymm4
  40f411:	00 
  40f412:	c5 fe 7f a4 24 a0 09 	vmovdqu %ymm4,0x9a0(%rsp)
  40f419:	00 00 
  40f41b:	c4 c1 65 ef e1       	vpxor  %ymm9,%ymm3,%ymm4
  40f420:	c5 85 eb db          	vpor   %ymm3,%ymm15,%ymm3
  40f424:	c5 05 ef be c0 c0 00 	vpxor  0xc0c0(%rsi),%ymm15,%ymm15
  40f42b:	00 
  40f42c:	c5 0d ef d3          	vpxor  %ymm3,%ymm14,%ymm10
  40f430:	c5 5d ef b6 20 c7 00 	vpxor  0xc720(%rsi),%ymm4,%ymm14
  40f437:	00 
  40f438:	c5 fe 6f a4 24 a0 05 	vmovdqu 0x5a0(%rsp),%ymm4
  40f43f:	00 00 
  40f441:	c5 7e 7f bc 24 40 08 	vmovdqu %ymm15,0x840(%rsp)
  40f448:	00 00 
  40f44a:	c5 7e 6f bc 24 20 01 	vmovdqu 0x120(%rsp),%ymm15
  40f451:	00 00 
  40f453:	c5 fe 6f 9c 24 20 03 	vmovdqu 0x320(%rsp),%ymm3
  40f45a:	00 00 
  40f45c:	c5 7e 7f b4 24 20 07 	vmovdqu %ymm14,0x720(%rsp)
  40f463:	00 00 
  40f465:	c5 2d ef 8e 40 c5 00 	vpxor  0xc540(%rsi),%ymm10,%ymm9
  40f46c:	00 
  40f46d:	c5 7d ef d4          	vpxor  %ymm4,%ymm0,%ymm10
  40f471:	c5 5d ef f1          	vpxor  %ymm1,%ymm4,%ymm14
  40f475:	c5 7e 7f 8c 24 c0 09 	vmovdqu %ymm9,0x9c0(%rsp)
  40f47c:	00 00 
  40f47e:	c4 c1 05 eb e2       	vpor   %ymm10,%ymm15,%ymm4
  40f483:	c4 41 65 db d2       	vpand  %ymm10,%ymm3,%ymm10
  40f488:	c4 41 75 ef cf       	vpxor  %ymm15,%ymm1,%ymm9
  40f48d:	c5 e5 ef dc          	vpxor  %ymm4,%ymm3,%ymm3
  40f491:	c4 41 2d ef f9       	vpxor  %ymm9,%ymm10,%ymm15
  40f496:	c5 f5 ef cb          	vpxor  %ymm3,%ymm1,%ymm1
  40f49a:	c5 35 db cb          	vpand  %ymm3,%ymm9,%ymm9
  40f49e:	c5 85 ef a6 e0 c0 00 	vpxor  0xc0e0(%rsi),%ymm15,%ymm4
  40f4a5:	00 
  40f4a6:	c5 75 ef 96 c0 c2 00 	vpxor  0xc2c0(%rsi),%ymm1,%ymm10
  40f4ad:	00 
  40f4ae:	c5 fe 7f a4 24 20 08 	vmovdqu %ymm4,0x820(%rsp)
  40f4b5:	00 00 
  40f4b7:	c5 7e 7f 94 24 80 09 	vmovdqu %ymm10,0x980(%rsp)
  40f4be:	00 00 
  40f4c0:	c4 41 0d ef d1       	vpxor  %ymm9,%ymm14,%ymm10
  40f4c5:	c4 41 05 eb f6       	vpor   %ymm14,%ymm15,%ymm14
  40f4ca:	c5 7e 6f 8c 24 e0 01 	vmovdqu 0x1e0(%rsp),%ymm9
  40f4d1:	00 00 
  40f4d3:	c5 ad ef 8e 40 c7 00 	vpxor  0xc740(%rsi),%ymm10,%ymm1
  40f4da:	00 
  40f4db:	c4 c1 65 ef de       	vpxor  %ymm14,%ymm3,%ymm3
  40f4e0:	c5 7e 6f 94 24 40 05 	vmovdqu 0x540(%rsp),%ymm10
  40f4e7:	00 00 
  40f4e9:	c4 41 6d ef f1       	vpxor  %ymm9,%ymm2,%ymm14
  40f4ee:	c5 65 ef be 60 c5 00 	vpxor  0xc560(%rsi),%ymm3,%ymm15
  40f4f5:	00 
  40f4f6:	c5 fe 6f 9c 24 40 03 	vmovdqu 0x340(%rsp),%ymm3
  40f4fd:	00 00 
  40f4ff:	c5 fe 7f 8c 24 e0 06 	vmovdqu %ymm1,0x6e0(%rsp)
  40f506:	00 00 
  40f508:	c5 ad ef e2          	vpxor  %ymm2,%ymm10,%ymm4
  40f50c:	c5 7e 7f bc 24 60 0a 	vmovdqu %ymm15,0xa60(%rsp)
  40f513:	00 00 
  40f515:	c4 41 7d ef fa       	vpxor  %ymm10,%ymm0,%ymm15
  40f51a:	c4 c1 35 eb cf       	vpor   %ymm15,%ymm9,%ymm1
  40f51f:	c4 41 65 db d7       	vpand  %ymm15,%ymm3,%ymm10
  40f524:	c5 65 ef c9          	vpxor  %ymm1,%ymm3,%ymm9
  40f528:	c4 41 2d ef d6       	vpxor  %ymm14,%ymm10,%ymm10
  40f52d:	c5 fe 6f 8c 24 60 05 	vmovdqu 0x560(%rsp),%ymm1
  40f534:	00 00 
  40f536:	c4 c1 6d ef d1       	vpxor  %ymm9,%ymm2,%ymm2
  40f53b:	c4 41 0d db f1       	vpand  %ymm9,%ymm14,%ymm14
  40f540:	c5 6d ef be e0 c2 00 	vpxor  0xc2e0(%rsi),%ymm2,%ymm15
  40f547:	00 
  40f548:	c4 c1 5d ef d6       	vpxor  %ymm14,%ymm4,%ymm2
  40f54d:	c5 ad eb e4          	vpor   %ymm4,%ymm10,%ymm4
  40f551:	c5 2d ef 96 00 c1 00 	vpxor  0xc100(%rsi),%ymm10,%ymm10
  40f558:	00 
  40f559:	c5 7d ef f1          	vpxor  %ymm1,%ymm0,%ymm14
  40f55d:	c5 ed ef 9e 60 c7 00 	vpxor  0xc760(%rsi),%ymm2,%ymm3
  40f564:	00 
  40f565:	c5 35 ef cc          	vpxor  %ymm4,%ymm9,%ymm9
  40f569:	c5 7e 7f 94 24 00 08 	vmovdqu %ymm10,0x800(%rsp)
  40f570:	00 00 
  40f572:	c5 fe 6f 94 24 60 03 	vmovdqu 0x360(%rsp),%ymm2
  40f579:	00 00 
  40f57b:	c5 fe 7f 5c 24 40    	vmovdqu %ymm3,0x40(%rsp)
  40f581:	c5 7e 7f bc 24 40 09 	vmovdqu %ymm15,0x940(%rsp)
  40f588:	00 00 
  40f58a:	c5 35 ef 96 80 c5 00 	vpxor  0xc580(%rsi),%ymm9,%ymm10
  40f591:	00 
  40f592:	c5 75 ef fd          	vpxor  %ymm5,%ymm1,%ymm15
  40f596:	c4 c1 6d db ce       	vpand  %ymm14,%ymm2,%ymm1
  40f59b:	c5 7e 6f 8c 24 00 02 	vmovdqu 0x200(%rsp),%ymm9
  40f5a2:	00 00 
  40f5a4:	c4 c1 35 eb de       	vpor   %ymm14,%ymm9,%ymm3
  40f5a9:	c4 c1 55 ef e1       	vpxor  %ymm9,%ymm5,%ymm4
  40f5ae:	c5 6d ef f3          	vpxor  %ymm3,%ymm2,%ymm14
  40f5b2:	c5 75 ef cc          	vpxor  %ymm4,%ymm1,%ymm9
  40f5b6:	c4 c1 5d db e6       	vpand  %ymm14,%ymm4,%ymm4
  40f5bb:	c4 c1 55 ef ee       	vpxor  %ymm14,%ymm5,%ymm5
  40f5c0:	c5 85 ef dc          	vpxor  %ymm4,%ymm15,%ymm3
  40f5c4:	c4 41 35 eb ff       	vpor   %ymm15,%ymm9,%ymm15
  40f5c9:	c5 35 ef 8e 20 c1 00 	vpxor  0xc120(%rsi),%ymm9,%ymm9
  40f5d0:	00 
  40f5d1:	c5 d5 ef ae 00 c3 00 	vpxor  0xc300(%rsi),%ymm5,%ymm5
  40f5d8:	00 
  40f5d9:	c5 e5 ef 8e 80 c7 00 	vpxor  0xc780(%rsi),%ymm3,%ymm1
  40f5e0:	00 
  40f5e1:	c4 41 0d ef f7       	vpxor  %ymm15,%ymm14,%ymm14
  40f5e6:	c5 7e 7f 8c 24 e0 07 	vmovdqu %ymm9,0x7e0(%rsp)
  40f5ed:	00 00 
  40f5ef:	c5 7e 6f 8c 24 80 05 	vmovdqu 0x580(%rsp),%ymm9
  40f5f6:	00 00 
  40f5f8:	c5 fe 7f ac 24 20 09 	vmovdqu %ymm5,0x920(%rsp)
  40f5ff:	00 00 
  40f601:	c5 fe 6f ac 24 20 02 	vmovdqu 0x220(%rsp),%ymm5
  40f608:	00 00 
  40f60a:	c5 fe 6f a4 24 a0 03 	vmovdqu 0x3a0(%rsp),%ymm4
  40f611:	00 00 
  40f613:	c5 fe 7f 0c 24       	vmovdqu %ymm1,(%rsp)
  40f618:	c5 8d ef 96 a0 c5 00 	vpxor  0xc5a0(%rsi),%ymm14,%ymm2
  40f61f:	00 
  40f620:	c4 41 7d ef f1       	vpxor  %ymm9,%ymm0,%ymm14
  40f625:	c5 b5 ef ce          	vpxor  %ymm6,%ymm9,%ymm1
  40f629:	c5 cd ef dd          	vpxor  %ymm5,%ymm6,%ymm3
  40f62d:	c5 fe 7f 94 24 a0 0b 	vmovdqu %ymm2,0xba0(%rsp)
  40f634:	00 00 
  40f636:	c4 41 55 eb fe       	vpor   %ymm14,%ymm5,%ymm15
  40f63b:	c4 41 5d db ce       	vpand  %ymm14,%ymm4,%ymm9
  40f640:	c4 c1 5d ef d7       	vpxor  %ymm15,%ymm4,%ymm2
  40f645:	c5 35 ef fb          	vpxor  %ymm3,%ymm9,%ymm15
  40f649:	c5 cd ef f2          	vpxor  %ymm2,%ymm6,%ymm6
  40f64d:	c5 85 eb e9          	vpor   %ymm1,%ymm15,%ymm5
  40f651:	c5 05 ef b6 40 c1 00 	vpxor  0xc140(%rsi),%ymm15,%ymm14
  40f658:	00 
  40f659:	c5 4d ef 8e 20 c3 00 	vpxor  0xc320(%rsi),%ymm6,%ymm9
  40f660:	00 
  40f661:	c5 e5 db f2          	vpand  %ymm2,%ymm3,%ymm6
  40f665:	c5 ed ef e5          	vpxor  %ymm5,%ymm2,%ymm4
  40f669:	c5 fe 6f ac 24 e0 03 	vmovdqu 0x3e0(%rsp),%ymm5
  40f670:	00 00 
  40f672:	c5 7e 7f 8c 24 00 09 	vmovdqu %ymm9,0x900(%rsp)
  40f679:	00 00 
  40f67b:	c5 7e 6f 8c 24 c0 01 	vmovdqu 0x1c0(%rsp),%ymm9
  40f682:	00 00 
  40f684:	c5 7e 7f b4 24 c0 07 	vmovdqu %ymm14,0x7c0(%rsp)
  40f68b:	00 00 
  40f68d:	c5 f5 ef de          	vpxor  %ymm6,%ymm1,%ymm3
  40f691:	c5 5d ef be c0 c5 00 	vpxor  0xc5c0(%rsi),%ymm4,%ymm15
  40f698:	00 
  40f699:	c4 41 45 ef f1       	vpxor  %ymm9,%ymm7,%ymm14
  40f69e:	c5 fe 6f 8c 24 c0 05 	vmovdqu 0x5c0(%rsp),%ymm1
  40f6a5:	00 00 
  40f6a7:	c5 e5 ef 96 a0 c7 00 	vpxor  0xc7a0(%rsi),%ymm3,%ymm2
  40f6ae:	00 
  40f6af:	c5 7e 7f bc 24 c0 0b 	vmovdqu %ymm15,0xbc0(%rsp)
  40f6b6:	00 00 
  40f6b8:	c5 fe 6f 9c 24 20 06 	vmovdqu 0x620(%rsp),%ymm3
  40f6bf:	00 00 
  40f6c1:	c5 fd ef f1          	vpxor  %ymm1,%ymm0,%ymm6
  40f6c5:	c5 f5 ef e7          	vpxor  %ymm7,%ymm1,%ymm4
  40f6c9:	c5 fe 7f 94 24 80 08 	vmovdqu %ymm2,0x880(%rsp)
  40f6d0:	00 00 
  40f6d2:	c5 35 eb fe          	vpor   %ymm6,%ymm9,%ymm15
  40f6d6:	c5 d5 db d6          	vpand  %ymm6,%ymm5,%ymm2
  40f6da:	c4 c1 55 ef f7       	vpxor  %ymm15,%ymm5,%ymm6
  40f6df:	c4 c1 6d ef ee       	vpxor  %ymm14,%ymm2,%ymm5
  40f6e4:	c5 c5 ef fe          	vpxor  %ymm6,%ymm7,%ymm7
  40f6e8:	c5 45 ef 8e 40 c3 00 	vpxor  0xc340(%rsi),%ymm7,%ymm9
  40f6ef:	00 
  40f6f0:	c5 8d db fe          	vpand  %ymm6,%ymm14,%ymm7
  40f6f4:	c5 55 eb f4          	vpor   %ymm4,%ymm5,%ymm14
  40f6f8:	c5 7e 7f 8c 24 e0 08 	vmovdqu %ymm9,0x8e0(%rsp)
  40f6ff:	00 00 
  40f701:	c5 5d ef ff          	vpxor  %ymm7,%ymm4,%ymm15
  40f705:	c4 c1 4d ef e6       	vpxor  %ymm14,%ymm6,%ymm4
  40f70a:	c4 41 65 ef c8       	vpxor  %ymm8,%ymm3,%ymm9
  40f70f:	c5 d5 ef b6 60 c1 00 	vpxor  0xc160(%rsi),%ymm5,%ymm6
  40f716:	00 
  40f717:	c5 85 ef 96 c0 c7 00 	vpxor  0xc7c0(%rsi),%ymm15,%ymm2
  40f71e:	00 
  40f71f:	c5 dd ef ae e0 c5 00 	vpxor  0xc5e0(%rsi),%ymm4,%ymm5
  40f726:	00 
  40f727:	c5 fe 6f bc 24 a0 01 	vmovdqu 0x1a0(%rsp),%ymm7
  40f72e:	00 00 
  40f730:	c5 fe 7f b4 24 a0 07 	vmovdqu %ymm6,0x7a0(%rsp)
  40f737:	00 00 
  40f739:	c5 fe 7f 94 24 a0 0a 	vmovdqu %ymm2,0xaa0(%rsp)
  40f740:	00 00 
  40f742:	c5 fe 7f ac 24 e0 0b 	vmovdqu %ymm5,0xbe0(%rsp)
  40f749:	00 00 
  40f74b:	c5 fe 6f ac 24 20 04 	vmovdqu 0x420(%rsp),%ymm5
  40f752:	00 00 
  40f754:	c5 fd ef f3          	vpxor  %ymm3,%ymm0,%ymm6
  40f758:	c5 bd ef cf          	vpxor  %ymm7,%ymm8,%ymm1
  40f75c:	c5 45 eb f6          	vpor   %ymm6,%ymm7,%ymm14
  40f760:	c5 d5 db e6          	vpand  %ymm6,%ymm5,%ymm4
  40f764:	c4 41 55 ef fe       	vpxor  %ymm14,%ymm5,%ymm15
  40f769:	c5 dd ef d1          	vpxor  %ymm1,%ymm4,%ymm2
  40f76d:	c4 c1 75 db ff       	vpand  %ymm15,%ymm1,%ymm7
  40f772:	c4 41 3d ef c7       	vpxor  %ymm15,%ymm8,%ymm8
  40f777:	c5 ed ef b6 80 c1 00 	vpxor  0xc180(%rsi),%ymm2,%ymm6
  40f77e:	00 
  40f77f:	c5 fe 6f 8c 24 60 06 	vmovdqu 0x660(%rsp),%ymm1
  40f786:	00 00 
  40f788:	c5 35 ef f7          	vpxor  %ymm7,%ymm9,%ymm14
  40f78c:	c4 41 6d eb c9       	vpor   %ymm9,%ymm2,%ymm9
  40f791:	c5 3d ef 86 60 c3 00 	vpxor  0xc360(%rsi),%ymm8,%ymm8
  40f798:	00 
  40f799:	c5 fe 6f 94 24 80 0d 	vmovdqu 0xd80(%rsp),%ymm2
  40f7a0:	00 00 
  40f7a2:	c5 fe 6f bc 24 00 04 	vmovdqu 0x400(%rsp),%ymm7
  40f7a9:	00 00 
  40f7ab:	c5 fe 7f b4 24 a0 08 	vmovdqu %ymm6,0x8a0(%rsp)
  40f7b2:	00 00 
  40f7b4:	c5 7e 7f 84 24 c0 08 	vmovdqu %ymm8,0x8c0(%rsp)
  40f7bb:	00 00 
  40f7bd:	c4 c1 05 ef e9       	vpxor  %ymm9,%ymm15,%ymm5
  40f7c2:	c5 7d ef c1          	vpxor  %ymm1,%ymm0,%ymm8
  40f7c6:	c5 75 ef fa          	vpxor  %ymm2,%ymm1,%ymm15
  40f7ca:	c5 8d ef a6 e0 c7 00 	vpxor  0xc7e0(%rsi),%ymm14,%ymm4
  40f7d1:	00 
  40f7d2:	c5 d5 ef 9e 00 c4 00 	vpxor  0xc400(%rsi),%ymm5,%ymm3
  40f7d9:	00 
  40f7da:	c4 c1 45 db e8       	vpand  %ymm8,%ymm7,%ymm5
  40f7df:	c5 7e 6f 8c 24 80 01 	vmovdqu 0x180(%rsp),%ymm9
  40f7e6:	00 00 
  40f7e8:	c5 fe 7f a4 24 e0 0a 	vmovdqu %ymm4,0xae0(%rsp)
  40f7ef:	00 00 
  40f7f1:	c4 c1 35 eb f0       	vpor   %ymm8,%ymm9,%ymm6
  40f7f6:	c4 41 6d ef f1       	vpxor  %ymm9,%ymm2,%ymm14
  40f7fb:	c5 45 ef c6          	vpxor  %ymm6,%ymm7,%ymm8
  40f7ff:	c4 c1 55 ef f6       	vpxor  %ymm14,%ymm5,%ymm6
  40f804:	c4 41 0d db f0       	vpand  %ymm8,%ymm14,%ymm14
  40f809:	c4 c1 6d ef e0       	vpxor  %ymm8,%ymm2,%ymm4
  40f80e:	c5 cd ef 8e a0 c1 00 	vpxor  0xc1a0(%rsi),%ymm6,%ymm1
  40f815:	00 
  40f816:	c4 c1 05 ef fe       	vpxor  %ymm14,%ymm15,%ymm7
  40f81b:	c4 41 4d eb ff       	vpor   %ymm15,%ymm6,%ymm15
  40f820:	c5 dd ef 96 80 c3 00 	vpxor  0xc380(%rsi),%ymm4,%ymm2
  40f827:	00 
  40f828:	c5 fe 7f 8c 24 00 0c 	vmovdqu %ymm1,0xc00(%rsp)
  40f82f:	00 00 
  40f831:	c5 fe 6f a4 24 a0 06 	vmovdqu 0x6a0(%rsp),%ymm4
  40f838:	00 00 
  40f83a:	c5 fe 6f 8c 24 c0 03 	vmovdqu 0x3c0(%rsp),%ymm1
  40f841:	00 00 
  40f843:	c5 fe 7f 94 24 60 09 	vmovdqu %ymm2,0x960(%rsp)
  40f84a:	00 00 
  40f84c:	c4 41 3d ef cf       	vpxor  %ymm15,%ymm8,%ymm9
  40f851:	c5 45 ef b6 00 c6 00 	vpxor  0xc600(%rsi),%ymm7,%ymm14
  40f858:	00 
  40f859:	c5 7e 6f 84 24 80 06 	vmovdqu 0x680(%rsp),%ymm8
  40f860:	00 00 
  40f862:	c5 7e 6f bc 24 60 01 	vmovdqu 0x160(%rsp),%ymm15
  40f869:	00 00 
  40f86b:	c5 b5 ef b6 20 c4 00 	vpxor  0xc420(%rsi),%ymm9,%ymm6
  40f872:	00 
  40f873:	c4 c1 7d ef d0       	vpxor  %ymm8,%ymm0,%ymm2
  40f878:	c5 bd ef ec          	vpxor  %ymm4,%ymm8,%ymm5
  40f87c:	c4 c1 5d ef ff       	vpxor  %ymm15,%ymm4,%ymm7
  40f881:	c5 05 eb ca          	vpor   %ymm2,%ymm15,%ymm9
  40f885:	c5 75 db c2          	vpand  %ymm2,%ymm1,%ymm8
  40f889:	c5 fe 6f 54 24 20    	vmovdqu 0x20(%rsp),%ymm2
  40f88f:	c4 41 75 ef c9       	vpxor  %ymm9,%ymm1,%ymm9
  40f894:	c5 3d ef c7          	vpxor  %ymm7,%ymm8,%ymm8
  40f898:	c5 fe 6f 8c 24 40 01 	vmovdqu 0x140(%rsp),%ymm1
  40f89f:	00 00 
  40f8a1:	c4 c1 45 db f9       	vpand  %ymm9,%ymm7,%ymm7
  40f8a6:	c4 c1 5d ef e1       	vpxor  %ymm9,%ymm4,%ymm4
  40f8ab:	c5 55 ef ff          	vpxor  %ymm7,%ymm5,%ymm15
  40f8af:	c5 bd eb ed          	vpor   %ymm5,%ymm8,%ymm5
  40f8b3:	c5 dd ef a6 a0 c3 00 	vpxor  0xc3a0(%rsi),%ymm4,%ymm4
  40f8ba:	00 
  40f8bb:	c5 b5 ef fd          	vpxor  %ymm5,%ymm9,%ymm7
  40f8bf:	c5 3d ef 8e c0 c1 00 	vpxor  0xc1c0(%rsi),%ymm8,%ymm9
  40f8c6:	00 
  40f8c7:	c5 85 ef ae 20 c6 00 	vpxor  0xc620(%rsi),%ymm15,%ymm5
  40f8ce:	00 
  40f8cf:	c5 fe 7f a4 24 80 0a 	vmovdqu %ymm4,0xa80(%rsp)
  40f8d6:	00 00 
  40f8d8:	c5 fe 6f a4 24 00 06 	vmovdqu 0x600(%rsp),%ymm4
  40f8df:	00 00 
  40f8e1:	c5 7e 7f 8c 24 20 0c 	vmovdqu %ymm9,0xc20(%rsp)
  40f8e8:	00 00 
  40f8ea:	c5 7e 6f bc 24 80 03 	vmovdqu 0x380(%rsp),%ymm15
  40f8f1:	00 00 
  40f8f3:	c5 7d ef ca          	vpxor  %ymm2,%ymm0,%ymm9
  40f8f7:	c5 ed ef d4          	vpxor  %ymm4,%ymm2,%ymm2
  40f8fb:	c5 45 ef 86 40 c4 00 	vpxor  0xc440(%rsi),%ymm7,%ymm8
  40f902:	00 
  40f903:	c5 dd ef f9          	vpxor  %ymm1,%ymm4,%ymm7
  40f907:	c4 c1 75 eb c9       	vpor   %ymm9,%ymm1,%ymm1
  40f90c:	c4 41 05 db c9       	vpand  %ymm9,%ymm15,%ymm9
  40f911:	c5 85 ef c9          	vpxor  %ymm1,%ymm15,%ymm1
  40f915:	c5 35 ef cf          	vpxor  %ymm7,%ymm9,%ymm9
  40f919:	c5 c5 db f9          	vpand  %ymm1,%ymm7,%ymm7
  40f91d:	c5 dd ef e1          	vpxor  %ymm1,%ymm4,%ymm4
  40f921:	c5 ed ef ff          	vpxor  %ymm7,%ymm2,%ymm7
  40f925:	c5 b5 eb d2          	vpor   %ymm2,%ymm9,%ymm2
  40f929:	c5 5d ef be c0 c3 00 	vpxor  0xc3c0(%rsi),%ymm4,%ymm15
  40f930:	00 
  40f931:	c5 35 ef 8e e0 c1 00 	vpxor  0xc1e0(%rsi),%ymm9,%ymm9
  40f938:	00 
  40f939:	c5 c5 ef be 40 c6 00 	vpxor  0xc640(%rsi),%ymm7,%ymm7
  40f940:	00 
  40f941:	c5 f5 ef ca          	vpxor  %ymm2,%ymm1,%ymm1
  40f945:	c4 c1 65 ef d6       	vpxor  %ymm14,%ymm3,%ymm2
  40f94a:	c5 fe 6f a4 24 e0 04 	vmovdqu 0x4e0(%rsp),%ymm4
  40f951:	00 00 
  40f953:	c5 7e 7f bc 24 c0 0a 	vmovdqu %ymm15,0xac0(%rsp)
  40f95a:	00 00 
  40f95c:	c5 7e 6f bc 24 e0 02 	vmovdqu 0x2e0(%rsp),%ymm15
  40f963:	00 00 
  40f965:	c5 7e 7f 8c 24 40 0c 	vmovdqu %ymm9,0xc40(%rsp)
  40f96c:	00 00 
  40f96e:	c5 75 ef 8e 60 c4 00 	vpxor  0xc460(%rsi),%ymm1,%ymm9
  40f975:	00 
  40f976:	c5 fd ef cc          	vpxor  %ymm4,%ymm0,%ymm1
  40f97a:	c5 dd ef e3          	vpxor  %ymm3,%ymm4,%ymm4
  40f97e:	c5 0d eb f1          	vpor   %ymm1,%ymm14,%ymm14
  40f982:	c5 85 db c9          	vpand  %ymm1,%ymm15,%ymm1
  40f986:	c4 41 05 ef fe       	vpxor  %ymm14,%ymm15,%ymm15
  40f98b:	c5 75 ef f2          	vpxor  %ymm2,%ymm1,%ymm14
  40f98f:	c4 c1 65 ef df       	vpxor  %ymm15,%ymm3,%ymm3
  40f994:	c5 8d eb cc          	vpor   %ymm4,%ymm14,%ymm1
  40f998:	c5 0d ef b6 00 c8 00 	vpxor  0xc800(%rsi),%ymm14,%ymm14
  40f99f:	00 
  40f9a0:	c4 c1 6d db d7       	vpand  %ymm15,%ymm2,%ymm2
  40f9a5:	c5 05 ef f9          	vpxor  %ymm1,%ymm15,%ymm15
  40f9a9:	c4 c1 7d ef cc       	vpxor  %ymm12,%ymm0,%ymm1
  40f9ae:	c5 dd ef d2          	vpxor  %ymm2,%ymm4,%ymm2
  40f9b2:	c5 7e 7f 32          	vmovdqu %ymm14,(%rdx)
  40f9b6:	c5 e5 ef 9e e0 cb 00 	vpxor  0xcbe0(%rsi),%ymm3,%ymm3
  40f9bd:	00 
  40f9be:	c5 fe 7f 9a e0 03 00 	vmovdqu %ymm3,0x3e0(%rdx)
  40f9c5:	00 
  40f9c6:	c5 05 ef b6 80 cc 00 	vpxor  0xcc80(%rsi),%ymm15,%ymm14
  40f9cd:	00 
  40f9ce:	c5 4d ef fd          	vpxor  %ymm5,%ymm6,%ymm15
  40f9d2:	c5 d5 eb e9          	vpor   %ymm1,%ymm5,%ymm5
  40f9d6:	c5 7e 7f b2 80 04 00 	vmovdqu %ymm14,0x480(%rdx)
  40f9dd:	00 
  40f9de:	c5 ed ef a6 60 ce 00 	vpxor  0xce60(%rsi),%ymm2,%ymm4
  40f9e5:	00 
  40f9e6:	c5 fe 7f a2 60 06 00 	vmovdqu %ymm4,0x660(%rdx)
  40f9ed:	00 
  40f9ee:	c5 9d ef e6          	vpxor  %ymm6,%ymm12,%ymm4
  40f9f2:	c5 7e 6f a4 24 c0 02 	vmovdqu 0x2c0(%rsp),%ymm12
  40f9f9:	00 00 
  40f9fb:	c5 9d db c9          	vpand  %ymm1,%ymm12,%ymm1
  40f9ff:	c5 1d ef f5          	vpxor  %ymm5,%ymm12,%ymm14
  40fa03:	c4 c1 75 ef ef       	vpxor  %ymm15,%ymm1,%ymm5
  40fa08:	c4 41 4d ef e6       	vpxor  %ymm14,%ymm6,%ymm12
  40fa0d:	c4 c1 05 db f6       	vpand  %ymm14,%ymm15,%ymm6
  40fa12:	c4 41 7d ef fb       	vpxor  %ymm11,%ymm0,%ymm15
  40fa17:	c5 d5 ef 9e 20 c8 00 	vpxor  0xc820(%rsi),%ymm5,%ymm3
  40fa1e:	00 
  40fa1f:	c5 d5 eb d4          	vpor   %ymm4,%ymm5,%ymm2
  40fa23:	c5 dd ef f6          	vpxor  %ymm6,%ymm4,%ymm6
  40fa27:	c5 fe 7f 5a 20       	vmovdqu %ymm3,0x20(%rdx)
  40fa2c:	c5 8d ef ca          	vpxor  %ymm2,%ymm14,%ymm1
  40fa30:	c4 c1 25 ef d0       	vpxor  %ymm8,%ymm11,%ymm2
  40fa35:	c4 41 45 eb df       	vpor   %ymm15,%ymm7,%ymm11
  40fa3a:	c5 1d ef a6 00 ca 00 	vpxor  0xca00(%rsi),%ymm12,%ymm12
  40fa41:	00 
  40fa42:	c4 c1 15 ef db       	vpxor  %ymm11,%ymm13,%ymm3
  40fa47:	c5 7e 7f a2 00 02 00 	vmovdqu %ymm12,0x200(%rdx)
  40fa4e:	00 
  40fa4f:	c5 bd ef eb          	vpxor  %ymm3,%ymm8,%ymm5
  40fa53:	c5 f5 ef a6 a0 cc 00 	vpxor  0xcca0(%rsi),%ymm1,%ymm4
  40fa5a:	00 
  40fa5b:	c5 bd ef cf          	vpxor  %ymm7,%ymm8,%ymm1
  40fa5f:	c4 c1 15 db ff       	vpand  %ymm15,%ymm13,%ymm7
  40fa64:	c5 7e 6f bc 24 80 00 	vmovdqu 0x80(%rsp),%ymm15
  40fa6b:	00 00 
  40fa6d:	c5 fe 7f a2 a0 04 00 	vmovdqu %ymm4,0x4a0(%rdx)
  40fa74:	00 
  40fa75:	c5 c5 ef e1          	vpxor  %ymm1,%ymm7,%ymm4
  40fa79:	c5 75 db eb          	vpand  %ymm3,%ymm1,%ymm13
  40fa7d:	c5 4d ef b6 80 ce 00 	vpxor  0xce80(%rsi),%ymm6,%ymm14
  40fa84:	00 
  40fa85:	c5 dd eb ca          	vpor   %ymm2,%ymm4,%ymm1
  40fa89:	c4 41 6d ef dd       	vpxor  %ymm13,%ymm2,%ymm11
  40fa8e:	c5 7e 7f b2 80 06 00 	vmovdqu %ymm14,0x680(%rdx)
  40fa95:	00 
  40fa96:	c5 7e 6f b4 24 40 0b 	vmovdqu 0xb40(%rsp),%ymm14
  40fa9d:	00 00 
  40fa9f:	c5 e5 ef f9          	vpxor  %ymm1,%ymm3,%ymm7
  40faa3:	c5 5d ef ae 40 c8 00 	vpxor  0xc840(%rsi),%ymm4,%ymm13
  40faaa:	00 
  40faab:	c4 c1 7d ef ce       	vpxor  %ymm14,%ymm0,%ymm1
  40fab0:	c4 c1 35 ef e7       	vpxor  %ymm15,%ymm9,%ymm4
  40fab5:	c5 7e 7f 6a 40       	vmovdqu %ymm13,0x40(%rdx)
  40faba:	c5 7e 6f ac 24 80 0b 	vmovdqu 0xb80(%rsp),%ymm13
  40fac1:	00 00 
  40fac3:	c5 85 eb d1          	vpor   %ymm1,%ymm15,%ymm2
  40fac7:	c5 7e 6f bc 24 20 0b 	vmovdqu 0xb20(%rsp),%ymm15
  40face:	00 00 
  40fad0:	c5 d5 ef b6 20 ca 00 	vpxor  0xca20(%rsi),%ymm5,%ymm6
  40fad7:	00 
  40fad8:	c4 c1 0d ef e9       	vpxor  %ymm9,%ymm14,%ymm5
  40fadd:	c5 7e 6f b4 24 00 0b 	vmovdqu 0xb00(%rsp),%ymm14
  40fae4:	00 00 
  40fae6:	c5 85 db d9          	vpand  %ymm1,%ymm15,%ymm3
  40faea:	c5 fe 7f b2 20 02 00 	vmovdqu %ymm6,0x220(%rdx)
  40faf1:	00 
  40faf2:	c5 85 ef f2          	vpxor  %ymm2,%ymm15,%ymm6
  40faf6:	c4 41 7d ef fd       	vpxor  %ymm13,%ymm0,%ymm15
  40fafb:	c5 45 ef 86 c0 cc 00 	vpxor  0xccc0(%rsi),%ymm7,%ymm8
  40fb02:	00 
  40fb03:	c5 e5 ef fc          	vpxor  %ymm4,%ymm3,%ymm7
  40fb07:	c5 b5 ef ce          	vpxor  %ymm6,%ymm9,%ymm1
  40fb0b:	c5 5d db ce          	vpand  %ymm6,%ymm4,%ymm9
  40fb0f:	c5 7e 7f 82 c0 04 00 	vmovdqu %ymm8,0x4c0(%rdx)
  40fb16:	00 
  40fb17:	c5 c5 eb e5          	vpor   %ymm5,%ymm7,%ymm4
  40fb1b:	c5 25 ef a6 a0 ce 00 	vpxor  0xcea0(%rsi),%ymm11,%ymm12
  40fb22:	00 
  40fb23:	c4 41 55 ef d9       	vpxor  %ymm9,%ymm5,%ymm11
  40fb28:	c5 cd ef dc          	vpxor  %ymm4,%ymm6,%ymm3
  40fb2c:	c5 7e 7f a2 a0 06 00 	vmovdqu %ymm12,0x6a0(%rdx)
  40fb33:	00 
  40fb34:	c5 45 ef 8e 60 c8 00 	vpxor  0xc860(%rsi),%ymm7,%ymm9
  40fb3b:	00 
  40fb3c:	c5 7e 7f 4a 60       	vmovdqu %ymm9,0x60(%rdx)
  40fb41:	c5 f5 ef 96 40 ca 00 	vpxor  0xca40(%rsi),%ymm1,%ymm2
  40fb48:	00 
  40fb49:	c5 fe 6f 8c 24 60 04 	vmovdqu 0x460(%rsp),%ymm1
  40fb50:	00 00 
  40fb52:	c5 fe 7f 92 40 02 00 	vmovdqu %ymm2,0x240(%rdx)
  40fb59:	00 
  40fb5a:	c5 95 ef e1          	vpxor  %ymm1,%ymm13,%ymm4
  40fb5e:	c4 c1 75 ef d6       	vpxor  %ymm14,%ymm1,%ymm2
  40fb63:	c4 41 0d eb ef       	vpor   %ymm15,%ymm14,%ymm13
  40fb68:	c5 65 ef 86 e0 cc 00 	vpxor  0xcce0(%rsi),%ymm3,%ymm8
  40fb6f:	00 
  40fb70:	c5 7e 6f b4 24 60 0b 	vmovdqu 0xb60(%rsp),%ymm14
  40fb77:	00 00 
  40fb79:	c5 7e 7f 82 e0 04 00 	vmovdqu %ymm8,0x4e0(%rdx)
  40fb80:	00 
  40fb81:	c4 41 0d db ff       	vpand  %ymm15,%ymm14,%ymm15
  40fb86:	c4 c1 0d ef ed       	vpxor  %ymm13,%ymm14,%ymm5
  40fb8b:	c5 25 ef a6 c0 ce 00 	vpxor  0xcec0(%rsi),%ymm11,%ymm12
  40fb92:	00 
  40fb93:	c5 85 ef fa          	vpxor  %ymm2,%ymm15,%ymm7
  40fb97:	c5 75 ef cd          	vpxor  %ymm5,%ymm1,%ymm9
  40fb9b:	c5 ed db dd          	vpand  %ymm5,%ymm2,%ymm3
  40fb9f:	c5 7e 7f a2 c0 06 00 	vmovdqu %ymm12,0x6c0(%rdx)
  40fba6:	00 
  40fba7:	c5 fe 6f 94 24 00 0c 	vmovdqu 0xc00(%rsp),%ymm2
  40fbae:	00 00 
  40fbb0:	c5 c5 eb f4          	vpor   %ymm4,%ymm7,%ymm6
  40fbb4:	c5 dd ef cb          	vpxor  %ymm3,%ymm4,%ymm1
  40fbb8:	c5 45 ef 86 80 c8 00 	vpxor  0xc880(%rsi),%ymm7,%ymm8
  40fbbf:	00 
  40fbc0:	c5 fe 6f 9c 24 c0 0b 	vmovdqu 0xbc0(%rsp),%ymm3
  40fbc7:	00 00 
  40fbc9:	c5 55 ef e6          	vpxor  %ymm6,%ymm5,%ymm12
  40fbcd:	c5 7e 7f 82 80 00 00 	vmovdqu %ymm8,0x80(%rdx)
  40fbd4:	00 
  40fbd5:	c5 fe 6f ac 24 e0 0b 	vmovdqu 0xbe0(%rsp),%ymm5
  40fbdc:	00 00 
  40fbde:	c5 fe 6f b4 24 40 0c 	vmovdqu 0xc40(%rsp),%ymm6
  40fbe5:	00 00 
  40fbe7:	c5 35 ef 9e 60 ca 00 	vpxor  0xca60(%rsi),%ymm9,%ymm11
  40fbee:	00 
  40fbef:	c5 7e 7f 9a 60 02 00 	vmovdqu %ymm11,0x260(%rdx)
  40fbf6:	00 
  40fbf7:	c5 9d ef a6 00 cd 00 	vpxor  0xcd00(%rsi),%ymm12,%ymm4
  40fbfe:	00 
  40fbff:	c5 fe 7f a2 00 05 00 	vmovdqu %ymm4,0x500(%rdx)
  40fc06:	00 
  40fc07:	c5 fe 6f a4 24 20 0c 	vmovdqu 0xc20(%rsp),%ymm4
  40fc0e:	00 00 
  40fc10:	c5 f5 ef be e0 ce 00 	vpxor  0xcee0(%rsi),%ymm1,%ymm7
  40fc17:	00 
  40fc18:	c5 fe 6f 8c 24 a0 0b 	vmovdqu 0xba0(%rsp),%ymm1
  40fc1f:	00 00 
  40fc21:	c5 fe 7f ba e0 06 00 	vmovdqu %ymm7,0x6e0(%rdx)
  40fc28:	00 
  40fc29:	c5 fe 6f bc 24 a0 09 	vmovdqu 0x9a0(%rsp),%ymm7
  40fc30:	00 00 
  40fc32:	c5 7e 6f 84 24 80 07 	vmovdqu 0x780(%rsp),%ymm8
  40fc39:	00 00 
  40fc3b:	c5 7e 6f ac 24 40 04 	vmovdqu 0x440(%rsp),%ymm13
  40fc42:	00 00 
  40fc44:	c5 7e 6f 8c 24 60 08 	vmovdqu 0x860(%rsp),%ymm9
  40fc4b:	00 00 
  40fc4d:	c5 7d ef df          	vpxor  %ymm7,%ymm0,%ymm11
  40fc51:	c4 41 45 ef fd       	vpxor  %ymm13,%ymm7,%ymm15
  40fc56:	c4 41 15 ef f0       	vpxor  %ymm8,%ymm13,%ymm14
  40fc5b:	c4 41 3d eb e3       	vpor   %ymm11,%ymm8,%ymm12
  40fc60:	c4 c1 35 db fb       	vpand  %ymm11,%ymm9,%ymm7
  40fc65:	c4 41 35 ef e4       	vpxor  %ymm12,%ymm9,%ymm12
  40fc6a:	c4 41 45 ef ce       	vpxor  %ymm14,%ymm7,%ymm9
  40fc6f:	c4 41 0d db f4       	vpand  %ymm12,%ymm14,%ymm14
  40fc74:	c4 41 15 ef dc       	vpxor  %ymm12,%ymm13,%ymm11
  40fc79:	c4 41 35 eb ef       	vpor   %ymm15,%ymm9,%ymm13
  40fc7e:	c4 41 05 ef c6       	vpxor  %ymm14,%ymm15,%ymm8
  40fc83:	c5 35 ef be a0 c8 00 	vpxor  0xc8a0(%rsi),%ymm9,%ymm15
  40fc8a:	00 
  40fc8b:	c4 41 1d ef e5       	vpxor  %ymm13,%ymm12,%ymm12
  40fc90:	c5 7e 6f 8c 24 80 09 	vmovdqu 0x980(%rsp),%ymm9
  40fc97:	00 00 
  40fc99:	c5 7e 6f b4 24 60 07 	vmovdqu 0x760(%rsp),%ymm14
  40fca0:	00 00 
  40fca2:	c5 7e 7f ba a0 00 00 	vmovdqu %ymm15,0xa0(%rdx)
  40fca9:	00 
  40fcaa:	c5 7e 6f bc 24 20 0a 	vmovdqu 0xa20(%rsp),%ymm15
  40fcb1:	00 00 
  40fcb3:	c5 a5 ef be 80 ca 00 	vpxor  0xca80(%rsi),%ymm11,%ymm7
  40fcba:	00 
  40fcbb:	c4 41 05 ef ee       	vpxor  %ymm14,%ymm15,%ymm13
  40fcc0:	c5 fe 7f ba 80 02 00 	vmovdqu %ymm7,0x280(%rdx)
  40fcc7:	00 
  40fcc8:	c4 c1 35 ef ff       	vpxor  %ymm15,%ymm9,%ymm7
  40fccd:	c5 1d ef 9e 20 cd 00 	vpxor  0xcd20(%rsi),%ymm12,%ymm11
  40fcd4:	00 
  40fcd5:	c5 7e 7f 9a 20 05 00 	vmovdqu %ymm11,0x520(%rdx)
  40fcdc:	00 
  40fcdd:	c5 7e 6f 9c 24 40 08 	vmovdqu 0x840(%rsp),%ymm11
  40fce4:	00 00 
  40fce6:	c5 3d ef 86 00 cf 00 	vpxor  0xcf00(%rsi),%ymm8,%ymm8
  40fced:	00 
  40fcee:	c5 7e 7f 82 00 07 00 	vmovdqu %ymm8,0x700(%rdx)
  40fcf5:	00 
  40fcf6:	c4 41 7d ef c1       	vpxor  %ymm9,%ymm0,%ymm8
  40fcfb:	c4 41 0d eb c8       	vpor   %ymm8,%ymm14,%ymm9
  40fd00:	c4 41 25 db e0       	vpand  %ymm8,%ymm11,%ymm12
  40fd05:	c4 41 25 ef f1       	vpxor  %ymm9,%ymm11,%ymm14
  40fd0a:	c4 41 1d ef e5       	vpxor  %ymm13,%ymm12,%ymm12
  40fd0f:	c4 41 15 db ee       	vpand  %ymm14,%ymm13,%ymm13
  40fd14:	c4 41 05 ef ce       	vpxor  %ymm14,%ymm15,%ymm9
  40fd19:	c5 1d eb ff          	vpor   %ymm7,%ymm12,%ymm15
  40fd1d:	c4 41 45 ef dd       	vpxor  %ymm13,%ymm7,%ymm11
  40fd22:	c5 9d ef be c0 c8 00 	vpxor  0xc8c0(%rsi),%ymm12,%ymm7
  40fd29:	00 
  40fd2a:	c4 41 0d ef f7       	vpxor  %ymm15,%ymm14,%ymm14
  40fd2f:	c5 7e 6f a4 24 40 09 	vmovdqu 0x940(%rsp),%ymm12
  40fd36:	00 00 
  40fd38:	c5 7e 6f ac 24 40 07 	vmovdqu 0x740(%rsp),%ymm13
  40fd3f:	00 00 
  40fd41:	c5 fe 7f ba c0 00 00 	vmovdqu %ymm7,0xc0(%rdx)
  40fd48:	00 
  40fd49:	c5 fe 6f bc 24 00 0a 	vmovdqu 0xa00(%rsp),%ymm7
  40fd50:	00 00 
  40fd52:	c5 35 ef 86 a0 ca 00 	vpxor  0xcaa0(%rsi),%ymm9,%ymm8
  40fd59:	00 
  40fd5a:	c4 41 45 ef fd       	vpxor  %ymm13,%ymm7,%ymm15
  40fd5f:	c5 7e 7f 82 a0 02 00 	vmovdqu %ymm8,0x2a0(%rdx)
  40fd66:	00 
  40fd67:	c5 1d ef c7          	vpxor  %ymm7,%ymm12,%ymm8
  40fd6b:	c5 0d ef 8e 40 cd 00 	vpxor  0xcd40(%rsi),%ymm14,%ymm9
  40fd72:	00 
  40fd73:	c5 7e 7f 8a 40 05 00 	vmovdqu %ymm9,0x540(%rdx)
  40fd7a:	00 
  40fd7b:	c5 7e 6f 8c 24 20 08 	vmovdqu 0x820(%rsp),%ymm9
  40fd82:	00 00 
  40fd84:	c5 25 ef 9e 20 cf 00 	vpxor  0xcf20(%rsi),%ymm11,%ymm11
  40fd8b:	00 
  40fd8c:	c5 7e 7f 9a 20 07 00 	vmovdqu %ymm11,0x720(%rdx)
  40fd93:	00 
  40fd94:	c4 41 7d ef dc       	vpxor  %ymm12,%ymm0,%ymm11
  40fd99:	c4 41 15 eb e3       	vpor   %ymm11,%ymm13,%ymm12
  40fd9e:	c4 41 35 db f3       	vpand  %ymm11,%ymm9,%ymm14
  40fda3:	c4 41 35 ef ec       	vpxor  %ymm12,%ymm9,%ymm13
  40fda8:	c4 41 0d ef f7       	vpxor  %ymm15,%ymm14,%ymm14
  40fdad:	c4 41 05 db fd       	vpand  %ymm13,%ymm15,%ymm15
  40fdb2:	c4 41 45 ef e5       	vpxor  %ymm13,%ymm7,%ymm12
  40fdb7:	c4 c1 0d eb f8       	vpor   %ymm8,%ymm14,%ymm7
  40fdbc:	c4 41 3d ef cf       	vpxor  %ymm15,%ymm8,%ymm9
  40fdc1:	c5 0d ef 86 e0 c8 00 	vpxor  0xc8e0(%rsi),%ymm14,%ymm8
  40fdc8:	00 
  40fdc9:	c5 15 ef ef          	vpxor  %ymm7,%ymm13,%ymm13
  40fdcd:	c5 7e 6f b4 24 20 09 	vmovdqu 0x920(%rsp),%ymm14
  40fdd4:	00 00 
  40fdd6:	c5 7e 6f bc 24 00 07 	vmovdqu 0x700(%rsp),%ymm15
  40fddd:	00 00 
  40fddf:	c5 7e 7f 82 e0 00 00 	vmovdqu %ymm8,0xe0(%rdx)
  40fde6:	00 
  40fde7:	c5 7e 6f 84 24 e0 09 	vmovdqu 0x9e0(%rsp),%ymm8
  40fdee:	00 00 
  40fdf0:	c5 1d ef 9e c0 ca 00 	vpxor  0xcac0(%rsi),%ymm12,%ymm11
  40fdf7:	00 
  40fdf8:	c4 c1 3d ef ff       	vpxor  %ymm15,%ymm8,%ymm7
  40fdfd:	c5 7e 7f 9a c0 02 00 	vmovdqu %ymm11,0x2c0(%rdx)
  40fe04:	00 
  40fe05:	c4 41 0d ef d8       	vpxor  %ymm8,%ymm14,%ymm11
  40fe0a:	c5 15 ef a6 60 cd 00 	vpxor  0xcd60(%rsi),%ymm13,%ymm12
  40fe11:	00 
  40fe12:	c5 7e 7f a2 60 05 00 	vmovdqu %ymm12,0x560(%rdx)
  40fe19:	00 
  40fe1a:	c5 7e 6f a4 24 00 08 	vmovdqu 0x800(%rsp),%ymm12
  40fe21:	00 00 
  40fe23:	c5 35 ef 8e 40 cf 00 	vpxor  0xcf40(%rsi),%ymm9,%ymm9
  40fe2a:	00 
  40fe2b:	c5 7e 7f 8a 40 07 00 	vmovdqu %ymm9,0x740(%rdx)
  40fe32:	00 
  40fe33:	c4 41 7d ef ce       	vpxor  %ymm14,%ymm0,%ymm9
  40fe38:	c4 41 05 eb f1       	vpor   %ymm9,%ymm15,%ymm14
  40fe3d:	c4 41 1d db e9       	vpand  %ymm9,%ymm12,%ymm13
  40fe42:	c5 7e 6f 8c 24 00 09 	vmovdqu 0x900(%rsp),%ymm9
  40fe49:	00 00 
  40fe4b:	c4 41 1d ef fe       	vpxor  %ymm14,%ymm12,%ymm15
  40fe50:	c5 15 ef ef          	vpxor  %ymm7,%ymm13,%ymm13
  40fe54:	c4 41 3d ef f7       	vpxor  %ymm15,%ymm8,%ymm14
  40fe59:	c5 15 ef 86 00 c9 00 	vpxor  0xc900(%rsi),%ymm13,%ymm8
  40fe60:	00 
  40fe61:	c4 c1 45 db ff       	vpand  %ymm15,%ymm7,%ymm7
  40fe66:	c5 7e 7f 82 00 01 00 	vmovdqu %ymm8,0x100(%rdx)
  40fe6d:	00 
  40fe6e:	c5 25 ef e7          	vpxor  %ymm7,%ymm11,%ymm12
  40fe72:	c4 c1 15 eb fb       	vpor   %ymm11,%ymm13,%ymm7
  40fe77:	c5 7e 6f ac 24 e0 07 	vmovdqu 0x7e0(%rsp),%ymm13
  40fe7e:	00 00 
  40fe80:	c5 0d ef 9e e0 ca 00 	vpxor  0xcae0(%rsi),%ymm14,%ymm11
  40fe87:	00 
  40fe88:	c5 05 ef ff          	vpxor  %ymm7,%ymm15,%ymm15
  40fe8c:	c4 41 7d ef f1       	vpxor  %ymm9,%ymm0,%ymm14
  40fe91:	c5 7e 7f 9a e0 02 00 	vmovdqu %ymm11,0x2e0(%rdx)
  40fe98:	00 
  40fe99:	c5 7e 6f 9c 24 40 0a 	vmovdqu 0xa40(%rsp),%ymm11
  40fea0:	00 00 
  40fea2:	c5 85 ef be 80 cd 00 	vpxor  0xcd80(%rsi),%ymm15,%ymm7
  40fea9:	00 
  40feaa:	c4 41 35 ef cb       	vpxor  %ymm11,%ymm9,%ymm9
  40feaf:	c5 fe 7f ba 80 05 00 	vmovdqu %ymm7,0x580(%rdx)
  40feb6:	00 
  40feb7:	c5 1d ef 86 60 cf 00 	vpxor  0xcf60(%rsi),%ymm12,%ymm8
  40febe:	00 
  40febf:	c5 7e 6f a4 24 20 07 	vmovdqu 0x720(%rsp),%ymm12
  40fec6:	00 00 
  40fec8:	c5 7e 7f 82 60 07 00 	vmovdqu %ymm8,0x760(%rdx)
  40fecf:	00 
  40fed0:	c4 41 25 ef c4       	vpxor  %ymm12,%ymm11,%ymm8
  40fed5:	c4 41 1d eb fe       	vpor   %ymm14,%ymm12,%ymm15
  40feda:	c4 41 15 db e6       	vpand  %ymm14,%ymm13,%ymm12
  40fedf:	c4 c1 15 ef ff       	vpxor  %ymm15,%ymm13,%ymm7
  40fee4:	c4 41 1d ef f8       	vpxor  %ymm8,%ymm12,%ymm15
  40fee9:	c5 25 ef ef          	vpxor  %ymm7,%ymm11,%ymm13
  40feed:	c5 3d db c7          	vpand  %ymm7,%ymm8,%ymm8
  40fef1:	c4 41 05 eb d9       	vpor   %ymm9,%ymm15,%ymm11
  40fef6:	c4 41 35 ef f0       	vpxor  %ymm8,%ymm9,%ymm14
  40fefb:	c4 41 45 ef cb       	vpxor  %ymm11,%ymm7,%ymm9
  40ff00:	c5 85 ef be 20 c9 00 	vpxor  0xc920(%rsi),%ymm15,%ymm7
  40ff07:	00 
  40ff08:	c5 fe 7f ba 20 01 00 	vmovdqu %ymm7,0x120(%rdx)
  40ff0f:	00 
  40ff10:	c5 fe 6f bc 24 c0 07 	vmovdqu 0x7c0(%rsp),%ymm7
  40ff17:	00 00 
  40ff19:	c5 15 ef 86 00 cb 00 	vpxor  0xcb00(%rsi),%ymm13,%ymm8
  40ff20:	00 
  40ff21:	c5 7e 6f ac 24 e0 06 	vmovdqu 0x6e0(%rsp),%ymm13
  40ff28:	00 00 
  40ff2a:	c5 7e 7f 82 00 03 00 	vmovdqu %ymm8,0x300(%rdx)
  40ff31:	00 
  40ff32:	c5 35 ef 9e a0 cd 00 	vpxor  0xcda0(%rsi),%ymm9,%ymm11
  40ff39:	00 
  40ff3a:	c5 7e 6f 8c 24 c0 09 	vmovdqu 0x9c0(%rsp),%ymm9
  40ff41:	00 00 
  40ff43:	c5 7e 7f 9a a0 05 00 	vmovdqu %ymm11,0x5a0(%rdx)
  40ff4a:	00 
  40ff4b:	c4 41 35 ef dd       	vpxor  %ymm13,%ymm9,%ymm11
  40ff50:	c5 0d ef a6 80 cf 00 	vpxor  0xcf80(%rsi),%ymm14,%ymm12
  40ff57:	00 
  40ff58:	c5 7e 6f b4 24 e0 08 	vmovdqu 0x8e0(%rsp),%ymm14
  40ff5f:	00 00 
  40ff61:	c5 7e 7f a2 80 07 00 	vmovdqu %ymm12,0x780(%rdx)
  40ff68:	00 
  40ff69:	c4 41 7d ef fe       	vpxor  %ymm14,%ymm0,%ymm15
  40ff6e:	c4 41 0d ef e1       	vpxor  %ymm9,%ymm14,%ymm12
  40ff73:	c4 41 15 eb c7       	vpor   %ymm15,%ymm13,%ymm8
  40ff78:	c4 41 45 db f7       	vpand  %ymm15,%ymm7,%ymm14
  40ff7d:	c4 41 45 ef c0       	vpxor  %ymm8,%ymm7,%ymm8
  40ff82:	c4 c1 0d ef fb       	vpxor  %ymm11,%ymm14,%ymm7
  40ff87:	c4 41 25 db d8       	vpand  %ymm8,%ymm11,%ymm11
  40ff8c:	c4 41 35 ef f8       	vpxor  %ymm8,%ymm9,%ymm15
  40ff91:	c4 41 45 eb cc       	vpor   %ymm12,%ymm7,%ymm9
  40ff96:	c4 41 1d ef eb       	vpxor  %ymm11,%ymm12,%ymm13
  40ff9b:	c5 45 ef a6 40 c9 00 	vpxor  0xc940(%rsi),%ymm7,%ymm12
  40ffa2:	00 
  40ffa3:	c4 41 3d ef c1       	vpxor  %ymm9,%ymm8,%ymm8
  40ffa8:	c5 7e 7f a2 40 01 00 	vmovdqu %ymm12,0x140(%rdx)
  40ffaf:	00 
  40ffb0:	c5 7e 6f a4 24 60 0a 	vmovdqu 0xa60(%rsp),%ymm12
  40ffb7:	00 00 
  40ffb9:	c5 05 ef be 20 cb 00 	vpxor  0xcb20(%rsi),%ymm15,%ymm15
  40ffc0:	00 
  40ffc1:	c5 7e 7f ba 20 03 00 	vmovdqu %ymm15,0x320(%rdx)
  40ffc8:	00 
  40ffc9:	c5 bd ef be c0 cd 00 	vpxor  0xcdc0(%rsi),%ymm8,%ymm7
  40ffd0:	00 
  40ffd1:	c5 7e 6f 44 24 40    	vmovdqu 0x40(%rsp),%ymm8
  40ffd7:	c5 fe 7f ba c0 05 00 	vmovdqu %ymm7,0x5c0(%rdx)
  40ffde:	00 
  40ffdf:	c5 fe 6f bc 24 c0 08 	vmovdqu 0x8c0(%rsp),%ymm7
  40ffe6:	00 00 
  40ffe8:	c4 41 1d ef c8       	vpxor  %ymm8,%ymm12,%ymm9
  40ffed:	c5 15 ef ae a0 cf 00 	vpxor  0xcfa0(%rsi),%ymm13,%ymm13
  40fff4:	00 
  40fff5:	c5 7d ef df          	vpxor  %ymm7,%ymm0,%ymm11
  40fff9:	c4 41 45 ef f4       	vpxor  %ymm12,%ymm7,%ymm14
  40fffe:	c5 7e 7f aa a0 07 00 	vmovdqu %ymm13,0x7a0(%rdx)
  410005:	00 
  410006:	c5 7e 6f ac 24 a0 07 	vmovdqu 0x7a0(%rsp),%ymm13
  41000d:	00 00 
  41000f:	c4 41 3d eb fb       	vpor   %ymm11,%ymm8,%ymm15
  410014:	c4 c1 15 db fb       	vpand  %ymm11,%ymm13,%ymm7
  410019:	c4 41 15 ef df       	vpxor  %ymm15,%ymm13,%ymm11
  41001e:	c4 41 45 ef c1       	vpxor  %ymm9,%ymm7,%ymm8
  410023:	c4 41 35 db cb       	vpand  %ymm11,%ymm9,%ymm9
  410028:	c4 c1 1d ef fb       	vpxor  %ymm11,%ymm12,%ymm7
  41002d:	c4 41 3d eb e6       	vpor   %ymm14,%ymm8,%ymm12
  410032:	c4 41 0d ef f9       	vpxor  %ymm9,%ymm14,%ymm15
  410037:	c5 3d ef b6 60 c9 00 	vpxor  0xc960(%rsi),%ymm8,%ymm14
  41003e:	00 
  41003f:	c4 41 25 ef dc       	vpxor  %ymm12,%ymm11,%ymm11
  410044:	c5 7e 6f a4 24 60 09 	vmovdqu 0x960(%rsp),%ymm12
  41004b:	00 00 
  41004d:	c5 7e 7f b2 60 01 00 	vmovdqu %ymm14,0x160(%rdx)
  410054:	00 
  410055:	c4 41 1d ef f2       	vpxor  %ymm10,%ymm12,%ymm14
  41005a:	c5 c5 ef be 40 cb 00 	vpxor  0xcb40(%rsi),%ymm7,%ymm7
  410061:	00 
  410062:	c5 fe 7f ba 40 03 00 	vmovdqu %ymm7,0x340(%rdx)
  410069:	00 
  41006a:	c4 c1 7d ef fc       	vpxor  %ymm12,%ymm0,%ymm7
  41006f:	c5 25 ef 86 e0 cd 00 	vpxor  0xcde0(%rsi),%ymm11,%ymm8
  410076:	00 
  410077:	c5 7e 7f 82 e0 05 00 	vmovdqu %ymm8,0x5e0(%rdx)
  41007e:	00 
  41007f:	c5 7e 6f 84 24 a0 08 	vmovdqu 0x8a0(%rsp),%ymm8
  410086:	00 00 
  410088:	c5 05 ef 8e c0 cf 00 	vpxor  0xcfc0(%rsi),%ymm15,%ymm9
  41008f:	00 
  410090:	c5 7e 6f 3c 24       	vmovdqu (%rsp),%ymm15
  410095:	c5 7e 7f 8a c0 07 00 	vmovdqu %ymm9,0x7c0(%rdx)
  41009c:	00 
  41009d:	c4 41 2d ef ef       	vpxor  %ymm15,%ymm10,%ymm13
  4100a2:	c5 3d db cf          	vpand  %ymm7,%ymm8,%ymm9
  4100a6:	c5 05 eb df          	vpor   %ymm7,%ymm15,%ymm11
  4100aa:	c4 41 35 ef cd       	vpxor  %ymm13,%ymm9,%ymm9
  4100af:	c4 41 3d ef e3       	vpxor  %ymm11,%ymm8,%ymm12
  4100b4:	c5 b5 ef be 80 c9 00 	vpxor  0xc980(%rsi),%ymm9,%ymm7
  4100bb:	00 
  4100bc:	c4 41 2d ef dc       	vpxor  %ymm12,%ymm10,%ymm11
  4100c1:	c4 41 15 db d4       	vpand  %ymm12,%ymm13,%ymm10
  4100c6:	c5 7e 6f ac 24 80 0a 	vmovdqu 0xa80(%rsp),%ymm13
  4100cd:	00 00 
  4100cf:	c5 fe 7f ba 80 01 00 	vmovdqu %ymm7,0x180(%rdx)
  4100d6:	00 
  4100d7:	c4 41 0d ef c2       	vpxor  %ymm10,%ymm14,%ymm8
  4100dc:	c4 41 35 eb d6       	vpor   %ymm14,%ymm9,%ymm10
  4100e1:	c5 7e 6f b4 24 80 08 	vmovdqu 0x880(%rsp),%ymm14
  4100e8:	00 00 
  4100ea:	c5 25 ef 8e 60 cb 00 	vpxor  0xcb60(%rsi),%ymm11,%ymm9
  4100f1:	00 
  4100f2:	c4 41 1d ef e2       	vpxor  %ymm10,%ymm12,%ymm12
  4100f7:	c5 15 ef d1          	vpxor  %ymm1,%ymm13,%ymm10
  4100fb:	c4 c1 75 ef fe       	vpxor  %ymm14,%ymm1,%ymm7
  410100:	c5 7e 7f 8a 60 03 00 	vmovdqu %ymm9,0x360(%rdx)
  410107:	00 
  410108:	c5 1d ef 9e 00 cc 00 	vpxor  0xcc00(%rsi),%ymm12,%ymm11
  41010f:	00 
  410110:	c5 7e 7f 9a 00 04 00 	vmovdqu %ymm11,0x400(%rdx)
  410117:	00 
  410118:	c5 3d ef 86 e0 cf 00 	vpxor  0xcfe0(%rsi),%ymm8,%ymm8
  41011f:	00 
  410120:	c5 7e 7f 82 e0 07 00 	vmovdqu %ymm8,0x7e0(%rdx)
  410127:	00 
  410128:	c4 41 7d ef c5       	vpxor  %ymm13,%ymm0,%ymm8
  41012d:	c4 41 6d db c8       	vpand  %ymm8,%ymm2,%ymm9
  410132:	c4 41 0d eb d8       	vpor   %ymm8,%ymm14,%ymm11
  410137:	c5 7e 6f b4 24 c0 0a 	vmovdqu 0xac0(%rsp),%ymm14
  41013e:	00 00 
  410140:	c5 35 ef e7          	vpxor  %ymm7,%ymm9,%ymm12
  410144:	c4 41 6d ef db       	vpxor  %ymm11,%ymm2,%ymm11
  410149:	c5 9d ef 96 a0 c9 00 	vpxor  0xc9a0(%rsi),%ymm12,%ymm2
  410150:	00 
  410151:	c4 c1 75 ef cb       	vpxor  %ymm11,%ymm1,%ymm1
  410156:	c4 c1 45 db fb       	vpand  %ymm11,%ymm7,%ymm7
  41015b:	c5 fe 7f 92 a0 01 00 	vmovdqu %ymm2,0x1a0(%rdx)
  410162:	00 
  410163:	c4 c1 1d eb d2       	vpor   %ymm10,%ymm12,%ymm2
  410168:	c5 2d ef d7          	vpxor  %ymm7,%ymm10,%ymm10
  41016c:	c5 fe 6f bc 24 a0 0a 	vmovdqu 0xaa0(%rsp),%ymm7
  410173:	00 00 
  410175:	c5 f5 ef 8e 80 cb 00 	vpxor  0xcb80(%rsi),%ymm1,%ymm1
  41017c:	00 
  41017d:	c5 25 ef c2          	vpxor  %ymm2,%ymm11,%ymm8
  410181:	c5 e5 ef d7          	vpxor  %ymm7,%ymm3,%ymm2
  410185:	c5 fe 7f 8a 80 03 00 	vmovdqu %ymm1,0x380(%rdx)
  41018c:	00 
  41018d:	c5 8d ef cb          	vpxor  %ymm3,%ymm14,%ymm1
  410191:	c5 3d ef 8e 20 cc 00 	vpxor  0xcc20(%rsi),%ymm8,%ymm9
  410198:	00 
  410199:	c4 41 7d ef c6       	vpxor  %ymm14,%ymm0,%ymm8
  41019e:	c5 7e 7f 8a 20 04 00 	vmovdqu %ymm9,0x420(%rdx)
  4101a5:	00 
  4101a6:	c4 41 5d db f8       	vpand  %ymm8,%ymm4,%ymm15
  4101ab:	c4 41 45 eb c8       	vpor   %ymm8,%ymm7,%ymm9
  4101b0:	c5 2d ef ae 00 ce 00 	vpxor  0xce00(%rsi),%ymm10,%ymm13
  4101b7:	00 
  4101b8:	c5 05 ef d2          	vpxor  %ymm2,%ymm15,%ymm10
  4101bc:	c4 41 5d ef d9       	vpxor  %ymm9,%ymm4,%ymm11
  4101c1:	c5 7e 6f bc 24 e0 0a 	vmovdqu 0xae0(%rsp),%ymm15
  4101c8:	00 00 
  4101ca:	c5 7e 7f aa 00 06 00 	vmovdqu %ymm13,0x600(%rdx)
  4101d1:	00 
  4101d2:	c5 7e 6f 6c 24 60    	vmovdqu 0x60(%rsp),%ymm13
  4101d8:	c4 c1 65 ef db       	vpxor  %ymm11,%ymm3,%ymm3
  4101dd:	c5 ad eb f9          	vpor   %ymm1,%ymm10,%ymm7
  4101e1:	c5 ad ef a6 c0 c9 00 	vpxor  0xc9c0(%rsi),%ymm10,%ymm4
  4101e8:	00 
  4101e9:	c4 c1 6d db d3       	vpand  %ymm11,%ymm2,%ymm2
  4101ee:	c5 25 ef c7          	vpxor  %ymm7,%ymm11,%ymm8
  4101f2:	c5 fe 7f a2 c0 01 00 	vmovdqu %ymm4,0x1c0(%rdx)
  4101f9:	00 
  4101fa:	c5 f5 ef ca          	vpxor  %ymm2,%ymm1,%ymm1
  4101fe:	c5 e5 ef a6 a0 cb 00 	vpxor  0xcba0(%rsi),%ymm3,%ymm4
  410205:	00 
  410206:	c4 c1 55 ef df       	vpxor  %ymm15,%ymm5,%ymm3
  41020b:	c5 fe 7f a2 a0 03 00 	vmovdqu %ymm4,0x3a0(%rdx)
  410212:	00 
  410213:	c5 3d ef 8e 40 cc 00 	vpxor  0xcc40(%rsi),%ymm8,%ymm9
  41021a:	00 
  41021b:	c5 7e 7f 8a 40 04 00 	vmovdqu %ymm9,0x440(%rdx)
  410222:	00 
  410223:	c5 75 ef a6 20 ce 00 	vpxor  0xce20(%rsi),%ymm1,%ymm12
  41022a:	00 
  41022b:	c4 c1 7d ef cd       	vpxor  %ymm13,%ymm0,%ymm1
  410230:	c5 95 ef c5          	vpxor  %ymm5,%ymm13,%ymm0
  410234:	c5 7e 7f a2 20 06 00 	vmovdqu %ymm12,0x620(%rdx)
  41023b:	00 
  41023c:	c5 4d db f1          	vpand  %ymm1,%ymm6,%ymm14
  410240:	c5 05 eb f9          	vpor   %ymm1,%ymm15,%ymm15
  410244:	c5 8d ef d3          	vpxor  %ymm3,%ymm14,%ymm2
  410248:	c4 c1 4d ef ff       	vpxor  %ymm15,%ymm6,%ymm7
  41024d:	c5 ed ef b6 e0 c9 00 	vpxor  0xc9e0(%rsi),%ymm2,%ymm6
  410254:	00 
  410255:	c5 d5 ef ef          	vpxor  %ymm7,%ymm5,%ymm5
  410259:	c5 e5 db df          	vpand  %ymm7,%ymm3,%ymm3
  41025d:	c5 fe 7f b2 e0 01 00 	vmovdqu %ymm6,0x1e0(%rdx)
  410264:	00 
  410265:	c5 ed eb f0          	vpor   %ymm0,%ymm2,%ymm6
  410269:	c5 fd ef c3          	vpxor  %ymm3,%ymm0,%ymm0
  41026d:	c5 d5 ef ae c0 cb 00 	vpxor  0xcbc0(%rsi),%ymm5,%ymm5
  410274:	00 
  410275:	c5 c5 ef ce          	vpxor  %ymm6,%ymm7,%ymm1
  410279:	c5 fe 7f aa c0 03 00 	vmovdqu %ymm5,0x3c0(%rdx)
  410280:	00 
  410281:	c5 f5 ef a6 60 cc 00 	vpxor  0xcc60(%rsi),%ymm1,%ymm4
  410288:	00 
  410289:	c5 fe 7f a2 60 04 00 	vmovdqu %ymm4,0x460(%rdx)
  410290:	00 
  410291:	c5 7d ef 86 40 ce 00 	vpxor  0xce40(%rsi),%ymm0,%ymm8
  410298:	00 
  410299:	c5 7e 7f 82 40 06 00 	vmovdqu %ymm8,0x640(%rdx)
  4102a0:	00 
  4102a1:	c5 f8 77             	vzeroupper 
  4102a4:	48 89 ec             	mov    %rbp,%rsp
  4102a7:	5d                   	pop    %rbp
  4102a8:	c3                   	retq   
  4102a9:	0f 1f 80 00 00 00 00 	nopl   0x0(%rax)

00000000004102b0 <__intel_new_feature_proc_init>:
  4102b0:	41 54                	push   %r12
  4102b2:	41 55                	push   %r13
  4102b4:	41 56                	push   %r14
  4102b6:	41 57                	push   %r15
  4102b8:	48 81 ec 38 04 00 00 	sub    $0x438,%rsp
  4102bf:	49 89 f6             	mov    %rsi,%r14
  4102c2:	4c 8d 3d f7 32 20 00 	lea    0x2032f7(%rip),%r15        # 6135c0 <__intel_cpu_feature_indicator>
  4102c9:	41 89 fd             	mov    %edi,%r13d
  4102cc:	64 48 8b 04 25 28 00 	mov    %fs:0x28,%rax
  4102d3:	00 00 
  4102d5:	48 33 c4             	xor    %rsp,%rax
  4102d8:	4d 8b 27             	mov    (%r15),%r12
  4102db:	48 89 84 24 28 04 00 	mov    %rax,0x428(%rsp)
  4102e2:	00 
  4102e3:	4d 85 e4             	test   %r12,%r12
  4102e6:	0f 84 f8 02 00 00    	je     4105e4 <__intel_new_feature_proc_init+0x334>
  4102ec:	4c 89 e0             	mov    %r12,%rax
  4102ef:	49 23 c6             	and    %r14,%rax
  4102f2:	49 3b c6             	cmp    %r14,%rax
  4102f5:	0f 84 4c 02 00 00    	je     410547 <__intel_new_feature_proc_init+0x297>
  4102fb:	49 f7 c6 01 00 00 00 	test   $0x1,%r14
  410302:	0f 85 b3 02 00 00    	jne    4105bb <__intel_new_feature_proc_init+0x30b>
  410308:	45 33 ff             	xor    %r15d,%r15d
  41030b:	49 f7 d4             	not    %r12
  41030e:	bf 39 00 00 00       	mov    $0x39,%edi
  410313:	33 f6                	xor    %esi,%esi
  410315:	33 c0                	xor    %eax,%eax
  410317:	4d 23 e6             	and    %r14,%r12
  41031a:	45 33 f6             	xor    %r14d,%r14d
  41031d:	e8 fe 02 00 00       	callq  410620 <__libirc_get_msg>
  410322:	c6 44 24 28 00       	movb   $0x0,0x28(%rsp)
  410327:	4c 89 f2             	mov    %r14,%rdx
  41032a:	48 89 44 24 20       	mov    %rax,0x20(%rsp)
  41032f:	41 bd 01 00 00 00    	mov    $0x1,%r13d
  410335:	48 89 5c 24 18       	mov    %rbx,0x18(%rsp)
  41033a:	48 89 6c 24 10       	mov    %rbp,0x10(%rsp)
  41033f:	4c 89 f5             	mov    %r14,%rbp
  410342:	b8 01 00 00 00       	mov    $0x1,%eax
  410347:	41 8d 4d 3f          	lea    0x3f(%r13),%ecx
  41034b:	48 d3 e0             	shl    %cl,%rax
  41034e:	41 83 fd 2b          	cmp    $0x2b,%r13d
  410352:	48 0f 47 c5          	cmova  %rbp,%rax
  410356:	4c 85 e0             	test   %r12,%rax
  410359:	0f 84 ff 00 00 00    	je     41045e <__intel_new_feature_proc_init+0x1ae>
  41035f:	48 8d 05 da 24 20 00 	lea    0x2024da(%rip),%rax        # 612840 <c_feature_names>
  410366:	4a 8b 1c e8          	mov    (%rax,%r13,8),%rbx
  41036a:	48 85 db             	test   %rbx,%rbx
  41036d:	0f 84 39 02 00 00    	je     4105ac <__intel_new_feature_proc_init+0x2fc>
  410373:	80 3b 00             	cmpb   $0x0,(%rbx)
  410376:	0f 84 30 02 00 00    	je     4105ac <__intel_new_feature_proc_init+0x2fc>
  41037c:	80 7c 24 28 00       	cmpb   $0x0,0x28(%rsp)
  410381:	0f 84 ab 00 00 00    	je     410432 <__intel_new_feature_proc_init+0x182>
  410387:	4d 85 ff             	test   %r15,%r15
  41038a:	0f 84 9d 00 00 00    	je     41042d <__intel_new_feature_proc_init+0x17d>
  410390:	4c 89 ff             	mov    %r15,%rdi
  410393:	e8 88 05 ff ff       	callq  400920 <strlen@plt>
  410398:	48 8b 7c 24 20       	mov    0x20(%rsp),%rdi
  41039d:	48 89 44 24 08       	mov    %rax,0x8(%rsp)
  4103a2:	e8 79 05 ff ff       	callq  400920 <strlen@plt>
  4103a7:	48 89 df             	mov    %rbx,%rdi
  4103aa:	48 89 04 24          	mov    %rax,(%rsp)
  4103ae:	e8 6d 05 ff ff       	callq  400920 <strlen@plt>
  4103b3:	48 89 c1             	mov    %rax,%rcx
  4103b6:	48 8b 44 24 08       	mov    0x8(%rsp),%rax
  4103bb:	49 03 c6             	add    %r14,%rax
  4103be:	48 03 04 24          	add    (%rsp),%rax
  4103c2:	4c 8d 44 08 02       	lea    0x2(%rax,%rcx,1),%r8
  4103c7:	49 81 f8 00 04 00 00 	cmp    $0x400,%r8
  4103ce:	0f 83 a6 01 00 00    	jae    41057a <__intel_new_feature_proc_init+0x2ca>
  4103d4:	49 f7 de             	neg    %r14
  4103d7:	48 8d 7c 24 28       	lea    0x28(%rsp),%rdi
  4103dc:	49 81 c6 ff 03 00 00 	add    $0x3ff,%r14
  4103e3:	48 8d 35 46 0f 00 00 	lea    0xf46(%rip),%rsi        # 411330 <key.425.0.0.1+0x1c0>
  4103ea:	4c 89 f2             	mov    %r14,%rdx
  4103ed:	b9 00 04 00 00       	mov    $0x400,%ecx
  4103f2:	e8 e9 05 ff ff       	callq  4009e0 <__strncat_chk@plt>
  4103f7:	48 8d 7c 24 28       	lea    0x28(%rsp),%rdi
  4103fc:	e8 1f 05 ff ff       	callq  400920 <strlen@plt>
  410401:	48 63 d0             	movslq %eax,%rdx
  410404:	48 8d 7c 24 28       	lea    0x28(%rsp),%rdi
  410409:	48 f7 da             	neg    %rdx
  41040c:	4c 89 fe             	mov    %r15,%rsi
  41040f:	48 81 c2 ff 03 00 00 	add    $0x3ff,%rdx
  410416:	b9 00 04 00 00       	mov    $0x400,%ecx
  41041b:	e8 c0 05 ff ff       	callq  4009e0 <__strncat_chk@plt>
  410420:	48 8d 7c 24 28       	lea    0x28(%rsp),%rdi
  410425:	e8 f6 04 ff ff       	callq  400920 <strlen@plt>
  41042a:	4c 63 f0             	movslq %eax,%r14
  41042d:	49 89 df             	mov    %rbx,%r15
  410430:	eb 2c                	jmp    41045e <__intel_new_feature_proc_init+0x1ae>
  410432:	49 f7 de             	neg    %r14
  410435:	48 8d 7c 24 28       	lea    0x28(%rsp),%rdi
  41043a:	49 81 c6 ff 03 00 00 	add    $0x3ff,%r14
  410441:	48 89 de             	mov    %rbx,%rsi
  410444:	4c 89 f2             	mov    %r14,%rdx
  410447:	b9 00 04 00 00       	mov    $0x400,%ecx
  41044c:	e8 8f 05 ff ff       	callq  4009e0 <__strncat_chk@plt>
  410451:	48 8d 7c 24 28       	lea    0x28(%rsp),%rdi
  410456:	e8 c5 04 ff ff       	callq  400920 <strlen@plt>
  41045b:	4c 63 f0             	movslq %eax,%r14
  41045e:	41 ff c5             	inc    %r13d
  410461:	41 83 fd 2b          	cmp    $0x2b,%r13d
  410465:	0f 8e d7 fe ff ff    	jle    410342 <__intel_new_feature_proc_init+0x92>
  41046b:	48 8b 44 24 20       	mov    0x20(%rsp),%rax
  410470:	4c 89 f2             	mov    %r14,%rdx
  410473:	48 8b 5c 24 18       	mov    0x18(%rsp),%rbx
  410478:	48 8b 6c 24 10       	mov    0x10(%rsp),%rbp
  41047d:	4d 85 ff             	test   %r15,%r15
  410480:	74 45                	je     4104c7 <__intel_new_feature_proc_init+0x217>
  410482:	48 f7 da             	neg    %rdx
  410485:	48 8d 7c 24 28       	lea    0x28(%rsp),%rdi
  41048a:	48 81 c2 ff 03 00 00 	add    $0x3ff,%rdx
  410491:	48 89 c6             	mov    %rax,%rsi
  410494:	b9 00 04 00 00       	mov    $0x400,%ecx
  410499:	e8 42 05 ff ff       	callq  4009e0 <__strncat_chk@plt>
  41049e:	48 8d 7c 24 28       	lea    0x28(%rsp),%rdi
  4104a3:	e8 78 04 ff ff       	callq  400920 <strlen@plt>
  4104a8:	48 63 d0             	movslq %eax,%rdx
  4104ab:	48 8d 7c 24 28       	lea    0x28(%rsp),%rdi
  4104b0:	48 f7 da             	neg    %rdx
  4104b3:	4c 89 fe             	mov    %r15,%rsi
  4104b6:	48 81 c2 ff 03 00 00 	add    $0x3ff,%rdx
  4104bd:	b9 00 04 00 00       	mov    $0x400,%ecx
  4104c2:	e8 19 05 ff ff       	callq  4009e0 <__strncat_chk@plt>
  4104c7:	80 7c 24 28 00       	cmpb   $0x0,0x28(%rsp)
  4104cc:	75 3d                	jne    41050b <__intel_new_feature_proc_init+0x25b>
  4104ce:	33 f6                	xor    %esi,%esi
  4104d0:	bf 01 00 00 00       	mov    $0x1,%edi
  4104d5:	33 d2                	xor    %edx,%edx
  4104d7:	33 c0                	xor    %eax,%eax
  4104d9:	e8 c2 03 00 00       	callq  4108a0 <__libirc_print>
  4104de:	bf 01 00 00 00       	mov    $0x1,%edi
  4104e3:	be 3a 00 00 00       	mov    $0x3a,%esi
  4104e8:	33 d2                	xor    %edx,%edx
  4104ea:	33 c0                	xor    %eax,%eax
  4104ec:	e8 af 03 00 00       	callq  4108a0 <__libirc_print>
  4104f1:	33 f6                	xor    %esi,%esi
  4104f3:	bf 01 00 00 00       	mov    $0x1,%edi
  4104f8:	33 d2                	xor    %edx,%edx
  4104fa:	33 c0                	xor    %eax,%eax
  4104fc:	e8 9f 03 00 00       	callq  4108a0 <__libirc_print>
  410501:	bf 01 00 00 00       	mov    $0x1,%edi
  410506:	e8 a5 04 ff ff       	callq  4009b0 <exit@plt>
  41050b:	33 f6                	xor    %esi,%esi
  41050d:	bf 01 00 00 00       	mov    $0x1,%edi
  410512:	33 d2                	xor    %edx,%edx
  410514:	33 c0                	xor    %eax,%eax
  410516:	e8 85 03 00 00       	callq  4108a0 <__libirc_print>
  41051b:	bf 01 00 00 00       	mov    $0x1,%edi
  410520:	be 38 00 00 00       	mov    $0x38,%esi
  410525:	89 fa                	mov    %edi,%edx
  410527:	48 8d 4c 24 28       	lea    0x28(%rsp),%rcx
  41052c:	33 c0                	xor    %eax,%eax
  41052e:	e8 6d 03 00 00       	callq  4108a0 <__libirc_print>
  410533:	eb bc                	jmp    4104f1 <__intel_new_feature_proc_init+0x241>
  410535:	33 f6                	xor    %esi,%esi
  410537:	bf 01 00 00 00       	mov    $0x1,%edi
  41053c:	33 d2                	xor    %edx,%edx
  41053e:	33 c0                	xor    %eax,%eax
  410540:	e8 5b 03 00 00       	callq  4108a0 <__libirc_print>
  410545:	eb 97                	jmp    4104de <__intel_new_feature_proc_init+0x22e>
  410547:	49 f7 c4 20 00 00 00 	test   $0x20,%r12
  41054e:	0f 85 81 00 00 00    	jne    4105d5 <__intel_new_feature_proc_init+0x325>
  410554:	48 8b 84 24 28 04 00 	mov    0x428(%rsp),%rax
  41055b:	00 
  41055c:	48 33 c4             	xor    %rsp,%rax
  41055f:	64 48 3b 04 25 28 00 	cmp    %fs:0x28,%rax
  410566:	00 00 
  410568:	75 66                	jne    4105d0 <__intel_new_feature_proc_init+0x320>
  41056a:	48 81 c4 38 04 00 00 	add    $0x438,%rsp
  410571:	41 5f                	pop    %r15
  410573:	41 5e                	pop    %r14
  410575:	41 5d                	pop    %r13
  410577:	41 5c                	pop    %r12
  410579:	c3                   	retq   
  41057a:	4c 89 f2             	mov    %r14,%rdx
  41057d:	48 8d 7c 24 28       	lea    0x28(%rsp),%rdi
  410582:	48 f7 da             	neg    %rdx
  410585:	b9 00 04 00 00       	mov    $0x400,%ecx
  41058a:	48 8b 47 f8          	mov    -0x8(%rdi),%rax
  41058e:	48 81 c2 ff 03 00 00 	add    $0x3ff,%rdx
  410595:	48 89 c6             	mov    %rax,%rsi
  410598:	48 8b 5c 24 18       	mov    0x18(%rsp),%rbx
  41059d:	48 8b 6c 24 10       	mov    0x10(%rsp),%rbp
  4105a2:	e8 39 04 ff ff       	callq  4009e0 <__strncat_chk@plt>
  4105a7:	e9 f2 fe ff ff       	jmpq   41049e <__intel_new_feature_proc_init+0x1ee>
  4105ac:	48 8b 5c 24 18       	mov    0x18(%rsp),%rbx
  4105b1:	48 8b 6c 24 10       	mov    0x10(%rsp),%rbp
  4105b6:	e9 7a ff ff ff       	jmpq   410535 <__intel_new_feature_proc_init+0x285>
  4105bb:	33 f6                	xor    %esi,%esi
  4105bd:	bf 01 00 00 00       	mov    $0x1,%edi
  4105c2:	33 d2                	xor    %edx,%edx
  4105c4:	33 c0                	xor    %eax,%eax
  4105c6:	e8 d5 02 00 00       	callq  4108a0 <__libirc_print>
  4105cb:	e9 0e ff ff ff       	jmpq   4104de <__intel_new_feature_proc_init+0x22e>
  4105d0:	e8 5b 03 ff ff       	callq  400930 <__stack_chk_fail@plt>
  4105d5:	33 ff                	xor    %edi,%edi
  4105d7:	44 89 ee             	mov    %r13d,%esi
  4105da:	e8 01 0a 00 00       	callq  410fe0 <__intel_proc_init_ftzdazule>
  4105df:	e9 70 ff ff ff       	jmpq   410554 <__intel_new_feature_proc_init+0x2a4>
  4105e4:	33 c0                	xor    %eax,%eax
  4105e6:	e8 c5 05 00 00       	callq  410bb0 <__intel_cpu_features_init>
  4105eb:	4d 8b 27             	mov    (%r15),%r12
  4105ee:	4d 85 e4             	test   %r12,%r12
  4105f1:	0f 85 f5 fc ff ff    	jne    4102ec <__intel_new_feature_proc_init+0x3c>
  4105f7:	33 f6                	xor    %esi,%esi
  4105f9:	bf 01 00 00 00       	mov    $0x1,%edi
  4105fe:	33 d2                	xor    %edx,%edx
  410600:	33 c0                	xor    %eax,%eax
  410602:	e8 99 02 00 00       	callq  4108a0 <__libirc_print>
  410607:	bf 01 00 00 00       	mov    $0x1,%edi
  41060c:	be 3b 00 00 00       	mov    $0x3b,%esi
  410611:	33 d2                	xor    %edx,%edx
  410613:	33 c0                	xor    %eax,%eax
  410615:	e8 86 02 00 00       	callq  4108a0 <__libirc_print>
  41061a:	e9 d2 fe ff ff       	jmpq   4104f1 <__intel_new_feature_proc_init+0x241>
  41061f:	90                   	nop

0000000000410620 <__libirc_get_msg>:
  410620:	41 54                	push   %r12
  410622:	41 55                	push   %r13
  410624:	41 56                	push   %r14
  410626:	48 81 ec 50 01 00 00 	sub    $0x150,%rsp
  41062d:	48 89 54 24 10       	mov    %rdx,0x10(%rsp)
  410632:	48 89 4c 24 18       	mov    %rcx,0x18(%rsp)
  410637:	4c 89 44 24 20       	mov    %r8,0x20(%rsp)
  41063c:	4c 89 4c 24 28       	mov    %r9,0x28(%rsp)
  410641:	44 0f b6 d8          	movzbl %al,%r11d
  410645:	4a 8d 04 9d 00 00 00 	lea    0x0(,%r11,4),%rax
  41064c:	00 
  41064d:	4c 8d 1d 2e 00 00 00 	lea    0x2e(%rip),%r11        # 410682 <__libirc_get_msg+0x62>
  410654:	4c 2b d8             	sub    %rax,%r11
  410657:	48 8d 84 24 af 00 00 	lea    0xaf(%rsp),%rax
  41065e:	00 
  41065f:	41 ff e3             	jmpq   *%r11
  410662:	0f 29 78 f1          	movaps %xmm7,-0xf(%rax)
  410666:	0f 29 70 e1          	movaps %xmm6,-0x1f(%rax)
  41066a:	0f 29 68 d1          	movaps %xmm5,-0x2f(%rax)
  41066e:	0f 29 60 c1          	movaps %xmm4,-0x3f(%rax)
  410672:	0f 29 58 b1          	movaps %xmm3,-0x4f(%rax)
  410676:	0f 29 50 a1          	movaps %xmm2,-0x5f(%rax)
  41067a:	0f 29 48 91          	movaps %xmm1,-0x6f(%rax)
  41067e:	0f 29 40 81          	movaps %xmm0,-0x7f(%rax)
  410682:	41 89 fd             	mov    %edi,%r13d
  410685:	64 48 8b 04 25 28 00 	mov    %fs:0x28,%rax
  41068c:	00 00 
  41068e:	41 89 f6             	mov    %esi,%r14d
  410691:	48 33 c4             	xor    %rsp,%rax
  410694:	48 89 84 24 48 01 00 	mov    %rax,0x148(%rsp)
  41069b:	00 
  41069c:	45 85 ed             	test   %r13d,%r13d
  41069f:	0f 84 87 00 00 00    	je     41072c <__libirc_get_msg+0x10c>
  4106a5:	83 3d b4 2a 20 00 00 	cmpl   $0x0,0x202ab4(%rip)        # 613160 <first_msg>
  4106ac:	74 5b                	je     410709 <__libirc_get_msg+0xe9>
  4106ae:	48 8d 3d 7f 0c 00 00 	lea    0xc7f(%rip),%rdi        # 411334 <key.425.0.0.1+0x1c4>
  4106b5:	33 f6                	xor    %esi,%esi
  4106b7:	c7 05 9f 2a 20 00 00 	movl   $0x0,0x202a9f(%rip)        # 613160 <first_msg>
  4106be:	00 00 00 
  4106c1:	e8 aa 02 ff ff       	callq  400970 <catopen@plt>
  4106c6:	48 89 05 d3 2e 20 00 	mov    %rax,0x202ed3(%rip)        # 6135a0 <message_catalog>
  4106cd:	48 83 f8 ff          	cmp    $0xffffffffffffffff,%rax
  4106d1:	0f 84 0d 01 00 00    	je     4107e4 <__libirc_get_msg+0x1c4>
  4106d7:	48 8b 3d c2 2e 20 00 	mov    0x202ec2(%rip),%rdi        # 6135a0 <message_catalog>
  4106de:	c7 05 7c 2a 20 00 00 	movl   $0x0,0x202a7c(%rip)        # 613164 <use_internal_msg>
  4106e5:	00 00 00 
  4106e8:	49 63 c5             	movslq %r13d,%rax
  4106eb:	4c 8d 05 16 23 20 00 	lea    0x202316(%rip),%r8        # 612a08 <irc_msgtab+0x8>
  4106f2:	48 c1 e0 04          	shl    $0x4,%rax
  4106f6:	be 01 00 00 00       	mov    $0x1,%esi
  4106fb:	44 89 ea             	mov    %r13d,%edx
  4106fe:	4a 8b 0c 00          	mov    (%rax,%r8,1),%rcx
  410702:	e8 99 02 ff ff       	callq  4009a0 <catgets@plt>
  410707:	eb 2a                	jmp    410733 <__libirc_get_msg+0x113>
  410709:	8b 05 55 2a 20 00    	mov    0x202a55(%rip),%eax        # 613164 <use_internal_msg>
  41070f:	85 c0                	test   %eax,%eax
  410711:	0f 84 7d 01 00 00    	je     410894 <__libirc_get_msg+0x274>
  410717:	4d 63 ed             	movslq %r13d,%r13
  41071a:	48 8d 05 e7 22 20 00 	lea    0x2022e7(%rip),%rax        # 612a08 <irc_msgtab+0x8>
  410721:	49 c1 e5 04          	shl    $0x4,%r13
  410725:	49 8b 44 05 00       	mov    0x0(%r13,%rax,1),%rax
  41072a:	eb 07                	jmp    410733 <__libirc_get_msg+0x113>
  41072c:	48 8d 05 6d 0a 00 00 	lea    0xa6d(%rip),%rax        # 4111a0 <key.425.0.0.1+0x30>
  410733:	45 85 f6             	test   %r14d,%r14d
  410736:	0f 8e 80 00 00 00    	jle    4107bc <__libirc_get_msg+0x19c>
  41073c:	c7 84 24 b0 00 00 00 	movl   $0x10,0xb0(%rsp)
  410743:	10 00 00 00 
  410747:	48 8d 94 24 70 01 00 	lea    0x170(%rsp),%rdx
  41074e:	00 
  41074f:	c7 84 24 b4 00 00 00 	movl   $0x30,0xb4(%rsp)
  410756:	30 00 00 00 
  41075a:	48 8d 34 24          	lea    (%rsp),%rsi
  41075e:	48 89 96 b8 00 00 00 	mov    %rdx,0xb8(%rsi)
  410765:	48 89 b6 c0 00 00 00 	mov    %rsi,0xc0(%rsi)
  41076c:	48 8d 3d 2d 2a 20 00 	lea    0x202a2d(%rip),%rdi        # 6131a0 <get_msg_buf>
  410773:	be 01 00 00 00       	mov    $0x1,%esi
  410778:	ba 00 02 00 00       	mov    $0x200,%edx
  41077d:	48 89 c1             	mov    %rax,%rcx
  410780:	4c 8d 84 24 b0 00 00 	lea    0xb0(%rsp),%r8
  410787:	00 
  410788:	e8 73 02 ff ff       	callq  400a00 <__vsprintf_chk@plt>
  41078d:	48 8b 84 24 48 01 00 	mov    0x148(%rsp),%rax
  410794:	00 
  410795:	48 33 c4             	xor    %rsp,%rax
  410798:	64 48 3b 04 25 28 00 	cmp    %fs:0x28,%rax
  41079f:	00 00 
  4107a1:	0f 85 e8 00 00 00    	jne    41088f <__libirc_get_msg+0x26f>
  4107a7:	48 8d 05 f2 29 20 00 	lea    0x2029f2(%rip),%rax        # 6131a0 <get_msg_buf>
  4107ae:	48 81 c4 50 01 00 00 	add    $0x150,%rsp
  4107b5:	41 5e                	pop    %r14
  4107b7:	41 5d                	pop    %r13
  4107b9:	41 5c                	pop    %r12
  4107bb:	c3                   	retq   
  4107bc:	48 8b 94 24 48 01 00 	mov    0x148(%rsp),%rdx
  4107c3:	00 
  4107c4:	48 33 d4             	xor    %rsp,%rdx
  4107c7:	64 48 3b 14 25 28 00 	cmp    %fs:0x28,%rdx
  4107ce:	00 00 
  4107d0:	0f 85 b9 00 00 00    	jne    41088f <__libirc_get_msg+0x26f>
  4107d6:	48 81 c4 50 01 00 00 	add    $0x150,%rsp
  4107dd:	41 5e                	pop    %r14
  4107df:	41 5d                	pop    %r13
  4107e1:	41 5c                	pop    %r12
  4107e3:	c3                   	retq   
  4107e4:	48 8d 3d ed 10 00 00 	lea    0x10ed(%rip),%rdi        # 4118d8 <key.425.0.0.1+0x768>
  4107eb:	e8 00 01 ff ff       	callq  4008f0 <getenv@plt>
  4107f0:	48 85 c0             	test   %rax,%rax
  4107f3:	0f 84 80 00 00 00    	je     410879 <__libirc_get_msg+0x259>
  4107f9:	48 89 c6             	mov    %rax,%rsi
  4107fc:	48 8d bc 24 c8 00 00 	lea    0xc8(%rsp),%rdi
  410803:	00 
  410804:	ba 80 00 00 00       	mov    $0x80,%edx
  410809:	e8 f2 00 ff ff       	callq  400900 <strncpy@plt>
  41080e:	be 2e 00 00 00       	mov    $0x2e,%esi
  410813:	48 8d bc 24 c8 00 00 	lea    0xc8(%rsp),%rdi
  41081a:	00 
  41081b:	e8 20 01 ff ff       	callq  400940 <strchr@plt>
  410820:	49 89 c4             	mov    %rax,%r12
  410823:	4d 85 e4             	test   %r12,%r12
  410826:	74 51                	je     410879 <__libirc_get_msg+0x259>
  410828:	48 8d 3d a9 10 00 00 	lea    0x10a9(%rip),%rdi        # 4118d8 <key.425.0.0.1+0x768>
  41082f:	48 8d b4 24 c8 00 00 	lea    0xc8(%rsp),%rsi
  410836:	00 
  410837:	ba 01 00 00 00       	mov    $0x1,%edx
  41083c:	41 c6 04 24 00       	movb   $0x0,(%r12)
  410841:	e8 ca 00 ff ff       	callq  400910 <setenv@plt>
  410846:	48 8d 3d e7 0a 00 00 	lea    0xae7(%rip),%rdi        # 411334 <key.425.0.0.1+0x1c4>
  41084d:	33 f6                	xor    %esi,%esi
  41084f:	e8 1c 01 ff ff       	callq  400970 <catopen@plt>
  410854:	48 8d 3d 7d 10 00 00 	lea    0x107d(%rip),%rdi        # 4118d8 <key.425.0.0.1+0x768>
  41085b:	48 8d b4 24 c8 00 00 	lea    0xc8(%rsp),%rsi
  410862:	00 
  410863:	ba 01 00 00 00       	mov    $0x1,%edx
  410868:	48 89 05 31 2d 20 00 	mov    %rax,0x202d31(%rip)        # 6135a0 <message_catalog>
  41086f:	41 c6 04 24 2e       	movb   $0x2e,(%r12)
  410874:	e8 97 00 ff ff       	callq  400910 <setenv@plt>
  410879:	48 8b 3d 20 2d 20 00 	mov    0x202d20(%rip),%rdi        # 6135a0 <message_catalog>
  410880:	48 83 ff ff          	cmp    $0xffffffffffffffff,%rdi
  410884:	0f 85 54 fe ff ff    	jne    4106de <__libirc_get_msg+0xbe>
  41088a:	e9 7a fe ff ff       	jmpq   410709 <__libirc_get_msg+0xe9>
  41088f:	e8 9c 00 ff ff       	callq  400930 <__stack_chk_fail@plt>
  410894:	48 8b 3d 05 2d 20 00 	mov    0x202d05(%rip),%rdi        # 6135a0 <message_catalog>
  41089b:	e9 48 fe ff ff       	jmpq   4106e8 <__libirc_get_msg+0xc8>

00000000004108a0 <__libirc_print>:
  4108a0:	41 56                	push   %r14
  4108a2:	41 57                	push   %r15
  4108a4:	53                   	push   %rbx
  4108a5:	55                   	push   %rbp
  4108a6:	48 81 ec 58 01 00 00 	sub    $0x158,%rsp
  4108ad:	48 89 4c 24 18       	mov    %rcx,0x18(%rsp)
  4108b2:	4c 89 44 24 20       	mov    %r8,0x20(%rsp)
  4108b7:	4c 89 4c 24 28       	mov    %r9,0x28(%rsp)
  4108bc:	44 0f b6 d8          	movzbl %al,%r11d
  4108c0:	4a 8d 04 9d 00 00 00 	lea    0x0(,%r11,4),%rax
  4108c7:	00 
  4108c8:	4c 8d 1d 2e 00 00 00 	lea    0x2e(%rip),%r11        # 4108fd <__libirc_print+0x5d>
  4108cf:	4c 2b d8             	sub    %rax,%r11
  4108d2:	48 8d 84 24 af 00 00 	lea    0xaf(%rsp),%rax
  4108d9:	00 
  4108da:	41 ff e3             	jmpq   *%r11
  4108dd:	0f 29 78 f1          	movaps %xmm7,-0xf(%rax)
  4108e1:	0f 29 70 e1          	movaps %xmm6,-0x1f(%rax)
  4108e5:	0f 29 68 d1          	movaps %xmm5,-0x2f(%rax)
  4108e9:	0f 29 60 c1          	movaps %xmm4,-0x3f(%rax)
  4108ed:	0f 29 58 b1          	movaps %xmm3,-0x4f(%rax)
  4108f1:	0f 29 50 a1          	movaps %xmm2,-0x5f(%rax)
  4108f5:	0f 29 48 91          	movaps %xmm1,-0x6f(%rax)
  4108f9:	0f 29 40 81          	movaps %xmm0,-0x7f(%rax)
  4108fd:	41 89 f6             	mov    %esi,%r14d
  410900:	64 48 8b 04 25 28 00 	mov    %fs:0x28,%rax
  410907:	00 00 
  410909:	41 89 d7             	mov    %edx,%r15d
  41090c:	48 33 c4             	xor    %rsp,%rax
  41090f:	89 fd                	mov    %edi,%ebp
  410911:	48 89 84 24 48 01 00 	mov    %rax,0x148(%rsp)
  410918:	00 
  410919:	45 85 f6             	test   %r14d,%r14d
  41091c:	75 44                	jne    410962 <__libirc_print+0xc2>
  41091e:	83 fd 01             	cmp    $0x1,%ebp
  410921:	0f 84 72 01 00 00    	je     410a99 <__libirc_print+0x1f9>
  410927:	bf 01 00 00 00       	mov    $0x1,%edi
  41092c:	48 8d 35 0d 0a 00 00 	lea    0xa0d(%rip),%rsi        # 411340 <key.425.0.0.1+0x1d0>
  410933:	33 c0                	xor    %eax,%eax
  410935:	e8 46 00 ff ff       	callq  400980 <__printf_chk@plt>
  41093a:	48 8b 84 24 48 01 00 	mov    0x148(%rsp),%rax
  410941:	00 
  410942:	48 33 c4             	xor    %rsp,%rax
  410945:	64 48 3b 04 25 28 00 	cmp    %fs:0x28,%rax
  41094c:	00 00 
  41094e:	0f 85 40 01 00 00    	jne    410a94 <__libirc_print+0x1f4>
  410954:	48 81 c4 58 01 00 00 	add    $0x158,%rsp
  41095b:	5d                   	pop    %rbp
  41095c:	5b                   	pop    %rbx
  41095d:	41 5f                	pop    %r15
  41095f:	41 5e                	pop    %r14
  410961:	c3                   	retq   
  410962:	83 3d f7 27 20 00 00 	cmpl   $0x0,0x2027f7(%rip)        # 613160 <first_msg>
  410969:	74 3c                	je     4109a7 <__libirc_print+0x107>
  41096b:	48 8d 3d c2 09 00 00 	lea    0x9c2(%rip),%rdi        # 411334 <key.425.0.0.1+0x1c4>
  410972:	33 f6                	xor    %esi,%esi
  410974:	c7 05 e2 27 20 00 00 	movl   $0x0,0x2027e2(%rip)        # 613160 <first_msg>
  41097b:	00 00 00 
  41097e:	e8 ed ff fe ff       	callq  400970 <catopen@plt>
  410983:	48 89 05 16 2c 20 00 	mov    %rax,0x202c16(%rip)        # 6135a0 <message_catalog>
  41098a:	48 83 f8 ff          	cmp    $0xffffffffffffffff,%rax
  41098e:	0f 84 27 01 00 00    	je     410abb <__libirc_print+0x21b>
  410994:	48 8b 3d 05 2c 20 00 	mov    0x202c05(%rip),%rdi        # 6135a0 <message_catalog>
  41099b:	c7 05 bf 27 20 00 00 	movl   $0x0,0x2027bf(%rip)        # 613164 <use_internal_msg>
  4109a2:	00 00 00 
  4109a5:	eb 22                	jmp    4109c9 <__libirc_print+0x129>
  4109a7:	8b 05 b7 27 20 00    	mov    0x2027b7(%rip),%eax        # 613164 <use_internal_msg>
  4109ad:	85 c0                	test   %eax,%eax
  4109af:	0f 84 dd 01 00 00    	je     410b92 <__libirc_print+0x2f2>
  4109b5:	4d 63 f6             	movslq %r14d,%r14
  4109b8:	48 8d 05 49 20 20 00 	lea    0x202049(%rip),%rax        # 612a08 <irc_msgtab+0x8>
  4109bf:	49 c1 e6 04          	shl    $0x4,%r14
  4109c3:	49 8b 0c 06          	mov    (%r14,%rax,1),%rcx
  4109c7:	eb 22                	jmp    4109eb <__libirc_print+0x14b>
  4109c9:	49 63 c6             	movslq %r14d,%rax
  4109cc:	48 8d 1d 35 20 20 00 	lea    0x202035(%rip),%rbx        # 612a08 <irc_msgtab+0x8>
  4109d3:	48 c1 e0 04          	shl    $0x4,%rax
  4109d7:	be 01 00 00 00       	mov    $0x1,%esi
  4109dc:	44 89 f2             	mov    %r14d,%edx
  4109df:	48 8b 0c 18          	mov    (%rax,%rbx,1),%rcx
  4109e3:	e8 b8 ff fe ff       	callq  4009a0 <catgets@plt>
  4109e8:	48 89 c1             	mov    %rax,%rcx
  4109eb:	45 85 ff             	test   %r15d,%r15d
  4109ee:	7e 55                	jle    410a45 <__libirc_print+0x1a5>
  4109f0:	c7 84 24 b0 00 00 00 	movl   $0x18,0xb0(%rsp)
  4109f7:	18 00 00 00 
  4109fb:	48 8d 84 24 80 01 00 	lea    0x180(%rsp),%rax
  410a02:	00 
  410a03:	c7 84 24 b4 00 00 00 	movl   $0x30,0xb4(%rsp)
  410a0a:	30 00 00 00 
  410a0e:	48 8d 1c 24          	lea    (%rsp),%rbx
  410a12:	48 89 83 b8 00 00 00 	mov    %rax,0xb8(%rbx)
  410a19:	48 89 9b c0 00 00 00 	mov    %rbx,0xc0(%rbx)
  410a20:	48 8d 3d 79 29 20 00 	lea    0x202979(%rip),%rdi        # 6133a0 <print_buf>
  410a27:	be 01 00 00 00       	mov    $0x1,%esi
  410a2c:	ba 00 02 00 00       	mov    $0x200,%edx
  410a31:	4c 8d 84 24 b0 00 00 	lea    0xb0(%rsp),%r8
  410a38:	00 
  410a39:	e8 c2 ff fe ff       	callq  400a00 <__vsprintf_chk@plt>
  410a3e:	48 8d 0d 5b 29 20 00 	lea    0x20295b(%rip),%rcx        # 6133a0 <print_buf>
  410a45:	83 fd 01             	cmp    $0x1,%ebp
  410a48:	0f 84 10 01 00 00    	je     410b5e <__libirc_print+0x2be>
  410a4e:	bf 01 00 00 00       	mov    $0x1,%edi
  410a53:	48 89 ce             	mov    %rcx,%rsi
  410a56:	33 c0                	xor    %eax,%eax
  410a58:	e8 23 ff fe ff       	callq  400980 <__printf_chk@plt>
  410a5d:	bf 01 00 00 00       	mov    $0x1,%edi
  410a62:	48 8d 35 d7 08 00 00 	lea    0x8d7(%rip),%rsi        # 411340 <key.425.0.0.1+0x1d0>
  410a69:	33 c0                	xor    %eax,%eax
  410a6b:	e8 10 ff fe ff       	callq  400980 <__printf_chk@plt>
  410a70:	48 8b 84 24 48 01 00 	mov    0x148(%rsp),%rax
  410a77:	00 
  410a78:	48 33 c4             	xor    %rsp,%rax
  410a7b:	64 48 3b 04 25 28 00 	cmp    %fs:0x28,%rax
  410a82:	00 00 
  410a84:	75 0e                	jne    410a94 <__libirc_print+0x1f4>
  410a86:	48 81 c4 58 01 00 00 	add    $0x158,%rsp
  410a8d:	5d                   	pop    %rbp
  410a8e:	5b                   	pop    %rbx
  410a8f:	41 5f                	pop    %r15
  410a91:	41 5e                	pop    %r14
  410a93:	c3                   	retq   
  410a94:	e8 97 fe fe ff       	callq  400930 <__stack_chk_fail@plt>
  410a99:	48 8b 05 48 25 20 00 	mov    0x202548(%rip),%rax        # 612fe8 <_DYNAMIC+0x208>
  410aa0:	be 01 00 00 00       	mov    $0x1,%esi
  410aa5:	48 8d 15 94 08 00 00 	lea    0x894(%rip),%rdx        # 411340 <key.425.0.0.1+0x1d0>
  410aac:	48 8b 38             	mov    (%rax),%rdi
  410aaf:	33 c0                	xor    %eax,%eax
  410ab1:	e8 1a ff fe ff       	callq  4009d0 <__fprintf_chk@plt>
  410ab6:	e9 7f fe ff ff       	jmpq   41093a <__libirc_print+0x9a>
  410abb:	48 8d 3d 16 0e 00 00 	lea    0xe16(%rip),%rdi        # 4118d8 <key.425.0.0.1+0x768>
  410ac2:	e8 29 fe fe ff       	callq  4008f0 <getenv@plt>
  410ac7:	48 85 c0             	test   %rax,%rax
  410aca:	74 7c                	je     410b48 <__libirc_print+0x2a8>
  410acc:	48 89 c6             	mov    %rax,%rsi
  410acf:	48 8d bc 24 c8 00 00 	lea    0xc8(%rsp),%rdi
  410ad6:	00 
  410ad7:	ba 80 00 00 00       	mov    $0x80,%edx
  410adc:	e8 1f fe fe ff       	callq  400900 <strncpy@plt>
  410ae1:	be 2e 00 00 00       	mov    $0x2e,%esi
  410ae6:	48 8d bc 24 c8 00 00 	lea    0xc8(%rsp),%rdi
  410aed:	00 
  410aee:	e8 4d fe fe ff       	callq  400940 <strchr@plt>
  410af3:	48 89 c3             	mov    %rax,%rbx
  410af6:	48 85 db             	test   %rbx,%rbx
  410af9:	74 4d                	je     410b48 <__libirc_print+0x2a8>
  410afb:	48 8d 3d d6 0d 00 00 	lea    0xdd6(%rip),%rdi        # 4118d8 <key.425.0.0.1+0x768>
  410b02:	48 8d b4 24 c8 00 00 	lea    0xc8(%rsp),%rsi
  410b09:	00 
  410b0a:	ba 01 00 00 00       	mov    $0x1,%edx
  410b0f:	c6 03 00             	movb   $0x0,(%rbx)
  410b12:	e8 f9 fd fe ff       	callq  400910 <setenv@plt>
  410b17:	48 8d 3d 16 08 00 00 	lea    0x816(%rip),%rdi        # 411334 <key.425.0.0.1+0x1c4>
  410b1e:	33 f6                	xor    %esi,%esi
  410b20:	e8 4b fe fe ff       	callq  400970 <catopen@plt>
  410b25:	48 8d 3d ac 0d 00 00 	lea    0xdac(%rip),%rdi        # 4118d8 <key.425.0.0.1+0x768>
  410b2c:	48 8d b4 24 c8 00 00 	lea    0xc8(%rsp),%rsi
  410b33:	00 
  410b34:	ba 01 00 00 00       	mov    $0x1,%edx
  410b39:	48 89 05 60 2a 20 00 	mov    %rax,0x202a60(%rip)        # 6135a0 <message_catalog>
  410b40:	c6 03 2e             	movb   $0x2e,(%rbx)
  410b43:	e8 c8 fd fe ff       	callq  400910 <setenv@plt>
  410b48:	48 8b 3d 51 2a 20 00 	mov    0x202a51(%rip),%rdi        # 6135a0 <message_catalog>
  410b4f:	48 83 ff ff          	cmp    $0xffffffffffffffff,%rdi
  410b53:	0f 85 42 fe ff ff    	jne    41099b <__libirc_print+0xfb>
  410b59:	e9 49 fe ff ff       	jmpq   4109a7 <__libirc_print+0x107>
  410b5e:	48 8b 1d 83 24 20 00 	mov    0x202483(%rip),%rbx        # 612fe8 <_DYNAMIC+0x208>
  410b65:	be 01 00 00 00       	mov    $0x1,%esi
  410b6a:	48 89 ca             	mov    %rcx,%rdx
  410b6d:	33 c0                	xor    %eax,%eax
  410b6f:	48 8b 3b             	mov    (%rbx),%rdi
  410b72:	e8 59 fe fe ff       	callq  4009d0 <__fprintf_chk@plt>
  410b77:	be 01 00 00 00       	mov    $0x1,%esi
  410b7c:	48 8d 15 bd 07 00 00 	lea    0x7bd(%rip),%rdx        # 411340 <key.425.0.0.1+0x1d0>
  410b83:	33 c0                	xor    %eax,%eax
  410b85:	48 8b 3b             	mov    (%rbx),%rdi
  410b88:	e8 43 fe fe ff       	callq  4009d0 <__fprintf_chk@plt>
  410b8d:	e9 de fe ff ff       	jmpq   410a70 <__libirc_print+0x1d0>
  410b92:	48 8b 3d 07 2a 20 00 	mov    0x202a07(%rip),%rdi        # 6135a0 <message_catalog>
  410b99:	e9 2b fe ff ff       	jmpq   4109c9 <__libirc_print+0x129>
  410b9e:	66 90                	xchg   %ax,%ax

0000000000410ba0 <__intel_cpu_features_init_x>:
  410ba0:	50                   	push   %rax
  410ba1:	33 c0                	xor    %eax,%eax
  410ba3:	e8 18 00 00 00       	callq  410bc0 <__intel_cpu_features_init_body>
  410ba8:	58                   	pop    %rax
  410ba9:	c3                   	retq   
  410baa:	66 0f 1f 44 00 00    	nopw   0x0(%rax,%rax,1)

0000000000410bb0 <__intel_cpu_features_init>:
  410bb0:	50                   	push   %rax
  410bb1:	b8 01 00 00 00       	mov    $0x1,%eax
  410bb6:	e8 05 00 00 00       	callq  410bc0 <__intel_cpu_features_init_body>
  410bbb:	58                   	pop    %rax
  410bbc:	c3                   	retq   
  410bbd:	0f 1f 00             	nopl   (%rax)

0000000000410bc0 <__intel_cpu_features_init_body>:
  410bc0:	52                   	push   %rdx
  410bc1:	51                   	push   %rcx
  410bc2:	53                   	push   %rbx
  410bc3:	56                   	push   %rsi
  410bc4:	57                   	push   %rdi
  410bc5:	41 50                	push   %r8
  410bc7:	41 56                	push   %r14
  410bc9:	41 57                	push   %r15
  410bcb:	55                   	push   %rbp
  410bcc:	41 89 c7             	mov    %eax,%r15d
  410bcf:	33 c0                	xor    %eax,%eax
  410bd1:	0f a2                	cpuid  
  410bd3:	89 44 24 f0          	mov    %eax,-0x10(%rsp)
  410bd7:	89 5c 24 f4          	mov    %ebx,-0xc(%rsp)
  410bdb:	89 4c 24 f8          	mov    %ecx,-0x8(%rsp)
  410bdf:	89 54 24 fc          	mov    %edx,-0x4(%rsp)
  410be3:	83 7c 24 f0 00       	cmpl   $0x0,-0x10(%rsp)
  410be8:	0f 84 b2 03 00 00    	je     410fa0 <__intel_cpu_features_init_body+0x3e0>
  410bee:	41 83 ff 01          	cmp    $0x1,%r15d
  410bf2:	0f 84 c0 03 00 00    	je     410fb8 <__intel_cpu_features_init_body+0x3f8>
  410bf8:	b8 01 00 00 00       	mov    $0x1,%eax
  410bfd:	0f a2                	cpuid  
  410bff:	89 d5                	mov    %edx,%ebp
  410c01:	89 d7                	mov    %edx,%edi
  410c03:	81 e5 00 80 00 00    	and    $0x8000,%ebp
  410c09:	83 e7 01             	and    $0x1,%edi
  410c0c:	89 ce                	mov    %ecx,%esi
  410c0e:	41 89 c6             	mov    %eax,%r14d
  410c11:	48 c1 ed 0d          	shr    $0xd,%rbp
  410c15:	f7 c2 00 00 80 00    	test   $0x800000,%edx
  410c1b:	48 8d 7c 7d 01       	lea    0x1(%rbp,%rdi,2),%rdi
  410c20:	4c 8d 47 08          	lea    0x8(%rdi),%r8
  410c24:	49 0f 45 f8          	cmovne %r8,%rdi
  410c28:	f7 c2 00 00 00 01    	test   $0x1000000,%edx
  410c2e:	75 28                	jne    410c58 <__intel_cpu_features_init_body+0x98>
  410c30:	41 89 f0             	mov    %esi,%r8d
  410c33:	41 81 e0 00 00 00 40 	and    $0x40000000,%r8d
  410c3a:	b8 07 00 00 00       	mov    $0x7,%eax
  410c3f:	33 c9                	xor    %ecx,%ecx
  410c41:	0f a2                	cpuid  
  410c43:	49 c1 e8 0d          	shr    $0xd,%r8
  410c47:	41 89 d3             	mov    %edx,%r11d
  410c4a:	49 03 f8             	add    %r8,%rdi
  410c4d:	41 89 ca             	mov    %ecx,%r10d
  410c50:	41 89 d8             	mov    %ebx,%r8d
  410c53:	e9 e6 00 00 00       	jmpq   410d3e <__intel_cpu_features_init_body+0x17e>
  410c58:	41 89 f2             	mov    %esi,%r10d
  410c5b:	48 8d 6f 10          	lea    0x10(%rdi),%rbp
  410c5f:	48 83 c7 30          	add    $0x30,%rdi
  410c63:	f7 c2 00 00 00 02    	test   $0x2000000,%edx
  410c69:	89 f0                	mov    %esi,%eax
  410c6b:	48 0f 45 ef          	cmovne %rdi,%rbp
  410c6f:	81 e2 00 00 00 04    	and    $0x4000000,%edx
  410c75:	41 81 e2 00 02 00 00 	and    $0x200,%r10d
  410c7c:	89 f7                	mov    %esi,%edi
  410c7e:	48 c1 ea 14          	shr    $0x14,%rdx
  410c82:	81 e7 00 00 08 00    	and    $0x80000,%edi
  410c88:	48 0b ea             	or     %rdx,%rbp
  410c8b:	25 00 00 00 02       	and    $0x2000000,%eax
  410c90:	49 89 e8             	mov    %rbp,%r8
  410c93:	49 81 c8 80 00 00 00 	or     $0x80,%r8
  410c9a:	f7 c6 01 00 00 00    	test   $0x1,%esi
  410ca0:	49 0f 45 e8          	cmovne %r8,%rbp
  410ca4:	49 d1 ea             	shr    %r10
  410ca7:	49 0b ea             	or     %r10,%rbp
  410caa:	41 89 f2             	mov    %esi,%r10d
  410cad:	49 89 eb             	mov    %rbp,%r11
  410cb0:	41 81 e2 00 00 80 00 	and    $0x800000,%r10d
  410cb7:	49 81 cb 00 08 00 00 	or     $0x800,%r11
  410cbe:	f7 c6 00 00 40 00    	test   $0x400000,%esi
  410cc4:	49 0f 45 eb          	cmovne %r11,%rbp
  410cc8:	48 c1 ef 0a          	shr    $0xa,%rdi
  410ccc:	48 0b ef             	or     %rdi,%rbp
  410ccf:	89 f7                	mov    %esi,%edi
  410cd1:	49 89 e8             	mov    %rbp,%r8
  410cd4:	81 e7 00 00 00 40    	and    $0x40000000,%edi
  410cda:	49 81 c8 00 04 00 00 	or     $0x400,%r8
  410ce1:	f7 c6 00 00 10 00    	test   $0x100000,%esi
  410ce7:	49 0f 45 e8          	cmovne %r8,%rbp
  410ceb:	49 c1 ea 0b          	shr    $0xb,%r10
  410cef:	49 0b ea             	or     %r10,%rbp
  410cf2:	49 89 eb             	mov    %rbp,%r11
  410cf5:	49 81 cb 00 20 00 00 	or     $0x2000,%r11
  410cfc:	f7 c6 02 00 00 00    	test   $0x2,%esi
  410d02:	49 0f 45 eb          	cmovne %r11,%rbp
  410d06:	48 c1 e8 0b          	shr    $0xb,%rax
  410d0a:	48 0b e8             	or     %rax,%rbp
  410d0d:	b8 07 00 00 00       	mov    $0x7,%eax
  410d12:	33 c9                	xor    %ecx,%ecx
  410d14:	0f a2                	cpuid  
  410d16:	41 89 d3             	mov    %edx,%r11d
  410d19:	41 89 d8             	mov    %ebx,%r8d
  410d1c:	48 ba 00 00 00 00 08 	movabs $0x800000000,%rdx
  410d23:	00 00 00 
  410d26:	41 89 ca             	mov    %ecx,%r10d
  410d29:	48 0b d5             	or     %rbp,%rdx
  410d2c:	41 f7 c0 00 00 00 20 	test   $0x20000000,%r8d
  410d33:	48 0f 45 ea          	cmovne %rdx,%rbp
  410d37:	48 c1 ef 0d          	shr    $0xd,%rdi
  410d3b:	48 0b fd             	or     %rbp,%rdi
  410d3e:	44 89 c5             	mov    %r8d,%ebp
  410d41:	48 89 f8             	mov    %rdi,%rax
  410d44:	81 e5 08 01 00 00    	and    $0x108,%ebp
  410d4a:	48 0d 00 00 08 00    	or     $0x80000,%rax
  410d50:	81 fd 08 01 00 00    	cmp    $0x108,%ebp
  410d56:	44 89 c5             	mov    %r8d,%ebp
  410d59:	48 0f 44 f8          	cmove  %rax,%rdi
  410d5d:	81 e5 00 00 04 00    	and    $0x40000,%ebp
  410d63:	b8 01 00 00 80       	mov    $0x80000001,%eax
  410d68:	0f a2                	cpuid  
  410d6a:	48 c1 e5 0b          	shl    $0xb,%rbp
  410d6e:	83 e1 20             	and    $0x20,%ecx
  410d71:	44 89 c2             	mov    %r8d,%edx
  410d74:	81 e2 00 08 00 00    	and    $0x800,%edx
  410d7a:	48 c1 e1 0f          	shl    $0xf,%rcx
  410d7e:	48 0b f9             	or     %rcx,%rdi
  410d81:	48 89 f8             	mov    %rdi,%rax
  410d84:	48 0d 00 00 20 00    	or     $0x200000,%rax
  410d8a:	41 f7 c0 10 00 00 00 	test   $0x10,%r8d
  410d91:	48 0f 45 f8          	cmovne %rax,%rdi
  410d95:	48 c1 e2 0b          	shl    $0xb,%rdx
  410d99:	48 0b fa             	or     %rdx,%rdi
  410d9c:	48 89 fb             	mov    %rdi,%rbx
  410d9f:	48 81 cb 00 00 00 10 	or     $0x10000000,%rbx
  410da6:	41 f7 c0 00 00 08 00 	test   $0x80000,%r8d
  410dad:	48 0f 45 fb          	cmovne %rbx,%rdi
  410db1:	48 0b fd             	or     %rbp,%rdi
  410db4:	f7 c6 00 00 00 08    	test   $0x8000000,%esi
  410dba:	0f 84 81 01 00 00    	je     410f41 <__intel_cpu_features_init_body+0x381>
  410dc0:	33 c9                	xor    %ecx,%ecx
  410dc2:	0f 01 d0             	xgetbv 
  410dc5:	48 83 cf 01          	or     $0x1,%rdi
  410dc9:	89 c2                	mov    %eax,%edx
  410dcb:	83 e2 06             	and    $0x6,%edx
  410dce:	83 fa 06             	cmp    $0x6,%edx
  410dd1:	0f 85 6a 01 00 00    	jne    410f41 <__intel_cpu_features_init_body+0x381>
  410dd7:	48 89 fa             	mov    %rdi,%rdx
  410dda:	89 f1                	mov    %esi,%ecx
  410ddc:	48 81 ca 00 00 01 00 	or     $0x10000,%rdx
  410de3:	f7 c6 00 00 00 10    	test   $0x10000000,%esi
  410de9:	89 c5                	mov    %eax,%ebp
  410deb:	48 0f 45 fa          	cmovne %rdx,%rdi
  410def:	81 e1 00 00 00 20    	and    $0x20000000,%ecx
  410df5:	81 e6 00 10 00 00    	and    $0x1000,%esi
  410dfb:	83 e5 18             	and    $0x18,%ebp
  410dfe:	48 c1 e9 0e          	shr    $0xe,%rcx
  410e02:	48 0b f9             	or     %rcx,%rdi
  410e05:	48 89 fb             	mov    %rdi,%rbx
  410e08:	48 81 cb 00 00 80 00 	or     $0x800000,%rbx
  410e0f:	41 f7 c0 20 00 00 00 	test   $0x20,%r8d
  410e16:	48 0f 45 fb          	cmovne %rbx,%rdi
  410e1a:	48 c1 e6 06          	shl    $0x6,%rsi
  410e1e:	48 0b fe             	or     %rsi,%rdi
  410e21:	83 fd 18             	cmp    $0x18,%ebp
  410e24:	75 1c                	jne    410e42 <__intel_cpu_features_init_body+0x282>
  410e26:	48 83 cf 01          	or     $0x1,%rdi
  410e2a:	48 ba 00 00 00 00 10 	movabs $0x1000000000,%rdx
  410e31:	00 00 00 
  410e34:	48 0b d7             	or     %rdi,%rdx
  410e37:	41 f7 c0 00 40 00 00 	test   $0x4000,%r8d
  410e3e:	48 0f 45 fa          	cmovne %rdx,%rdi
  410e42:	25 e0 00 00 00       	and    $0xe0,%eax
  410e47:	3d e0 00 00 00       	cmp    $0xe0,%eax
  410e4c:	0f 85 ef 00 00 00    	jne    410f41 <__intel_cpu_features_init_body+0x381>
  410e52:	48 83 cf 01          	or     $0x1,%rdi
  410e56:	44 89 c2             	mov    %r8d,%edx
  410e59:	48 89 f8             	mov    %rdi,%rax
  410e5c:	81 e2 00 00 00 10    	and    $0x10000000,%edx
  410e62:	48 0d 00 00 00 08    	or     $0x8000000,%rax
  410e68:	41 f7 c0 00 00 01 00 	test   $0x10000,%r8d
  410e6f:	44 89 c1             	mov    %r8d,%ecx
  410e72:	44 89 c5             	mov    %r8d,%ebp
  410e75:	48 0f 45 f8          	cmovne %rax,%rdi
  410e79:	81 e1 00 00 00 04    	and    $0x4000000,%ecx
  410e7f:	48 c1 e2 06          	shl    $0x6,%rdx
  410e83:	81 e5 00 00 00 40    	and    $0x40000000,%ebp
  410e89:	48 0b d7             	or     %rdi,%rdx
  410e8c:	48 bf 00 00 00 00 01 	movabs $0x100000000,%rdi
  410e93:	00 00 00 
  410e96:	48 0b fa             	or     %rdx,%rdi
  410e99:	41 f7 c0 00 00 00 08 	test   $0x8000000,%r8d
  410ea0:	44 89 c6             	mov    %r8d,%esi
  410ea3:	48 0f 45 d7          	cmovne %rdi,%rdx
  410ea7:	48 bf 00 00 00 00 40 	movabs $0x4000000000,%rdi
  410eae:	00 00 00 
  410eb1:	48 c1 e1 07          	shl    $0x7,%rcx
  410eb5:	81 e6 00 00 00 80    	and    $0x80000000,%esi
  410ebb:	48 0b ca             	or     %rdx,%rcx
  410ebe:	48 89 cb             	mov    %rcx,%rbx
  410ec1:	48 81 cb 00 00 00 01 	or     $0x1000000,%rbx
  410ec8:	41 f7 c0 00 00 02 00 	test   $0x20000,%r8d
  410ecf:	48 0f 45 cb          	cmovne %rbx,%rcx
  410ed3:	41 81 e0 00 00 20 00 	and    $0x200000,%r8d
  410eda:	48 c1 e5 07          	shl    $0x7,%rbp
  410ede:	48 0b e9             	or     %rcx,%rbp
  410ee1:	48 0b fd             	or     %rbp,%rdi
  410ee4:	81 fe 00 00 00 80    	cmp    $0x80000000,%esi
  410eea:	48 0f 44 ef          	cmove  %rdi,%rbp
  410eee:	48 bf 00 00 00 00 80 	movabs $0x8000000000,%rdi
  410ef5:	00 00 00 
  410ef8:	49 c1 e0 09          	shl    $0x9,%r8
  410efc:	49 0b e8             	or     %r8,%rbp
  410eff:	48 0b fd             	or     %rbp,%rdi
  410f02:	41 f7 c2 02 00 00 00 	test   $0x2,%r10d
  410f09:	48 0f 45 ef          	cmovne %rdi,%rbp
  410f0d:	41 81 e2 00 40 00 00 	and    $0x4000,%r10d
  410f14:	49 c1 e2 1c          	shl    $0x1c,%r10
  410f18:	4c 0b d5             	or     %rbp,%r10
  410f1b:	48 bd 00 00 00 00 00 	movabs $0x20000000000,%rbp
  410f22:	02 00 00 
  410f25:	49 0b ea             	or     %r10,%rbp
  410f28:	41 f7 c3 04 00 00 00 	test   $0x4,%r11d
  410f2f:	4c 0f 45 d5          	cmovne %rbp,%r10
  410f33:	41 83 e3 08          	and    $0x8,%r11d
  410f37:	44 89 df             	mov    %r11d,%edi
  410f3a:	48 c1 e7 25          	shl    $0x25,%rdi
  410f3e:	49 0b fa             	or     %r10,%rdi
  410f41:	44 89 f0             	mov    %r14d,%eax
  410f44:	c1 e8 0c             	shr    $0xc,%eax
  410f47:	41 c1 ee 04          	shr    $0x4,%r14d
  410f4b:	25 f0 00 00 00       	and    $0xf0,%eax
  410f50:	41 83 e6 0f          	and    $0xf,%r14d
  410f54:	41 03 c6             	add    %r14d,%eax
  410f57:	83 f8 1c             	cmp    $0x1c,%eax
  410f5a:	74 0a                	je     410f66 <__intel_cpu_features_init_body+0x3a6>
  410f5c:	83 f8 26             	cmp    $0x26,%eax
  410f5f:	74 05                	je     410f66 <__intel_cpu_features_init_body+0x3a6>
  410f61:	83 f8 27             	cmp    $0x27,%eax
  410f64:	75 05                	jne    410f6b <__intel_cpu_features_init_body+0x3ab>
  410f66:	48 0f ba ef 1f       	bts    $0x1f,%rdi
  410f6b:	41 83 ff 01          	cmp    $0x1,%r15d
  410f6f:	74 14                	je     410f85 <__intel_cpu_features_init_body+0x3c5>
  410f71:	48 89 3d 50 26 20 00 	mov    %rdi,0x202650(%rip)        # 6135c8 <__intel_cpu_feature_indicator_x>
  410f78:	5d                   	pop    %rbp
  410f79:	41 5f                	pop    %r15
  410f7b:	41 5e                	pop    %r14
  410f7d:	41 58                	pop    %r8
  410f7f:	5f                   	pop    %rdi
  410f80:	5e                   	pop    %rsi
  410f81:	5b                   	pop    %rbx
  410f82:	59                   	pop    %rcx
  410f83:	5a                   	pop    %rdx
  410f84:	c3                   	retq   
  410f85:	48 89 3d 34 26 20 00 	mov    %rdi,0x202634(%rip)        # 6135c0 <__intel_cpu_feature_indicator>
  410f8c:	48 89 3d 35 26 20 00 	mov    %rdi,0x202635(%rip)        # 6135c8 <__intel_cpu_feature_indicator_x>
  410f93:	5d                   	pop    %rbp
  410f94:	41 5f                	pop    %r15
  410f96:	41 5e                	pop    %r14
  410f98:	41 58                	pop    %r8
  410f9a:	5f                   	pop    %rdi
  410f9b:	5e                   	pop    %rsi
  410f9c:	5b                   	pop    %rbx
  410f9d:	59                   	pop    %rcx
  410f9e:	5a                   	pop    %rdx
  410f9f:	c3                   	retq   
  410fa0:	48 c7 05 15 26 20 00 	movq   $0x1,0x202615(%rip)        # 6135c0 <__intel_cpu_feature_indicator>
  410fa7:	01 00 00 00 
  410fab:	5d                   	pop    %rbp
  410fac:	41 5f                	pop    %r15
  410fae:	41 5e                	pop    %r14
  410fb0:	41 58                	pop    %r8
  410fb2:	5f                   	pop    %rdi
  410fb3:	5e                   	pop    %rsi
  410fb4:	5b                   	pop    %rbx
  410fb5:	59                   	pop    %rcx
  410fb6:	5a                   	pop    %rdx
  410fb7:	c3                   	retq   
  410fb8:	81 7c 24 f4 47 65 6e 	cmpl   $0x756e6547,-0xc(%rsp)
  410fbf:	75 
  410fc0:	75 de                	jne    410fa0 <__intel_cpu_features_init_body+0x3e0>
  410fc2:	81 7c 24 fc 69 6e 65 	cmpl   $0x49656e69,-0x4(%rsp)
  410fc9:	49 
  410fca:	75 d4                	jne    410fa0 <__intel_cpu_features_init_body+0x3e0>
  410fcc:	81 7c 24 f8 6e 74 65 	cmpl   $0x6c65746e,-0x8(%rsp)
  410fd3:	6c 
  410fd4:	75 ca                	jne    410fa0 <__intel_cpu_features_init_body+0x3e0>
  410fd6:	e9 1d fc ff ff       	jmpq   410bf8 <__intel_cpu_features_init_body+0x38>
  410fdb:	0f 1f 44 00 00       	nopl   0x0(%rax,%rax,1)

0000000000410fe0 <__intel_proc_init_ftzdazule>:
  410fe0:	48 81 ec 08 02 00 00 	sub    $0x208,%rsp
  410fe7:	89 f2                	mov    %esi,%edx
  410fe9:	89 f1                	mov    %esi,%ecx
  410feb:	83 e2 04             	and    $0x4,%edx
  410fee:	83 e1 02             	and    $0x2,%ecx
  410ff1:	74 22                	je     411015 <__intel_proc_init_ftzdazule+0x35>
  410ff3:	f7 c7 02 00 00 00    	test   $0x2,%edi
  410ff9:	74 38                	je     411033 <__intel_proc_init_ftzdazule+0x53>
  410ffb:	85 d2                	test   %edx,%edx
  410ffd:	74 08                	je     411007 <__intel_proc_init_ftzdazule+0x27>
  410fff:	f7 c7 04 00 00 00    	test   $0x4,%edi
  411005:	74 2c                	je     411033 <__intel_proc_init_ftzdazule+0x53>
  411007:	f7 c6 01 00 00 00    	test   $0x1,%esi
  41100d:	0f 85 a6 00 00 00    	jne    4110b9 <__intel_proc_init_ftzdazule+0xd9>
  411013:	eb 64                	jmp    411079 <__intel_proc_init_ftzdazule+0x99>
  411015:	85 d2                	test   %edx,%edx
  411017:	0f 84 8c 00 00 00    	je     4110a9 <__intel_proc_init_ftzdazule+0xc9>
  41101d:	f7 c7 04 00 00 00    	test   $0x4,%edi
  411023:	74 0e                	je     411033 <__intel_proc_init_ftzdazule+0x53>
  411025:	f7 c6 01 00 00 00    	test   $0x1,%esi
  41102b:	0f 85 88 00 00 00    	jne    4110b9 <__intel_proc_init_ftzdazule+0xd9>
  411031:	eb 5b                	jmp    41108e <__intel_proc_init_ftzdazule+0xae>
  411033:	b8 00 02 00 00       	mov    $0x200,%eax
  411038:	66 0f ef c0          	pxor   %xmm0,%xmm0
  41103c:	0f 11 44 04 f0       	movups %xmm0,-0x10(%rsp,%rax,1)
  411041:	0f 11 44 04 e0       	movups %xmm0,-0x20(%rsp,%rax,1)
  411046:	0f 11 44 04 d0       	movups %xmm0,-0x30(%rsp,%rax,1)
  41104b:	0f 11 44 04 c0       	movups %xmm0,-0x40(%rsp,%rax,1)
  411050:	48 83 e8 40          	sub    $0x40,%rax
  411054:	75 e6                	jne    41103c <__intel_proc_init_ftzdazule+0x5c>
  411056:	0f ae 04 24          	fxsave (%rsp)
  41105a:	33 ff                	xor    %edi,%edi
  41105c:	8b 44 24 1c          	mov    0x1c(%rsp),%eax
  411060:	a8 40                	test   $0x40,%al
  411062:	0f 44 cf             	cmove  %edi,%ecx
  411065:	a9 00 00 02 00       	test   $0x20000,%eax
  41106a:	0f 44 d7             	cmove  %edi,%edx
  41106d:	f7 c6 01 00 00 00    	test   $0x1,%esi
  411073:	75 44                	jne    4110b9 <__intel_proc_init_ftzdazule+0xd9>
  411075:	85 c9                	test   %ecx,%ecx
  411077:	74 11                	je     41108a <__intel_proc_init_ftzdazule+0xaa>
  411079:	0f ae 1c 24          	stmxcsr (%rsp)
  41107d:	8b 04 24             	mov    (%rsp),%eax
  411080:	83 c8 40             	or     $0x40,%eax
  411083:	89 04 24             	mov    %eax,(%rsp)
  411086:	0f ae 14 24          	ldmxcsr (%rsp)
  41108a:	85 d2                	test   %edx,%edx
  41108c:	74 23                	je     4110b1 <__intel_proc_init_ftzdazule+0xd1>
  41108e:	0f ae 1c 24          	stmxcsr (%rsp)
  411092:	8b 04 24             	mov    (%rsp),%eax
  411095:	0d 00 00 02 00       	or     $0x20000,%eax
  41109a:	89 04 24             	mov    %eax,(%rsp)
  41109d:	0f ae 14 24          	ldmxcsr (%rsp)
  4110a1:	48 81 c4 08 02 00 00 	add    $0x208,%rsp
  4110a8:	c3                   	retq   
  4110a9:	f7 c6 01 00 00 00    	test   $0x1,%esi
  4110af:	75 08                	jne    4110b9 <__intel_proc_init_ftzdazule+0xd9>
  4110b1:	48 81 c4 08 02 00 00 	add    $0x208,%rsp
  4110b8:	c3                   	retq   
  4110b9:	0f ae 1c 24          	stmxcsr (%rsp)
  4110bd:	8b 04 24             	mov    (%rsp),%eax
  4110c0:	0d 00 80 00 00       	or     $0x8000,%eax
  4110c5:	89 04 24             	mov    %eax,(%rsp)
  4110c8:	0f ae 14 24          	ldmxcsr (%rsp)
  4110cc:	eb a7                	jmp    411075 <__intel_proc_init_ftzdazule+0x95>
  4110ce:	66 90                	xchg   %ax,%ax

00000000004110d0 <__libc_csu_init>:
  4110d0:	41 57                	push   %r15
  4110d2:	41 89 ff             	mov    %edi,%r15d
  4110d5:	41 56                	push   %r14
  4110d7:	49 89 f6             	mov    %rsi,%r14
  4110da:	41 55                	push   %r13
  4110dc:	49 89 d5             	mov    %rdx,%r13
  4110df:	41 54                	push   %r12
  4110e1:	4c 8d 25 40 17 20 00 	lea    0x201740(%rip),%r12        # 612828 <__frame_dummy_init_array_entry>
  4110e8:	55                   	push   %rbp
  4110e9:	48 8d 2d 40 17 20 00 	lea    0x201740(%rip),%rbp        # 612830 <__init_array_end>
  4110f0:	53                   	push   %rbx
  4110f1:	4c 29 e5             	sub    %r12,%rbp
  4110f4:	31 db                	xor    %ebx,%ebx
  4110f6:	48 c1 fd 03          	sar    $0x3,%rbp
  4110fa:	48 83 ec 08          	sub    $0x8,%rsp
  4110fe:	e8 b5 f7 fe ff       	callq  4008b8 <_init>
  411103:	48 85 ed             	test   %rbp,%rbp
  411106:	74 1e                	je     411126 <__libc_csu_init+0x56>
  411108:	0f 1f 84 00 00 00 00 	nopl   0x0(%rax,%rax,1)
  41110f:	00 
  411110:	4c 89 ea             	mov    %r13,%rdx
  411113:	4c 89 f6             	mov    %r14,%rsi
  411116:	44 89 ff             	mov    %r15d,%edi
  411119:	41 ff 14 dc          	callq  *(%r12,%rbx,8)
  41111d:	48 83 c3 01          	add    $0x1,%rbx
  411121:	48 39 eb             	cmp    %rbp,%rbx
  411124:	75 ea                	jne    411110 <__libc_csu_init+0x40>
  411126:	48 83 c4 08          	add    $0x8,%rsp
  41112a:	5b                   	pop    %rbx
  41112b:	5d                   	pop    %rbp
  41112c:	41 5c                	pop    %r12
  41112e:	41 5d                	pop    %r13
  411130:	41 5e                	pop    %r14
  411132:	41 5f                	pop    %r15
  411134:	c3                   	retq   
  411135:	90                   	nop
  411136:	66 2e 0f 1f 84 00 00 	nopw   %cs:0x0(%rax,%rax,1)
  41113d:	00 00 00 

0000000000411140 <__libc_csu_fini>:
  411140:	f3 c3                	repz retq 

Disassembly of section .fini:

0000000000411144 <_fini>:
  411144:	48 83 ec 08          	sub    $0x8,%rsp
  411148:	48 83 c4 08          	add    $0x8,%rsp
  41114c:	c3                   	retq   
